
c:/NXP/bstudio_nxp/workspace2/JN-AN-1190-JenNet-IP-Application-Template/Binary/0x11121112s_DeviceTemplate_DR1174_Coordinator_JN5168_DEBUG.elf:     file format elf32-ba


Disassembly of section .vsr_handlers:

00080050 <_exception_external_interrupt>:
   80050:	30 21 0d                	b.addi     r1,r1,-0x50
   80053:	2c 61 30                	b.sw       0xc(r1),r3
   80056:	2d 41 14                	b.sw       0x28(r1),r10
   80059:	a8 60 04 00 00 00       	b.mfspr    r3,r0,0x20
   8005f:	2c 61 12                	b.sw       0x48(r1),r3
   80062:	a8 60 02 00 00 00       	b.mfspr    r3,r0,0x40
   80068:	2c 61 22                	b.sw       0x44(r1),r3
   8006b:	a8 60 08 12 00 00       	b.mfspr    r3,r0,0x4810
   80071:	2c 61 32                	b.sw       0x4c(r1),r3
   80074:	a8 60 88 12 00 00       	b.mfspr    r3,r0,0x4811
   8007a:	a8 60 08 12 00 01       	b.mtspr    r0,r3,0x4810
   80080:	a9 40 c8 12 00 00       	b.mfspr    r10,r0,0x4813
   80086:	04 01                   	b.ei       
   80088:	2c 41 10                	b.sw       0x8(r1),r2
   8008b:	2c 81 08                	b.sw       0x10(r1),r4
   8008e:	2c a1 28                	b.sw       0x14(r1),r5
   80091:	2c c1 18                	b.sw       0x18(r1),r6
   80094:	2c e1 38                	b.sw       0x1c(r1),r7
   80097:	2d 01 04                	b.sw       0x20(r1),r8
   8009a:	2d 21 24                	b.sw       0x24(r1),r9
   8009d:	d2 94 00 40             	b.beq      r10,r0,800bd <_exception_external_interrupt+0x6d>
   800a1:	3e 0a 24                	b.ff1      r4,r10
   800a4:	61 4a 27                	b.srl      r10,r10,r4
   800a7:	61 4a 26                	b.sll      r10,r10,r4
   800aa:	00 9f                   	b.addi     r4,r4,-0x1
   800ac:	6c e4 40                	b.slli     r7,r4,0x2
   800af:	8c e7 4d 70 00 20       	b.lwz      r7,0x4000eb0(r7)
   800b5:	60 60 09                	b.or       r3,r0,r1
   800b8:	47 d1 38                	b.jalr     r7
   800bb:	0d 1f                   	b.j        8009d <_exception_external_interrupt+0x4d>
   800bd:	2c 41 50                	b.lwz      r2,0x8(r1)
   800c0:	2c 61 70                	b.lwz      r3,0xc(r1)
   800c3:	2c a1 68                	b.lwz      r5,0x14(r1)
   800c6:	2c c1 58                	b.lwz      r6,0x18(r1)
   800c9:	2c e1 78                	b.lwz      r7,0x1c(r1)
   800cc:	2d 01 44                	b.lwz      r8,0x20(r1)
   800cf:	2d 21 64                	b.lwz      r9,0x24(r1)
   800d2:	2d 41 54                	b.lwz      r10,0x28(r1)
   800d5:	04 02                   	b.di       
   800d7:	2c 81 62                	b.lwz      r4,0x44(r1)
   800da:	a8 80 02 00 00 01       	b.mtspr    r0,r4,0x40
   800e0:	2c 81 52                	b.lwz      r4,0x48(r1)
   800e3:	a8 80 04 00 00 01       	b.mtspr    r0,r4,0x20
   800e9:	2c 81 72                	b.lwz      r4,0x4c(r1)
   800ec:	a8 80 08 12 00 01       	b.mtspr    r0,r4,0x4810
   800f2:	2c 81 48                	b.lwz      r4,0x10(r1)
   800f5:	30 21 0a                	b.addi     r1,r1,0x50

000800f8 <_default_vsr_dummy>:
   800f8:	04 00                   	b.rfe      

Disassembly of section .text:

0008068c <Device_vMain>:
   8068c:	47 ae b8                	b.entri    0x7,0x1d
   8068f:	80 00 04 10 00 20       	b.sb       0x4000820(r0),r0
   80695:	46 c4 b0                	b.j        813b8 <Device_vMain+0xd2c>
   80698:	98 e0 1f ed 00 00       	b.ori      r7,r0,0xb7f8
   8069e:	cc f0 2d 01             	b.sw       -0x7f4c(r16),r7
   806a2:	84 e0 30 e0 00 20       	b.lbz      r7,0x400070c(r0)
   806a8:	41 87 38                	b.bnei     r7,0x1,806c4 <Device_vMain+0x38>
   806ab:	00 ef                   	b.movi     r7,-0x1
   806ad:	98 80 3e 60 00 20       	b.ori      r4,r0,0x400067c
   806b3:	00 68                   	b.movi     r3,0x1
   806b5:	80 00 30 e0 00 20       	b.sb       0x400070c(r0),r0
   806bb:	88 e0 3d e0 00 20       	b.sh       0x40007bc(r0),r7
   806c1:	4a c5 30                	b.jal      8394e <vApi_SetNwkKey>
   806c4:	84 e0 58 10 00 20       	b.lbz      r7,0x400081a(r0)
   806ca:	3e 07 38                	b.extbz    r7,r7
   806cd:	40 07 90                	b.beqi     r7,0x0,806d6 <Device_vMain+0x4a>
   806d0:	80 00 58 10 00 20       	b.sb       0x400081a(r0),r0
   806d6:	84 e0 98 10 00 20       	b.lbz      r7,0x4000819(r0)
   806dc:	3e 07 38                	b.extbz    r7,r7
   806df:	d0 00 77 78             	b.beqi     r7,0x0,808cd <Device_vMain+0x241>
   806e3:	8c 60 45 a0 00 20       	b.lwz      r3,0x40005a0(r0)
   806e9:	38 80 78                	b.ori      r4,r0,0x1e
   806ec:	80 00 98 10 00 20       	b.sb       0x4000819(r0),r0
   806f2:	49 5e 2a                	b.jal      958dc <__umodsi3>
   806f5:	41 03 ea                	b.bnei     r3,0x0,8074c <Device_vMain+0xc0>
   806f8:	84 e0 29 e0 00 20       	b.lbz      r7,0x4000794(r0)
   806fe:	40 07 72                	b.beqi     r7,0x0,8074c <Device_vMain+0xc0>
   80701:	84 e0 d7 60 00 20       	b.lbz      r7,0x40006eb(r0)
   80707:	41 87 a2                	b.bnei     r7,0x1,8074c <Device_vMain+0xc0>
   8070a:	38 e0 c8                	b.ori      r7,r0,0x13
   8070d:	98 80 0f e0 00 20       	b.ori      r4,r0,0x40007f0
   80713:	38 a0 10                	b.ori      r5,r0,0x8
   80716:	30 61 b8                	b.addi     r3,r1,0x1d
   80719:	20 e1 38                	b.sb       0x1c(r1),r7
   8071c:	38 e0 04                	b.ori      r7,r0,0x20
   8071f:	20 e1 58                	b.sb       0x1a(r1),r7
   80722:	d4 5c 9f ef             	b.jal      5c <memcpy>
   80726:	8c e0 77 e0 00 20       	b.lwz      r7,0x40007ec(r0)
   8072c:	8c 60 7f e0 00 20       	b.lwz      r3,0x40007fc(r0)
   80732:	24 e7 c0                	b.lbz      r7,0x3(r7)
   80735:	d8 63 19 80             	b.addi     r3,r3,0x198
   80739:	30 c1 58                	b.addi     r6,r1,0x1a
   8073c:	00 84                   	b.movi     r4,0x2
   8073e:	20 e1 a4                	b.sb       0x25(r1),r7
   80741:	38 e0 68                	b.ori      r7,r0,0x16
   80744:	00 a0                   	b.movi     r5,0x0
   80746:	20 01 64                	b.sb       0x26(r1),r0
   80749:	4a 85 c4                	b.jal      895ce <eNwk_TransmitPacketVect>
   8074c:	8c c0 5f c0 00 20       	b.lwz      r6,0x40003f8(r0)
   80752:	0d 40                   	b.j        8075c <Device_vMain+0xd0>
   80754:	00 f3                   	b.addi     r7,r7,-0x4
   80756:	8c e0 3f c0 00 20       	b.sw       0x40003fc(r0),r7
   8075c:	8c e0 7f c0 00 20       	b.lwz      r7,0x40003fc(r0)
   80762:	2c a7 40                	b.lwz      r5,0x0(r7)
   80765:	9d 85 86 e9 40 00       	b.sfeqi    r5,0x29761
   8076b:	47 2e 00                	b.bf       80772 <Device_vMain+0xe6>
   8076e:	d3 ce 66 7f             	b.bgtu     r7,r6,80754 <Device_vMain+0xc8>
   80772:	8c e0 78 e0 00 20       	b.lwz      r7,0x400071c(r0)
   80778:	8d 40 45 a0 00 20       	b.lwz      r10,0x40005a0(r0)
   8077e:	2c c7 70                	b.lwz      r6,0xc(r7)
   80781:	40 06 58                	b.beqi     r6,0x0,8079b <Device_vMain+0x10f>
   80784:	d3 cc a8 80             	b.bgtu     r6,r10,80795 <Device_vMain+0x109>
   80788:	2c 07 30                	b.sw       0xc(r7),r0
   8078b:	00 68                   	b.movi     r3,0x1
   8078d:	28 07 60                	b.sh       0x6(r7),r0
   80790:	4b b3 62                	b.jal      922c7 <Node_vReset>
   80793:	0c 40                   	b.j        8079b <Device_vMain+0x10f>
   80795:	60 c6 55                	b.sub      r6,r6,r10
   80798:	28 c7 60                	b.sh       0x6(r7),r6
   8079b:	8c e0 78 e0 00 20       	b.lwz      r7,0x400071c(r0)
   807a1:	2c c7 50                	b.lwz      r6,0x8(r7)
   807a4:	40 06 d8                	b.beqi     r6,0x0,807bf <Device_vMain+0x133>
   807a7:	d3 cc a4 80             	b.bgtu     r6,r10,807b9 <Device_vMain+0x12d>
   807ab:	2c 07 10                	b.sw       0x8(r7),r0
   807ae:	28 07 20                	b.sh       0x4(r7),r0
   807b1:	49 ae 42                	b.jal      91187 <PDM_vSave>
   807b4:	49 82 08                	b.jal      848ba <vAHI_SwReset>
   807b7:	0c 40                   	b.j        807bf <Device_vMain+0x133>
   807b9:	61 46 55                	b.sub      r10,r6,r10
   807bc:	29 47 20                	b.sh       0x4(r7),r10
   807bf:	8d 40 58 e0 00 20       	b.lwz      r10,0x4000718(r0)
   807c5:	8c c0 45 a0 00 20       	b.lwz      r6,0x40005a0(r0)
   807cb:	2c ea 7c                	b.lwz      r7,0x3c(r10)
   807ce:	2c ca 3c                	b.sw       0x3c(r10),r6
   807d1:	60 e6 3d                	b.sub      r7,r6,r7
   807d4:	24 ca 4c                	b.lbz      r6,0x32(r10)
   807d7:	40 06 84                	b.beqi     r6,0x0,807f8 <Device_vMain+0x16c>
   807da:	8c a0 7d a0 00 20       	b.lwz      r5,0x40005bc(r0)
   807e0:	2c ca 6c                	b.lwz      r6,0x34(r10)
   807e3:	d3 8c 5a 80             	b.bgeu     r6,r5,807f8 <Device_vMain+0x16c>
   807e7:	60 c5 35                	b.sub      r6,r5,r6
   807ea:	9f 46 ff f0 00 00       	b.sfleui   r6,0xfff
   807f0:	47 21 00                	b.bf       807f8 <Device_vMain+0x16c>
   807f3:	00 c8                   	b.movi     r6,0x1
   807f5:	20 ca 0c                	b.sb       0x30(r10),r6
   807f8:	2c ca 74                	b.lwz      r6,0x2c(r10)
   807fb:	2c aa 5c                	b.lwz      r5,0x38(r10)
   807fe:	08 c7                   	b.add      r6,r6,r7
   80800:	2c ca 34                	b.sw       0x2c(r10),r6
   80803:	60 c6 2d                	b.sub      r6,r6,r5
   80806:	9f 46 08 70 00 00       	b.sfleui   r6,0xe10
   8080c:	47 28 80                	b.bf       8081d <Device_vMain+0x191>
   8080f:	00 c8                   	b.movi     r6,0x1
   80811:	20 ca 0c                	b.sb       0x30(r10),r6
   80814:	2c ca 42                	b.lwz      r6,0x40(r10)
   80817:	38 c6 80                	b.ori      r6,r6,0x1
   8081a:	2c ca 02                	b.sw       0x40(r10),r6
   8081d:	24 ca 8c                	b.lbz      r6,0x31(r10)
   80820:	40 06 b8                	b.beqi     r6,0x0,8083d <Device_vMain+0x1b1>
   80823:	2c 6a 44                	b.lwz      r3,0x20(r10)
   80826:	d8 80 08 70             	b.addi     r4,r0,0xe10
   8082a:	08 67                   	b.add      r3,r3,r7
   8082c:	2c 6a 04                	b.sw       0x20(r10),r3
   8082f:	4a d4 2a                	b.jal      958dc <__umodsi3>
   80832:	41 03 64                	b.bnei     r3,0x0,80858 <Device_vMain+0x1cc>
   80835:	2c ea 42                	b.lwz      r7,0x40(r10)
   80838:	38 e7 20                	b.ori      r7,r7,0x4
   8083b:	0d 60                   	b.j        80855 <Device_vMain+0x1c9>
   8083d:	2c 6a 64                	b.lwz      r3,0x24(r10)
   80840:	d8 80 08 70             	b.addi     r4,r0,0xe10
   80844:	08 67                   	b.add      r3,r3,r7
   80846:	2c 6a 24                	b.sw       0x24(r10),r3
   80849:	4b 24 2a                	b.jal      958dc <__umodsi3>
   8084c:	41 03 30                	b.bnei     r3,0x0,80858 <Device_vMain+0x1cc>
   8084f:	2c ea 42                	b.lwz      r7,0x40(r10)
   80852:	38 e7 10                	b.ori      r7,r7,0x8
   80855:	2c ea 02                	b.sw       0x40(r10),r7
   80858:	24 ea 0c                	b.lbz      r7,0x30(r10)
   8085b:	40 07 78                	b.beqi     r7,0x0,80879 <Device_vMain+0x1ed>
   8085e:	8c e0 7d a0 00 20       	b.lwz      r7,0x40005bc(r0)
   80864:	20 0a 0c                	b.sb       0x30(r10),r0
   80867:	30 6a 20                	b.addi     r3,r10,0x4
   8086a:	2c ea 14                	b.sw       0x28(r10),r7
   8086d:	2c ea 2c                	b.sw       0x34(r10),r7
   80870:	2c ea 74                	b.lwz      r7,0x2c(r10)
   80873:	2c ea 1c                	b.sw       0x38(r10),r7
   80876:	49 89 fc                	b.jal      906bc <PDM_vSaveRecord>
   80879:	8c e0 48 e0 00 20       	b.lwz      r7,0x4000710(r0)
   8087f:	8c c0 45 a0 00 20       	b.lwz      r6,0x40005a0(r0)
   80885:	40 07 12                	b.beqi     r7,0x0,808cd <Device_vMain+0x241>
   80888:	d3 ce 63 c0             	b.bgtu     r7,r6,808c4 <Device_vMain+0x238>
   8088c:	8c 00 08 e0 00 20       	b.sw       0x4000710(r0),r0
   80892:	88 00 33 60 00 20       	b.sh       0x40006cc(r0),r0
   80898:	8c 00 3a 60 00 20       	b.sw       0x400065c(r0),r0
   8089e:	8c 00 06 60 00 20       	b.sw       0x4000660(r0),r0
   808a4:	8c 00 26 60 00 20       	b.sw       0x4000664(r0),r0
   808aa:	8c 00 16 60 00 20       	b.sw       0x4000668(r0),r0
   808b0:	80 00 1a 60 00 20       	b.sb       0x4000658(r0),r0
   808b6:	88 00 5a 60 00 20       	b.sh       0x400065a(r0),r0
   808bc:	4b 4c 42                	b.jal      91187 <PDM_vSave>
   808bf:	4b 7f f0                	b.jal      848ba <vAHI_SwReset>
   808c2:	0f 40                   	b.j        808cd <Device_vMain+0x241>
   808c4:	60 e7 35                	b.sub      r7,r7,r6
   808c7:	88 e0 33 60 00 20       	b.sh       0x40006cc(r0),r7
   808cd:	84 e0 18 10 00 20       	b.lbz      r7,0x4000818(r0)
   808d3:	3e 07 38                	b.extbz    r7,r7
   808d6:	d0 00 7b 68             	b.beqi     r7,0x0,80a43 <Device_vMain+0x3b7>
   808da:	8c e0 6c e0 00 20       	b.lwz      r7,0x4000734(r0)
   808e0:	80 00 18 10 00 20       	b.sb       0x4000818(r0),r0
   808e6:	40 07 58                	b.beqi     r7,0x0,80900 <Device_vMain+0x274>
   808e9:	00 ff                   	b.addi     r7,r7,-0x1
   808eb:	8c e0 2c e0 00 20       	b.sw       0x4000734(r0),r7
   808f1:	41 07 f0                	b.bnei     r7,0x0,80900 <Device_vMain+0x274>
   808f4:	8c 00 3c e0 00 20       	b.sw       0x400073c(r0),r0
   808fa:	8c 00 1c e0 00 20       	b.sw       0x4000738(r0),r0
   80900:	8c a0 58 e0 00 20       	b.lwz      r5,0x4000718(r0)
   80906:	2c e5 42                	b.lwz      r7,0x40(r5)
   80909:	34 c7 f0                	b.andi     r6,r7,0xf
   8090c:	40 06 ca                	b.beqi     r6,0x0,8095f <Device_vMain+0x2d3>
   8090f:	8c c0 78 10 00 20       	b.lwz      r6,0x400081c(r0)
   80915:	2c 65 40                	b.lwz      r3,0x0(r5)
   80918:	41 46 e2                	b.bnei     r6,0x2,8095f <Device_vMain+0x2d3>
   8091b:	84 c0 29 e0 00 20       	b.lbz      r6,0x4000794(r0)
   80921:	40 06 7c                	b.beqi     r6,0x0,8095f <Device_vMain+0x2d3>
   80924:	34 c7 80                	b.andi     r6,r7,0x1
   80927:	41 06 38                	b.bnei     r6,0x0,80943 <Device_vMain+0x2b7>
   8092a:	34 c7 40                	b.andi     r6,r7,0x2
   8092d:	41 06 38                	b.bnei     r6,0x0,80949 <Device_vMain+0x2bd>
   80930:	34 c7 20                	b.andi     r6,r7,0x4
   80933:	41 06 38                	b.bnei     r6,0x0,8094f <Device_vMain+0x2c3>
   80936:	34 c7 10                	b.andi     r6,r7,0x8
   80939:	40 06 64                	b.beqi     r6,0x0,8095f <Device_vMain+0x2d3>
   8093c:	00 8c                   	b.movi     r4,0x3
   8093e:	38 c0 10                	b.ori      r6,r0,0x8
   80941:	0d 20                   	b.j        80953 <Device_vMain+0x2c7>
   80943:	00 80                   	b.movi     r4,0x0
   80945:	00 c8                   	b.movi     r6,0x1
   80947:	0c c0                   	b.j        80953 <Device_vMain+0x2c7>
   80949:	00 88                   	b.movi     r4,0x1
   8094b:	00 c4                   	b.movi     r6,0x2
   8094d:	0d 80                   	b.j        80953 <Device_vMain+0x2c7>
   8094f:	00 84                   	b.movi     r4,0x2
   80951:	00 c2                   	b.movi     r6,0x4
   80953:	60 c6 33                	b.nand     r6,r6,r6
   80956:	60 e6 38                	b.and      r7,r6,r7
   80959:	2c e5 02                	b.sw       0x40(r5),r7
   8095c:	48 89 b2                	b.jal      93fa0 <vJIP_NotifyChanged>
   8095f:	8d 40 79 a0 00 20       	b.lwz      r10,0x400059c(r0)
   80965:	2c 6a 64                	b.lwz      r3,0x24(r10)
   80968:	24 8a 34                	b.lbz      r4,0x2c(r10)
   8096b:	00 78                   	b.addi     r3,r3,0x1
   8096d:	2c 6a 24                	b.sw       0x24(r10),r3
   80970:	48 db ca                	b.jal      958dc <__umodsi3>
   80973:	d0 40 30 b0             	b.bnei     r3,0x0,80a43 <Device_vMain+0x3b7>
   80977:	24 ea 08                	b.lbz      r7,0x10(r10)
   8097a:	3c a7 fc                	b.sfgtui   r7,0x3f
   8097d:	47 26 30                	b.bf       80a43 <Device_vMain+0x3b7>
   80980:	24 ea 74                	b.lbz      r7,0x2e(r10)
   80983:	d2 28 70 30             	b.bleui    r7,0x5,80a43 <Device_vMain+0x3b7>
   80987:	98 80 9a a0 00 20       	b.ori      r4,r0,0x4000559
   8098d:	98 60 3f 00 10 00       	b.ori      r3,r0,0x800fc
   80993:	4a 41 58                	b.jal      8739c <dbg_vPrintfImplNoneVerbose>
   80996:	00 68                   	b.movi     r3,0x1
   80998:	48 e9 8c                	b.jal      8cff4 <Node_vDebugIndent.part.2.1794>
   8099b:	8c e0 79 a0 00 20       	b.lwz      r7,0x400059c(r0)
   809a1:	98 60 a8 80 10 00       	b.ori      r3,r0,0x80115
   809a7:	98 80 9a a0 00 20       	b.ori      r4,r0,0x4000559
   809ad:	24 a7 08                	b.lbz      r5,0x10(r7)
   809b0:	20 a7 f4                	b.sb       0x2f(r7),r5
   809b3:	4a 5e 58                	b.jal      8739c <dbg_vPrintfImplNoneVerbose>
   809b6:	8d 40 79 a0 00 20       	b.lwz      r10,0x400059c(r0)
   809bc:	00 ea                   	b.movi     r7,0x5
   809be:	20 ea 74                	b.sb       0x2e(r10),r7
   809c1:	0f 80                   	b.j        809c8 <Device_vMain+0x33c>
   809c3:	00 7f                   	b.addi     r3,r3,-0x1
   809c5:	20 6a 74                	b.sb       0x2e(r10),r3
   809c8:	24 6a 74                	b.lbz      r3,0x2e(r10)
   809cb:	a1 e8 38 45 00 00       	b.bgtui    r3,0x5,813ec <Device_vMain+0xd60>
   809d1:	24 ea f4                	b.lbz      r7,0x2f(r10)
   809d4:	64 e7 18                	b.sra      r7,r7,r3
   809d7:	34 e7 80                	b.andi     r7,r7,0x1
   809da:	40 07 97                	b.beqi     r7,0x0,809c3 <Device_vMain+0x337>
   809dd:	46 3f 90                	b.j        813d9 <Device_vMain+0xd4d>
   809e0:	00 e8                   	b.movi     r7,0x1
   809e2:	80 e0 1a a0 00 20       	b.sb       0x4000558(r0),r7
   809e8:	cc f0 40 09             	b.lwz      r7,-0x7000(r16)
   809ec:	98 e7 00 00 02 00       	b.ori      r7,r7,0x400000
   809f2:	cc f0 00 09             	b.sw       -0x7000(r16),r7
   809f6:	cc f0 60 09             	b.lwz      r7,-0x6ffc(r16)
   809fa:	6c e7 41                	b.srli     r7,r7,0x2
   809fd:	34 e7 80                	b.andi     r7,r7,0x1
   80a00:	40 07 6f                	b.beqi     r7,0x0,809f6 <Device_vMain+0x36a>
   80a03:	cc f0 40 f9             	b.lwz      r7,-0x6100(r16)
   80a07:	94 e7 7f ff c3 ff       	b.andi     r7,r7,0xffc3fffe
   80a0d:	98 e7 00 00 1c 00       	b.ori      r7,r7,0x380000
   80a13:	cc f0 00 f9             	b.sw       -0x6100(r16),r7
   80a17:	4b 20 f0                	b.jal      8462a <vAHI_AdcEnable.constprop.29>
   80a1a:	24 aa 74                	b.lbz      r5,0x2e(r10)
   80a1d:	98 60 bc 80 10 00       	b.ori      r3,r0,0x8013d
   80a23:	98 80 9a a0 00 20       	b.ori      r4,r0,0x4000559
   80a29:	4b 3a 58                	b.jal      8739c <dbg_vPrintfImplNoneVerbose>
   80a2c:	98 60 ca 80 10 00       	b.ori      r3,r0,0x80153
   80a32:	98 80 9a a0 00 20       	b.ori      r4,r0,0x4000559
   80a38:	48 9a 58                	b.jal      8739c <dbg_vPrintfImplNoneVerbose>
   80a3b:	00 68                   	b.movi     r3,0x1
   80a3d:	49 81 8c                	b.jal      8d043 <Node_vDebugOutdent.part.3.1797>
   80a40:	4b e5 f0                	b.jal      848df <vAHI_AdcStartSample>
   80a43:	8c e0 78 10 00 20       	b.lwz      r7,0x400081c(r0)
   80a49:	a0 50 77 a9 00 00       	b.bnei     r7,0x2,813a7 <Device_vMain+0xd1b>
   80a4f:	cd 90 64 29             	b.lwz      r12,-0x6bdc(r16)
   80a53:	8c c0 68 10 00 20       	b.lwz      r6,0x4000814(r0)
   80a59:	88 e0 e2 80 00 20       	b.lhz      r7,0x4000146(r0)
   80a5f:	60 cc 35                	b.sub      r6,r12,r6
   80a62:	a3 ce 6e 49 00 00       	b.bgtu     r7,r6,81389 <Device_vMain+0xcfd>
   80a68:	8d 80 28 10 00 20       	b.sw       0x4000814(r0),r12
   80a6e:	0f f0                   	b.j        80aad <Device_vMain+0x421>
   80a70:	84 c0 ac 10 00 20       	b.lbz      r6,0x4000835(r0)
   80a76:	8c e0 4c 10 00 20       	b.lwz      r7,0x4000830(r0)
   80a7c:	3e 06 30                	b.extbz    r6,r6
   80a7f:	6c c6 c0                	b.slli     r6,r6,0x3
   80a82:	08 c7                   	b.add      r6,r6,r7
   80a84:	2c e6 40                	b.lwz      r7,0x0(r6)
   80a87:	40 07 90                	b.beqi     r7,0x0,80a90 <Device_vMain+0x404>
   80a8a:	2c 66 60                	b.lwz      r3,0x4(r6)
   80a8d:	47 d1 38                	b.jalr     r7
   80a90:	84 e0 ac 10 00 20       	b.lbz      r7,0x4000835(r0)
   80a96:	84 c0 22 80 00 20       	b.lbz      r6,0x4000144(r0)
   80a9c:	00 f8                   	b.addi     r7,r7,0x1
   80a9e:	3e 07 38                	b.extbz    r7,r7
   80aa1:	3d e6 38                	b.sfgtu    r6,r7
   80aa4:	64 e7 02                	b.cmov     r7,r7,r0
   80aa7:	80 e0 ac 10 00 20       	b.sb       0x4000835(r0),r7
   80aad:	84 c0 ac 10 00 20       	b.lbz      r6,0x4000835(r0)
   80ab3:	84 e0 2c 10 00 20       	b.lbz      r7,0x4000834(r0)
   80ab9:	3e 06 30                	b.extbz    r6,r6
   80abc:	3e 07 38                	b.extbz    r7,r7
   80abf:	d2 cc 78 df             	b.bne      r6,r7,80a70 <Device_vMain+0x3e4>
   80ac3:	0f 28                   	b.j        80b16 <Device_vMain+0x48a>
   80ac5:	84 80 b4 10 00 20       	b.lbz      r4,0x400082d(r0)
   80acb:	8c e0 54 10 00 20       	b.lwz      r7,0x4000828(r0)
   80ad1:	3e 04 20                	b.extbz    r4,r4
   80ad4:	64 84 53                	b.mul      r4,r4,r10
   80ad7:	08 87                   	b.add      r4,r4,r7
   80ad9:	30 a4 10                	b.addi     r5,r4,0x8
   80adc:	24 e4 51                	b.lbz      r7,0x8a(r4)
   80adf:	24 c4 91                	b.lbz      r6,0x89(r4)
   80ae2:	80 e0 84 10 00 20       	b.sb       0x4000821(r0),r7
   80ae8:	24 64 11                	b.lbz      r3,0x88(r4)
   80aeb:	24 e4 d1                	b.lbz      r7,0x8b(r4)
   80aee:	80 e0 44 10 00 20       	b.sb       0x4000822(r0),r7
   80af4:	48 82 40                	b.jal      813f8 <v6LP_ProcessJenNetStackEvent>
   80af7:	84 e0 b4 10 00 20       	b.lbz      r7,0x400082d(r0)
   80afd:	84 c0 a2 80 00 20       	b.lbz      r6,0x4000145(r0)
   80b03:	00 f8                   	b.addi     r7,r7,0x1
   80b05:	3e 07 38                	b.extbz    r7,r7
   80b08:	3d e6 38                	b.sfgtu    r6,r7
   80b0b:	64 e7 02                	b.cmov     r7,r7,r0
   80b0e:	80 e0 b4 10 00 20       	b.sb       0x400082d(r0),r7
   80b14:	0e 80                   	b.j        80b19 <Device_vMain+0x48d>
   80b16:	39 40 31                	b.ori      r10,r0,0x8c
   80b19:	84 c0 b4 10 00 20       	b.lbz      r6,0x400082d(r0)
   80b1f:	84 e0 34 10 00 20       	b.lbz      r7,0x400082c(r0)
   80b25:	3e 06 30                	b.extbz    r6,r6
   80b28:	3e 07 38                	b.extbz    r7,r7
   80b2b:	d2 cc 75 9f             	b.bne      r6,r7,80ac5 <Device_vMain+0x439>
   80b2f:	30 61 20                	b.addi     r3,r1,0x4
   80b32:	4b ba a8                	b.jal      860a9 <vMicroIntEnableOnly.constprop.113>
   80b35:	8c e0 55 e0 00 20       	b.lwz      r7,0x40007a8(r0)
   80b3b:	40 07 44                	b.beqi     r7,0x0,80b5d <Device_vMain+0x4d1>
   80b3e:	8c c0 52 80 00 20       	b.lwz      r6,0x4000148(r0)
   80b44:	60 ec 3d                	b.sub      r7,r12,r7
   80b47:	d3 cc 76 80             	b.bgtu     r6,r7,80b5d <Device_vMain+0x4d1>
   80b4b:	8c 00 25 e0 00 20       	b.sw       0x40007a4(r0),r0
   80b51:	8c 00 05 e0 00 20       	b.sw       0x40007a0(r0),r0
   80b57:	8c 00 15 e0 00 20       	b.sw       0x40007a8(r0),r0
   80b5d:	8c e0 65 e0 00 20       	b.lwz      r7,0x40007a4(r0)
   80b63:	8c 60 79 e0 00 20       	b.lwz      r3,0x400079c(r0)
   80b69:	8d a0 59 e0 00 20       	b.lwz      r13,0x4000798(r0)
   80b6f:	60 e7 18                	b.and      r7,r7,r3
   80b72:	3c 2c 00                	b.sfnei    r12,0x0
   80b75:	8c e0 25 e0 00 20       	b.sw       0x40007a4(r0),r7
   80b7b:	98 80 25 e0 00 20       	b.ori      r4,r0,0x40007a4
   80b81:	30 a1 0c                	b.addi     r5,r1,0x30
   80b84:	01 c8                   	b.movi     r14,0x1
   80b86:	8c e0 45 e0 00 20       	b.lwz      r7,0x40007a0(r0)
   80b8c:	65 cc 72                	b.cmov     r14,r12,r14
   80b8f:	60 e7 68                	b.and      r7,r7,r13
   80b92:	01 68                   	b.movi     r11,0x1
   80b94:	8c e0 05 e0 00 20       	b.sw       0x40007a0(r0),r7
   80b9a:	4a 28 50                	b.jal      833eb <u8GetChangedButUnnotifiedGroups.17271>
   80b9d:	05 43                   	b.mov      r10,r3
   80b9f:	41 03 d8                	b.bnei     r3,0x0,80bba <Device_vMain+0x52e>
   80ba2:	98 80 05 e0 00 20       	b.ori      r4,r0,0x40007a0
   80ba8:	30 a1 0c                	b.addi     r5,r1,0x30
   80bab:	04 6d                   	b.mov      r3,r13
   80bad:	01 64                   	b.movi     r11,0x2
   80baf:	48 f0 50                	b.jal      833eb <u8GetChangedButUnnotifiedGroups.17271>
   80bb2:	3c 03 00                	b.sfeqi    r3,0x0
   80bb5:	65 6b 02                	b.cmov     r11,r11,r0
   80bb8:	05 43                   	b.mov      r10,r3
   80bba:	30 61 20                	b.addi     r3,r1,0x4
   80bbd:	4a b3 70                	b.jal      846f2 <vMicroIntRestoreState>
   80bc0:	40 4b 16                	b.beqi     r11,0x2,80c28 <Device_vMain+0x59c>
   80bc3:	00 e2                   	b.movi     r7,0x4
   80bc5:	3c 0b 00                	b.sfeqi    r11,0x0
   80bc8:	00 a6                   	b.movi     r5,0x6
   80bca:	64 a5 3a                	b.cmov     r5,r5,r7
   80bcd:	8c e0 40 10 00 20       	b.lwz      r7,0x4000800(r0)
   80bd3:	c8 c7 8a 80             	b.lhz      r6,0x150(r7)
   80bd7:	00 e8                   	b.movi     r7,0x1
   80bd9:	34 c6 80                	b.andi     r6,r6,0x1
   80bdc:	41 06 14                	b.bnei     r6,0x0,80c04 <Device_vMain+0x578>
   80bdf:	8c e0 55 70 00 20       	b.lwz      r7,0x4000ea8(r0)
   80be5:	30 61 0c                	b.addi     r3,r1,0x30
   80be8:	04 8a                   	b.mov      r4,r10
   80bea:	24 e7 12                	b.lbz      r7,0x48(r7)
   80bed:	41 87 48                	b.bnei     r7,0x1,80bff <Device_vMain+0x573>
   80bf0:	49 87 74                	b.jal      8c776 <bGenerateMLDv2.18199>
   80bf3:	30 61 0c                	b.addi     r3,r1,0x30
   80bf6:	04 8a                   	b.mov      r4,r10
   80bf8:	04 ab                   	b.mov      r5,r11
   80bfa:	4b bd a8                	b.jal      862f1 <v6LP_SocketGroupChangeAcked>
   80bfd:	0e 80                   	b.j        80c02 <Device_vMain+0x576>
   80bff:	49 16 24                	b.jal      89da1 <bGenerateJenNetGcastInfo.18209>
   80c02:	00 e0                   	b.movi     r7,0x0
   80c04:	2c 01 10                	b.sw       0x8(r1),r0
   80c07:	2c 01 30                	b.sw       0xc(r1),r0
   80c0a:	41 07 30                	b.bnei     r7,0x0,80c16 <Device_vMain+0x58a>
   80c0d:	8c e0 52 80 00 20       	b.lwz      r7,0x4000148(r0)
   80c13:	41 07 f0                	b.bnei     r7,0x0,80c22 <Device_vMain+0x596>
   80c16:	30 61 0c                	b.addi     r3,r1,0x30
   80c19:	04 8a                   	b.mov      r4,r10
   80c1b:	04 ab                   	b.mov      r5,r11
   80c1d:	48 ad a8                	b.jal      862f1 <v6LP_SocketGroupChangeAcked>
   80c20:	0c 40                   	b.j        80c28 <Device_vMain+0x59c>
   80c22:	8d c0 15 e0 00 20       	b.sw       0x40007a8(r0),r14
   80c28:	84 e0 10 10 00 20       	b.lbz      r7,0x4000808(r0)
   80c2e:	40 07 d8                	b.beqi     r7,0x0,80c49 <Device_vMain+0x5bd>
   80c31:	84 60 90 10 00 20       	b.lbz      r3,0x4000809(r0)
   80c37:	84 80 50 10 00 20       	b.lbz      r4,0x400080a(r0)
   80c3d:	4b 97 94                	b.jal      8b3e4 <bJnc_ResetStackVect>
   80c40:	41 83 90                	b.bnei     r3,0x1,80c49 <Device_vMain+0x5bd>
   80c43:	80 00 10 10 00 20       	b.sb       0x4000808(r0),r0
   80c49:	8c e0 60 10 00 20       	b.lwz      r7,0x4000804(r0)
   80c4f:	24 e7 00                	b.lbz      r7,0x0(r7)
   80c52:	d0 40 7c 94             	b.bnei     r7,0x0,80ee5 <Device_vMain+0x859>
   80c56:	99 a0 1f ed 00 00       	b.ori      r13,r0,0xb7f8
   80c5c:	01 68                   	b.movi     r11,0x1
   80c5e:	8d 40 7f e0 00 20       	b.lwz      r10,0x40007fc(r0)
   80c64:	84 c0 0a 00 00 20       	b.lbz      r6,0x4000050(r0)
   80c6a:	c4 ea 26 80             	b.lbz      r7,0x164(r10)
   80c6e:	d2 8c 75 00             	b.beq      r6,r7,80c78 <Device_vMain+0x5ec>
   80c72:	80 e0 0a 00 00 20       	b.sb       0x4000050(r0),r7
   80c78:	30 c7 ff                	b.addi     r6,r7,-0x1
   80c7b:	3e 06 30                	b.extbz    r6,r6
   80c7e:	3c a6 08                	b.sfgtui   r6,0x10
   80c81:	47 2b 24                	b.bf       80ece <Device_vMain+0x842>
   80c84:	6c c6 40                	b.slli     r6,r6,0x2
   80c87:	90 c6 29 30 10 00       	b.addi     r6,r6,0x80c94
   80c8d:	2c c6 40                	b.lwz      r6,0x0(r6)
   80c90:	47 d2 30                	b.jr       r6
   80c93:	00 00                   	b.trap     0x0
   80c95:	08 0c                   	b.add      r0,r0,r12
   80c97:	d8 00 08 0c             	b.addi     r0,r0,0x3010
   80c9b:	fd                      	.word 0xfd
   80c9c:	00 08                   	b.trap     0x1
   80c9e:	0d 62                   	b.j        80db8 <Device_vMain+0x72c>
   80ca0:	00 08                   	b.trap     0x1
   80ca2:	0d e8                   	b.j        80d00 <Device_vMain+0x674>
   80ca4:	00 08                   	b.trap     0x1
   80ca6:	0e 24                   	b.j        80d37 <Device_vMain+0x6ab>
   80ca8:	00 08                   	b.trap     0x1
   80caa:	0e 24                   	b.j        80d3b <Device_vMain+0x6af>
   80cac:	00 08                   	b.trap     0x1
   80cae:	0e 32                   	b.j        80ddf <Device_vMain+0x753>
   80cb0:	00 08                   	b.trap     0x1
   80cb2:	0e 32                   	b.j        80de3 <Device_vMain+0x757>
   80cb4:	00 08                   	b.trap     0x1
   80cb6:	0e 4a                   	b.j        80dff <Device_vMain+0x773>
   80cb8:	00 08                   	b.trap     0x1
   80cba:	0e 4f                   	b.j        80c83 <Device_vMain+0x5f7>
   80cbc:	00 08                   	b.trap     0x1
   80cbe:	0e 65                   	b.j        80b57 <Device_vMain+0x4cb>
   80cc0:	00 08                   	b.trap     0x1
   80cc2:	0e 7c                   	b.j        80dbb <Device_vMain+0x72f>
   80cc4:	00 08                   	b.trap     0x1
   80cc6:	0e ce                   	b.j        80e93 <Device_vMain+0x807>
   80cc8:	00 08                   	b.trap     0x1
   80cca:	0e ce                   	b.j        80e97 <Device_vMain+0x80b>
   80ccc:	00 08                   	b.trap     0x1
   80cce:	0e 9b                   	b.j        80c33 <Device_vMain+0x5a7>
   80cd0:	00 08                   	b.trap     0x1
   80cd2:	0d 0f                   	b.j        80c94 <Device_vMain+0x608>
   80cd4:	00 08                   	b.trap     0x1
   80cd6:	0d 46                   	b.j        80e60 <Device_vMain+0x7d4>
   80cd8:	00 68                   	b.movi     r3,0x1
   80cda:	4a 96 48                	b.jal      8567f <eJnc_StartScanVect>
   80cdd:	41 03 50                	b.bnei     r3,0x0,80ce7 <Device_vMain+0x65b>
   80ce0:	2c 0a 17                	b.sw       0xe8(r10),r0
   80ce3:	00 e4                   	b.movi     r7,0x2
   80ce5:	0f ea                   	b.j        80e44 <Device_vMain+0x7b8>
   80ce7:	8c e0 40 10 00 20       	b.lwz      r7,0x4000800(r0)
   80ced:	00 60                   	b.movi     r3,0x0
   80cef:	c4 e7 30 80             	b.lbz      r7,0x10c(r7)
   80cf3:	00 88                   	b.movi     r4,0x1
   80cf5:	3c a7 10                	b.sfgtui   r7,0x8
   80cf8:	47 2b b0                	b.bf       80dd5 <Device_vMain+0x749>
   80cfb:	0f 2e                   	b.j        80ece <Device_vMain+0x842>
   80cfd:	2c ea 57                	b.lwz      r7,0xe8(r10)
   80d00:	9f 47 34 80 00 00       	b.sfleui   r7,0x12c
   80d06:	47 21 38                	b.bf       80ece <Device_vMain+0x842>
   80d09:	c1 6a 26 80             	b.sb       0x164(r10),r11
   80d0d:	0e 0e                   	b.j        80ece <Device_vMain+0x842>
   80d0f:	84 60 57 e0 00 20       	b.lbz      r3,0x40007ea(r0)
   80d15:	48 ae a8                	b.jal      862e9 <vMiniMac_PLME_SetReq_Channel>
   80d18:	88 60 97 e0 00 20       	b.lhz      r3,0x40007e8(r0)
   80d1e:	48 d7 e8                	b.jal      86cca <vMiniMac_MLME_SetReq_PanId>
   80d21:	4a a5 82                	b.jal      913b6 <rand>
   80d24:	8c e0 77 e0 00 20       	b.lwz      r7,0x40007ec(r0)
   80d2a:	29 c7 90                	b.lhz      r14,0x8(r7)
   80d2d:	28 87 d0                	b.lhz      r4,0xa(r7)
   80d30:	60 84 75                	b.sub      r4,r4,r14
   80d33:	00 98                   	b.addi     r4,r4,0x1
   80d35:	4b aa ca                	b.jal      95a8c <__modsi3>
   80d38:	08 6e                   	b.add      r3,r3,r14
   80d3a:	38 e0 88                	b.ori      r7,r0,0x11
   80d3d:	c8 6a 05 80             	b.sh       0x1a0(r10),r3
   80d41:	2c 0a 17                	b.sw       0xe8(r10),r0
   80d44:	0c 02                   	b.j        80e44 <Device_vMain+0x7b8>
   80d46:	c8 ea 85 80             	b.lhz      r7,0x1a0(r10)
   80d4a:	2c ca 57                	b.lwz      r6,0xe8(r10)
   80d4d:	d3 8e 68 18             	b.bgeu     r7,r6,80ece <Device_vMain+0x842>
   80d51:	c8 6a ee 80             	b.lhz      r3,0x176(r10)
   80d55:	80 00 d7 e0 00 20       	b.sb       0x40007eb(r0),r0
   80d5b:	4b db e8                	b.jal      86cca <vMiniMac_MLME_SetReq_PanId>
   80d5e:	00 ec                   	b.movi     r7,0x3
   80d60:	0c 9c                   	b.j        80e44 <Device_vMain+0x7b8>
   80d62:	c4 ea a6 80             	b.lbz      r7,0x165(r10)
   80d66:	41 07 14                	b.bnei     r7,0x0,80d8e <Device_vMain+0x702>
   80d69:	8c e0 40 10 00 20       	b.lwz      r7,0x4000800(r0)
   80d6f:	c4 c7 58 80             	b.lbz      r6,0x11a(r7)
   80d73:	41 06 d8                	b.bnei     r6,0x0,80d8e <Device_vMain+0x702>
   80d76:	c1 67 58 80             	b.sb       0x11a(r7),r11
   80d7a:	98 a0 60 48 90 00       	b.ori      r5,r0,0x91206
   80d80:	8c e0 77 e0 00 20       	b.lwz      r7,0x40007ec(r0)
   80d86:	28 67 90                	b.lhz      r3,0x8(r7)
   80d89:	28 87 d0                	b.lhz      r4,0xa(r7)
   80d8c:	0f 5c                   	b.j        80e77 <Device_vMain+0x7eb>
   80d8e:	84 e0 d7 e0 00 20       	b.lbz      r7,0x40007eb(r0)
   80d94:	40 07 10                	b.beqi     r7,0x0,80d9c <Device_vMain+0x710>
   80d97:	38 e0 08                	b.ori      r7,r0,0x10
   80d9a:	0d 54                   	b.j        80e44 <Device_vMain+0x7b8>
   80d9c:	8c e0 40 10 00 20       	b.lwz      r7,0x4000800(r0)
   80da2:	c4 c7 08 80             	b.lbz      r6,0x110(r7)
   80da6:	40 06 84                	b.beqi     r6,0x0,80dc7 <Device_vMain+0x73b>
   80da9:	88 c0 bd e0 00 20       	b.lhz      r6,0x40007bc(r0)
   80daf:	9f 46 ff 00 00 00       	b.sfleui   r6,0xff
   80db5:	47 24 80                	b.bf       80dc7 <Device_vMain+0x73b>
   80db8:	84 c0 57 e0 00 20       	b.lbz      r6,0x40007ea(r0)
   80dbe:	40 06 90                	b.beqi     r6,0x0,80dc7 <Device_vMain+0x73b>
   80dc1:	81 60 d7 e0 00 20       	b.sb       0x40007eb(r0),r11
   80dc7:	c4 e7 30 80             	b.lbz      r7,0x10c(r7)
   80dcb:	00 60                   	b.movi     r3,0x0
   80dcd:	3c e7 10                	b.sfleui   r7,0x8
   80dd0:	47 25 00                	b.bf       80dda <Device_vMain+0x74e>
   80dd3:	00 8c                   	b.movi     r4,0x3
   80dd5:	4b c1 94                	b.jal      8b3e4 <bJnc_ResetStackVect>
   80dd8:	0d bc                   	b.j        80ece <Device_vMain+0x842>
   80dda:	4a 94 48                	b.jal      8567f <eJnc_StartScanVect>
   80ddd:	d0 40 38 f0             	b.bnei     r3,0x0,80ece <Device_vMain+0x842>
   80de1:	2c 0a 17                	b.sw       0xe8(r10),r0
   80de4:	00 e2                   	b.movi     r7,0x4
   80de6:	0d e8                   	b.j        80e44 <Device_vMain+0x7b8>
   80de8:	2c ea 57                	b.lwz      r7,0xe8(r10)
   80deb:	9f 47 34 80 00 00       	b.sfleui   r7,0x12c
   80df1:	47 2b b0                	b.bf       80ece <Device_vMain+0x842>
   80df4:	8c e0 40 10 00 20       	b.lwz      r7,0x4000800(r0)
   80dfa:	cc e7 74 80             	b.lwz      r7,0x12c(r7)
   80dfe:	40 07 a8                	b.beqi     r7,0x0,80e13 <Device_vMain+0x787>
   80e01:	00 60                   	b.movi     r3,0x0
   80e03:	00 80                   	b.movi     r4,0x0
   80e05:	00 a0                   	b.movi     r5,0x0
   80e07:	47 d1 38                	b.jalr     r7
   80e0a:	40 03 90                	b.beqi     r3,0x0,80e13 <Device_vMain+0x787>
   80e0d:	00 60                   	b.movi     r3,0x0
   80e0f:	00 80                   	b.movi     r4,0x0
   80e11:	0c 8f                   	b.j        80dd5 <Device_vMain+0x749>
   80e13:	4a 03 82                	b.jal      91514 <vJnc_ClearScanListVect>
   80e16:	8c e0 7f e0 00 20       	b.lwz      r7,0x40007fc(r0)
   80e1c:	00 cc                   	b.movi     r6,0x3
   80e1e:	c0 c7 26 80             	b.sb       0x164(r7),r6
   80e22:	0c d4                   	b.j        80ece <Device_vMain+0x842>
   80e24:	4b 59 2c                	b.jal      8e08f <bJnc_StartAssociateVect>
   80e27:	8c e0 7f e0 00 20       	b.lwz      r7,0x40007fc(r0)
   80e2d:	2c 07 17                	b.sw       0xe8(r7),r0
   80e30:	0d e4                   	b.j        80ece <Device_vMain+0x842>
   80e32:	2c ca 57                	b.lwz      r6,0xe8(r10)
   80e35:	3c e6 26                	b.sfleui   r6,0x64
   80e38:	47 26 90                	b.bf       80ece <Device_vMain+0x842>
   80e3b:	41 e7 e0                	b.bnei     r7,0x7,80e42 <Device_vMain+0x7b6>
   80e3e:	00 ea                   	b.movi     r7,0x5
   80e40:	0c 80                   	b.j        80e44 <Device_vMain+0x7b8>
   80e42:	00 e6                   	b.movi     r7,0x6
   80e44:	c0 ea 26 80             	b.sb       0x164(r10),r7
   80e48:	0d 84                   	b.j        80ece <Device_vMain+0x842>
   80e4a:	4a 88 24                	b.jal      89e8f <vStartCoordVect>
   80e4d:	0e 04                   	b.j        80ece <Device_vMain+0x842>
   80e4f:	48 08 24                	b.jal      89e8f <vStartCoordVect>
   80e52:	8c e0 7f e0 00 20       	b.lwz      r7,0x40007fc(r0)
   80e58:	00 68                   	b.movi     r3,0x1
   80e5a:	c8 87 9e 80             	b.lhz      r4,0x178(r7)
   80e5e:	00 a0                   	b.movi     r5,0x0
   80e60:	4b 09 cc                	b.jal      8dca3 <vNwk_RouteEstablishedVect>
   80e63:	0f 58                   	b.j        80ece <Device_vMain+0x842>
   80e65:	8c e0 77 e0 00 20       	b.lwz      r7,0x40007ec(r0)
   80e6b:	98 a0 21 3b 10 00       	b.ori      r5,r0,0x8dc84
   80e71:	28 67 b0                	b.lhz      r3,0xc(r7)
   80e74:	28 87 f0                	b.lhz      r4,0xe(r7)
   80e77:	48 08 a4                	b.jal      8a2b7 <vJnc_BackOffVect>
   80e7a:	0c a8                   	b.j        80ece <Device_vMain+0x842>
   80e7c:	2c ea 57                	b.lwz      r7,0xe8(r10)
   80e7f:	3c e7 26                	b.sfleui   r7,0x64
   80e82:	47 23 20                	b.bf       80ece <Device_vMain+0x842>
   80e85:	4b db 68                	b.jal      869f4 <vAHI_StartRandomNumberGenerator.constprop.102>
   80e88:	4a fe 70                	b.jal      84885 <bAHI_RndNumPoll>
   80e8b:	40 03 bf                	b.beqi     r3,0x0,80e88 <Device_vMain+0x7fc>
   80e8e:	cc f0 63 01             	b.lwz      r7,-0x7f3c(r16)
   80e92:	c0 ea 01 80             	b.sb       0x180(r10),r7
   80e96:	38 e0 d0                	b.ori      r7,r0,0xb
   80e99:	0f 57                   	b.j        80e44 <Device_vMain+0x7b8>
   80e9b:	8c e0 40 10 00 20       	b.lwz      r7,0x4000800(r0)
   80ea1:	cc c7 78 80             	b.lwz      r6,0x11c(r7)
   80ea5:	94 c6 00 ff ff 00       	b.andi     r6,r6,0xffff00
   80eab:	41 06 c8                	b.bnei     r6,0x0,80ebe <Device_vMain+0x832>
   80eae:	cc e7 44 80             	b.lwz      r7,0x120(r7)
   80eb2:	81 60 c4 10 00 20       	b.sb       0x4000823(r0),r11
   80eb8:	8c e0 24 10 00 20       	b.sw       0x4000824(r0),r7
   80ebe:	8c e0 7d 08 00 40       	b.lwz      r7,0x20010bc(r0)
   80ec4:	34 e7 08                	b.andi     r7,r7,0x10
   80ec7:	40 07 e0                	b.beqi     r7,0x0,80ece <Device_vMain+0x842>
   80eca:	cd b0 2d 01             	b.sw       -0x7f4c(r16),r13
   80ece:	8c e0 7f e0 00 20       	b.lwz      r7,0x40007fc(r0)
   80ed4:	84 c0 0a 00 00 20       	b.lbz      r6,0x4000050(r0)
   80eda:	c4 e7 26 80             	b.lbz      r7,0x164(r7)
   80ede:	d2 cc 70 1b             	b.bne      r6,r7,80c5e <Device_vMain+0x5d2>
   80ee2:	46 2b 40                	b.j        811b6 <Device_vMain+0xb2a>
   80ee5:	99 c0 e5 8c 10 00       	b.ori      r14,r0,0x831a7
   80eeb:	99 a0 ef 8c 10 00       	b.ori      r13,r0,0x831f7
   80ef1:	8c e0 7f e0 00 20       	b.lwz      r7,0x40007fc(r0)
   80ef7:	8d 40 40 10 00 20       	b.lwz      r10,0x4000800(r0)
   80efd:	c4 e7 26 80             	b.lbz      r7,0x164(r7)
   80f01:	41 07 d8                	b.bnei     r7,0x0,80f1c <Device_vMain+0x890>
   80f04:	c4 ea 4a 80             	b.lbz      r7,0x152(r10)
   80f08:	d0 00 77 54             	b.beqi     r7,0x0,811b6 <Device_vMain+0xb2a>
   80f0c:	00 62                   	b.movi     r3,0x4
   80f0e:	4a 8f 50                	b.jal      83ad3 <iNed_StopTimerVect>
   80f11:	cc 0a 32 80             	b.sw       0x14c(r10),r0
   80f15:	c0 0a 4a 80             	b.sb       0x152(r10),r0
   80f19:	46 b9 40                	b.j        811b6 <Device_vMain+0xb2a>
   80f1c:	cc ea 72 80             	b.lwz      r7,0x14c(r10)
   80f20:	40 07 60                	b.beqi     r7,0x0,80f26 <Device_vMain+0x89a>
   80f23:	4b a6 70                	b.jal      848ba <vAHI_SwReset>
   80f26:	8c e0 40 10 00 20       	b.lwz      r7,0x4000800(r0)
   80f2c:	c4 c7 94 80             	b.lbz      r6,0x129(r7)
   80f30:	41 86 50                	b.bnei     r6,0x1,80f3a <Device_vMain+0x8ae>
   80f33:	c0 07 94 80             	b.sb       0x129(r7),r0
   80f37:	49 de 54                	b.jal      8b925 <eApi_PollForData>
   80f3a:	8d 40 40 10 00 20       	b.lwz      r10,0x4000800(r0)
   80f40:	8d 60 7f e0 00 20       	b.lwz      r11,0x40007fc(r0)
   80f46:	c4 ca 4a 80             	b.lbz      r6,0x152(r10)
   80f4a:	c4 eb 26 80             	b.lbz      r7,0x164(r11)
   80f4e:	d2 8c 73 c0             	b.beq      r6,r7,80f8a <Device_vMain+0x8fe>
   80f52:	c0 ea 4a 80             	b.sb       0x152(r10),r7
   80f56:	3c 07 b0                	b.sfeqi    r7,0xd
   80f59:	47 25 00                	b.bf       80f63 <Device_vMain+0x8d7>
   80f5c:	cd eb 65 80             	b.lwz      r15,0x1a4(r11)
   80f60:	41 0f 70                	b.bnei     r15,0x0,80f6e <Device_vMain+0x8e2>
   80f63:	00 62                   	b.movi     r3,0x4
   80f65:	49 db 50                	b.jal      83ad3 <iNed_StopTimerVect>
   80f68:	cc 0a 32 80             	b.sw       0x14c(r10),r0
   80f6c:	0d e0                   	b.j        80f8a <Device_vMain+0x8fe>
   80f6e:	4b 2d 50                	b.jal      83a41 <vInterrupt_Suspend>
   80f71:	cc ea 5a 80             	b.lwz      r7,0x158(r10)
   80f75:	09 e7                   	b.add      r15,r15,r7
   80f77:	cd ea 39 80             	b.sw       0x19c(r10),r15
   80f7b:	cc 0a 05 80             	b.sw       0x1a0(r10),r0
   80f7f:	cd ca 25 80             	b.sw       0x1a4(r10),r14
   80f83:	cc 0a 15 80             	b.sw       0x1a8(r10),r0
   80f87:	4a 85 50                	b.jal      83a0c <vInterrupt_Resume>
   80f8a:	c4 eb 26 80             	b.lbz      r7,0x164(r11)
   80f8e:	3c a7 f0                	b.sfgtui   r7,0xf
   80f91:	47 20 78                	b.bf       81171 <Device_vMain+0xae5>
   80f94:	6c e7 40                	b.slli     r7,r7,0x2
   80f97:	90 e7 25 f0 10 00       	b.addi     r7,r7,0x80fa4
   80f9d:	2c e7 40                	b.lwz      r7,0x0(r7)
   80fa0:	47 d2 38                	b.jr       r7
   80fa3:	00 00                   	b.trap     0x0
   80fa5:	08 11                   	b.add      r0,r0,r17
   80fa7:	78 00 08                	b.slls     r0,r0,r1
   80faa:	11                      	.word 0x11
   80fab:	71 00 08                	f.add.s    r8,r0,r1
   80fae:	11                      	.word 0x11
   80faf:	71 00 08                	f.add.s    r8,r0,r1
   80fb2:	0f e4                   	b.j        81051 <Device_vMain+0x9c5>
   80fb4:	00 08                   	b.trap     0x1
   80fb6:	10                      	.word 0x10
   80fb7:	52 00 08                	b.mlwz     r16,0x10(r0),0x0
   80fba:	10                      	.word 0x10
   80fbb:	60 00 08                	b.and      r0,r0,r1
   80fbe:	10                      	.word 0x10
   80fbf:	60 00 08                	b.and      r0,r0,r1
   80fc2:	11                      	.word 0x11
   80fc3:	78 00 08                	b.slls     r0,r0,r1
   80fc6:	11                      	.word 0x11
   80fc7:	78 00 08                	b.slls     r0,r0,r1
   80fca:	11                      	.word 0x11
   80fcb:	71 00 08                	f.add.s    r8,r0,r1
   80fce:	11                      	.word 0x11
   80fcf:	71 00 08                	f.add.s    r8,r0,r1
   80fd2:	10                      	.word 0x10
   80fd3:	8d 00 08 10 9c 00       	b.sw       0x390810(r0),r8
   80fd9:	08 10                   	b.add      r0,r0,r16
   80fdb:	db 00 08 10             	b.addi     r24,r0,0x810
   80fdf:	ec                      	.word 0xec
   80fe0:	00 08                   	b.trap     0x1
   80fe2:	11                      	.word 0x11
   80fe3:	2b 24 eb                	b.lhz      r25,0xd6(r4)
   80fe6:	18                      	.word 0x18
   80fe7:	40 07 dc                	b.beqi     r7,0x0,81022 <Device_vMain+0x996>
   80fea:	cc ea 74 80             	b.lwz      r7,0x12c(r10)
   80fee:	40 07 a8                	b.beqi     r7,0x0,81003 <Device_vMain+0x977>
   80ff1:	00 60                   	b.movi     r3,0x0
   80ff3:	00 80                   	b.movi     r4,0x0
   80ff5:	00 a0                   	b.movi     r5,0x0
   80ff7:	47 d1 38                	b.jalr     r7
   80ffa:	40 03 90                	b.beqi     r3,0x0,81003 <Device_vMain+0x977>
   80ffd:	00 60                   	b.movi     r3,0x0
   80fff:	00 80                   	b.movi     r4,0x0
   81001:	0c ba                   	b.j        81175 <Device_vMain+0xae9>
   81003:	8c e0 7f e0 00 20       	b.lwz      r7,0x40007fc(r0)
   81009:	38 80 50                	b.ori      r4,r0,0xa
   8100c:	2c 67 68                	b.lwz      r3,0x14(r7)
   8100f:	20 07 18                	b.sb       0x18(r7),r0
   81012:	49 a5 8a                	b.jal      956a8 <__udivsi3>
   81015:	98 a0 25 8c 10 00       	b.ori      r5,r0,0x831a4
   8101b:	3e 03 1a                	b.exthz    r3,r3
   8101e:	04 83                   	b.mov      r4,r3
   81020:	0d b4                   	b.j        810d6 <Device_vMain+0xa4a>
   81022:	00 60                   	b.movi     r3,0x0
   81024:	4b 69 88                	b.jal      8567f <eJnc_StartScanVect>
   81027:	d0 40 35 28             	b.bnei     r3,0x0,81171 <Device_vMain+0xae5>
   8102b:	00 e2                   	b.movi     r7,0x4
   8102d:	20 0b 18                	b.sb       0x18(r11),r0
   81030:	c0 eb 26 80             	b.sb       0x164(r11),r7
   81034:	2d 6b 48                	b.lwz      r11,0x10(r11)
   81037:	49 41 50                	b.jal      83a41 <vInterrupt_Suspend>
   8103a:	cc ea 5a 80             	b.lwz      r7,0x158(r10)
   8103e:	09 67                   	b.add      r11,r11,r7
   81040:	cd 6a 3a 80             	b.sw       0x15c(r10),r11
   81044:	cc 0a 06 80             	b.sw       0x160(r10),r0
   81048:	cd aa 26 80             	b.sw       0x164(r10),r13
   8104c:	cc 0a 16 80             	b.sw       0x168(r10),r0
   81050:	0c 70                   	b.j        81088 <Device_vMain+0x9fc>
   81052:	24 eb 18                	b.lbz      r7,0x18(r11)
   81055:	d0 00 7c 48             	b.beqi     r7,0x0,81178 <Device_vMain+0xaec>
   81059:	4b 74 82                	b.jal      91514 <vJnc_ClearScanListVect>
   8105c:	00 ec                   	b.movi     r7,0x3
   8105e:	0c 68                   	b.j        810b6 <Device_vMain+0xa2a>
   81060:	4b d0 2c                	b.jal      8e08f <bJnc_StartAssociateVect>
   81063:	d0 00 3a 88             	b.beqi     r3,0x0,81178 <Device_vMain+0xaec>
   81067:	49 6e 50                	b.jal      83a41 <vInterrupt_Suspend>
   8106a:	8c e0 40 10 00 20       	b.lwz      r7,0x4000800(r0)
   81070:	cc c7 5a 80             	b.lwz      r6,0x158(r7)
   81074:	d8 c6 17 c0             	b.addi     r6,r6,0x3e8
   81078:	cc c7 3a 80             	b.sw       0x15c(r7),r6
   8107c:	cc 07 06 80             	b.sw       0x160(r7),r0
   81080:	cd a7 26 80             	b.sw       0x164(r7),r13
   81084:	cc 07 16 80             	b.sw       0x168(r7),r0
   81088:	48 86 50                	b.jal      83a0c <vInterrupt_Resume>
   8108b:	0e dc                   	b.j        81178 <Device_vMain+0xaec>
   8108d:	38 e0 30                	b.ori      r7,r0,0xc
   81090:	20 0b 10                	b.sb       0x8(r11),r0
   81093:	c0 eb 26 80             	b.sb       0x164(r11),r7
   81097:	4a 65 4c                	b.jal      8db30 <vJnc_SendEstablishRouteVect.constprop.34>
   8109a:	0d ec                   	b.j        81178 <Device_vMain+0xaec>
   8109c:	24 eb 10                	b.lbz      r7,0x8(r11)
   8109f:	40 07 b8                	b.beqi     r7,0x0,810bc <Device_vMain+0xa30>
   810a2:	49 2a 68                	b.jal      869f4 <vAHI_StartRandomNumberGenerator.constprop.102>
   810a5:	48 1f b0                	b.jal      84885 <bAHI_RndNumPoll>
   810a8:	40 03 bf                	b.beqi     r3,0x0,810a5 <Device_vMain+0xa19>
   810ab:	cc f0 63 01             	b.lwz      r7,-0x7f3c(r16)
   810af:	c0 eb 01 80             	b.sb       0x180(r11),r7
   810b3:	38 e0 d0                	b.ori      r7,r0,0xb
   810b6:	c0 eb 26 80             	b.sb       0x164(r11),r7
   810ba:	0d f4                   	b.j        81178 <Device_vMain+0xaec>
   810bc:	c4 ea b8 80             	b.lbz      r7,0x11d(r10)
   810c0:	d0 40 71 d0             	b.bnei     r7,0x0,81178 <Device_vMain+0xaec>
   810c4:	8c e0 77 e0 00 20       	b.lwz      r7,0x40007ec(r0)
   810ca:	98 a0 a9 8c 10 00       	b.ori      r5,r0,0x83195
   810d0:	28 67 b0                	b.lhz      r3,0xc(r7)
   810d3:	28 87 f0                	b.lhz      r4,0xe(r7)
   810d6:	4a 1e 24                	b.jal      8a2b7 <vJnc_BackOffVect>
   810d9:	0f e4                   	b.j        81178 <Device_vMain+0xaec>
   810db:	c4 ea 54 80             	b.lbz      r7,0x12a(r10)
   810df:	d0 00 79 90             	b.beqi     r7,0x0,81178 <Device_vMain+0xaec>
   810e3:	c0 0a 54 80             	b.sb       0x12a(r10),r0
   810e7:	49 f0 54                	b.jal      8b925 <eApi_PollForData>
   810ea:	0d c4                   	b.j        81178 <Device_vMain+0xaec>
   810ec:	8c e0 60 10 00 20       	b.lwz      r7,0x4000804(r0)
   810f2:	24 e7 2c                	b.lbz      r7,0x34(r7)
   810f5:	d0 00 7c 10             	b.beqi     r7,0x0,81178 <Device_vMain+0xaec>
   810f9:	c4 eb 45 80             	b.lbz      r7,0x1a2(r11)
   810fd:	00 60                   	b.movi     r3,0x0
   810ff:	c0 ea d8 80             	b.sb       0x11b(r10),r7
   81103:	48 2e 50                	b.jal      83ad3 <iNed_StopTimerVect>
   81106:	00 68                   	b.movi     r3,0x1
   81108:	4b 4e 50                	b.jal      83ad3 <iNed_StopTimerVect>
   8110b:	00 64                   	b.movi     r3,0x2
   8110d:	49 8e 50                	b.jal      83ad3 <iNed_StopTimerVect>
   81110:	c8 cb 85 80             	b.lhz      r6,0x1a0(r11)
   81114:	d8 e0 02 80             	b.addi     r7,r0,0x140
   81118:	64 e6 3b                	b.mul      r7,r6,r7
   8111b:	8c e0 24 10 00 20       	b.sw       0x4000824(r0),r7
   81121:	00 e8                   	b.movi     r7,0x1
   81123:	80 e0 c4 10 00 20       	b.sb       0x4000823(r0),r7
   81129:	0f c8                   	b.j        81178 <Device_vMain+0xaec>
   8112b:	cc ea 78 80             	b.lwz      r7,0x11c(r10)
   8112f:	94 e7 00 ff ff 00       	b.andi     r7,r7,0xffff00
   81135:	41 07 24                	b.bnei     r7,0x0,81159 <Device_vMain+0xacd>
   81138:	00 60                   	b.movi     r3,0x0
   8113a:	4a 66 50                	b.jal      83ad3 <iNed_StopTimerVect>
   8113d:	00 68                   	b.movi     r3,0x1
   8113f:	48 a6 50                	b.jal      83ad3 <iNed_StopTimerVect>
   81142:	00 64                   	b.movi     r3,0x2
   81144:	4b c6 50                	b.jal      83ad3 <iNed_StopTimerVect>
   81147:	cc ea 44 80             	b.lwz      r7,0x120(r10)
   8114b:	8c e0 24 10 00 20       	b.sw       0x4000824(r0),r7
   81151:	00 e8                   	b.movi     r7,0x1
   81153:	80 e0 c4 10 00 20       	b.sb       0x4000823(r0),r7
   81159:	8c e0 7d 08 00 40       	b.lwz      r7,0x20010bc(r0)
   8115f:	34 e7 08                	b.andi     r7,r7,0x10
   81162:	40 07 68                	b.beqi     r7,0x0,81178 <Device_vMain+0xaec>
   81165:	98 e0 1f ed 00 00       	b.ori      r7,r0,0xb7f8
   8116b:	cc f0 2d 01             	b.sw       -0x7f4c(r16),r7
   8116f:	0e 40                   	b.j        81178 <Device_vMain+0xaec>
   81171:	00 60                   	b.movi     r3,0x0
   81173:	00 8c                   	b.movi     r4,0x3
   81175:	4b d9 14                	b.jal      8b3e4 <bJnc_ResetStackVect>
   81178:	8c e0 40 10 00 20       	b.lwz      r7,0x4000800(r0)
   8117e:	8d 40 7f e0 00 20       	b.lwz      r10,0x40007fc(r0)
   81184:	c4 c7 4a 80             	b.lbz      r6,0x152(r7)
   81188:	c4 ea 26 80             	b.lbz      r7,0x164(r10)
   8118c:	d2 cc 7a 6b             	b.bne      r6,r7,80ef1 <Device_vMain+0x865>
   81190:	0d e0                   	b.j        811ae <Device_vMain+0xb22>
   81192:	30 a1 c0                	b.addi     r5,r1,0x3
   81195:	00 66                   	b.movi     r3,0x6
   81197:	21 61 c0                	b.sb       0x3(r1),r11
   8119a:	00 80                   	b.movi     r4,0x0
   8119c:	00 c8                   	b.movi     r6,0x1
   8119e:	4a 22 dc                	b.jal      8feaf <v6LP_ProcessStackEvent>
   811a1:	2c ea 44                	b.lwz      r7,0x20(r10)
   811a4:	00 ff                   	b.addi     r7,r7,-0x1
   811a6:	2c ea 04                	b.sw       0x20(r10),r7
   811a9:	4b c1 88                	b.jal      857b8 <vFailedPacket.13059>
   811ac:	0c 80                   	b.j        811b0 <Device_vMain+0xb24>
   811ae:	01 64                   	b.movi     r11,0x2
   811b0:	2c ea 44                	b.lwz      r7,0x20(r10)
   811b3:	41 07 fb                	b.bnei     r7,0x0,81192 <Device_vMain+0xb06>
   811b6:	84 e0 c4 10 00 20       	b.lbz      r7,0x4000823(r0)
   811bc:	d0 00 7b 38             	b.beqi     r7,0x0,81389 <Device_vMain+0xcfd>
   811c0:	49 65 70                	b.jal      84c5a <eMiniMac_FrameInProgress>
   811c3:	d0 40 36 38             	b.bnei     r3,0x0,81389 <Device_vMain+0xcfd>
   811c7:	8c 60 72 00 00 20       	b.lwz      r3,0x400004c(r0)
   811cd:	47 d1 18                	b.jalr     r3
   811d0:	d0 60 39 d8             	b.bnei     r3,0x1,81389 <Device_vMain+0xcfd>
   811d4:	8c e0 40 10 00 20       	b.lwz      r7,0x4000800(r0)
   811da:	80 00 c4 10 00 20       	b.sb       0x4000823(r0),r0
   811e0:	c5 67 f8 80             	b.lbz      r11,0x11f(r7)
   811e4:	8d 80 64 10 00 20       	b.lwz      r12,0x4000824(r0)
   811ea:	cc f0 78 09             	b.lwz      r7,-0x6fe4(r16)
   811ee:	94 e7 7f ff ff ff       	b.andi     r7,r7,0xfffffffe
   811f4:	cc f0 38 09             	b.sw       -0x6fe4(r16),r7
   811f8:	cc f0 44 09             	b.lwz      r7,-0x6fe0(r16)
   811fc:	34 e7 80                	b.andi     r7,r7,0x1
   811ff:	41 07 9f                	b.bnei     r7,0x0,811f8 <Device_vMain+0xb6c>
   81202:	cc f0 48 09             	b.lwz      r7,-0x6ff0(r16)
   81206:	94 e7 00 00 00 30       	b.andi     r7,r7,0xc000000
   8120c:	cc f0 08 09             	b.sw       -0x6ff0(r16),r7
   81210:	8d 40 7f e0 00 20       	b.lwz      r10,0x40007fc(r0)
   81216:	c4 ea 66 80             	b.lbz      r7,0x166(r10)
   8121a:	40 07 f0                	b.beqi     r7,0x0,81229 <Device_vMain+0xb9d>
   8121d:	cc f0 60 01             	b.lwz      r7,-0x7ffc(r16)
   81221:	34 e7 10                	b.andi     r7,r7,0x8
   81224:	40 07 84                	b.beqi     r7,0x0,81245 <Device_vMain+0xbb9>
   81227:	0d 40                   	b.j        81231 <Device_vMain+0xba5>
   81229:	4a 31 70                	b.jal      84c5a <eMiniMac_FrameInProgress>
   8122c:	41 03 27                	b.bnei     r3,0x0,81210 <Device_vMain+0xb84>
   8122f:	0d df                   	b.j        8121d <Device_vMain+0xb91>
   81231:	cc f0 47 69             	b.lwz      r7,-0x6920(r16)
   81235:	80 e0 5f e0 00 20       	b.sb       0x40007fa(r0),r7
   8123b:	cc f0 7b 69             	b.lwz      r7,-0x6924(r16)
   8123f:	88 e0 1f e0 00 20       	b.sh       0x40007f8(r0),r7
   81245:	00 60                   	b.movi     r3,0x0
   81247:	48 4e b0                	b.jal      8480f <vAHI_TickTimerIntEnable>
   8124a:	00 60                   	b.movi     r3,0x0
   8124c:	49 e1 b0                	b.jal      8486a <vAHI_TickTimerConfigure>
   8124f:	d2 20 be 80             	b.bleui    r11,0x1,81266 <Device_vMain+0xbda>
   81253:	c0 0a 26 80             	b.sb       0x164(r10),r0
   81257:	cd 50 40 01             	b.lwz      r10,-0x8000(r16)
   8125b:	94 ea 00 00 00 80       	b.andi     r7,r10,0x1000000
   81261:	40 07 96                	b.beqi     r7,0x0,812ca <Device_vMain+0xc3e>
   81264:	0e 88                   	b.j        812a9 <Device_vMain+0xc1d>
   81266:	4a ea 68                	b.jal      86bc3 <vAHI_WakeTimerEnable.part.0.25193.constprop.100>
   81269:	98 e0 00 00 00 20       	b.ori      r7,r0,0x4000000
   8126f:	cc f0 08 09             	b.sw       -0x6ff0(r16),r7
   81273:	cc d0 48 09             	b.lwz      r6,-0x6ff0(r16)
   81277:	94 c6 00 00 00 20       	b.andi     r6,r6,0x4000000
   8127d:	41 06 6f                	b.bnei     r6,0x0,81273 <Device_vMain+0xbe7>
   81280:	d8 e0 0c 09             	b.addi     r7,r0,-0x6fd0
   81284:	08 f0                   	b.add      r7,r7,r16
   81286:	2c c7 00                	b.sw       0x0(r7),r6
   81289:	d8 e0 28 09             	b.addi     r7,r0,-0x6fec
   8128d:	08 f0                   	b.add      r7,r7,r16
   8128f:	2d 87 00                	b.sw       0x0(r7),r12
   81292:	cc f0 78 09             	b.lwz      r7,-0x6fe4(r16)
   81296:	38 e7 80                	b.ori      r7,r7,0x1
   81299:	cc f0 38 09             	b.sw       -0x6fe4(r16),r7
   8129d:	cc f0 44 09             	b.lwz      r7,-0x6fe0(r16)
   812a1:	34 e7 80                	b.andi     r7,r7,0x1
   812a4:	40 07 9f                	b.beqi     r7,0x0,8129d <Device_vMain+0xc11>
   812a7:	0c d7                   	b.j        81253 <Device_vMain+0xbc7>
   812a9:	00 82                   	b.movi     r4,0x4
   812ab:	00 60                   	b.movi     r3,0x0
   812ad:	49 e1 b0                	b.jal      848cb <vAHI_DioSetDirection>
   812b0:	00 62                   	b.movi     r3,0x4
   812b2:	4b 9b 30                	b.jal      84619 <vAHI_DioSetOutput.constprop.43>
   812b5:	cc f0 7c 09             	b.lwz      r7,-0x6fc4(r16)
   812b9:	38 e7 20                	b.ori      r7,r7,0x4
   812bc:	cc f0 3c 09             	b.sw       -0x6fc4(r16),r7
   812c0:	95 4a ff ff ff 7f       	b.andi     r10,r10,0xfeffffff
   812c6:	cd 50 00 01             	b.sw       -0x8000(r16),r10
   812ca:	94 ea 00 00 00 40       	b.andi     r7,r10,0x2000000
   812d0:	40 07 64                	b.beqi     r7,0x0,812f6 <Device_vMain+0xc6a>
   812d3:	38 80 10                	b.ori      r4,r0,0x8
   812d6:	00 60                   	b.movi     r3,0x0
   812d8:	4b 3e b0                	b.jal      848cb <vAHI_DioSetDirection>
   812db:	38 60 10                	b.ori      r3,r0,0x8
   812de:	4b 73 30                	b.jal      84619 <vAHI_DioSetOutput.constprop.43>
   812e1:	cc f0 7c 09             	b.lwz      r7,-0x6fc4(r16)
   812e5:	38 e7 10                	b.ori      r7,r7,0x8
   812e8:	cc f0 3c 09             	b.sw       -0x6fc4(r16),r7
   812ec:	95 4a ff ff ff bf       	b.andi     r10,r10,0xfdffffff
   812f2:	cd 50 00 01             	b.sw       -0x8000(r16),r10
   812f6:	41 2b 08                	b.bnei     r11,0x4,81306 <Device_vMain+0xc7a>
   812f9:	cc f0 40 01             	b.lwz      r7,-0x8000(r16)
   812fd:	38 e7 c0                	b.ori      r7,r7,0x3
   81300:	cc f0 00 01             	b.sw       -0x8000(r16),r7
   81304:	0c 00                   	b.j        81304 <Device_vMain+0xc78>
   81306:	cc f0 5c 01             	b.lwz      r7,-0x7fc8(r16)
   8130a:	38 e7 10                	b.ori      r7,r7,0x8
   8130d:	cc f0 1c 01             	b.sw       -0x7fc8(r16),r7
   81311:	99 40 80 00 04 00       	b.ori      r10,r0,0x200001
   81317:	30 eb 7f                	b.addi     r7,r11,-0x2
   8131a:	3c e7 80                	b.sfleui   r7,0x1
   8131d:	35 6b bf                	b.andi     r11,r11,0xfd
   81320:	00 e8                   	b.movi     r7,0x1
   81322:	65 4a 3a                	b.cmov     r10,r10,r7
   81325:	cc d0 4a 01             	b.lwz      r6,-0x7fb0(r16)
   81329:	94 c6 fc 7f ff ff       	b.andi     r6,r6,0xfffffe3f
   8132f:	41 0b a4                	b.bnei     r11,0x0,81354 <Device_vMain+0xcc8>
   81332:	cc f0 40 01             	b.lwz      r7,-0x8000(r16)
   81336:	98 c6 01 40 00 00       	b.ori      r6,r6,0x280
   8133c:	cc d0 0a 01             	b.sw       -0x7fb0(r16),r6
   81340:	38 e7 04                	b.ori      r7,r7,0x20
   81343:	cc f0 00 01             	b.sw       -0x8000(r16),r7
   81347:	4a 63 70                	b.jal      84e60 <bAHI_SetClockRate.part.0.24623.constprop.40>
   8134a:	d8 e0 00 80             	b.addi     r7,r0,0x100
   8134e:	cc f0 17 01             	b.sw       -0x7f18(r16),r7
   81352:	0c 90                   	b.j        81376 <Device_vMain+0xcea>
   81354:	98 c6 01 40 00 00       	b.ori      r6,r6,0x280
   8135a:	cc f0 40 01             	b.lwz      r7,-0x8000(r16)
   8135e:	d8 a0 00 40             	b.addi     r5,r0,0x200
   81362:	38 e7 04                	b.ori      r7,r7,0x20
   81365:	60 c6 2a                	b.xor      r6,r6,r5
   81368:	cc d0 0a 01             	b.sw       -0x7fb0(r16),r6
   8136c:	38 c0 04                	b.ori      r6,r0,0x20
   8136f:	60 e7 32                	b.xor      r7,r7,r6
   81372:	cc f0 00 01             	b.sw       -0x8000(r16),r7
   81376:	cc f0 40 01             	b.lwz      r7,-0x8000(r16)
   8137a:	94 e7 ff ff fb ff       	b.andi     r7,r7,0xffdfffff
   81380:	61 47 51                	b.or       r10,r7,r10
   81383:	cd 50 00 01             	b.sw       -0x8000(r16),r10
   81387:	0c 00                   	b.j        81387 <Device_vMain+0xcfb>
   81389:	8c e0 48 10 00 20       	b.lwz      r7,0x4000810(r0)
   8138f:	60 ec 3d                	b.sub      r7,r12,r7
   81392:	9f 47 c4 2f 00 00       	b.sfleui   r7,0xf423
   81398:	47 2f 00                	b.bf       813a7 <Device_vMain+0xd1b>
   8139b:	8d 80 08 10 00 20       	b.sw       0x4000810(r0),r12
   813a1:	80 00 30 10 00 20       	b.sb       0x400080c(r0),r0
   813a7:	8c e0 78 10 00 20       	b.lwz      r7,0x400081c(r0)
   813ad:	41 07 48                	b.bnei     r7,0x0,813bf <Device_vMain+0xd33>
   813b0:	00 e8                   	b.movi     r7,0x1
   813b2:	80 e0 04 10 00 20       	b.sb       0x4000820(r0),r7
   813b8:	00 60                   	b.movi     r3,0x0
   813ba:	4b e9 30                	b.jal      84619 <vAHI_DioSetOutput.constprop.43>
   813bd:	0d c0                   	b.j        813cb <Device_vMain+0xd3f>
   813bf:	84 e0 04 10 00 20       	b.lbz      r7,0x4000820(r0)
   813c5:	41 07 60                	b.bnei     r7,0x0,813cb <Device_vMain+0xd3f>
   813c8:	4b ec b0                	b.jal      848a7 <vAHI_CpuDoze>
   813cb:	84 e0 04 10 00 20       	b.lbz      r7,0x4000820(r0)
   813d1:	a0 00 7e 34 ff ff       	b.beqi     r7,0x0,80698 <Device_vMain+0xc>
   813d7:	0e e0                   	b.j        813f4 <Device_vMain+0xd68>
   813d9:	cc f0 60 09             	b.lwz      r7,-0x6ffc(r16)
   813dd:	6c e7 41                	b.srli     r7,r7,0x2
   813e0:	34 e7 80                	b.andi     r7,r7,0x1
   813e3:	a0 40 72 c6 ff ff       	b.bnei     r7,0x0,80a17 <Device_vMain+0x38b>
   813e9:	46 ef af                	b.j        809e0 <Device_vMain+0x354>
   813ec:	00 68                   	b.movi     r3,0x1
   813ee:	4a a8 f4                	b.jal      8d043 <Node_vDebugOutdent.part.3.1797>
   813f1:	46 4a 6f                	b.j        80a43 <Device_vMain+0x3b7>
   813f4:	47 be b8                	b.reti     0x7,0x1d
	...

000813f8 <v6LP_ProcessJenNetStackEvent>:
   813f8:	47 aa ea                	b.entri    0x5,0x57
   813fb:	3c 03 88                	b.sfeqi    r3,0x11
   813fe:	05 84                   	b.mov      r12,r4
   81400:	05 45                   	b.mov      r10,r5
   81402:	05 66                   	b.mov      r11,r6
   81404:	47 2d 90                	b.bf       8149f <v6LP_ProcessJenNetStackEvent+0xa7>
   81407:	3c a3 88                	b.sfgtui   r3,0x11
   8140a:	47 24 c0                	b.bf       8143c <v6LP_ProcessJenNetStackEvent+0x44>
   8140d:	3c 03 50                	b.sfeqi    r3,0xa
   81410:	47 2c 48                	b.bf       81533 <v6LP_ProcessJenNetStackEvent+0x13b>
   81413:	3c a3 50                	b.sfgtui   r3,0xa
   81416:	47 24 80                	b.bf       81428 <v6LP_ProcessJenNetStackEvent+0x30>
   81419:	d0 20 3e 30             	b.beqi     r3,0x1,814e0 <v6LP_ProcessJenNetStackEvent+0xe8>
   8141d:	40 03 c6                	b.beqi     r3,0x0,81480 <v6LP_ProcessJenNetStackEvent+0x88>
   81420:	3c 03 90                	b.sfeqi    r3,0x9
   81423:	47 34 52                	b.bnf      818c5 <v6LP_ProcessJenNetStackEvent+0x4cd>
   81426:	0d 68                   	b.j        81480 <v6LP_ProcessJenNetStackEvent+0x88>
   81428:	3c 03 70                	b.sfeqi    r3,0xe
   8142b:	47 28 e4                	b.bf       8169c <v6LP_ProcessJenNetStackEvent+0x2a4>
   8142e:	3c 03 f0                	b.sfeqi    r3,0xf
   81431:	47 26 04                	b.bf       81637 <v6LP_ProcessJenNetStackEvent+0x23f>
   81434:	3c 03 b0                	b.sfeqi    r3,0xd
   81437:	47 37 12                	b.bnf      818c5 <v6LP_ProcessJenNetStackEvent+0x4cd>
   8143a:	0e fe                   	b.j        81637 <v6LP_ProcessJenNetStackEvent+0x23f>
   8143c:	3c 03 e8                	b.sfeqi    r3,0x17
   8143f:	47 20 34                	b.bf       816ff <v6LP_ProcessJenNetStackEvent+0x307>
   81442:	3c a3 e8                	b.sfgtui   r3,0x17
   81445:	47 24 80                	b.bf       81457 <v6LP_ProcessJenNetStackEvent+0x5f>
   81448:	3c e3 28                	b.sfleui   r3,0x14
   8144b:	47 23 78                	b.bf       81637 <v6LP_ProcessJenNetStackEvent+0x23f>
   8144e:	3c 03 a8                	b.sfeqi    r3,0x15
   81451:	47 32 e2                	b.bnf      818c5 <v6LP_ProcessJenNetStackEvent+0x4cd>
   81454:	46 da 40                	b.j        816af <v6LP_ProcessJenNetStackEvent+0x2b7>
   81457:	3c 03 0a                	b.sfeqi    r3,0x50
   8145a:	47 2b 54                	b.bf       81707 <v6LP_ProcessJenNetStackEvent+0x30f>
   8145d:	3c a3 0a                	b.sfgtui   r3,0x50
   81460:	47 23 00                	b.bf       8146c <v6LP_ProcessJenNetStackEvent+0x74>
   81463:	3c 03 58                	b.sfeqi    r3,0x1a
   81466:	47 3f a2                	b.bnf      818c5 <v6LP_ProcessJenNetStackEvent+0x4cd>
   81469:	46 d2 40                	b.j        816b4 <v6LP_ProcessJenNetStackEvent+0x2bc>
   8146c:	9d 83 7f 00 00 00       	b.sfeqi    r3,0xfe
   81472:	47 22 50                	b.bf       81516 <v6LP_ProcessJenNetStackEvent+0x11e>
   81475:	9d 83 ff 00 00 00       	b.sfeqi    r3,0xff
   8147b:	47 35 22                	b.bnf      818c5 <v6LP_ProcessJenNetStackEvent+0x4cd>
   8147e:	0c 94                   	b.j        81522 <v6LP_ProcessJenNetStackEvent+0x12a>
   81480:	00 ec                   	b.movi     r7,0x3
   81482:	20 e1 62                	b.sb       0x46(r1),r7
   81485:	30 61 22                	b.addi     r3,r1,0x44
   81488:	2c ec 40                	b.lwz      r7,0x0(r12)
   8148b:	29 61 06                	b.sh       0x60(r1),r11
   8148e:	2c e1 12                	b.sw       0x48(r1),r7
   81491:	2c ec 60                	b.lwz      r7,0x4(r12)
   81494:	2d 41 3a                	b.sw       0x5c(r1),r10
   81497:	2c e1 32                	b.sw       0x4c(r1),r7
   8149a:	20 01 4a                	b.sb       0x52(r1),r0
   8149d:	0f 38                   	b.j        81510 <v6LP_ProcessJenNetStackEvent+0x118>
   8149f:	31 66 b7                	b.addi     r11,r6,-0x13
   814a2:	30 e5 c8                	b.addi     r7,r5,0x13
   814a5:	30 85 c0                	b.addi     r4,r5,0x3
   814a8:	30 61 16                	b.addi     r3,r1,0x68
   814ab:	38 a0 10                	b.ori      r5,r0,0x8
   814ae:	29 61 01                	b.sh       0x80(r1),r11
   814b1:	01 6c                   	b.movi     r11,0x3
   814b3:	2c e1 3e                	b.sw       0x7c(r1),r7
   814b6:	21 61 66                	b.sb       0x66(r1),r11
   814b9:	d4 c5 d7 ef             	b.jal      5c <memcpy>
   814bd:	30 61 2e                	b.addi     r3,r1,0x74
   814c0:	30 8a d0                	b.addi     r4,r10,0xb
   814c3:	38 a0 10                	b.ori      r5,r0,0x8
   814c6:	21 61 4e                	b.sb       0x72(r1),r11
   814c9:	d4 c9 d7 ef             	b.jal      5c <memcpy>
   814cd:	30 61 26                	b.addi     r3,r1,0x64
   814d0:	48 07 e0                	b.jal      83450 <b6LP_HandleRxEvent>
   814d3:	d0 40 34 fc             	b.bnei     r3,0x0,818c5 <v6LP_ProcessJenNetStackEvent+0x4cd>
   814d7:	30 61 2e                	b.addi     r3,r1,0x74
   814da:	48 6a 84                	b.jal      89a32 <ePAR_SendFindNode>
   814dd:	46 17 c0                	b.j        818c5 <v6LP_ProcessJenNetStackEvent+0x4cd>
   814e0:	00 ec                   	b.movi     r7,0x3
   814e2:	28 c1 05                	b.sh       0xa0(r1),r6
   814e5:	d8 61 21 00             	b.addi     r3,r1,0x84
   814e9:	2c c4 40                	b.lwz      r6,0x0(r4)
   814ec:	20 e1 61                	b.sb       0x86(r1),r7
   814ef:	20 e1 49                	b.sb       0x92(r1),r7
   814f2:	8c e0 6f e0 00 20       	b.lwz      r7,0x40007f4(r0)
   814f8:	2c c1 11                	b.sw       0x88(r1),r6
   814fb:	2c e1 19                	b.sw       0x98(r1),r7
   814fe:	2c c4 60                	b.lwz      r6,0x4(r4)
   81501:	8c e0 4f e0 00 20       	b.lwz      r7,0x40007f0(r0)
   81507:	2c a1 39                	b.sw       0x9c(r1),r5
   8150a:	2c c1 31                	b.sw       0x8c(r1),r6
   8150d:	2c e1 29                	b.sw       0x94(r1),r7
   81510:	48 0b e0                	b.jal      83450 <b6LP_HandleRxEvent>
   81513:	46 4d c0                	b.j        818c5 <v6LP_ProcessJenNetStackEvent+0x4cd>
   81516:	24 e5 00                	b.lbz      r7,0x0(r5)
   81519:	04 61                   	b.mov      r3,r1
   8151b:	20 e1 00                	b.sb       0x0(r1),r7
   8151e:	00 80                   	b.movi     r4,0x0
   81520:	0e c0                   	b.j        8152d <v6LP_ProcessJenNetStackEvent+0x135>
   81522:	24 e5 00                	b.lbz      r7,0x0(r5)
   81525:	38 80 47                	b.ori      r4,r0,0xe2
   81528:	04 61                   	b.mov      r3,r1
   8152a:	20 e1 00                	b.sb       0x0(r1),r7
   8152d:	49 55 34                	b.jal      8c7d7 <vHandleTxEvent>
   81530:	46 a9 c0                	b.j        818c5 <v6LP_ProcessJenNetStackEvent+0x4cd>
   81533:	30 61 20                	b.addi     r3,r1,0x4
   81536:	4b 9b 88                	b.jal      85c9d <iIPv6_SearchForBufferReadyToTX>
   81539:	41 03 48                	b.bnei     r3,0x0,8154b <v6LP_ProcessJenNetStackEvent+0x153>
   8153c:	8c e0 55 70 00 20       	b.lwz      r7,0x4000ea8(r0)
   81542:	2c 61 60                	b.lwz      r3,0x4(r1)
   81545:	2c e7 60                	b.lwz      r7,0x4(r7)
   81548:	47 d1 38                	b.jalr     r7
   8154b:	84 80 8a 80 00 20       	b.lbz      r4,0x4000151(r0)
   81551:	8c 60 76 10 00 20       	b.lwz      r3,0x400086c(r0)
   81557:	98 e0 0f af 10 00       	b.ori      r7,r0,0x8f5f0
   8155d:	6c 84 20                	b.slli     r4,r4,0x4
   81560:	00 a0                   	b.movi     r5,0x0
   81562:	8c e0 22 10 00 20       	b.sw       0x4000844(r0),r7
   81568:	8c 00 12 10 00 20       	b.sw       0x4000848(r0),r0
   8156e:	80 00 16 10 00 20       	b.sb       0x4000868(r0),r0
   81574:	48 3c 30                	b.jal      84664 <pvHeap_Alloc>
   81577:	84 e0 0e 10 00 20       	b.lbz      r7,0x4000870(r0)
   8157d:	8c 60 36 10 00 20       	b.sw       0x400086c(r0),r3
   81583:	41 07 14                	b.bnei     r7,0x0,815ab <v6LP_ProcessJenNetStackEvent+0x1b3>
   81586:	00 e8                   	b.movi     r7,0x1
   81588:	80 e0 0e 10 00 20       	b.sb       0x4000870(r0),r7
   8158e:	8c e0 40 10 00 20       	b.lwz      r7,0x4000800(r0)
   81594:	40 07 e8                	b.beqi     r7,0x0,815ab <v6LP_ProcessJenNetStackEvent+0x1b3>
   81597:	cc c7 5c 80             	b.lwz      r6,0x138(r7)
   8159b:	8c c0 1c 10 00 20       	b.sw       0x4000838(r0),r6
   815a1:	98 c0 f6 ff 10 00       	b.ori      r6,r0,0x8ff6f
   815a7:	cc c7 1c 80             	b.sw       0x138(r7),r6
   815ab:	84 80 0a 80 00 20       	b.lbz      r4,0x4000150(r0)
   815b1:	98 e0 24 2f 00 00       	b.ori      r7,r0,0xf424
   815b7:	98 60 3c 10 00 20       	b.ori      r3,r0,0x400083c
   815bd:	64 84 3b                	b.mul      r4,r4,r7
   815c0:	4b 4b 12                	b.jal      9390b <TSV_eStart>
   815c3:	28 ea c8                	b.lhz      r7,0x12(r10)
   815c6:	8d 80 55 70 00 20       	b.lwz      r12,0x4000ea8(r0)
   815cc:	00 60                   	b.movi     r3,0x0
   815ce:	28 ec 19                	b.sh       0x98(r12),r7
   815d1:	24 ec 12                	b.lbz      r7,0x48(r12)
   815d4:	40 87 9a                	b.beqi     r7,0x1,8162d <v6LP_ProcessJenNetStackEvent+0x235>
   815d7:	2c 8a 58                	b.lwz      r4,0x18(r10)
   815da:	40 04 a2                	b.beqi     r4,0x0,8161f <v6LP_ProcessJenNetStackEvent+0x227>
   815dd:	24 e4 00                	b.lbz      r7,0x0(r4)
   815e0:	d2 38 7f c0             	b.bleui    r7,0x7,8161f <v6LP_ProcessJenNetStackEvent+0x227>
   815e4:	00 98                   	b.addi     r4,r4,0x1
   815e6:	38 a0 10                	b.ori      r5,r0,0x8
   815e9:	30 61 10                	b.addi     r3,r1,0x8
   815ec:	d4 0e 57 ef             	b.jal      5c <memcpy>
   815f0:	50 c1 10                	b.mlwz     r6,0x8(r1),0x0
   815f3:	2c ec 3e                	b.sw       0x7c(r12),r7
   815f6:	98 60 b2 10 00 20       	b.ori      r3,r0,0x400084d
   815fc:	30 81 08                	b.addi     r4,r1,0x10
   815ff:	38 a0 10                	b.ori      r5,r0,0x8
   81602:	2c cc 01                	b.sw       0x80(r12),r6
   81605:	54 c1 08                	b.msw      0x10(r1),r6,0x0
   81608:	d4 2a 57 ef             	b.jal      5c <memcpy>
   8160c:	84 e0 32 10 00 20       	b.lbz      r7,0x400084c(r0)
   81612:	d1 f8 7b 00             	b.bgtui    r7,0x7,8161f <v6LP_ProcessJenNetStackEvent+0x227>
   81616:	38 e0 10                	b.ori      r7,r0,0x8
   81619:	80 e0 32 10 00 20       	b.sb       0x400084c(r0),r7
   8161f:	88 60 e9 e0 00 20       	b.lhz      r3,0x4000796(r0)
   81625:	4a bd ac                	b.jal      8ed1a <eCreateSocket.7967>
   81628:	4b 33 12                	b.jal      9395b <vStartTrapTimer>
   8162b:	00 68                   	b.movi     r3,0x1
   8162d:	04 8a                   	b.mov      r4,r10
   8162f:	04 ab                   	b.mov      r5,r11
   81631:	49 1d e2                	b.jal      93513 <Node_bJipStackEvent>
   81634:	46 89 40                	b.j        818c5 <v6LP_ProcessJenNetStackEvent+0x4cd>
   81637:	2c ec 40                	b.lwz      r7,0x0(r12)
   8163a:	30 63 cf                	b.addi     r3,r3,-0xd
   8163d:	3e 03 18                	b.extbz    r3,r3
   81640:	2c e1 24                	b.sw       0x24(r1),r7
   81643:	90 63 15 40 10 00       	b.addi     r3,r3,0x802a8
   81649:	2c ec 60                	b.lwz      r7,0x4(r12)
   8164c:	2c e1 14                	b.sw       0x28(r1),r7
   8164f:	00 e7                   	b.movi     r7,-0x2
   81651:	28 e1 0c                	b.sh       0x30(r1),r7
   81654:	2c ea 40                	b.lwz      r7,0x0(r10)
   81657:	25 43 00                	b.lbz      r10,0x0(r3)
   8165a:	2c e1 34                	b.sw       0x2c(r1),r7
   8165d:	3c aa 50                	b.sfgtui   r10,0xa
   81660:	47 24 c0                	b.bf       81692 <v6LP_ProcessJenNetStackEvent+0x29a>
   81663:	00 c8                   	b.movi     r6,0x1
   81665:	3e 0a 39                	b.extbs    r7,r10
   81668:	60 e6 3e                	b.sll      r7,r6,r7
   8166b:	94 c7 31 a0 00 00       	b.andi     r6,r7,0x58c
   81671:	41 06 d0                	b.bnei     r6,0x0,8167c <v6LP_ProcessJenNetStackEvent+0x284>
   81674:	34 e7 40                	b.andi     r7,r7,0x2
   81677:	41 07 f0                	b.bnei     r7,0x0,81686 <v6LP_ProcessJenNetStackEvent+0x28e>
   8167a:	0c 60                   	b.j        81692 <v6LP_ProcessJenNetStackEvent+0x29a>
   8167c:	30 81 24                	b.addi     r4,r1,0x24
   8167f:	04 6a                   	b.mov      r3,r10
   81681:	49 0a 52                	b.jal      93fc3 <vNetworkModule_Update>
   81684:	0d c0                   	b.j        81692 <v6LP_ProcessJenNetStackEvent+0x29a>
   81686:	88 60 e9 e0 00 20       	b.lhz      r3,0x4000796(r0)
   8168c:	49 c5 ac                	b.jal      8ed1a <eCreateSocket.7967>
   8168f:	48 cd 12                	b.jal      9395b <vStartTrapTimer>
   81692:	04 6a                   	b.mov      r3,r10
   81694:	30 81 24                	b.addi     r4,r1,0x24
   81697:	38 a0 08                	b.ori      r5,r0,0x10
   8169a:	0f a7                   	b.j        81631 <v6LP_ProcessJenNetStackEvent+0x239>
   8169c:	8c e0 55 70 00 20       	b.lwz      r7,0x4000ea8(r0)
   816a2:	2c e7 63                	b.lwz      r7,0xc4(r7)
   816a5:	40 07 60                	b.beqi     r7,0x0,816ab <v6LP_ProcessJenNetStackEvent+0x2b3>
   816a8:	47 d1 38                	b.jalr     r7
   816ab:	00 6a                   	b.movi     r3,0x5
   816ad:	0c 07                   	b.j        8162d <v6LP_ProcessJenNetStackEvent+0x235>
   816af:	38 60 90                	b.ori      r3,r0,0x9
   816b2:	0c 28                   	b.j        81702 <v6LP_ProcessJenNetStackEvent+0x30a>
   816b4:	88 e0 e6 10 00 20       	b.lhz      r7,0x4000866(r0)
   816ba:	30 61 20                	b.addi     r3,r1,0x4
   816bd:	2c 01 25                	b.sw       0xa4(r1),r0
   816c0:	2c 01 0d                	b.sw       0xb0(r1),r0
   816c3:	2c 01 2d                	b.sw       0xb4(r1),r0
   816c6:	2c 01 1d                	b.sw       0xb8(r1),r0
   816c9:	2c 01 3d                	b.sw       0xbc(r1),r0
   816cc:	28 e1 15                	b.sh       0xa8(r1),r7
   816cf:	4b e4 d4                	b.jal      8c36e <i6LP_DefGetDataBuffer>
   816d2:	d0 40 3c f8             	b.bnei     r3,0x0,818c5 <v6LP_ProcessJenNetStackEvent+0x4cd>
   816d6:	2c 61 60                	b.lwz      r3,0x4(r1)
   816d9:	38 a0 10                	b.ori      r5,r0,0x8
   816dc:	04 8c                   	b.mov      r4,r12
   816de:	20 03 00                	b.sb       0x0(r3),r0
   816e1:	20 03 80                	b.sb       0x1(r3),r0
   816e4:	00 74                   	b.addi     r3,r3,0x2
   816e6:	d4 6e 97 ef             	b.jal      5c <memcpy>
   816ea:	2c 81 60                	b.lwz      r4,0x4(r1)
   816ed:	8c 60 72 80 00 20       	b.lwz      r3,0x400014c(r0)
   816f3:	38 a0 50                	b.ori      r5,r0,0xa
   816f6:	d8 c1 25 00             	b.addi     r6,r1,0xa4
   816fa:	4a a8 54                	b.jal      8bf4f <i6LP_DefSendTo.constprop.54>
   816fd:	0c 4e                   	b.j        818c5 <v6LP_ProcessJenNetStackEvent+0x4cd>
   816ff:	38 60 30                	b.ori      r3,r0,0xc
   81702:	38 a0 10                	b.ori      r5,r0,0x8
   81705:	0c d3                   	b.j        81631 <v6LP_ProcessJenNetStackEvent+0x239>
   81707:	24 e5 d0                	b.lbz      r7,0xb(r5)
   8170a:	30 c6 2f                	b.addi     r6,r6,-0xc
   8170d:	3e 06 30                	b.extbz    r6,r6
   81710:	40 67 22                	b.beqi     r7,0x6,81754 <v6LP_ProcessJenNetStackEvent+0x35c>
   81713:	d1 d8 7b 00             	b.bgtui    r7,0x6,81720 <v6LP_ProcessJenNetStackEvent+0x328>
   81717:	40 47 b8                	b.beqi     r7,0x2,81734 <v6LP_ProcessJenNetStackEvent+0x33c>
   8171a:	d0 48 7d 58             	b.bnei     r7,0x4,818c5 <v6LP_ProcessJenNetStackEvent+0x4cd>
   8171e:	0d b0                   	b.j        81754 <v6LP_ProcessJenNetStackEvent+0x35c>
   81720:	9d 87 21 00 00 00       	b.sfeqi    r7,0x84
   81726:	47 24 c8                	b.bf       81858 <v6LP_ProcessJenNetStackEvent+0x460>
   81729:	9d 87 61 00 00 00       	b.sfeqi    r7,0x86
   8172f:	47 36 98                	b.bnf      818c5 <v6LP_ProcessJenNetStackEvent+0x4cd>
   81732:	0d 92                   	b.j        81858 <v6LP_ProcessJenNetStackEvent+0x460>
   81734:	30 85 30                	b.addi     r4,r5,0xc
   81737:	8c 60 76 10 00 20       	b.lwz      r3,0x400086c(r0)
   8173d:	84 a0 16 10 00 20       	b.lbz      r5,0x4000868(r0)
   81743:	84 e0 8a 80 00 20       	b.lbz      r7,0x4000151(r0)
   81749:	49 e8 5c                	b.jal      8ffa7 <u8DecompressAddrs.18224>
   8174c:	80 60 16 10 00 20       	b.sb       0x4000868(r0),r3
   81752:	0f 3a                   	b.j        818c5 <v6LP_ProcessJenNetStackEvent+0x4cd>
   81754:	8c e0 55 70 00 20       	b.lwz      r7,0x4000ea8(r0)
   8175a:	24 e7 12                	b.lbz      r7,0x48(r7)
   8175d:	d0 60 72 70             	b.bnei     r7,0x1,81841 <v6LP_ProcessJenNetStackEvent+0x449>
   81761:	d9 a1 23 00             	b.addi     r13,r1,0xc4
   81765:	30 8a 30                	b.addi     r4,r10,0xc
   81768:	04 6d                   	b.mov      r3,r13
   8176a:	00 a0                   	b.movi     r5,0x0
   8176c:	00 e2                   	b.movi     r7,0x4
   8176e:	4a 70 5c                	b.jal      8ffa7 <u8DecompressAddrs.18224>
   81771:	05 63                   	b.mov      r11,r3
   81773:	d0 00 34 a8             	b.beqi     r3,0x0,818c5 <v6LP_ProcessJenNetStackEvent+0x4cd>
   81777:	24 ea d0                	b.lbz      r7,0xb(r10)
   8177a:	41 27 5c                	b.bnei     r7,0x4,817b4 <v6LP_ProcessJenNetStackEvent+0x3bc>
   8177d:	0d 60                   	b.j        81797 <v6LP_ProcessJenNetStackEvent+0x39f>
   8177f:	6c 6c 20                	b.slli     r3,r12,0x4
   81782:	08 6d                   	b.add      r3,r3,r13
   81784:	01 98                   	b.addi     r12,r12,0x1
   81786:	8c 80 76 10 00 20       	b.lwz      r4,0x400086c(r0)
   8178c:	49 33 60                	b.jal      832be <u8GroupAddUnique.18219>
   8178f:	80 60 16 10 00 20       	b.sb       0x4000868(r0),r3
   81795:	0c 80                   	b.j        81799 <v6LP_ProcessJenNetStackEvent+0x3a1>
   81797:	01 80                   	b.movi     r12,0x0
   81799:	84 a0 16 10 00 20       	b.lbz      r5,0x4000868(r0)
   8179f:	84 e0 8a 80 00 20       	b.lbz      r7,0x4000151(r0)
   817a5:	d3 8a 71 00             	b.bgeu     r5,r7,817ad <v6LP_ProcessJenNetStackEvent+0x3b5>
   817a9:	d3 56 c6 bf             	b.bgts     r11,r12,8177f <v6LP_ProcessJenNetStackEvent+0x387>
   817ad:	00 e8                   	b.movi     r7,0x1
   817af:	20 e1 82                	b.sb       0x41(r1),r7
   817b2:	0e 80                   	b.j        817b7 <v6LP_ProcessJenNetStackEvent+0x3bf>
   817b4:	20 01 82                	b.sb       0x41(r1),r0
   817b7:	24 aa d0                	b.lbz      r5,0xb(r10)
   817ba:	d9 81 23 00             	b.addi     r12,r1,0xc4
   817be:	04 8b                   	b.mov      r4,r11
   817c0:	04 6c                   	b.mov      r3,r12
   817c2:	48 b7 d4                	b.jal      8c776 <bGenerateMLDv2.18199>
   817c5:	31 aa c0                	b.addi     r13,r10,0x3
   817c8:	38 a0 10                	b.ori      r5,r0,0x8
   817cb:	30 61 2c                	b.addi     r3,r1,0x34
   817ce:	04 8d                   	b.mov      r4,r13
   817d0:	d4 31 17 ef             	b.jal      5c <memcpy>
   817d4:	38 e0 04                	b.ori      r7,r0,0x20
   817d7:	38 a0 10                	b.ori      r5,r0,0x8
   817da:	30 61 38                	b.addi     r3,r1,0x1c
   817dd:	04 8d                   	b.mov      r4,r13
   817df:	c0 e1 20 80             	b.sb       0x104(r1),r7
   817e3:	38 e0 0a                	b.ori      r7,r0,0x50
   817e6:	c0 e1 60 80             	b.sb       0x106(r1),r7
   817ea:	24 ea d0                	b.lbz      r7,0xb(r10)
   817ed:	2d 81 3c                	b.sw       0x3c(r1),r12
   817f0:	30 e7 01                	b.addi     r7,r7,-0x80
   817f3:	c0 e1 f0 80             	b.sb       0x10f(r1),r7
   817f7:	21 61 02                	b.sb       0x40(r1),r11
   817fa:	d4 46 17 ef             	b.jal      5c <memcpy>
   817fe:	2c e1 78                	b.lwz      r7,0x1c(r1)
   81801:	98 80 0f e0 00 20       	b.ori      r4,r0,0x40007f0
   81807:	38 a0 10                	b.ori      r5,r0,0x8
   8180a:	04 6d                   	b.mov      r3,r13
   8180c:	cc e1 08 80             	b.sw       0x110(r1),r7
   81810:	2c e1 44                	b.lwz      r7,0x20(r1)
   81813:	cc e1 28 80             	b.sw       0x114(r1),r7
   81817:	d4 a2 17 ef             	b.jal      5c <memcpy>
   8181b:	d8 61 18 80             	b.addi     r3,r1,0x118
   8181f:	04 8c                   	b.mov      r4,r12
   81821:	04 ab                   	b.mov      r5,r11
   81823:	4b 6d 60                	b.jal      832fe <u8CompressAddrs.18204>
   81826:	30 e3 28                	b.addi     r7,r3,0x14
   81829:	00 80                   	b.movi     r4,0x0
   8182b:	8c 60 7f e0 00 20       	b.lwz      r3,0x40007fc(r0)
   81831:	30 a1 38                	b.addi     r5,r1,0x1c
   81834:	d8 63 19 80             	b.addi     r3,r3,0x198
   81838:	d8 c1 20 80             	b.addi     r6,r1,0x104
   8183c:	3e 07 3a                	b.exthz    r7,r7
   8183f:	0f 04                   	b.j        818c2 <v6LP_ProcessJenNetStackEvent+0x4ca>
   81841:	8c 60 7f e0 00 20       	b.lwz      r3,0x40007fc(r0)
   81847:	00 80                   	b.movi     r4,0x0
   81849:	d8 63 19 80             	b.addi     r3,r3,0x198
   8184d:	00 a0                   	b.movi     r5,0x0
   8184f:	04 ca                   	b.mov      r6,r10
   81851:	04 eb                   	b.mov      r7,r11
   81853:	4b 7a f8                	b.jal      895ce <eNwk_TransmitPacketVect>
   81856:	0f d8                   	b.j        818c5 <v6LP_ProcessJenNetStackEvent+0x4cd>
   81858:	30 61 38                	b.addi     r3,r1,0x1c
   8185b:	30 8a 30                	b.addi     r4,r10,0xc
   8185e:	38 a0 10                	b.ori      r5,r0,0x8
   81861:	d4 df e7 ef             	b.jal      5c <memcpy>
   81865:	8c e0 6f e0 00 20       	b.lwz      r7,0x40007f4(r0)
   8186b:	2c c1 44                	b.lwz      r6,0x20(r1)
   8186e:	d2 cc 78 20             	b.bne      r6,r7,818af <v6LP_ProcessJenNetStackEvent+0x4b7>
   81872:	8c e0 4f e0 00 20       	b.lwz      r7,0x40007f0(r0)
   81878:	2c c1 78                	b.lwz      r6,0x1c(r1)
   8187b:	d2 cc 72 c0             	b.bne      r6,r7,818af <v6LP_ProcessJenNetStackEvent+0x4b7>
   8187f:	30 8a 28                	b.addi     r4,r10,0x14
   81882:	30 cb 37                	b.addi     r6,r11,-0x14
   81885:	d8 61 23 00             	b.addi     r3,r1,0xc4
   81889:	00 a0                   	b.movi     r5,0x0
   8188b:	3e 06 30                	b.extbz    r6,r6
   8188e:	00 e2                   	b.movi     r7,0x4
   81890:	4b a3 9c                	b.jal      8ffa7 <u8DecompressAddrs.18224>
   81893:	24 aa d0                	b.lbz      r5,0xb(r10)
   81896:	30 e0 21                	b.addi     r7,r0,-0x7c
   81899:	60 a5 3a                	b.xor      r5,r5,r7
   8189c:	3e 05 28                	b.extbz    r5,r5
   8189f:	00 bf                   	b.addi     r5,r5,-0x1
   818a1:	04 83                   	b.mov      r4,r3
   818a3:	6c a5 f9                	b.srli     r5,r5,0x1f
   818a6:	d8 61 23 00             	b.addi     r3,r1,0xc4
   818aa:	4b 89 48                	b.jal      862f1 <v6LP_SocketGroupChangeAcked>
   818ad:	0c 60                   	b.j        818c5 <v6LP_ProcessJenNetStackEvent+0x4cd>
   818af:	8c 60 7f e0 00 20       	b.lwz      r3,0x40007fc(r0)
   818b5:	30 a1 38                	b.addi     r5,r1,0x1c
   818b8:	d8 63 19 80             	b.addi     r3,r3,0x198
   818bc:	04 8c                   	b.mov      r4,r12
   818be:	04 ca                   	b.mov      r6,r10
   818c0:	04 eb                   	b.mov      r7,r11
   818c2:	4b b6 04                	b.jal      89a79 <ePAR_RoutePacketVect>
   818c5:	47 ba ea                	b.reti     0x5,0x57

000818c8 <Node_eJipInit>:
   818c8:	98 e0 40 00 17 01       	b.ori      r7,r0,0x80e80002
   818ce:	98 c0 cb d0 20 bf       	b.ori      r6,r0,0xfd040bd3
   818d4:	47 a6 58                	b.entri    0x6,0x1a
   818d7:	8c e0 3b 60 00 20       	b.sw       0x40006dc(r0),r7
   818dd:	98 e0 00 1f ff e0       	b.ori      r7,r0,0x7fff800
   818e3:	8c e0 07 60 00 20       	b.sw       0x40006e0(r0),r7
   818e9:	00 ef                   	b.movi     r7,-0x1
   818eb:	88 e0 27 60 00 20       	b.sh       0x40006e4(r0),r7
   818f1:	00 e2                   	b.movi     r7,0x4
   818f3:	88 e0 17 60 00 20       	b.sh       0x40006e8(r0),r7
   818f9:	00 e8                   	b.movi     r7,0x1
   818fb:	80 e0 d7 60 00 20       	b.sb       0x40006eb(r0),r7
   81901:	38 e0 08                	b.ori      r7,r0,0x10
   81904:	8c e0 37 60 00 20       	b.sw       0x40006ec(r0),r7
   8190a:	80 e0 2f 60 00 20       	b.sb       0x40006f4(r0),r7
   81910:	80 e0 af 60 00 20       	b.sb       0x40006f5(r0),r7
   81916:	80 e0 6f 60 00 20       	b.sb       0x40006f6(r0),r7
   8191c:	80 e0 ef 60 00 20       	b.sb       0x40006f7(r0),r7
   81922:	d8 e0 8a e0             	b.addi     r7,r0,0x751
   81926:	8c c0 1b 60 00 20       	b.sw       0x40006d8(r0),r6
   8192c:	98 c0 2e 00 80 10       	b.ori      r6,r0,0x8010074
   81932:	88 e0 1f 60 00 20       	b.sh       0x40006f8(r0),r7
   81938:	98 e0 0d 40 10 00       	b.ori      r7,r0,0x802b0
   8193e:	8c c0 0f 60 00 20       	b.sw       0x40006f0(r0),r6
   81944:	8c e0 3f 60 00 20       	b.sw       0x40006fc(r0),r7
   8194a:	d8 e0 ca e0             	b.addi     r7,r0,0x753
   8194e:	84 c0 1a 60 00 20       	b.lbz      r6,0x4000658(r0)
   81954:	88 e0 00 e0 00 20       	b.sh       0x4000700(r0),r7
   8195a:	00 e4                   	b.movi     r7,0x2
   8195c:	88 00 67 60 00 20       	b.sh       0x40006e6(r0),r0
   81962:	80 e0 57 60 00 20       	b.sb       0x40006ea(r0),r7
   81968:	30 e6 af                	b.addi     r7,r6,-0xb
   8196b:	3c a7 f0                	b.sfgtui   r7,0xf
   8196e:	47 29 40                	b.bf       81997 <Node_eJipInit+0xcf>
   81971:	88 e0 da 60 00 20       	b.lhz      r7,0x400065a(r0)
   81977:	30 a7 ff                	b.addi     r5,r7,-0x1
   8197a:	3e 05 2a                	b.exthz    r5,r5
   8197d:	9e c5 bf ff 00 00       	b.sfgtui   r5,0xfffd
   81983:	47 22 80                	b.bf       81997 <Node_eJipInit+0xcf>
   81986:	00 a8                   	b.movi     r5,0x1
   81988:	60 c5 36                	b.sll      r6,r5,r6
   8198b:	8c c0 07 60 00 20       	b.sw       0x40006e0(r0),r6
   81991:	88 e0 27 60 00 20       	b.sh       0x40006e4(r0),r7
   81997:	38 e0 50                	b.ori      r7,r0,0xa
   8199a:	80 e0 94 c0 00 20       	b.sb       0x4000329(r0),r7
   819a0:	38 e0 10                	b.ori      r7,r0,0x8
   819a3:	80 e0 28 40 00 20       	b.sb       0x4000214(r0),r7
   819a9:	cc f0 79 01             	b.lwz      r7,-0x7f64(r16)
   819ad:	94 e7 00 40 00 00       	b.andi     r7,r7,0x200
   819b3:	40 07 6f                	b.beqi     r7,0x0,819a9 <Node_eJipInit+0xe1>
   819b6:	46 25 e0                	b.j        8215a <Node_eJipInit+0x892>
   819b9:	2c e1 52                	b.lwz      r7,0x48(r1)
   819bc:	3c a7 f8                	b.sfgtui   r7,0x1f
   819bf:	47 2d 00                	b.bf       819ca <Node_eJipInit+0x102>
   819c2:	00 c8                   	b.movi     r6,0x1
   819c4:	60 e6 3e                	b.sll      r7,r6,r7
   819c7:	2c e1 12                	b.sw       0x48(r1),r7
   819ca:	2c e1 52                	b.lwz      r7,0x48(r1)
   819cd:	94 e7 00 1f ff e0       	b.andi     r7,r7,0x7fff800
   819d3:	2c e1 12                	b.sw       0x48(r1),r7
   819d6:	41 07 b0                	b.bnei     r7,0x0,819e3 <Node_eJipInit+0x11b>
   819d9:	d8 e0 80 04             	b.addi     r7,r0,0x2001
   819dd:	2c e3 32                	b.sw       0x4c(r3),r7
   819e0:	46 e8 10                	b.j        821f7 <Node_eJipInit+0x92f>
   819e3:	98 e0 fc 5f 10 00       	b.ori      r7,r0,0x8fa3f
   819e9:	00 a0                   	b.movi     r5,0x0
   819eb:	2c e3 00                	b.sw       0x0(r3),r7
   819ee:	98 e0 69 df 10 00       	b.ori      r7,r0,0x8fb96
   819f4:	2c e3 20                	b.sw       0x4(r3),r7
   819f7:	98 e0 f7 dd 10 00       	b.ori      r7,r0,0x8bbef
   819fd:	2c e3 10                	b.sw       0x8(r3),r7
   81a00:	98 e0 82 f4 10 00       	b.ori      r7,r0,0x82f41
   81a06:	2c e3 30                	b.sw       0xc(r3),r7
   81a09:	98 e0 14 af 10 00       	b.ori      r7,r0,0x8f528
   81a0f:	2c e3 08                	b.sw       0x10(r3),r7
   81a12:	98 e0 23 2f 10 00       	b.ori      r7,r0,0x8f4c4
   81a18:	2c e3 28                	b.sw       0x14(r3),r7
   81a1b:	98 e0 70 6f 10 00       	b.ori      r7,r0,0x8f60e
   81a21:	2c e3 18                	b.sw       0x18(r3),r7
   81a24:	98 e0 f8 ef 10 00       	b.ori      r7,r0,0x8f71f
   81a2a:	2c e3 38                	b.sw       0x1c(r3),r7
   81a2d:	98 e0 6a 26 10 00       	b.ori      r7,r0,0x86456
   81a33:	2c e3 14                	b.sw       0x28(r3),r7
   81a36:	98 e0 b3 f6 10 00       	b.ori      r7,r0,0x86fcd
   81a3c:	2c e3 34                	b.sw       0x2c(r3),r7
   81a3f:	98 e0 dc c2 10 00       	b.ori      r7,r0,0x8433b
   81a45:	2c e3 0c                	b.sw       0x30(r3),r7
   81a48:	98 e0 a4 8a 90 00       	b.ori      r7,r0,0x95125
   81a4e:	2c e3 24                	b.sw       0x24(r3),r7
   81a51:	98 e0 62 5e 10 00       	b.ori      r7,r0,0x87a46
   81a57:	2c e3 2c                	b.sw       0x34(r3),r7
   81a5a:	98 e0 a2 74 10 00       	b.ori      r7,r0,0x82e45
   81a60:	2c e3 1c                	b.sw       0x38(r3),r7
   81a63:	98 e0 11 b7 10 00       	b.ori      r7,r0,0x8ed88
   81a69:	2c e3 3c                	b.sw       0x3c(r3),r7
   81a6c:	98 e0 22 c3 10 00       	b.ori      r7,r0,0x8c344
   81a72:	2c e3 02                	b.sw       0x40(r3),r7
   81a75:	98 e0 2b b4 10 00       	b.ori      r7,r0,0x82dd4
   81a7b:	2c e3 22                	b.sw       0x44(r3),r7
   81a7e:	00 e4                   	b.movi     r7,0x2
   81a80:	20 e3 92                	b.sb       0x49(r3),r7
   81a83:	24 e1 4a                	b.lbz      r7,0x52(r1)
   81a86:	84 80 22 80 00 20       	b.lbz      r4,0x4000144(r0)
   81a8c:	00 f8                   	b.addi     r7,r7,0x1
   81a8e:	6c 84 c0                	b.slli     r4,r4,0x3
   81a91:	20 e1 4a                	b.sb       0x52(r1),r7
   81a94:	24 e1 ca                	b.lbz      r7,0x53(r1)
   81a97:	20 e3 12                	b.sb       0x48(r3),r7
   81a9a:	8c 60 4c 10 00 20       	b.lwz      r3,0x4000830(r0)
   81aa0:	48 8f 50                	b.jal      84664 <pvHeap_Alloc>
   81aa3:	84 80 a2 80 00 20       	b.lbz      r4,0x4000145(r0)
   81aa9:	38 e0 31                	b.ori      r7,r0,0x8c
   81aac:	00 a0                   	b.movi     r5,0x0
   81aae:	64 84 3b                	b.mul      r4,r4,r7
   81ab1:	8c 60 0c 10 00 20       	b.sw       0x4000830(r0),r3
   81ab7:	8c 60 54 10 00 20       	b.lwz      r3,0x4000828(r0)
   81abd:	4b 97 50                	b.jal      84664 <pvHeap_Alloc>
   81ac0:	84 80 94 c0 00 20       	b.lbz      r4,0x4000329(r0)
   81ac6:	80 00 2c 10 00 20       	b.sb       0x4000834(r0),r0
   81acc:	38 e0 1d                	b.ori      r7,r0,0xb8
   81acf:	00 a0                   	b.movi     r5,0x0
   81ad1:	80 00 ac 10 00 20       	b.sb       0x4000835(r0),r0
   81ad7:	64 84 3b                	b.mul      r4,r4,r7
   81ada:	8c 60 14 10 00 20       	b.sw       0x4000828(r0),r3
   81ae0:	8c 60 54 90 00 20       	b.lwz      r3,0x4000928(r0)
   81ae6:	80 00 34 10 00 20       	b.sb       0x400082c(r0),r0
   81aec:	80 00 b4 10 00 20       	b.sb       0x400082d(r0),r0
   81af2:	8c 00 28 10 00 20       	b.sw       0x4000814(r0),r0
   81af8:	8c 00 08 10 00 20       	b.sw       0x4000810(r0),r0
   81afe:	49 9b 50                	b.jal      84664 <pvHeap_Alloc>
   81b01:	84 a0 94 c0 00 20       	b.lbz      r5,0x4000329(r0)
   81b07:	8c 60 14 90 00 20       	b.sw       0x4000928(r0),r3
   81b0d:	30 85 ff                	b.addi     r4,r5,-0x1
   81b10:	d8 e3 1d 00             	b.addi     r7,r3,0xb8
   81b14:	00 c0                   	b.movi     r6,0x0
   81b16:	0c c0                   	b.j        81b22 <Node_eJipInit+0x25a>
   81b18:	cc e7 12 ff             	b.sw       -0xb8(r7),r7
   81b1c:	00 d8                   	b.addi     r6,r6,0x1
   81b1e:	d8 e7 1d 00             	b.addi     r7,r7,0xb8
   81b22:	d3 48 66 ff             	b.bgts     r4,r6,81b18 <Node_eJipInit+0x250>
   81b26:	38 e0 1d                	b.ori      r7,r0,0xb8
   81b29:	00 bf                   	b.addi     r5,r5,-0x1
   81b2b:	64 a5 3b                	b.mul      r5,r5,r7
   81b2e:	98 e0 34 90 00 20       	b.ori      r7,r0,0x400092c
   81b34:	08 a3                   	b.add      r5,r5,r3
   81b36:	2c 05 00                	b.sw       0x0(r5),r0
   81b39:	8c 60 1b 10 00 20       	b.sw       0x40008d8(r0),r3
   81b3f:	00 6e                   	b.movi     r3,0x7
   81b41:	8c e0 2b 10 00 20       	b.sw       0x40008d4(r0),r7
   81b47:	4a e6 a4                	b.jal      8b0e4 <vMiniMac_Init>
   81b4a:	8d 40 55 70 00 20       	b.lwz      r10,0x4000ea8(r0)
   81b50:	25 81 4a                	b.lbz      r12,0x52(r1)
   81b53:	38 80 2a                	b.ori      r4,r0,0x54
   81b56:	38 e0 3c                	b.ori      r7,r0,0x3c
   81b59:	00 a0                   	b.movi     r5,0x0
   81b5b:	2c 6a 4a                	b.lwz      r3,0x50(r10)
   81b5e:	64 8c 23                	b.mul      r4,r12,r4
   81b61:	20 ea f9                	b.sb       0x9f(r10),r7
   81b64:	00 ef                   	b.movi     r7,-0x1
   81b66:	2c 0a 32                	b.sw       0x4c(r10),r0
   81b69:	20 ea 79                	b.sb       0x9e(r10),r7
   81b6c:	2c 0a 15                	b.sw       0xa8(r10),r0
   81b6f:	4a bd 50                	b.jal      84664 <pvHeap_Alloc>
   81b72:	84 e0 14 c0 00 20       	b.lbz      r7,0x4000328(r0)
   81b78:	2c 6a 0a                	b.sw       0x50(r10),r3
   81b7b:	3c e7 04                	b.sfleui   r7,0x20
   81b7e:	47 23 00                	b.bf       81b8a <Node_eJipInit+0x2c2>
   81b81:	38 e0 04                	b.ori      r7,r0,0x20
   81b84:	80 e0 14 c0 00 20       	b.sb       0x4000328(r0),r7
   81b8a:	84 80 14 c0 00 20       	b.lbz      r4,0x4000328(r0)
   81b90:	8c 60 6b 90 00 20       	b.lwz      r3,0x40009d4(r0)
   81b96:	6c 84 20                	b.slli     r4,r4,0x4
   81b99:	00 a0                   	b.movi     r5,0x0
   81b9b:	4a 4d 50                	b.jal      84664 <pvHeap_Alloc>
   81b9e:	8c e0 55 70 00 20       	b.lwz      r7,0x4000ea8(r0)
   81ba4:	8c 60 2b 90 00 20       	b.sw       0x40009d4(r0),r3
   81baa:	01 40                   	b.movi     r10,0x0
   81bac:	8c 00 39 e0 00 20       	b.sw       0x400079c(r0),r0
   81bb2:	39 a0 2a                	b.ori      r13,r0,0x54
   81bb5:	01 cf                   	b.movi     r14,-0x1
   81bb7:	8c 00 19 e0 00 20       	b.sw       0x4000798(r0),r0
   81bbd:	8c 00 15 e0 00 20       	b.sw       0x40007a8(r0),r0
   81bc3:	8c 00 25 e0 00 20       	b.sw       0x40007a4(r0),r0
   81bc9:	8c 00 05 e0 00 20       	b.sw       0x40007a0(r0),r0
   81bcf:	2c 07 2a                	b.sw       0x54(r7),r0
   81bd2:	2c 07 1a                	b.sw       0x58(r7),r0
   81bd5:	2c 07 3a                	b.sw       0x5c(r7),r0
   81bd8:	2c 07 06                	b.sw       0x60(r7),r0
   81bdb:	21 87 26                	b.sb       0x64(r7),r12
   81bde:	0c c8                   	b.j        81c2a <Node_eJipInit+0x362>
   81be0:	8c 60 55 70 00 20       	b.lwz      r3,0x4000ea8(r0)
   81be6:	65 6a 6b                	b.mul      r11,r10,r13
   81be9:	2c 83 4a                	b.lwz      r4,0x50(r3)
   81bec:	30 63 3a                	b.addi     r3,r3,0x5c
   81bef:	08 8b                   	b.add      r4,r4,r11
   81bf1:	48 b5 74                	b.jal      8d6a5 <vDLISTaddToTail>
   81bf4:	8c c0 55 70 00 20       	b.lwz      r6,0x4000ea8(r0)
   81bfa:	00 a8                   	b.movi     r5,0x1
   81bfc:	2c e6 4a                	b.lwz      r7,0x50(r6)
   81bff:	08 eb                   	b.add      r7,r7,r11
   81c01:	20 07 1c                	b.sb       0x38(r7),r0
   81c04:	2d 47 10                	b.sw       0x8(r7),r10
   81c07:	01 58                   	b.addi     r10,r10,0x1
   81c09:	2c 07 30                	b.sw       0xc(r7),r0
   81c0c:	2c 07 08                	b.sw       0x10(r7),r0
   81c0f:	2c 07 28                	b.sw       0x14(r7),r0
   81c12:	2c e6 4a                	b.lwz      r7,0x50(r6)
   81c15:	08 eb                   	b.add      r7,r7,r11
   81c17:	21 c7 5c                	b.sb       0x3a(r7),r14
   81c1a:	2c e6 4a                	b.lwz      r7,0x50(r6)
   81c1d:	08 eb                   	b.add      r7,r7,r11
   81c1f:	20 a7 9c                	b.sb       0x39(r7),r5
   81c22:	2c e6 4a                	b.lwz      r7,0x50(r6)
   81c25:	09 67                   	b.add      r11,r11,r7
   81c27:	2c 0b 0a                	b.sw       0x50(r11),r0
   81c2a:	3e 0a 38                	b.extbz    r7,r10
   81c2d:	d3 d8 7c df             	b.bgtu     r12,r7,81be0 <Node_eJipInit+0x318>
   81c31:	01 40                   	b.movi     r10,0x0
   81c33:	0d 60                   	b.j        81c4d <Node_eJipInit+0x385>
   81c35:	8c 60 6b 90 00 20       	b.lwz      r3,0x40009d4(r0)
   81c3b:	6c ea 20                	b.slli     r7,r10,0x4
   81c3e:	08 67                   	b.add      r3,r3,r7
   81c40:	38 a0 08                	b.ori      r5,r0,0x10
   81c43:	01 58                   	b.addi     r10,r10,0x1
   81c45:	00 80                   	b.movi     r4,0x0
   81c47:	3e 0a 50                	b.extbz    r10,r10
   81c4a:	4a 7e 72                	b.jal      95643 <memset>
   81c4d:	84 e0 14 c0 00 20       	b.lbz      r7,0x4000328(r0)
   81c53:	d3 ce a4 7f             	b.bgtu     r7,r10,81c35 <Node_eJipInit+0x36d>
   81c57:	8c e0 6f e0 00 20       	b.lwz      r7,0x40007f4(r0)
   81c5d:	8c 60 55 70 00 20       	b.lwz      r3,0x4000ea8(r0)
   81c63:	2c e1 08                	b.sw       0x10(r1),r7
   81c66:	d8 63 31 00             	b.addi     r3,r3,0x8c
   81c6a:	30 81 30                	b.addi     r4,r1,0xc
   81c6d:	8c e0 4f e0 00 20       	b.lwz      r7,0x40007f0(r0)
   81c73:	2c e1 30                	b.sw       0xc(r1),r7
   81c76:	4a b8 60                	b.jal      834eb <i6LP_DefCreateInterfaceIdFrom64>
   81c79:	8c e0 55 70 00 20       	b.lwz      r7,0x4000ea8(r0)
   81c7f:	d8 a0 00 a0             	b.addi     r5,r0,0x500
   81c83:	2c c7 71                	b.lwz      r6,0x8c(r7)
   81c86:	28 07 19                	b.sh       0x98(r7),r0
   81c89:	2c c7 21                	b.sw       0x84(r7),r6
   81c8c:	2c c7 49                	b.lwz      r6,0x90(r7)
   81c8f:	20 07 05                	b.sb       0xa0(r7),r0
   81c92:	2c c7 11                	b.sw       0x88(r7),r6
   81c95:	38 c0 02                	b.ori      r6,r0,0x40
   81c98:	20 c7 69                	b.sb       0x96(r7),r6
   81c9b:	24 c7 12                	b.lbz      r6,0x48(r7)
   81c9e:	28 07 25                	b.sh       0xa4(r7),r0
   81ca1:	3c 06 80                	b.sfeqi    r6,0x1
   81ca4:	64 c6 02                	b.cmov     r6,r6,r0
   81ca7:	20 c7 33                	b.sb       0xcc(r7),r6
   81caa:	38 c0 0a                	b.ori      r6,r0,0x50
   81cad:	20 c7 65                	b.sb       0xa6(r7),r6
   81cb0:	28 c1 f2                	b.lhz      r6,0x4e(r1)
   81cb3:	2c 07 23                	b.sw       0xc4(r7),r0
   81cb6:	3c 26 00                	b.sfnei    r6,0x0
   81cb9:	64 c6 2a                	b.cmov     r6,r6,r5
   81cbc:	d8 a6 00 ff             	b.addi     r5,r6,-0x100
   81cc0:	9e c5 00 20 00 00       	b.sfgtui   r5,0x400
   81cc6:	2c 07 13                	b.sw       0xc8(r7),r0
   81cc9:	47 28 f2                	b.bf       821ba <Node_eJipInit+0x8f2>
   81ccc:	28 c7 39                	b.sh       0x9c(r7),r6
   81ccf:	28 61 8a                	b.lhz      r3,0x50(r1)
   81cd2:	2c e7 64                	b.lwz      r7,0x24(r7)
   81cd5:	47 d1 38                	b.jalr     r7
   81cd8:	42 03 88                	b.bgesi    r3,0x0,81ce9 <Node_eJipInit+0x421>
   81cdb:	98 c0 80 81 00 00       	b.ori      r6,r0,0x8101
   81ce1:	8c e0 55 70 00 20       	b.lwz      r7,0x4000ea8(r0)
   81ce7:	0c b2                   	b.j        81e1b <Node_eJipInit+0x553>
   81ce9:	8c e0 55 70 00 20       	b.lwz      r7,0x4000ea8(r0)
   81cef:	28 c1 b2                	b.lhz      r6,0x4c(r1)
   81cf2:	2c a1 42                	b.lwz      r5,0x40(r1)
   81cf5:	28 c7 19                	b.sh       0x98(r7),r6
   81cf8:	98 60 b2 10 00 20       	b.ori      r3,r0,0x400084d
   81cfe:	04 81                   	b.mov      r4,r1
   81d00:	2c c1 62                	b.lwz      r6,0x44(r1)
   81d03:	2c a7 01                	b.sw       0x80(r7),r5
   81d06:	2c c7 3e                	b.sw       0x7c(r7),r6
   81d09:	2c a1 00                	b.sw       0x0(r1),r5
   81d0c:	38 a0 10                	b.ori      r5,r0,0x8
   81d0f:	2c c1 20                	b.sw       0x4(r1),r6
   81d12:	d4 52 c7 ef             	b.jal      5c <memcpy>
   81d16:	84 e0 32 10 00 20       	b.lbz      r7,0x400084c(r0)
   81d1c:	d1 f8 7b 00             	b.bgtui    r7,0x7,81d29 <Node_eJipInit+0x461>
   81d20:	38 e0 10                	b.ori      r7,r0,0x8
   81d23:	80 e0 32 10 00 20       	b.sb       0x400084c(r0),r7
   81d29:	8c e0 72 80 00 20       	b.lwz      r7,0x400014c(r0)
   81d2f:	d0 7e 7c e0             	b.bnei     r7,-0x1,81da2 <Node_eJipInit+0x4da>
   81d33:	4a c7 cc                	b.jal      8ecc0 <i6LP_DefSocket.constprop.107>
   81d36:	28 e1 86                	b.lhz      r7,0x60(r1)
   81d39:	8c 60 32 80 00 20       	b.sw       0x400014c(r0),r3
   81d3f:	88 e0 66 10 00 20       	b.sh       0x4000866(r0),r7
   81d45:	d0 3e 3b a0             	b.beqi     r3,-0x1,81da2 <Node_eJipInit+0x4da>
   81d49:	30 61 04                	b.addi     r3,r1,0x20
   81d4c:	00 80                   	b.movi     r4,0x0
   81d4e:	48 50 34                	b.jal      8cd76 <i6LP_DefGetOwnDeviceAddress>
   81d51:	88 e0 e6 10 00 20       	b.lhz      r7,0x4000866(r0)
   81d57:	8c 60 72 80 00 20       	b.lwz      r3,0x400014c(r0)
   81d5d:	30 81 04                	b.addi     r4,r1,0x20
   81d60:	28 e1 24                	b.sh       0x24(r1),r7
   81d63:	4a 47 f0                	b.jal      85cec <i6LP_DefBind.constprop.108>
   81d66:	d0 7e 33 00             	b.bnei     r3,-0x1,81d72 <Node_eJipInit+0x4aa>
   81d6a:	8c 60 32 80 00 20       	b.sw       0x400014c(r0),r3
   81d70:	0d 30                   	b.j        81da2 <Node_eJipInit+0x4da>
   81d72:	8c e0 55 70 00 20       	b.lwz      r7,0x4000ea8(r0)
   81d78:	8c c0 72 80 00 20       	b.lwz      r6,0x400014c(r0)
   81d7e:	24 a7 26                	b.lbz      r5,0x64(r7)
   81d81:	d3 4a 6b 00             	b.bgts     r5,r6,81d8e <Node_eJipInit+0x4c6>
   81d85:	d8 c0 98 58             	b.addi     r6,r0,0x1a19
   81d89:	2c c7 32                	b.sw       0x4c(r7),r6
   81d8c:	0d a0                   	b.j        81da2 <Node_eJipInit+0x4da>
   81d8e:	38 a0 2a                	b.ori      r5,r0,0x54
   81d91:	2c e7 4a                	b.lwz      r7,0x50(r7)
   81d94:	64 c6 2b                	b.mul      r6,r6,r5
   81d97:	08 c7                   	b.add      r6,r6,r7
   81d99:	98 e0 35 aa 90 00       	b.ori      r7,r0,0x955ac
   81d9f:	2c e6 3c                	b.sw       0x3c(r6),r7
   81da2:	8c e0 55 70 00 20       	b.lwz      r7,0x4000ea8(r0)
   81da8:	d8 c0 80 84             	b.addi     r6,r0,0x2101
   81dac:	25 47 92                	b.lbz      r10,0x49(r7)
   81daf:	41 4a 36                	b.bnei     r10,0x2,81e1b <Node_eJipInit+0x553>
   81db2:	24 c1 ca                	b.lbz      r6,0x53(r1)
   81db5:	40 06 06                	b.beqi     r6,0x0,81e15 <Node_eJipInit+0x54d>
   81db8:	d2 10 69 00             	b.bleui    r6,0x2,81dc1 <Node_eJipInit+0x4f9>
   81dbc:	41 c6 9a                	b.bnei     r6,0x3,81e15 <Node_eJipInit+0x54d>
   81dbf:	0f 10                   	b.j        81de2 <Node_eJipInit+0x51a>
   81dc1:	30 61 02                	b.addi     r3,r1,0x40
   81dc4:	4b b1 82                	b.jal      923fb <vJnc_JenNetInitVariablesVect>
   81dc7:	49 b3 a4                	b.jal      8b4fd <vJnc_InitSystemVect.constprop.80>
   81dca:	00 e8                   	b.movi     r7,0x1
   81dcc:	80 e0 1b 90 00 20       	b.sb       0x40009d8(r0),r7
   81dd2:	00 68                   	b.movi     r3,0x1
   81dd4:	24 e1 ca                	b.lbz      r7,0x53(r1)
   81dd7:	40 87 a0                	b.beqi     r7,0x1,81ddc <Node_eJipInit+0x514>
   81dda:	00 60                   	b.movi     r3,0x0
   81ddc:	48 ff f4                	b.jal      8ddd8 <vApi_Start_CRVect>
   81ddf:	46 a7 c0                	b.j        821c4 <Node_eJipInit+0x8fc>
   81de2:	30 61 02                	b.addi     r3,r1,0x40
   81de5:	49 a1 82                	b.jal      923fb <vJnc_JenNetInitVariablesVect>
   81de8:	4a a3 a4                	b.jal      8b4fd <vJnc_InitSystemVect.constprop.80>
   81deb:	8c e0 7f e0 00 20       	b.lwz      r7,0x40007fc(r0)
   81df1:	c1 47 a6 80             	b.sb       0x165(r7),r10
   81df5:	4b ff 48                	b.jal      869f4 <vAHI_StartRandomNumberGenerator.constprop.102>
   81df8:	4a c5 50                	b.jal      84885 <bAHI_RndNumPoll>
   81dfb:	40 03 bf                	b.beqi     r3,0x0,81df8 <Node_eJipInit+0x530>
   81dfe:	8c e0 7f e0 00 20       	b.lwz      r7,0x40007fc(r0)
   81e04:	cc d0 63 01             	b.lwz      r6,-0x7f3c(r16)
   81e08:	c0 c7 01 80             	b.sb       0x180(r7),r6
   81e0c:	00 cc                   	b.movi     r6,0x3
   81e0e:	c0 c7 26 80             	b.sb       0x164(r7),r6
   81e12:	46 4d c0                	b.j        821c4 <Node_eJipInit+0x8fc>
   81e15:	d8 c0 80 a0             	b.addi     r6,r0,0x501
   81e19:	0d 00                   	b.j        81e1b <Node_eJipInit+0x553>
   81e1b:	2c c7 32                	b.sw       0x4c(r7),r6
   81e1e:	46 9b c0                	b.j        821f7 <Node_eJipInit+0x92f>
   81e21:	4a 7d cc                	b.jal      8ed1a <eCreateSocket.7967>
   81e24:	05 63                   	b.mov      r11,r3
   81e26:	d0 40 36 f8             	b.bnei     r3,0x0,8201c <Node_eJipInit+0x754>
   81e2a:	85 80 2f 60 00 20       	b.lbz      r12,0x40006f4(r0)
   81e30:	38 80 28                	b.ori      r4,r0,0x14
   81e33:	00 a8                   	b.movi     r5,0x1
   81e35:	8c 60 65 10 00 20       	b.lwz      r3,0x40008a4(r0)
   81e3b:	64 8c 23                	b.mul      r4,r12,r4
   81e3e:	85 60 6f 60 00 20       	b.lbz      r11,0x40006f6(r0)
   81e44:	85 40 af 60 00 20       	b.lbz      r10,0x40006f5(r0)
   81e4a:	49 60 50                	b.jal      84664 <pvHeap_Alloc>
   81e4d:	8c 60 25 10 00 20       	b.sw       0x40008a4(r0),r3
   81e53:	41 03 d0                	b.bnei     r3,0x0,81e5e <Node_eJipInit+0x596>
   81e56:	80 00 05 10 00 20       	b.sb       0x40008a0(r0),r0
   81e5c:	0e f0                   	b.j        81e99 <Node_eJipInit+0x5d1>
   81e5e:	8c 60 79 10 00 20       	b.lwz      r3,0x400089c(r0)
   81e64:	6c 8a c0                	b.slli     r4,r10,0x3
   81e67:	00 a8                   	b.movi     r5,0x1
   81e69:	4b 7f 90                	b.jal      84664 <pvHeap_Alloc>
   81e6c:	8c 60 39 10 00 20       	b.sw       0x400089c(r0),r3
   81e72:	41 03 d0                	b.bnei     r3,0x0,81e7d <Node_eJipInit+0x5b5>
   81e75:	81 80 05 10 00 20       	b.sb       0x40008a0(r0),r12
   81e7b:	0d e0                   	b.j        81e99 <Node_eJipInit+0x5d1>
   81e7d:	81 40 19 10 00 20       	b.sb       0x4000898(r0),r10
   81e83:	00 e0                   	b.movi     r7,0x0
   81e85:	00 cf                   	b.movi     r6,-0x1
   81e87:	0c c0                   	b.j        81e93 <Node_eJipInit+0x5cb>
   81e89:	6c a7 c0                	b.slli     r5,r7,0x3
   81e8c:	08 a3                   	b.add      r5,r5,r3
   81e8e:	00 f8                   	b.addi     r7,r7,0x1
   81e90:	20 c5 00                	b.sb       0x0(r5),r6
   81e93:	d3 54 76 ff             	b.bgts     r10,r7,81e89 <Node_eJipInit+0x5c1>
   81e97:	0d ef                   	b.j        81e75 <Node_eJipInit+0x5ad>
   81e99:	38 80 30                	b.ori      r4,r0,0xc
   81e9c:	00 a8                   	b.movi     r5,0x1
   81e9e:	8c 60 44 90 00 20       	b.lwz      r3,0x4000920(r0)
   81ea4:	64 8b 23                	b.mul      r4,r11,r4
   81ea7:	01 40                   	b.movi     r10,0x0
   81ea9:	4b 77 90                	b.jal      84664 <pvHeap_Alloc>
   81eac:	39 a0 30                	b.ori      r13,r0,0xc
   81eaf:	05 83                   	b.mov      r12,r3
   81eb1:	8c 60 04 90 00 20       	b.sw       0x4000920(r0),r3
   81eb7:	8c 00 09 10 00 20       	b.sw       0x4000890(r0),r0
   81ebd:	8c 00 29 10 00 20       	b.sw       0x4000894(r0),r0
   81ec3:	8c 00 11 10 00 20       	b.sw       0x4000888(r0),r0
   81ec9:	8c 00 31 10 00 20       	b.sw       0x400088c(r0),r0
   81ecf:	0d 20                   	b.j        81ee1 <Node_eJipInit+0x619>
   81ed1:	64 8a 6b                	b.mul      r4,r10,r13
   81ed4:	98 60 11 10 00 20       	b.ori      r3,r0,0x4000888
   81eda:	08 8c                   	b.add      r4,r4,r12
   81edc:	01 58                   	b.addi     r10,r10,0x1
   81ede:	4b 8f b4                	b.jal      8d6a5 <vDLISTaddToTail>
   81ee1:	d3 56 a0 ff             	b.bgts     r11,r10,81ed1 <Node_eJipInit+0x609>
   81ee5:	8c e0 72 00 00 20       	b.lwz      r7,0x400004c(r0)
   81eeb:	84 80 ef 60 00 20       	b.lbz      r4,0x40006f7(r0)
   81ef1:	98 c0 c4 d8 90 00       	b.ori      r6,r0,0x91b23
   81ef7:	8c e0 21 10 00 20       	b.sw       0x4000884(r0),r7
   81efd:	98 e0 20 6f 10 00       	b.ori      r7,r0,0x8f604
   81f03:	8c c0 32 00 00 20       	b.sw       0x400004c(r0),r6
   81f09:	8c e0 3e 10 00 20       	b.sw       0x400087c(r0),r7
   81f0f:	8c 00 01 10 00 20       	b.sw       0x4000880(r0),r0
   81f15:	80 80 08 90 00 20       	b.sb       0x4000910(r0),r4
   81f1b:	8d 40 7f 60 00 20       	b.lwz      r10,0x40006fc(r0)
   81f21:	40 04 68                	b.beqi     r4,0x0,81f37 <Node_eJipInit+0x66f>
   81f24:	8c 60 42 40 00 20       	b.lwz      r3,0x4000240(r0)
   81f2a:	00 98                   	b.addi     r4,r4,0x1
   81f2c:	00 a8                   	b.movi     r5,0x1
   81f2e:	49 b3 90                	b.jal      84664 <pvHeap_Alloc>
   81f31:	8c 60 02 40 00 20       	b.sw       0x4000240(r0),r3
   81f37:	98 60 18 40 00 20       	b.ori      r3,r0,0x4000218
   81f3d:	8d 40 0a 40 00 20       	b.sw       0x4000250(r0),r10
   81f43:	4b b3 60                	b.jal      83a7a <eJIP_RegisterMib>
   81f46:	8c e0 42 40 00 20       	b.lwz      r7,0x4000240(r0)
   81f4c:	41 07 08                	b.bnei     r7,0x0,81f5c <Node_eJipInit+0x694>
   81f4f:	98 60 18 40 00 20       	b.ori      r3,r0,0x4000218
   81f55:	00 88                   	b.movi     r4,0x1
   81f57:	00 a0                   	b.movi     r5,0x0
   81f59:	49 60 12                	b.jal      93f73 <vJIP_SetEnabled>
   81f5c:	8c e0 4a 40 00 20       	b.lwz      r7,0x4000250(r0)
   81f62:	41 07 08                	b.bnei     r7,0x0,81f72 <Node_eJipInit+0x6aa>
   81f65:	98 60 18 40 00 20       	b.ori      r3,r0,0x4000218
   81f6b:	00 84                   	b.movi     r4,0x2
   81f6d:	00 a0                   	b.movi     r5,0x0
   81f6f:	48 80 12                	b.jal      93f73 <vJIP_SetEnabled>
   81f72:	8c e0 55 70 00 20       	b.lwz      r7,0x4000ea8(r0)
   81f78:	98 60 15 10 00 20       	b.ori      r3,r0,0x40008a8
   81f7e:	38 a0 18                	b.ori      r5,r0,0x18
   81f81:	00 80                   	b.movi     r4,0x0
   81f83:	25 47 12                	b.lbz      r10,0x48(r7)
   81f86:	4a f5 b2                	b.jal      95643 <memset>
   81f89:	40 0a 30                	b.beqi     r10,0x0,81f95 <Node_eJipInit+0x6cd>
   81f8c:	30 ea ff                	b.addi     r7,r10,-0x1
   81f8f:	8c e0 15 10 00 20       	b.sw       0x40008a8(r0),r7
   81f95:	98 60 2a 80 00 20       	b.ori      r3,r0,0x4000154
   81f9b:	4b ed 60                	b.jal      83a7a <eJIP_RegisterMib>
   81f9e:	00 e8                   	b.movi     r7,0x1
   81fa0:	61 4a 3a                	b.xor      r10,r10,r7
   81fa3:	3e 0a 50                	b.extbz    r10,r10
   81fa6:	60 a0 55                	b.sub      r5,r0,r10
   81fa9:	98 60 2a 80 00 20       	b.ori      r3,r0,0x4000154
   81faf:	6c a5 f9                	b.srli     r5,r5,0x1f
   81fb2:	00 88                   	b.movi     r4,0x1
   81fb4:	4b f7 e2                	b.jal      93f73 <vJIP_SetEnabled>
   81fb7:	30 aa ff                	b.addi     r5,r10,-0x1
   81fba:	6c a5 f9                	b.srli     r5,r5,0x1f
   81fbd:	98 60 2a 80 00 20       	b.ori      r3,r0,0x4000154
   81fc3:	00 82                   	b.movi     r4,0x4
   81fc5:	49 d7 e2                	b.jal      93f73 <vJIP_SetEnabled>
   81fc8:	88 e0 9f 60 00 20       	b.lhz      r7,0x40006f8(r0)
   81fce:	00 80                   	b.movi     r4,0x0
   81fd0:	88 e0 24 90 00 20       	b.sh       0x4000924(r0),r7
   81fd6:	00 60                   	b.movi     r3,0x0
   81fd8:	4b 5f e2                	b.jal      93fc3 <vNetworkModule_Update>
   81fdb:	98 60 16 40 00 20       	b.ori      r3,r0,0x4000268
   81fe1:	4a 65 60                	b.jal      83a7a <eJIP_RegisterMib>
   81fe4:	98 60 1d 40 00 20       	b.ori      r3,r0,0x40002b8
   81fea:	48 25 60                	b.jal      83a7a <eJIP_RegisterMib>
   81fed:	00 ef                   	b.movi     r7,-0x1
   81fef:	98 60 27 80 00 20       	b.ori      r3,r0,0x40001e4
   81ff5:	01 60                   	b.movi     r11,0x0
   81ff7:	80 e0 93 10 00 20       	b.sb       0x40008c9(r0),r7
   81ffd:	8d 40 4f 60 00 20       	b.lwz      r10,0x40006f0(r0)
   82003:	4b b9 60                	b.jal      83a7a <eJIP_RegisterMib>
   82006:	8c c0 4f 60 00 20       	b.lwz      r6,0x40006f0(r0)
   8200c:	8c e0 7f e0 00 20       	b.lwz      r7,0x40007fc(r0)
   82012:	8d 40 33 10 00 20       	b.sw       0x40008cc(r0),r10
   82018:	cc c7 21 80             	b.sw       0x184(r7),r6
   8201c:	8c c0 55 70 00 20       	b.lwz      r6,0x4000ea8(r0)
   82022:	00 e8                   	b.movi     r7,0x1
   82024:	20 e6 f9                	b.sb       0x9f(r6),r7
   82027:	80 e0 30 90 00 20       	b.sb       0x400090c(r0),r7
   8202d:	cc f0 40 01             	b.lwz      r7,-0x8000(r16)
   82031:	98 e7 00 00 00 c0       	b.ori      r7,r7,0x3000000
   82037:	cc f0 00 01             	b.sw       -0x8000(r16),r7
   8203b:	84 e0 27 10 00 20       	b.lbz      r7,0x40008e4(r0)
   82041:	40 07 30                	b.beqi     r7,0x0,8204d <Node_eJipInit+0x785>
   82044:	84 60 bb 10 00 20       	b.lbz      r3,0x40008dd(r0)
   8204a:	4b ce 08                	b.jal      86219 <vSetChannelAndPower>
   8204d:	8d 80 58 90 00 20       	b.lwz      r12,0x4000918(r0)
   82053:	00 e4                   	b.movi     r7,0x2
   82055:	8c e0 38 10 00 20       	b.sw       0x400081c(r0),r7
   8205b:	24 ec 18                	b.lbz      r7,0x18(r12)
   8205e:	d0 40 7b 50             	b.bnei     r7,0x0,8210b <Node_eJipInit+0x843>
   82062:	98 80 fd 40 10 00       	b.ori      r4,r0,0x802bf
   82068:	38 a0 88                	b.ori      r5,r0,0x11
   8206b:	30 61 30                	b.addi     r3,r1,0xc
   8206e:	d4 77 fb ef             	b.jal      5c <memcpy>
   82072:	4b 73 50                	b.jal      84bad <pvAppApiDefGetMacAddrLocation>
   82075:	38 a0 10                	b.ori      r5,r0,0x8
   82078:	31 ac 18                	b.addi     r13,r12,0x18
   8207b:	98 80 6d 40 10 00       	b.ori      r4,r0,0x802b6
   82081:	05 43                   	b.mov      r10,r3
   82083:	04 6d                   	b.mov      r3,r13
   82085:	d4 eb fb ef             	b.jal      5c <memcpy>
   82089:	20 0c 04                	b.sb       0x20(r12),r0
   8208c:	04 6d                   	b.mov      r3,r13
   8208e:	48 ee b2                	b.jal      9566a <strlen>
   82091:	38 c0 04                	b.ori      r6,r0,0x20
   82094:	3e 03 18                	b.extbz    r3,r3
   82097:	60 ec 1c                	b.add      r7,r12,r3
   8209a:	30 a1 16                	b.addi     r5,r1,0x68
   8209d:	04 6c                   	b.mov      r3,r12
   8209f:	20 c7 18                	b.sb       0x18(r7),r6
   820a2:	2c ca 60                	b.lwz      r6,0x4(r10)
   820a5:	6c c6 29                	b.srli     r6,r6,0x14
   820a8:	34 c6 f0                	b.andi     r6,r6,0xf
   820ab:	08 c5                   	b.add      r6,r6,r5
   820ad:	c4 c6 25 ff             	b.lbz      r6,-0x5c(r6)
   820b1:	20 c7 98                	b.sb       0x19(r7),r6
   820b4:	28 ca a0                	b.lhz      r6,0x4(r10)
   820b7:	34 c6 f0                	b.andi     r6,r6,0xf
   820ba:	08 c5                   	b.add      r6,r6,r5
   820bc:	c4 c6 25 ff             	b.lbz      r6,-0x5c(r6)
   820c0:	20 c7 58                	b.sb       0x1a(r7),r6
   820c3:	2c ca 60                	b.lwz      r6,0x4(r10)
   820c6:	6c c6 31                	b.srli     r6,r6,0xc
   820c9:	34 c6 f0                	b.andi     r6,r6,0xf
   820cc:	08 c5                   	b.add      r6,r6,r5
   820ce:	c4 c6 25 ff             	b.lbz      r6,-0x5c(r6)
   820d2:	20 c7 d8                	b.sb       0x1b(r7),r6
   820d5:	2c ca 60                	b.lwz      r6,0x4(r10)
   820d8:	6c c6 11                	b.srli     r6,r6,0x8
   820db:	34 c6 f0                	b.andi     r6,r6,0xf
   820de:	08 c5                   	b.add      r6,r6,r5
   820e0:	c4 c6 25 ff             	b.lbz      r6,-0x5c(r6)
   820e4:	20 c7 38                	b.sb       0x1c(r7),r6
   820e7:	2c ca 60                	b.lwz      r6,0x4(r10)
   820ea:	6c c6 21                	b.srli     r6,r6,0x4
   820ed:	34 c6 f0                	b.andi     r6,r6,0xf
   820f0:	08 c5                   	b.add      r6,r6,r5
   820f2:	c4 c6 25 ff             	b.lbz      r6,-0x5c(r6)
   820f6:	20 c7 b8                	b.sb       0x1d(r7),r6
   820f9:	2c ca 60                	b.lwz      r6,0x4(r10)
   820fc:	34 c6 f0                	b.andi     r6,r6,0xf
   820ff:	08 c5                   	b.add      r6,r6,r5
   82101:	c4 c6 25 ff             	b.lbz      r6,-0x5c(r6)
   82105:	20 c7 78                	b.sb       0x1e(r7),r6
   82108:	48 b6 9c                	b.jal      906bc <PDM_vSaveRecord>
   8210b:	8c 80 58 90 00 20       	b.lwz      r4,0x4000918(r0)
   82111:	8d 40 42 40 00 20       	b.lwz      r10,0x4000240(r0)
   82117:	30 84 18                	b.addi     r4,r4,0x18
   8211a:	40 0a 84                	b.beqi     r10,0x0,8213b <Node_eJipInit+0x873>
   8211d:	85 80 08 90 00 20       	b.lbz      r12,0x4000910(r0)
   82123:	04 6a                   	b.mov      r3,r10
   82125:	04 ac                   	b.mov      r5,r12
   82127:	09 4c                   	b.add      r10,r10,r12
   82129:	4b 2a b2                	b.jal      9567c <strncpy>
   8212c:	98 60 18 40 00 20       	b.ori      r3,r0,0x4000218
   82132:	00 88                   	b.movi     r4,0x1
   82134:	c0 0a ff ff             	b.sb       -0x1(r10),r0
   82138:	48 59 e2                	b.jal      93fa0 <vJIP_NotifyChanged>
   8213b:	98 e0 c9 04 90 00       	b.ori      r7,r0,0x92093
   82141:	8c e0 28 90 00 20       	b.sw       0x4000914(r0),r7
   82147:	8c e0 78 90 00 20       	b.lwz      r7,0x400091c(r0)
   8214d:	c4 e7 18 80             	b.lbz      r7,0x118(r7)
   82151:	d0 40 7d 50             	b.bnei     r7,0x0,821fc <Node_eJipInit+0x934>
   82155:	48 56 02                	b.jal      922fd <MibGroup_vRestore.part.0.2322>
   82158:	0c 94                   	b.j        821fc <Node_eJipInit+0x934>
   8215a:	98 e0 40 00 17 01       	b.ori      r7,r0,0x80e80002
   82160:	98 c0 cb d0 20 bf       	b.ori      r6,r0,0xfd040bd3
   82166:	38 80 0b                	b.ori      r4,r0,0xd0
   82169:	00 a8                   	b.movi     r5,0x1
   8216b:	2c e1 22                	b.sw       0x44(r1),r7
   8216e:	8c e0 47 60 00 20       	b.lwz      r7,0x40006e0(r0)
   82174:	8c 60 55 70 00 20       	b.lwz      r3,0x4000ea8(r0)
   8217a:	2c e1 12                	b.sw       0x48(r1),r7
   8217d:	88 e0 a7 60 00 20       	b.lhz      r7,0x40006e4(r0)
   82183:	2c c1 02                	b.sw       0x40(r1),r6
   82186:	00 c8                   	b.movi     r6,0x1
   82188:	28 e1 32                	b.sh       0x4c(r1),r7
   8218b:	00 e2                   	b.movi     r7,0x4
   8218d:	28 e1 0a                	b.sh       0x50(r1),r7
   82190:	00 e4                   	b.movi     r7,0x2
   82192:	20 e1 4a                	b.sb       0x52(r1),r7
   82195:	20 e1 2a                	b.sb       0x54(r1),r7
   82198:	38 e0 08                	b.ori      r7,r0,0x10
   8219b:	2c e1 1a                	b.sw       0x58(r1),r7
   8219e:	d8 e0 ca e0             	b.addi     r7,r0,0x753
   821a2:	28 01 72                	b.sh       0x4e(r1),r0
   821a5:	20 c1 ca                	b.sb       0x53(r1),r6
   821a8:	28 e1 06                	b.sh       0x60(r1),r7
   821ab:	4a 74 90                	b.jal      84664 <pvHeap_Alloc>
   821ae:	8c 60 15 70 00 20       	b.sw       0x4000ea8(r0),r3
   821b4:	d0 40 3a 01             	b.bnei     r3,0x0,819b9 <Node_eJipInit+0xf1>
   821b8:	0f f0                   	b.j        821f7 <Node_eJipInit+0x92f>
   821ba:	d8 c0 40 c0             	b.addi     r6,r0,0x302
   821be:	2c c7 32                	b.sw       0x4c(r7),r6
   821c1:	46 58 df                	b.j        81cdb <Node_eJipInit+0x413>
   821c4:	8c e0 40 10 00 20       	b.lwz      r7,0x4000800(r0)
   821ca:	98 c0 32 10 00 20       	b.ori      r6,r0,0x400084c
   821d0:	cc c7 12 80             	b.sw       0x148(r7),r6
   821d4:	98 c0 1a 8c 10 00       	b.ori      r6,r0,0x83158
   821da:	88 60 9f 60 00 20       	b.lhz      r3,0x40006f8(r0)
   821e0:	cc c7 02 80             	b.sw       0x140(r7),r6
   821e4:	84 e0 d7 60 00 20       	b.lbz      r7,0x40006eb(r0)
   821ea:	88 60 69 e0 00 20       	b.sh       0x4000796(r0),r3
   821f0:	d0 60 75 c3             	b.bnei     r7,0x1,81e2a <Node_eJipInit+0x562>
   821f4:	46 b4 3f                	b.j        81e21 <Node_eJipInit+0x559>
   821f7:	39 60 ff                	b.ori      r11,r0,0xff
   821fa:	0d 11                   	b.j        8201c <Node_eJipInit+0x754>
   821fc:	8c e0 78 e0 00 20       	b.lwz      r7,0x400071c(r0)
   82202:	2c 67 40                	b.lwz      r3,0x0(r7)
   82205:	4a b8 60                	b.jal      83a7a <eJIP_RegisterMib>
   82208:	8c e0 58 e0 00 20       	b.lwz      r7,0x4000718(r0)
   8220e:	2c 67 40                	b.lwz      r3,0x0(r7)
   82211:	4a 58 60                	b.jal      83a7a <eJIP_RegisterMib>
   82214:	8c e0 58 e0 00 20       	b.lwz      r7,0x4000718(r0)
   8221a:	00 c8                   	b.movi     r6,0x1
   8221c:	98 60 2a 00 00 20       	b.ori      r3,r0,0x4000054
   82222:	20 c7 0c                	b.sb       0x30(r7),r6
   82225:	4a a8 60                	b.jal      83a7a <eJIP_RegisterMib>
   82228:	98 60 02 60 00 20       	b.ori      r3,r0,0x4000640
   8222e:	49 c4 9c                	b.jal      906bc <PDM_vSaveRecord>
   82231:	04 6b                   	b.mov      r3,r11
   82233:	47 b6 58                	b.reti     0x6,0x1a
	...

00082238 <Node_vPdmInit.constprop.114>:
   82238:	47 ae 84                	b.entri    0x7,0x21
   8223b:	8c e0 7b 90 00 20       	b.lwz      r7,0x40009dc(r0)
   82241:	85 60 07 90 00 20       	b.lbz      r11,0x40009e0(r0)
   82247:	cc d0 60 01             	b.lwz      r6,-0x7ffc(r16)
   8224b:	34 c6 40                	b.andi     r6,r6,0x2
   8224e:	a0 40 67 e1 00 00       	b.bnei     r6,0x0,82acc <Node_vPdmInit.constprop.114+0x894>
   82254:	3e 07 38                	b.extbz    r7,r7
   82257:	30 cb ff                	b.addi     r6,r11,-0x1
   8225a:	30 a7 ff                	b.addi     r5,r7,-0x1
   8225d:	60 c5 31                	b.or       r6,r5,r6
   82260:	a1 40 6b c1 00 00       	b.bltsi    r6,0x0,82a9d <Node_vPdmInit.constprop.114+0x865>
   82266:	38 80 38                	b.ori      r4,r0,0x1c
   82269:	98 c0 1c 50 00 20       	b.ori      r6,r0,0x4000a38
   8226f:	00 a8                   	b.movi     r5,0x1
   82271:	8c 60 7c 50 00 20       	b.lwz      r3,0x4000a3c(r0)
   82277:	64 8b 23                	b.mul      r4,r11,r4
   8227a:	80 e0 1c 50 00 20       	b.sb       0x4000a38(r0),r7
   82280:	8c c0 05 70 00 20       	b.sw       0x4000ea0(r0),r6
   82286:	81 60 9c 50 00 20       	b.sb       0x4000a39(r0),r11
   8228c:	81 60 02 50 00 20       	b.sb       0x4000a40(r0),r11
   82292:	49 2f 10                	b.jal      84664 <pvHeap_Alloc>
   82295:	8d 40 45 70 00 20       	b.lwz      r10,0x4000ea0(r0)
   8229b:	8c 60 3c 50 00 20       	b.sw       0x4000a3c(r0),r3
   822a1:	2c ea 60                	b.lwz      r7,0x4(r10)
   822a4:	d0 00 79 fe             	b.beqi     r7,0x0,82a9d <Node_vPdmInit.constprop.114+0x865>
   822a8:	24 8a 00                	b.lbz      r4,0x0(r10)
   822ab:	2c 6a 78                	b.lwz      r3,0x1c(r10)
   822ae:	30 84 0f                	b.addi     r4,r4,-0x10
   822b1:	00 a8                   	b.movi     r5,0x1
   822b3:	4a 37 10                	b.jal      84664 <pvHeap_Alloc>
   822b6:	2c 6a 38                	b.sw       0x1c(r10),r3
   822b9:	8d 40 45 70 00 20       	b.lwz      r10,0x4000ea0(r0)
   822bf:	2c ea 78                	b.lwz      r7,0x1c(r10)
   822c2:	d0 00 7d be             	b.beqi     r7,0x0,82a9d <Node_vPdmInit.constprop.114+0x865>
   822c6:	2c 6a 44                	b.lwz      r3,0x20(r10)
   822c9:	38 80 08                	b.ori      r4,r0,0x10
   822cc:	00 a8                   	b.movi     r5,0x1
   822ce:	49 a7 10                	b.jal      84664 <pvHeap_Alloc>
   822d1:	8c e0 45 70 00 20       	b.lwz      r7,0x4000ea0(r0)
   822d7:	2c 6a 04                	b.sw       0x20(r10),r3
   822da:	2c c7 44                	b.lwz      r6,0x20(r7)
   822dd:	d0 00 60 3e             	b.beqi     r6,0x0,82a9d <Node_vPdmInit.constprop.114+0x865>
   822e1:	2c 07 30                	b.sw       0xc(r7),r0
   822e4:	99 80 00 64 9a 82       	b.ori      r12,r0,0x41592600
   822ea:	01 40                   	b.movi     r10,0x0
   822ec:	2c 07 08                	b.sw       0x10(r7),r0
   822ef:	2c 07 28                	b.sw       0x14(r7),r0
   822f2:	2c 07 18                	b.sw       0x18(r7),r0
   822f5:	20 07 21                	b.sb       0x84(r7),r0
   822f8:	30 81 0e                	b.addi     r4,r1,0x70
   822fb:	3e 0a 18                	b.extbz    r3,r10
   822fe:	20 61 36                	b.sb       0x6c(r1),r3
   82301:	4a d1 7c                	b.jal      91d2e <iPDM_ReadSegmentHeaderFromEEPROM>
   82304:	24 e1 de                	b.lbz      r7,0x7b(r1)
   82307:	3c 27 8c                	b.sfnei    r7,0x31
   8230a:	47 29 80                	b.bf       82323 <Node_vPdmInit.constprop.114+0xeb>
   8230d:	2c c1 7e                	b.lwz      r6,0x7c(r1)
   82310:	94 c6 00 ff ff ff       	b.andi     r6,r6,0xffffff00
   82316:	60 c6 62                	b.xor      r6,r6,r12
   82319:	3e 06 34                	b.ff1      r6,r6
   8231c:	00 df                   	b.addi     r6,r6,-0x1
   8231e:	6c c6 f9                	b.srli     r6,r6,0x1f
   82321:	0c 80                   	b.j        82325 <Node_vPdmInit.constprop.114+0xed>
   82323:	00 c0                   	b.movi     r6,0x0
   82325:	01 58                   	b.addi     r10,r10,0x1
   82327:	8c e0 45 70 00 20       	b.lwz      r7,0x4000ea0(r0)
   8232d:	a0 20 62 39 00 00       	b.beqi     r6,0x1,82cf1 <Node_vPdmInit.constprop.114+0xab9>
   82333:	24 e7 80                	b.lbz      r7,0x1(r7)
   82336:	d3 4e a4 3f             	b.bgts     r7,r10,822f8 <Node_vPdmInit.constprop.114+0xc0>
   8233a:	01 40                   	b.movi     r10,0x0
   8233c:	01 aa                   	b.movi     r13,0x5
   8233e:	0d f0                   	b.j        8237c <Node_vPdmInit.constprop.114+0x144>
   82340:	3e 0a 60                	b.extbz    r12,r10
   82343:	04 6c                   	b.mov      r3,r12
   82345:	4a 6a a8                	b.jal      8789e <bPDM_IsEEPROMsegmentErased>
   82348:	41 03 4c                	b.bnei     r3,0x0,8237a <Node_vPdmInit.constprop.114+0x142>
   8234b:	4b 3c 7c                	b.jal      91c3e <bPDM_InitialiseEEPROM>
   8234e:	6c ea 60                	b.slli     r7,r10,0x6
   82351:	04 6c                   	b.mov      r3,r12
   82353:	8c e0 21 00 00 80       	b.sw       0x1000084(r0),r7
   82359:	8d a0 01 00 00 80       	b.sw       0x1000080(r0),r13
   8235f:	8c 00 11 00 00 80       	b.sw       0x1000088(r0),r0
   82365:	8c 00 11 00 00 80       	b.sw       0x1000088(r0),r0
   8236b:	8c 00 11 00 00 80       	b.sw       0x1000088(r0),r0
   82371:	8c 00 11 00 00 80       	b.sw       0x1000088(r0),r0
   82377:	4a 44 7c                	b.jal      91c00 <vPDM_WriteEEPROMfixSegmentData>
   8237a:	01 58                   	b.addi     r10,r10,0x1
   8237c:	8c e0 45 70 00 20       	b.lwz      r7,0x4000ea0(r0)
   82382:	24 c7 80                	b.lbz      r6,0x1(r7)
   82385:	d3 4c ad df             	b.bgts     r6,r10,82340 <Node_vPdmInit.constprop.114+0x108>
   82389:	2c 07 30                	b.sw       0xc(r7),r0
   8238c:	01 40                   	b.movi     r10,0x0
   8238e:	2c 07 08                	b.sw       0x10(r7),r0
   82391:	39 a0 38                	b.ori      r13,r0,0x1c
   82394:	2c 07 28                	b.sw       0x14(r7),r0
   82397:	2c 07 18                	b.sw       0x18(r7),r0
   8239a:	0c 30                   	b.j        823ca <Node_vPdmInit.constprop.114+0x192>
   8239c:	65 8a 6b                	b.mul      r12,r10,r13
   8239f:	2c c7 60                	b.lwz      r6,0x4(r7)
   823a2:	38 a0 08                	b.ori      r5,r0,0x10
   823a5:	08 cc                   	b.add      r6,r6,r12
   823a7:	00 80                   	b.movi     r4,0x0
   823a9:	21 46 10                	b.sb       0x8(r6),r10
   823ac:	01 58                   	b.addi     r10,r10,0x1
   823ae:	2c 67 60                	b.lwz      r3,0x4(r7)
   823b1:	08 6c                   	b.add      r3,r3,r12
   823b3:	30 63 30                	b.addi     r3,r3,0xc
   823b6:	4a c5 32                	b.jal      95643 <memset>
   823b9:	8c 60 45 70 00 20       	b.lwz      r3,0x4000ea0(r0)
   823bf:	2c 83 60                	b.lwz      r4,0x4(r3)
   823c2:	30 63 28                	b.addi     r3,r3,0x14
   823c5:	08 8c                   	b.add      r4,r4,r12
   823c7:	49 ed 34                	b.jal      8d6a5 <vDLISTaddToTail>
   823ca:	8c e0 45 70 00 20       	b.lwz      r7,0x4000ea0(r0)
   823d0:	24 c7 80                	b.lbz      r6,0x1(r7)
   823d3:	d3 4c a9 3f             	b.bgts     r6,r10,8239c <Node_vPdmInit.constprop.114+0x164>
   823d7:	20 c7 10                	b.sb       0x8(r7),r6
   823da:	46 c3 60                	b.j        82a9d <Node_vPdmInit.constprop.114+0x865>
   823dd:	65 ac 73                	b.mul      r13,r12,r14
   823e0:	2c c7 60                	b.lwz      r6,0x4(r7)
   823e3:	3e 0c 18                	b.extbz    r3,r12
   823e6:	08 cd                   	b.add      r6,r6,r13
   823e8:	20 66 10                	b.sb       0x8(r6),r3
   823eb:	2c 87 60                	b.lwz      r4,0x4(r7)
   823ee:	08 8d                   	b.add      r4,r4,r13
   823f0:	30 84 30                	b.addi     r4,r4,0xc
   823f3:	4b 72 7c                	b.jal      91d2e <iPDM_ReadSegmentHeaderFromEEPROM>
   823f6:	8c a0 45 70 00 20       	b.lwz      r5,0x4000ea0(r0)
   823fc:	2c 85 60                	b.lwz      r4,0x4(r5)
   823ff:	61 44 6c                	b.add      r10,r4,r13
   82402:	d0 00 a3 90             	b.beqi     r10,0x0,8249e <Node_vPdmInit.constprop.114+0x266>
   82406:	24 ea e8                	b.lbz      r7,0x17(r10)
   82409:	41 07 28                	b.bnei     r7,0x0,8241d <Node_vPdmInit.constprop.114+0x1e5>
   8240c:	2c ea 58                	b.lwz      r7,0x18(r10)
   8240f:	94 e7 00 ff ff ff       	b.andi     r7,r7,0xffffff00
   82415:	a0 40 7b 59 00 00       	b.bnei     r7,0x0,82dc2 <Node_vPdmInit.constprop.114+0xb8a>
   8241b:	0e a4                   	b.j        824b0 <Node_vPdmInit.constprop.114+0x278>
   8241d:	3c 27 8c                	b.sfnei    r7,0x31
   82420:	d6 45 90 00             	b.bf       82dc2 <Node_vPdmInit.constprop.114+0xb8a>
   82424:	2c ea 58                	b.lwz      r7,0x18(r10)
   82427:	94 e7 00 ff ff ff       	b.andi     r7,r7,0xffffff00
   8242d:	9d 87 00 64 9a 82       	b.sfeqi    r7,0x41592600
   82433:	47 2b e0                	b.bf       824b0 <Node_vPdmInit.constprop.114+0x278>
   82436:	46 31 90                	b.j        82dc2 <Node_vPdmInit.constprop.114+0xb8a>
   82439:	d2 8e 84 80             	b.beq      r7,r8,8244b <Node_vPdmInit.constprop.114+0x213>
   8243d:	64 a7 73                	b.mul      r5,r7,r14
   82440:	08 a4                   	b.add      r5,r5,r4
   82442:	2c a5 70                	b.lwz      r5,0xc(r5)
   82445:	3d a6 28                	b.sfgeu    r6,r5
   82448:	64 c6 2a                	b.cmov     r6,r6,r5
   8244b:	00 f8                   	b.addi     r7,r7,0x1
   8244d:	d3 46 73 7f             	b.bgts     r3,r7,82439 <Node_vPdmInit.constprop.114+0x201>
   82451:	2c aa 70                	b.lwz      r5,0xc(r10)
   82454:	d8 e6 13 00             	b.addi     r7,r6,0xc8
   82458:	d3 8e 56 20             	b.bgeu     r7,r5,8249e <Node_vPdmInit.constprop.114+0x266>
   8245c:	00 d8                   	b.addi     r6,r6,0x1
   8245e:	00 88                   	b.movi     r4,0x1
   82460:	2c ca 30                	b.sw       0xc(r10),r6
   82463:	04 6a                   	b.mov      r3,r10
   82465:	4a 52 7c                	b.jal      91d8e <iPDM_SetVerifyBytesInFileSystemRecord>
   82468:	24 ca 10                	b.lbz      r6,0x8(r10)
   8246b:	2c ea 70                	b.lwz      r7,0xc(r10)
   8246e:	6c c6 60                	b.slli     r6,r6,0x6
   82471:	04 6a                   	b.mov      r3,r10
   82473:	8c c0 21 00 00 80       	b.sw       0x1000084(r0),r6
   82479:	00 80                   	b.movi     r4,0x0
   8247b:	8d e0 01 00 00 80       	b.sw       0x1000080(r0),r15
   82481:	8c e0 11 00 00 80       	b.sw       0x1000088(r0),r7
   82487:	4b 82 7c                	b.jal      91d8e <iPDM_SetVerifyBytesInFileSystemRecord>
   8248a:	8c e0 45 70 00 20       	b.lwz      r7,0x4000ea0(r0)
   82490:	2c e7 7a                	b.lwz      r7,0x5c(r7)
   82493:	40 07 d0                	b.beqi     r7,0x0,8249e <Node_vPdmInit.constprop.114+0x266>
   82496:	24 6a 10                	b.lbz      r3,0x8(r10)
   82499:	00 8c                   	b.movi     r4,0x3
   8249b:	47 d1 38                	b.jalr     r7
   8249e:	8c a0 45 70 00 20       	b.lwz      r5,0x4000ea0(r0)
   824a4:	00 80                   	b.movi     r4,0x0
   824a6:	2c 65 60                	b.lwz      r3,0x4(r5)
   824a9:	30 a5 28                	b.addi     r5,r5,0x14
   824ac:	08 6d                   	b.add      r3,r3,r13
   824ae:	0d d8                   	b.j        8251c <Node_vPdmInit.constprop.114+0x2e4>
   824b0:	24 ea a8                	b.lbz      r7,0x15(r10)
   824b3:	00 ff                   	b.addi     r7,r7,-0x1
   824b5:	3e 07 38                	b.extbz    r7,r7
   824b8:	3c a7 50                	b.sfgtui   r7,0xa
   824bb:	47 25 a0                	b.bf       82515 <Node_vPdmInit.constprop.114+0x2dd>
   824be:	6c e7 40                	b.slli     r7,r7,0x2
   824c1:	90 e7 0b 24 10 00       	b.addi     r7,r7,0x824d0
   824c7:	2c e7 40                	b.lwz      r7,0x0(r7)
   824ca:	47 d2 38                	b.jr       r7
   824cd:	00 00                   	b.trap     0x0
   824cf:	00 00                   	b.trap     0x0
   824d1:	08 24                   	b.add      r1,r1,r4
   824d3:	fc                      	.word 0xfc
   824d4:	00 08                   	b.trap     0x1
   824d6:	25 0b 00                	b.lbz      r8,0x0(r11)
   824d9:	08 25                   	b.add      r1,r1,r5
   824db:	01 00                   	b.movi     r8,0x0
   824dd:	08 25                   	b.add      r1,r1,r5
   824df:	10                      	.word 0x10
   824e0:	00 08                   	b.trap     0x1
   824e2:	25 15 00                	b.lbz      r8,0x0(r21)
   824e5:	08 25                   	b.add      r1,r1,r5
   824e7:	10                      	.word 0x10
   824e8:	00 08                   	b.trap     0x1
   824ea:	25 10 00                	b.lbz      r8,0x0(r16)
   824ed:	08 25                   	b.add      r1,r1,r5
   824ef:	06 00                   	b.mov      r16,r0
   824f1:	08 25                   	b.add      r1,r1,r5
   824f3:	06 00                   	b.mov      r16,r0
   824f5:	08 25                   	b.add      r1,r1,r5
   824f7:	06 00                   	b.mov      r16,r0
   824f9:	08 25                   	b.add      r1,r1,r5
   824fb:	06 30                   	b.mov      r17,r16
   824fd:	a5 24 0e 60 30 a5       	b.ja       -0x5af3f990
   82503:	3c 0c a0                	b.sfeqi    r12,0x5
   82506:	30 a5 22                	b.addi     r5,r5,0x44
   82509:	0f c0                   	b.j        82518 <Node_vPdmInit.constprop.114+0x2e0>
   8250b:	30 a5 34                	b.addi     r5,r5,0x2c
   8250e:	0d 40                   	b.j        82518 <Node_vPdmInit.constprop.114+0x2e0>
   82510:	30 a5 2c                	b.addi     r5,r5,0x34
   82513:	0e 80                   	b.j        82518 <Node_vPdmInit.constprop.114+0x2e0>
   82515:	30 a5 28                	b.addi     r5,r5,0x14
   82518:	04 6a                   	b.mov      r3,r10
   8251a:	00 80                   	b.movi     r4,0x0
   8251c:	01 98                   	b.addi     r12,r12,0x1
   8251e:	4a 10 68                	b.jal      87d3f <vPDM_AddFileSystemElementToListInAscendingWearCountOrder>
   82521:	8c e0 45 70 00 20       	b.lwz      r7,0x4000ea0(r0)
   82527:	24 c7 80                	b.lbz      r6,0x1(r7)
   8252a:	d3 4c cc d7             	b.bgts     r6,r12,823dd <Node_vPdmInit.constprop.114+0x1a5>
   8252e:	2c 01 32                	b.sw       0x4c(r1),r0
   82531:	2c 01 0a                	b.sw       0x50(r1),r0
   82534:	0c 42                   	b.j        8263c <Node_vPdmInit.constprop.114+0x404>
   82536:	28 67 88                	b.lhz      r3,0x10(r7)
   82539:	30 e1 32                	b.addi     r7,r1,0x4c
   8253c:	38 a0 70                	b.ori      r5,r0,0xe
   8253f:	30 c1 28                	b.addi     r6,r1,0x14
   82542:	31 08 3c                	b.addi     r8,r8,0x3c
   82545:	00 84                   	b.movi     r4,0x2
   82547:	2c e1 00                	b.sw       0x0(r1),r7
   8254a:	30 e1 18                	b.addi     r7,r1,0x18
   8254d:	4b fc 68                	b.jal      87e4c <vPDM_MoveAllDataWithBufferIdFromListToList>
   82550:	2d 81 72                	b.lwz      r12,0x4c(r1)
   82553:	d0 00 cc 70             	b.beqi     r12,0x0,82636 <Node_vPdmInit.constprop.114+0x3fe>
   82557:	01 c8                   	b.movi     r14,0x1
   82559:	01 40                   	b.movi     r10,0x0
   8255b:	01 a0                   	b.movi     r13,0x0
   8255d:	8c e0 45 70 00 20       	b.lwz      r7,0x4000ea0(r0)
   82563:	30 a1 38                	b.addi     r5,r1,0x1c
   82566:	04 6c                   	b.mov      r3,r12
   82568:	2c 87 78                	b.lwz      r4,0x1c(r7)
   8256b:	48 8d 70                	b.jal      8602f <iPDM_ReadUserDataFromFileSystemRecord>
   8256e:	8c e0 45 70 00 20       	b.lwz      r7,0x4000ea0(r0)
   82574:	2c 87 78                	b.lwz      r4,0x1c(r7)
   82577:	24 e4 00                	b.lbz      r7,0x0(r4)
   8257a:	00 f8                   	b.addi     r7,r7,0x1
   8257c:	08 e4                   	b.add      r7,r7,r4
   8257e:	24 c7 00                	b.lbz      r6,0x0(r7)
   82581:	20 c1 08                	b.sb       0x10(r1),r6
   82584:	24 e7 80                	b.lbz      r7,0x1(r7)
   82587:	20 e1 88                	b.sb       0x11(r1),r7
   8258a:	28 e1 88                	b.lhz      r7,0x10(r1)
   8258d:	d3 ce d4 80             	b.bgtu     r7,r13,8259f <Node_vPdmInit.constprop.114+0x367>
   82591:	3c 2e 80                	b.sfnei    r14,0x1
   82594:	65 4a 62                	b.cmov     r10,r10,r12
   82597:	3c 2e 80                	b.sfnei    r14,0x1
   8259a:	65 ad 3a                	b.cmov     r13,r13,r7
   8259d:	0d 80                   	b.j        825a3 <Node_vPdmInit.constprop.114+0x36b>
   8259f:	05 4c                   	b.mov      r10,r12
   825a1:	05 a7                   	b.mov      r13,r7
   825a3:	2d 8c 40                	b.lwz      r12,0x0(r12)
   825a6:	01 c0                   	b.movi     r14,0x0
   825a8:	41 0c ad                	b.bnei     r12,0x0,8255d <Node_vPdmInit.constprop.114+0x325>
   825ab:	30 a1 04                	b.addi     r5,r1,0x20
   825ae:	04 6a                   	b.mov      r3,r10
   825b0:	4b f9 70                	b.jal      8602f <iPDM_ReadUserDataFromFileSystemRecord>
   825b3:	8c e0 45 70 00 20       	b.lwz      r7,0x4000ea0(r0)
   825b9:	24 81 04                	b.lbz      r4,0x20(r1)
   825bc:	2c e7 78                	b.lwz      r7,0x1c(r7)
   825bf:	25 a7 00                	b.lbz      r13,0x0(r7)
   825c2:	30 cd 80                	b.addi     r6,r13,0x1
   825c5:	08 c7                   	b.add      r6,r6,r7
   825c7:	24 a6 00                	b.lbz      r5,0x0(r6)
   825ca:	20 a1 48                	b.sb       0x12(r1),r5
   825cd:	24 c6 80                	b.lbz      r6,0x1(r6)
   825d0:	20 c1 c8                	b.sb       0x13(r1),r6
   825d3:	40 0d 5c                	b.beqi     r13,0x0,8260d <Node_vPdmInit.constprop.114+0x3d5>
   825d6:	30 6d c0                	b.addi     r3,r13,0x3
   825d9:	3e 03 18                	b.extbz    r3,r3
   825dc:	08 67                   	b.add      r3,r3,r7
   825de:	00 c8                   	b.movi     r6,0x1
   825e0:	60 e3 64                	b.add      r7,r3,r12
   825e3:	24 e7 00                	b.lbz      r7,0x0(r7)
   825e6:	41 87 d0                	b.bnei     r7,0x1,825f1 <Node_vPdmInit.constprop.114+0x3b9>
   825e9:	01 98                   	b.addi     r12,r12,0x1
   825eb:	00 a0                   	b.movi     r5,0x0
   825ed:	00 e0                   	b.movi     r7,0x0
   825ef:	0d c0                   	b.j        825fd <Node_vPdmInit.constprop.114+0x3c5>
   825f1:	3c 27 00                	b.sfnei    r7,0x0
   825f4:	64 a0 32                	b.cmov     r5,r0,r6
   825f7:	3c 27 00                	b.sfnei    r7,0x0
   825fa:	64 e6 02                	b.cmov     r7,r6,r0
   825fd:	60 a7 29                	b.or       r5,r7,r5
   82600:	40 05 90                	b.beqi     r5,0x0,82609 <Node_vPdmInit.constprop.114+0x3d1>
   82603:	41 87 50                	b.bnei     r7,0x1,8260d <Node_vPdmInit.constprop.114+0x3d5>
   82606:	46 c8 e0                	b.j        82d19 <Node_vPdmInit.constprop.114+0xae1>
   82609:	d3 48 ce bf             	b.bgts     r4,r12,825e0 <Node_vPdmInit.constprop.114+0x3a8>
   8260d:	8c c0 45 70 00 20       	b.lwz      r6,0x4000ea0(r0)
   82613:	38 80 70                	b.ori      r4,r0,0xe
   82616:	30 a1 32                	b.addi     r5,r1,0x4c
   82619:	30 c6 30                	b.addi     r6,r6,0xc
   8261c:	04 6a                   	b.mov      r3,r10
   8261e:	4b 36 68                	b.jal      87fd1 <vPDM_MoveFileRecordFromListToList>
   82621:	8c c0 45 70 00 20       	b.lwz      r6,0x4000ea0(r0)
   82627:	38 60 70                	b.ori      r3,r0,0xe
   8262a:	30 81 04                	b.addi     r4,r1,0x20
   8262d:	30 a1 32                	b.addi     r5,r1,0x4c
   82630:	30 c6 28                	b.addi     r6,r6,0x14
   82633:	49 6b a8                	b.jal      87d8d <vPDM_MoveAllDataFromListToList>
   82636:	8c e0 45 70 00 20       	b.lwz      r7,0x4000ea0(r0)
   8263c:	2c e7 7c                	b.lwz      r7,0x3c(r7)
   8263f:	8d 00 45 70 00 20       	b.lwz      r8,0x4000ea0(r0)
   82645:	d0 40 78 f7             	b.bnei     r7,0x0,82536 <Node_vPdmInit.constprop.114+0x2fe>
   82649:	2c 01 32                	b.sw       0x4c(r1),r0
   8264c:	2c 01 0a                	b.sw       0x50(r1),r0
   8264f:	2c e8 6c                	b.lwz      r7,0x34(r8)
   82652:	0c b0                   	b.j        82686 <Node_vPdmInit.constprop.114+0x44e>
   82654:	28 67 88                	b.lhz      r3,0x10(r7)
   82657:	24 87 68                	b.lbz      r4,0x16(r7)
   8265a:	31 41 32                	b.addi     r10,r1,0x4c
   8265d:	30 e1 04                	b.addi     r7,r1,0x20
   82660:	38 a0 70                	b.ori      r5,r0,0xe
   82663:	30 c1 38                	b.addi     r6,r1,0x1c
   82666:	31 08 2c                	b.addi     r8,r8,0x34
   82669:	2d 41 00                	b.sw       0x0(r1),r10
   8266c:	48 1f a8                	b.jal      87e4c <vPDM_MoveAllDataWithBufferIdFromListToList>
   8266f:	8c 80 45 70 00 20       	b.lwz      r4,0x4000ea0(r0)
   82675:	04 6a                   	b.mov      r3,r10
   82677:	30 84 30                	b.addi     r4,r4,0xc
   8267a:	4b 32 98                	b.jal      88bad <iPDM_ReconstructReplacedDataTable>
   8267d:	8c e0 45 70 00 20       	b.lwz      r7,0x4000ea0(r0)
   82683:	2c e7 6c                	b.lwz      r7,0x34(r7)
   82686:	8d 00 45 70 00 20       	b.lwz      r8,0x4000ea0(r0)
   8268c:	41 07 13                	b.bnei     r7,0x0,82654 <Node_vPdmInit.constprop.114+0x41c>
   8268f:	2c 01 24                	b.sw       0x24(r1),r0
   82692:	2c 01 14                	b.sw       0x28(r1),r0
   82695:	2d 48 74                	b.lwz      r10,0x2c(r8)
   82698:	46 83 40                	b.j        82959 <Node_vPdmInit.constprop.114+0x721>
   8269b:	28 6a 88                	b.lhz      r3,0x10(r10)
   8269e:	24 8a 68                	b.lbz      r4,0x16(r10)
   826a1:	30 e1 24                	b.addi     r7,r1,0x24
   826a4:	38 a0 70                	b.ori      r5,r0,0xe
   826a7:	30 c1 b0                	b.addi     r6,r1,0xd
   826aa:	31 08 34                	b.addi     r8,r8,0x2c
   826ad:	31 c1 04                	b.addi     r14,r1,0x20
   826b0:	2c e1 00                	b.sw       0x0(r1),r7
   826b3:	30 e1 70                	b.addi     r7,r1,0xe
   826b6:	49 a7 a8                	b.jal      87e4c <vPDM_MoveAllDataWithBufferIdFromListToList>
   826b9:	8c c0 45 70 00 20       	b.lwz      r6,0x4000ea0(r0)
   826bf:	28 6a 88                	b.lhz      r3,0x10(r10)
   826c2:	38 a0 ff                	b.ori      r5,r0,0xff
   826c5:	30 c6 30                	b.addi     r6,r6,0xc
   826c8:	00 84                   	b.movi     r4,0x2
   826ca:	04 ee                   	b.mov      r7,r14
   826cc:	49 c6 30                	b.jal      8585a <iPDM_SearchForBufferIdInList>
   826cf:	8d 80 45 70 00 20       	b.lwz      r12,0x4000ea0(r0)
   826d5:	41 03 48                	b.bnei     r3,0x0,826e7 <Node_vPdmInit.constprop.114+0x4af>
   826d8:	28 6a 88                	b.lhz      r3,0x10(r10)
   826db:	24 8a 68                	b.lbz      r4,0x16(r10)
   826de:	30 ac 34                	b.addi     r5,r12,0x2c
   826e1:	49 3a 58                	b.jal      89053 <iPDM_DeleteAppendedSequence>
   826e4:	46 36 40                	b.j        82950 <Node_vPdmInit.constprop.114+0x718>
   826e7:	2d 41 64                	b.lwz      r10,0x24(r1)
   826ea:	2c 01 34                	b.sw       0x2c(r1),r0
   826ed:	2c 01 0c                	b.sw       0x30(r1),r0
   826f0:	2c 01 2c                	b.sw       0x34(r1),r0
   826f3:	2c 01 1c                	b.sw       0x38(r1),r0
   826f6:	2c 01 3c                	b.sw       0x3c(r1),r0
   826f9:	2c 01 02                	b.sw       0x40(r1),r0
   826fc:	2c 01 22                	b.sw       0x44(r1),r0
   826ff:	2c 01 12                	b.sw       0x48(r1),r0
   82702:	2c 01 32                	b.sw       0x4c(r1),r0
   82705:	2c 01 0a                	b.sw       0x50(r1),r0
   82708:	d0 00 a4 10             	b.beqi     r10,0x0,8278a <Node_vPdmInit.constprop.114+0x552>
   8270c:	01 a0                   	b.movi     r13,0x0
   8270e:	20 01 38                	b.sb       0x1c(r1),r0
   82711:	0c e0                   	b.j        8272d <Node_vPdmInit.constprop.114+0x4f5>
   82713:	2c 61 44                	b.lwz      r3,0x20(r1)
   82716:	38 80 70                	b.ori      r4,r0,0xe
   82719:	30 a1 24                	b.addi     r5,r1,0x24
   8271c:	30 c1 22                	b.addi     r6,r1,0x44
   8271f:	49 34 68                	b.jal      87fd1 <vPDM_MoveFileRecordFromListToList>
   82722:	24 e1 38                	b.lbz      r7,0x1c(r1)
   82725:	2d a1 44                	b.lwz      r13,0x20(r1)
   82728:	00 f8                   	b.addi     r7,r7,0x1
   8272a:	20 e1 38                	b.sb       0x1c(r1),r7
   8272d:	28 6a 88                	b.lhz      r3,0x10(r10)
   82730:	24 8a 68                	b.lbz      r4,0x16(r10)
   82733:	24 aa c8                	b.lbz      r5,0x13(r10)
   82736:	30 c1 24                	b.addi     r6,r1,0x24
   82739:	04 ee                   	b.mov      r7,r14
   8273b:	4b e2 30                	b.jal      8585a <iPDM_SearchForBufferIdInList>
   8273e:	40 03 ab                	b.beqi     r3,0x0,82713 <Node_vPdmInit.constprop.114+0x4db>
   82741:	24 e1 38                	b.lbz      r7,0x1c(r1)
   82744:	40 07 8c                	b.beqi     r7,0x0,82775 <Node_vPdmInit.constprop.114+0x53d>
   82747:	40 87 b0                	b.beqi     r7,0x1,82754 <Node_vPdmInit.constprop.114+0x51c>
   8274a:	30 61 22                	b.addi     r3,r1,0x44
   8274d:	04 8e                   	b.mov      r4,r14
   8274f:	4a 74 30                	b.jal      85808 <iPDM_FilterDuplicateAppendedSegmentsOnList.7895>
   82752:	0e 80                   	b.j        82757 <Node_vPdmInit.constprop.114+0x51f>
   82754:	2d a1 04                	b.sw       0x20(r1),r13
   82757:	2c 61 44                	b.lwz      r3,0x20(r1)
   8275a:	38 80 70                	b.ori      r4,r0,0xe
   8275d:	30 a1 22                	b.addi     r5,r1,0x44
   82760:	30 c1 32                	b.addi     r6,r1,0x4c
   82763:	49 d8 68                	b.jal      87fd1 <vPDM_MoveFileRecordFromListToList>
   82766:	38 60 70                	b.ori      r3,r0,0xe
   82769:	30 81 38                	b.addi     r4,r1,0x1c
   8276c:	30 a1 22                	b.addi     r5,r1,0x44
   8276f:	30 c1 34                	b.addi     r6,r1,0x2c
   82772:	4b 61 a8                	b.jal      87d8d <vPDM_MoveAllDataFromListToList>
   82775:	2d 41 64                	b.lwz      r10,0x24(r1)
   82778:	41 0a 69                	b.bnei     r10,0x0,8270e <Node_vPdmInit.constprop.114+0x4d6>
   8277b:	38 60 70                	b.ori      r3,r0,0xe
   8277e:	30 81 38                	b.addi     r4,r1,0x1c
   82781:	30 a1 32                	b.addi     r5,r1,0x4c
   82784:	30 c1 24                	b.addi     r6,r1,0x24
   82787:	49 81 a8                	b.jal      87d8d <vPDM_MoveAllDataFromListToList>
   8278a:	2c e1 64                	b.lwz      r7,0x24(r1)
   8278d:	8d 00 45 70 00 20       	b.lwz      r8,0x4000ea0(r0)
   82793:	28 67 88                	b.lhz      r3,0x10(r7)
   82796:	24 87 68                	b.lbz      r4,0x16(r7)
   82799:	31 a1 3c                	b.addi     r13,r1,0x3c
   8279c:	38 a0 70                	b.ori      r5,r0,0xe
   8279f:	30 c1 38                	b.addi     r6,r1,0x1c
   827a2:	30 e1 18                	b.addi     r7,r1,0x18
   827a5:	31 08 24                	b.addi     r8,r8,0x24
   827a8:	2d a1 00                	b.sw       0x0(r1),r13
   827ab:	4a 15 a8                	b.jal      87e4c <vPDM_MoveAllDataWithBufferIdFromListToList>
   827ae:	2d 41 64                	b.lwz      r10,0x24(r1)
   827b1:	0f 90                   	b.j        827d8 <Node_vPdmInit.constprop.114+0x5a0>
   827b3:	28 6a 88                	b.lhz      r3,0x10(r10)
   827b6:	24 8a 68                	b.lbz      r4,0x16(r10)
   827b9:	24 aa c8                	b.lbz      r5,0x13(r10)
   827bc:	30 e1 04                	b.addi     r7,r1,0x20
   827bf:	04 cd                   	b.mov      r6,r13
   827c1:	4a 64 30                	b.jal      8585a <iPDM_SearchForBufferIdInList>
   827c4:	41 03 88                	b.bnei     r3,0x0,827d5 <Node_vPdmInit.constprop.114+0x59d>
   827c7:	2c 61 44                	b.lwz      r3,0x20(r1)
   827ca:	38 80 70                	b.ori      r4,r0,0xe
   827cd:	30 c1 2c                	b.addi     r6,r1,0x34
   827d0:	04 ad                   	b.mov      r5,r13
   827d2:	4b ff a8                	b.jal      87fd1 <vPDM_MoveFileRecordFromListToList>
   827d5:	2d 4a 40                	b.lwz      r10,0x0(r10)
   827d8:	41 0a db                	b.bnei     r10,0x0,827b3 <Node_vPdmInit.constprop.114+0x57b>
   827db:	38 60 70                	b.ori      r3,r0,0xe
   827de:	30 81 38                	b.addi     r4,r1,0x1c
   827e1:	30 c1 24                	b.addi     r6,r1,0x24
   827e4:	04 ad                   	b.mov      r5,r13
   827e6:	4b 96 a8                	b.jal      87d8d <vPDM_MoveAllDataFromListToList>
   827e9:	30 a1 24                	b.addi     r5,r1,0x24
   827ec:	38 60 70                	b.ori      r3,r0,0xe
   827ef:	30 81 f0                	b.addi     r4,r1,0xf
   827f2:	04 c5                   	b.mov      r6,r5
   827f4:	4a 66 a8                	b.jal      87d8d <vPDM_MoveAllDataFromListToList>
   827f7:	2c e1 64                	b.lwz      r7,0x24(r1)
   827fa:	30 c1 24                	b.addi     r6,r1,0x24
   827fd:	00 a0                   	b.movi     r5,0x0
   827ff:	2c e1 28                	b.sw       0x14(r1),r7
   82802:	28 67 88                	b.lhz      r3,0x10(r7)
   82805:	24 87 68                	b.lbz      r4,0x16(r7)
   82808:	30 e1 18                	b.addi     r7,r1,0x18
   8280b:	4b c8 30                	b.jal      8585a <iPDM_SearchForBufferIdInList>
   8280e:	d0 40 3b 48             	b.bnei     r3,0x0,8293b <Node_vPdmInit.constprop.114+0x703>
   82812:	2d 41 58                	b.lwz      r10,0x18(r1)
   82815:	24 c1 f0                	b.lbz      r6,0xf(r1)
   82818:	24 aa 28                	b.lbz      r5,0x14(r10)
   8281b:	d3 ca 60 48             	b.bgtu     r5,r6,8293b <Node_vPdmInit.constprop.114+0x703>
   8281f:	2c e1 68                	b.lwz      r7,0x14(r1)
   82822:	d3 cc 59 8a             	b.bgtu     r6,r5,82d3b <Node_vPdmInit.constprop.114+0xb03>
   82826:	24 ca a8                	b.lbz      r6,0x15(r10)
   82829:	d0 50 64 8a             	b.bnei     r6,0x2,82d3b <Node_vPdmInit.constprop.114+0xb03>
   8282d:	46 c4 a0                	b.j        82d50 <Node_vPdmInit.constprop.114+0xb18>
   82830:	2c 61 78                	b.lwz      r3,0x1c(r1)
   82833:	24 e3 a8                	b.lbz      r7,0x15(r3)
   82836:	d0 50 70 30             	b.bnei     r7,0x2,828f6 <Node_vPdmInit.constprop.114+0x6be>
   8283a:	24 e3 28                	b.lbz      r7,0x14(r3)
   8283d:	d0 20 79 d0             	b.beqi     r7,0x1,828f6 <Node_vPdmInit.constprop.114+0x6be>
   82841:	30 81 24                	b.addi     r4,r1,0x24
   82844:	30 a1 34                	b.addi     r5,r1,0x2c
   82847:	30 c1 2c                	b.addi     r6,r1,0x34
   8284a:	4b 87 58                	b.jal      893d1 <iPDM_ReplaceSegmentFromJunkLists.6920>
   8284d:	d0 00 39 50             	b.beqi     r3,0x0,828f6 <Node_vPdmInit.constprop.114+0x6be>
   82851:	0d 5c                   	b.j        8293b <Node_vPdmInit.constprop.114+0x703>
   82853:	2c e1 78                	b.lwz      r7,0x1c(r1)
   82856:	24 e7 a8                	b.lbz      r7,0x15(r7)
   82859:	d0 50 74 8a             	b.bnei     r7,0x2,82d6b <Node_vPdmInit.constprop.114+0xb33>
   8285d:	2c e1 78                	b.lwz      r7,0x1c(r1)
   82860:	24 c7 28                	b.lbz      r6,0x14(r7)
   82863:	41 86 90                	b.bnei     r6,0x1,8286c <Node_vPdmInit.constprop.114+0x634>
   82866:	2c e1 04                	b.sw       0x20(r1),r7
   82869:	46 dc a0                	b.j        82da4 <Node_vPdmInit.constprop.114+0xb6c>
   8286c:	24 a7 c8                	b.lbz      r5,0x13(r7)
   8286f:	2c e1 68                	b.lwz      r7,0x14(r1)
   82872:	08 a6                   	b.add      r5,r5,r6
   82874:	3e 05 28                	b.extbz    r5,r5
   82877:	20 a1 08                	b.sb       0x10(r1),r5
   8287a:	30 c1 24                	b.addi     r6,r1,0x24
   8287d:	00 bf                   	b.addi     r5,r5,-0x1
   8287f:	3e 05 28                	b.extbz    r5,r5
   82882:	28 67 88                	b.lhz      r3,0x10(r7)
   82885:	24 87 68                	b.lbz      r4,0x16(r7)
   82888:	30 e1 04                	b.addi     r7,r1,0x20
   8288b:	4b cf d0                	b.jal      8585a <iPDM_SearchForBufferIdInList>
   8288e:	d0 40 38 0a             	b.bnei     r3,0x0,82d8f <Node_vPdmInit.constprop.114+0xb57>
   82892:	46 48 a0                	b.j        82da4 <Node_vPdmInit.constprop.114+0xb6c>
   82895:	30 81 24                	b.addi     r4,r1,0x24
   82898:	30 a1 34                	b.addi     r5,r1,0x2c
   8289b:	30 c1 2c                	b.addi     r6,r1,0x34
   8289e:	4b 33 58                	b.jal      893d1 <iPDM_ReplaceSegmentFromJunkLists.6920>
   828a1:	d0 40 35 90             	b.bnei     r3,0x0,8293b <Node_vPdmInit.constprop.114+0x703>
   828a5:	2c e1 58                	b.lwz      r7,0x18(r1)
   828a8:	2d a1 64                	b.lwz      r13,0x24(r1)
   828ab:	24 e7 28                	b.lbz      r7,0x14(r7)
   828ae:	20 e1 48                	b.sb       0x12(r1),r7
   828b1:	40 0d a2                	b.beqi     r13,0x0,828f6 <Node_vPdmInit.constprop.114+0x6be>
   828b4:	98 80 b2 48 90 00       	b.ori      r4,r0,0x9124d
   828ba:	30 a1 48                	b.addi     r5,r1,0x12
   828bd:	04 6d                   	b.mov      r3,r13
   828bf:	49 f1 b0                	b.jal      85efd <psDLISTsearchForward>
   828c2:	40 03 2c                	b.beqi     r3,0x0,828f6 <Node_vPdmInit.constprop.114+0x6be>
   828c5:	38 80 30                	b.ori      r4,r0,0xc
   828c8:	30 a1 24                	b.addi     r5,r1,0x24
   828cb:	30 c1 2c                	b.addi     r6,r1,0x34
   828ce:	2d a3 40                	b.lwz      r13,0x0(r3)
   828d1:	48 03 a8                	b.jal      87fd1 <vPDM_MoveFileRecordFromListToList>
   828d4:	0e ef                   	b.j        828b1 <Node_vPdmInit.constprop.114+0x679>
   828d6:	24 e3 a8                	b.lbz      r7,0x15(r3)
   828d9:	40 47 b8                	b.beqi     r7,0x2,828f6 <Node_vPdmInit.constprop.114+0x6be>
   828dc:	30 c1 24                	b.addi     r6,r1,0x24
   828df:	30 e1 28                	b.addi     r7,r1,0x14
   828e2:	00 a4                   	b.movi     r5,0x2
   828e4:	4a 39 18                	b.jal      88b55 <iPDM_SegmentCopyAndAppendData.constprop.121>
   828e7:	2c 61 58                	b.lwz      r3,0x18(r1)
   828ea:	38 80 70                	b.ori      r4,r0,0xe
   828ed:	30 a1 24                	b.addi     r5,r1,0x24
   828f0:	30 c1 2c                	b.addi     r6,r1,0x34
   828f3:	49 ed a8                	b.jal      87fd1 <vPDM_MoveFileRecordFromListToList>
   828f6:	8c c0 45 70 00 20       	b.lwz      r6,0x4000ea0(r0)
   828fc:	38 60 70                	b.ori      r3,r0,0xe
   828ff:	30 81 38                	b.addi     r4,r1,0x1c
   82902:	30 a1 34                	b.addi     r5,r1,0x2c
   82905:	30 c6 28                	b.addi     r6,r6,0x14
   82908:	4a 84 a8                	b.jal      87d8d <vPDM_MoveAllDataFromListToList>
   8290b:	8c c0 45 70 00 20       	b.lwz      r6,0x4000ea0(r0)
   82911:	38 60 70                	b.ori      r3,r0,0xe
   82914:	30 81 38                	b.addi     r4,r1,0x1c
   82917:	30 a1 2c                	b.addi     r5,r1,0x34
   8291a:	30 c6 28                	b.addi     r6,r6,0x14
   8291d:	48 38 a8                	b.jal      87d8d <vPDM_MoveAllDataFromListToList>
   82920:	28 6a 88                	b.lhz      r3,0x10(r10)
   82923:	24 8a 68                	b.lbz      r4,0x16(r10)
   82926:	24 aa 28                	b.lbz      r5,0x14(r10)
   82929:	30 c1 38                	b.addi     r6,r1,0x1c
   8292c:	30 e1 04                	b.addi     r7,r1,0x20
   8292f:	31 01 24                	b.addi     r8,r1,0x24
   82932:	4a 7e 58                	b.jal      8932b <iPDM_VerifyDataSequenceWithBufferId>
   82935:	30 cc 30                	b.addi     r6,r12,0xc
   82938:	40 03 30                	b.beqi     r3,0x0,82944 <Node_vPdmInit.constprop.114+0x70c>
   8293b:	8c c0 45 70 00 20       	b.lwz      r6,0x4000ea0(r0)
   82941:	30 c6 28                	b.addi     r6,r6,0x14
   82944:	38 60 70                	b.ori      r3,r0,0xe
   82947:	30 81 b0                	b.addi     r4,r1,0xd
   8294a:	30 a1 24                	b.addi     r5,r1,0x24
   8294d:	48 08 a8                	b.jal      87d8d <vPDM_MoveAllDataFromListToList>
   82950:	8c e0 45 70 00 20       	b.lwz      r7,0x4000ea0(r0)
   82956:	2d 47 74                	b.lwz      r10,0x2c(r7)
   82959:	8d 00 45 70 00 20       	b.lwz      r8,0x4000ea0(r0)
   8295f:	d0 40 a3 cb             	b.bnei     r10,0x0,8269b <Node_vPdmInit.constprop.114+0x463>
   82963:	2c 01 32                	b.sw       0x4c(r1),r0
   82966:	2c 01 0a                	b.sw       0x50(r1),r0
   82969:	2d 48 62                	b.lwz      r10,0x44(r8)
   8296c:	0c 68                   	b.j        829c4 <Node_vPdmInit.constprop.114+0x78c>
   8296e:	28 6a 88                	b.lhz      r3,0x10(r10)
   82971:	24 8a 68                	b.lbz      r4,0x16(r10)
   82974:	31 81 32                	b.addi     r12,r1,0x4c
   82977:	30 e1 04                	b.addi     r7,r1,0x20
   8297a:	38 a0 70                	b.ori      r5,r0,0xe
   8297d:	30 c1 38                	b.addi     r6,r1,0x1c
   82980:	31 08 22                	b.addi     r8,r8,0x44
   82983:	2d 81 00                	b.sw       0x0(r1),r12
   82986:	49 8c a8                	b.jal      87e4c <vPDM_MoveAllDataWithBufferIdFromListToList>
   82989:	8d a0 45 70 00 20       	b.lwz      r13,0x4000ea0(r0)
   8298f:	04 6c                   	b.mov      r3,r12
   82991:	4b 0f bc                	b.jal      92154 <iPDM_ReconstructValidImageBitmap>
   82994:	30 ed 30                	b.addi     r7,r13,0xc
   82997:	40 03 30                	b.beqi     r3,0x0,829a3 <Node_vPdmInit.constprop.114+0x76b>
   8299a:	8c e0 45 70 00 20       	b.lwz      r7,0x4000ea0(r0)
   829a0:	30 e7 28                	b.addi     r7,r7,0x14
   829a3:	28 6a 88                	b.lhz      r3,0x10(r10)
   829a6:	24 8a 68                	b.lbz      r4,0x16(r10)
   829a9:	38 a0 70                	b.ori      r5,r0,0xe
   829ac:	30 c1 38                	b.addi     r6,r1,0x1c
   829af:	31 01 32                	b.addi     r8,r1,0x4c
   829b2:	2c e1 00                	b.sw       0x0(r1),r7
   829b5:	30 e1 04                	b.addi     r7,r1,0x20
   829b8:	48 a4 a8                	b.jal      87e4c <vPDM_MoveAllDataWithBufferIdFromListToList>
   829bb:	8c e0 45 70 00 20       	b.lwz      r7,0x4000ea0(r0)
   829c1:	2d 47 62                	b.lwz      r10,0x44(r7)
   829c4:	8d 00 45 70 00 20       	b.lwz      r8,0x4000ea0(r0)
   829ca:	41 0a 25                	b.bnei     r10,0x0,8296e <Node_vPdmInit.constprop.114+0x736>
   829cd:	2d 48 64                	b.lwz      r10,0x24(r8)
   829d0:	0d 74                   	b.j        82a8a <Node_vPdmInit.constprop.114+0x852>
   829d2:	8c c0 45 70 00 20       	b.lwz      r6,0x4000ea0(r0)
   829d8:	28 6a 88                	b.lhz      r3,0x10(r10)
   829db:	38 a0 ff                	b.ori      r5,r0,0xff
   829de:	30 c6 30                	b.addi     r6,r6,0xc
   829e1:	30 e1 04                	b.addi     r7,r1,0x20
   829e4:	00 84                   	b.movi     r4,0x2
   829e6:	48 b9 d0                	b.jal      8585a <iPDM_SearchForBufferIdInList>
   829e9:	8d 00 45 70 00 20       	b.lwz      r8,0x4000ea0(r0)
   829ef:	3e 03 1c                	b.ff1      r3,r3
   829f2:	31 83 ff                	b.addi     r12,r3,-0x1
   829f5:	30 c1 28                	b.addi     r6,r1,0x14
   829f8:	30 e1 18                	b.addi     r7,r1,0x18
   829fb:	31 08 24                	b.addi     r8,r8,0x24
   829fe:	00 a0                   	b.movi     r5,0x0
   82a00:	28 6a 88                	b.lhz      r3,0x10(r10)
   82a03:	24 8a 68                	b.lbz      r4,0x16(r10)
   82a06:	6d 8c f9                	b.srli     r12,r12,0x1f
   82a09:	49 12 58                	b.jal      8932b <iPDM_VerifyDataSequenceWithBufferId>
   82a0c:	3e 03 1c                	b.ff1      r3,r3
   82a0f:	60 e0 1d                	b.sub      r7,r0,r3
   82a12:	6c e7 f9                	b.srli     r7,r7,0x1f
   82a15:	3e 0c 68                	b.extbz    r13,r12
   82a18:	61 87 61                	b.or       r12,r7,r12
   82a1b:	3e 0c 60                	b.extbz    r12,r12
   82a1e:	8c c0 45 70 00 20       	b.lwz      r6,0x4000ea0(r0)
   82a24:	41 0c 08                	b.bnei     r12,0x0,82a34 <Node_vPdmInit.constprop.114+0x7fc>
   82a27:	24 a1 28                	b.lbz      r5,0x14(r1)
   82a2a:	24 e1 18                	b.lbz      r7,0x18(r1)
   82a2d:	31 86 30                	b.addi     r12,r6,0xc
   82a30:	d2 8a 7c c0             	b.beq      r5,r7,82a63 <Node_vPdmInit.constprop.114+0x82b>
   82a34:	31 86 28                	b.addi     r12,r6,0x14
   82a37:	40 0d 34                	b.beqi     r13,0x0,82a63 <Node_vPdmInit.constprop.114+0x82b>
   82a3a:	28 6a 88                	b.lhz      r3,0x10(r10)
   82a3d:	24 8a 68                	b.lbz      r4,0x16(r10)
   82a40:	30 c6 24                	b.addi     r6,r6,0x24
   82a43:	30 e1 38                	b.addi     r7,r1,0x1c
   82a46:	00 a0                   	b.movi     r5,0x0
   82a48:	49 21 d0                	b.jal      8585a <iPDM_SearchForBufferIdInList>
   82a4b:	41 03 18                	b.bnei     r3,0x0,82a63 <Node_vPdmInit.constprop.114+0x82b>
   82a4e:	8c c0 45 70 00 20       	b.lwz      r6,0x4000ea0(r0)
   82a54:	2c 61 78                	b.lwz      r3,0x1c(r1)
   82a57:	30 a6 24                	b.addi     r5,r6,0x24
   82a5a:	38 80 30                	b.ori      r4,r0,0xc
   82a5d:	30 c6 28                	b.addi     r6,r6,0x14
   82a60:	4a 3a a8                	b.jal      87fd1 <vPDM_MoveFileRecordFromListToList>
   82a63:	8d 00 45 70 00 20       	b.lwz      r8,0x4000ea0(r0)
   82a69:	28 6a 88                	b.lhz      r3,0x10(r10)
   82a6c:	24 8a 68                	b.lbz      r4,0x16(r10)
   82a6f:	30 e1 18                	b.addi     r7,r1,0x18
   82a72:	38 a0 70                	b.ori      r5,r0,0xe
   82a75:	30 c1 28                	b.addi     r6,r1,0x14
   82a78:	31 08 24                	b.addi     r8,r8,0x24
   82a7b:	2d 81 00                	b.sw       0x0(r1),r12
   82a7e:	49 cf 28                	b.jal      87e4c <vPDM_MoveAllDataWithBufferIdFromListToList>
   82a81:	8c e0 45 70 00 20       	b.lwz      r7,0x4000ea0(r0)
   82a87:	2d 47 64                	b.lwz      r10,0x24(r7)
   82a8a:	d0 40 a1 2f             	b.bnei     r10,0x0,829d2 <Node_vPdmInit.constprop.114+0x79a>
   82a8e:	4a 6b c8                	b.jal      879e7 <vPDM_DeleteUsedSegmentsOnDeallocList>
   82a91:	8d 40 45 70 00 20       	b.lwz      r10,0x4000ea0(r0)
   82a97:	48 56 d0                	b.jal      8583f <u8PDM_CalculateFileSystemCapacity>
   82a9a:	20 6a 10                	b.sb       0x8(r10),r3
   82a9d:	8d 40 45 70 00 20       	b.lwz      r10,0x4000ea0(r0)
   82aa3:	00 e8                   	b.movi     r7,0x1
   82aa5:	2c ea 32                	b.sw       0x4c(r10),r7
   82aa8:	98 e0 05 61 80 00       	b.ori      r7,r0,0x186a0
   82aae:	2c ea 06                	b.sw       0x60(r10),r7
   82ab1:	21 6a 2a                	b.sb       0x54(r10),r11
   82ab4:	28 0a 1a                	b.sh       0x58(r10),r0
   82ab7:	2c 0a 0a                	b.sw       0x50(r10),r0
   82aba:	2c 0a 3a                	b.sw       0x5c(r10),r0
   82abd:	49 06 d0                	b.jal      8583f <u8PDM_CalculateFileSystemCapacity>
   82ac0:	24 ea 80                	b.lbz      r7,0x1(r10)
   82ac3:	60 67 1d                	b.sub      r3,r7,r3
   82ac6:	3e 03 38                	b.extbz    r7,r3
   82ac9:	28 ea 6a                	b.sh       0x56(r10),r7
   82acc:	98 60 27 90 00 20       	b.ori      r3,r0,0x40009e4
   82ad2:	98 80 ff ff 00 00       	b.ori      r4,r0,0xffff
   82ad8:	98 a0 3f 90 00 20       	b.ori      r5,r0,0x40009fc
   82ade:	38 c0 10                	b.ori      r6,r0,0x8
   82ae1:	48 1d d0                	b.jal      859c1 <PDM_eLoadRecord.constprop.128>
   82ae4:	84 e0 27 90 00 20       	b.lbz      r7,0x40009e4(r0)
   82aea:	d0 50 71 10             	b.bnei     r7,0x2,82b72 <Node_vPdmInit.constprop.114+0x93a>
   82aee:	8c e0 7f 90 00 20       	b.lwz      r7,0x40009fc(r0)
   82af4:	9d 87 2e 00 80 10       	b.sfeqi    r7,0x8010074
   82afa:	47 2a 90                	b.bf       82b8f <Node_vPdmInit.constprop.114+0x957>
   82afd:	8c e0 45 70 00 20       	b.lwz      r7,0x4000ea0(r0)
   82b03:	2c 67 72                	b.lwz      r3,0x4c(r7)
   82b06:	40 03 60                	b.beqi     r3,0x0,82b0c <Node_vPdmInit.constprop.114+0x8d4>
   82b09:	4b 23 a2                	b.jal      9421c <OS_eEnterCriticalSection>
   82b0c:	8c e0 45 70 00 20       	b.lwz      r7,0x4000ea0(r0)
   82b12:	2d 47 4a                	b.lwz      r10,0x50(r7)
   82b15:	0e 20                   	b.j        82b26 <Node_vPdmInit.constprop.114+0x8ee>
   82b17:	2d 6a 48                	b.lwz      r11,0x10(r10)
   82b1a:	38 a0 18                	b.ori      r5,r0,0x18
   82b1d:	04 6a                   	b.mov      r3,r10
   82b1f:	00 80                   	b.movi     r4,0x0
   82b21:	05 4b                   	b.mov      r10,r11
   82b23:	48 13 52                	b.jal      95643 <memset>
   82b26:	40 0a d0                	b.beqi     r10,0x0,82b31 <Node_vPdmInit.constprop.114+0x8f9>
   82b29:	04 6a                   	b.mov      r3,r10
   82b2b:	49 13 3c                	b.jal      91e4d <bPDM_IsDescriptorValid>
   82b2e:	40 83 97                	b.beqi     r3,0x1,82b17 <Node_vPdmInit.constprop.114+0x8df>
   82b31:	8c e0 45 70 00 20       	b.lwz      r7,0x4000ea0(r0)
   82b37:	2c 07 0a                	b.sw       0x50(r7),r0
   82b3a:	28 07 6a                	b.sh       0x56(r7),r0
   82b3d:	28 07 1a                	b.sh       0x58(r7),r0
   82b40:	4b 95 c8                	b.jal      879e7 <vPDM_DeleteUsedSegmentsOnDeallocList>
   82b43:	8c c0 45 70 00 20       	b.lwz      r6,0x4000ea0(r0)
   82b49:	38 60 30                	b.ori      r3,r0,0xc
   82b4c:	30 a6 30                	b.addi     r5,r6,0xc
   82b4f:	30 81 04                	b.addi     r4,r1,0x20
   82b52:	30 c6 28                	b.addi     r6,r6,0x14
   82b55:	48 71 28                	b.jal      87d8d <vPDM_MoveAllDataFromListToList>
   82b58:	8c e0 45 70 00 20       	b.lwz      r7,0x4000ea0(r0)
   82b5e:	24 c7 80                	b.lbz      r6,0x1(r7)
   82b61:	2c 67 72                	b.lwz      r3,0x4c(r7)
   82b64:	20 c7 10                	b.sb       0x8(r7),r6
   82b67:	40 03 60                	b.beqi     r3,0x0,82b6d <Node_vPdmInit.constprop.114+0x935>
   82b6a:	49 e5 a2                	b.jal      94208 <OS_eExitCriticalSection>
   82b6d:	4a ca e0                	b.jal      848ba <vAHI_SwReset>
   82b70:	0f e0                   	b.j        82b8f <Node_vPdmInit.constprop.114+0x957>
   82b72:	98 e0 2e 00 80 10       	b.ori      r7,r0,0x8010074
   82b78:	98 60 27 90 00 20       	b.ori      r3,r0,0x40009e4
   82b7e:	8c e0 3f 90 00 20       	b.sw       0x40009fc(r0),r7
   82b84:	00 ef                   	b.movi     r7,-0x1
   82b86:	8c e0 00 50 00 20       	b.sw       0x4000a00(r0),r7
   82b8c:	48 33 6c                	b.jal      906bc <PDM_vSaveRecord>
   82b8f:	98 60 34 a0 00 20       	b.ori      r3,r0,0x400052c
   82b95:	98 80 00 ff 00 00       	b.ori      r4,r0,0xff00
   82b9b:	98 a0 22 a0 00 20       	b.ori      r5,r0,0x4000544
   82ba1:	38 c0 08                	b.ori      r6,r0,0x10
   82ba4:	8c 60 18 90 00 20       	b.sw       0x4000918(r0),r3
   82baa:	4b a1 d0                	b.jal      859c1 <PDM_eLoadRecord.constprop.128>
   82bad:	98 60 00 20 00 20       	b.ori      r3,r0,0x4000400
   82bb3:	d8 c0 00 80             	b.addi     r6,r0,0x100
   82bb7:	98 80 40 ff 00 00       	b.ori      r4,r0,0xff02
   82bbd:	98 a0 18 20 00 20       	b.ori      r5,r0,0x4000418
   82bc3:	8c 60 38 90 00 20       	b.sw       0x400091c(r0),r3
   82bc9:	48 7e d0                	b.jal      859c1 <PDM_eLoadRecord.constprop.128>
   82bcc:	8c c0 78 90 00 20       	b.lwz      r6,0x400091c(r0)
   82bd2:	24 e6 00                	b.lbz      r7,0x0(r6)
   82bd5:	c0 e6 98 80             	b.sb       0x119(r6),r7
   82bd9:	40 47 14                	b.beqi     r7,0x2,82c01 <Node_vPdmInit.constprop.114+0x9c9>
   82bdc:	30 61 2a                	b.addi     r3,r1,0x54
   82bdf:	38 a0 08                	b.ori      r5,r0,0x10
   82be2:	00 80                   	b.movi     r4,0x0
   82be4:	4b e9 52                	b.jal      95643 <memset>
   82be7:	00 ef                   	b.movi     r7,-0x1
   82be9:	20 e1 2a                	b.sb       0x54(r1),r7
   82bec:	38 e0 a8                	b.ori      r7,r0,0x15
   82bef:	30 81 2a                	b.addi     r4,r1,0x54
   82bf2:	00 60                   	b.movi     r3,0x0
   82bf4:	20 e1 aa                	b.sb       0x55(r1),r7
   82bf7:	d8 e0 f0 0f             	b.addi     r7,r0,-0xff1
   82bfb:	28 e1 46                	b.sh       0x62(r1),r7
   82bfe:	49 35 3c                	b.jal      91eb0 <bJIP_GroupCallback>
   82c01:	38 e0 08                	b.ori      r7,r0,0x10
   82c04:	98 60 30 a0 10 00       	b.ori      r3,r0,0x8050c
   82c0a:	98 80 9a a0 00 20       	b.ori      r4,r0,0x4000559
   82c10:	38 a0 2c                	b.ori      r5,r0,0x34
   82c13:	80 e0 14 c0 00 20       	b.sb       0x4000328(r0),r7
   82c19:	98 e0 02 e0 00 20       	b.ori      r7,r0,0x4000740
   82c1f:	8c e0 38 e0 00 20       	b.sw       0x400071c(r0),r7
   82c25:	98 e0 23 00 00 20       	b.ori      r7,r0,0x40000c4
   82c2b:	8c e0 02 e0 00 20       	b.sw       0x4000740(r0),r7
   82c31:	4b 5b 88                	b.jal      8739c <dbg_vPrintfImplNoneVerbose>
   82c34:	98 e0 20 50 00 20       	b.ori      r7,r0,0x4000a04
   82c3a:	98 80 11 7f 00 00       	b.ori      r4,r0,0xfe88
   82c40:	98 a0 36 e0 00 20       	b.ori      r5,r0,0x400076c
   82c46:	38 c0 08                	b.ori      r6,r0,0x10
   82c49:	98 60 2a e0 00 20       	b.ori      r3,r0,0x4000754
   82c4f:	8c e0 39 a0 00 20       	b.sw       0x400059c(r0),r7
   82c55:	00 ee                   	b.movi     r7,0x7
   82c57:	80 e0 28 50 00 20       	b.sb       0x4000a14(r0),r7
   82c5d:	d8 e0 00 01             	b.addi     r7,r0,-0x8000
   82c61:	88 e0 34 50 00 20       	b.sh       0x4000a2c(r0),r7
   82c67:	38 e0 98                	b.ori      r7,r0,0x19
   82c6a:	80 e0 0c 50 00 20       	b.sb       0x4000a30(r0),r7
   82c70:	00 e2                   	b.movi     r7,0x4
   82c72:	80 e0 8c 50 00 20       	b.sb       0x4000a31(r0),r7
   82c78:	8c e0 53 00 00 40       	b.lwz      r7,0x20000c8(r0)
   82c7e:	8c 00 20 50 00 20       	b.sw       0x4000a04(r0),r0
   82c84:	94 e7 ff ff f3 ff       	b.andi     r7,r7,0xffcfffff
   82c8a:	8c e0 13 00 00 40       	b.sw       0x20000c8(r0),r7
   82c90:	98 e0 0a e0 00 20       	b.ori      r7,r0,0x4000750
   82c96:	8c e0 18 e0 00 20       	b.sw       0x4000718(r0),r7
   82c9c:	98 e0 2f 00 00 20       	b.ori      r7,r0,0x40000f4
   82ca2:	8c e0 0a e0 00 20       	b.sw       0x4000750(r0),r7
   82ca8:	00 e8                   	b.movi     r7,0x1
   82caa:	88 00 74 50 00 20       	b.sh       0x4000a2e(r0),r0
   82cb0:	80 e0 41 e0 00 20       	b.sb       0x4000782(r0),r7
   82cb6:	4b 42 d0                	b.jal      859c1 <PDM_eLoadRecord.constprop.128>
   82cb9:	8c e0 58 e0 00 20       	b.lwz      r7,0x4000718(r0)
   82cbf:	98 80 d1 7f 00 00       	b.ori      r4,r0,0xfe8b
   82cc5:	98 60 02 60 00 20       	b.ori      r3,r0,0x4000640
   82ccb:	50 a7 04                	b.mlwz     r5,0x20(r7),0x0
   82cce:	08 c5                   	b.add      r6,r6,r5
   82cd0:	98 a0 1a 60 00 20       	b.ori      r5,r0,0x4000658
   82cd6:	2c c7 34                	b.sw       0x2c(r7),r6
   82cd9:	2c c7 1c                	b.sw       0x38(r7),r6
   82cdc:	2c c7 54                	b.lwz      r6,0x28(r7)
   82cdf:	2c c7 2c                	b.sw       0x34(r7),r6
   82ce2:	d8 c6 00 08             	b.addi     r6,r6,0x1000
   82ce6:	2c c7 14                	b.sw       0x28(r7),r6
   82ce9:	38 c0 2e                	b.ori      r6,r0,0x74
   82cec:	4a ac d0                	b.jal      859c1 <PDM_eLoadRecord.constprop.128>
   82cef:	0c 1c                   	b.j        82dcf <Node_vPdmInit.constprop.114+0xb97>
   82cf1:	2c 07 24                	b.sw       0x24(r7),r0
   82cf4:	01 80                   	b.movi     r12,0x0
   82cf6:	2c 07 14                	b.sw       0x28(r7),r0
   82cf9:	39 c0 38                	b.ori      r14,r0,0x1c
   82cfc:	01 ea                   	b.movi     r15,0x5
   82cfe:	2c 07 34                	b.sw       0x2c(r7),r0
   82d01:	2c 07 0c                	b.sw       0x30(r7),r0
   82d04:	2c 07 2c                	b.sw       0x34(r7),r0
   82d07:	2c 07 1c                	b.sw       0x38(r7),r0
   82d0a:	2c 07 3c                	b.sw       0x3c(r7),r0
   82d0d:	2c 07 02                	b.sw       0x40(r7),r0
   82d10:	2c 07 22                	b.sw       0x44(r7),r0
   82d13:	2c 07 12                	b.sw       0x48(r7),r0
   82d16:	46 d0 1f                	b.j        82521 <Node_vPdmInit.constprop.114+0x2e9>
   82d19:	04 6a                   	b.mov      r3,r10
   82d1b:	00 88                   	b.movi     r4,0x1
   82d1d:	4a 38 3c                	b.jal      91d8e <iPDM_SetVerifyBytesInFileSystemRecord>
   82d20:	24 6a 10                	b.lbz      r3,0x8(r10)
   82d23:	31 ad c8                	b.addi     r13,r13,0x13
   82d26:	60 8d 64                	b.add      r4,r13,r12
   82d29:	3e 04 20                	b.extbz    r4,r4
   82d2c:	00 a8                   	b.movi     r5,0x1
   82d2e:	49 36 dc                	b.jal      91ae0 <vPDM_WriteByteIntoEEPROM>
   82d31:	04 6a                   	b.mov      r3,r10
   82d33:	00 80                   	b.movi     r4,0x0
   82d35:	4a 68 3c                	b.jal      91d8e <iPDM_SetVerifyBytesInFileSystemRecord>
   82d38:	46 ab 1f                	b.j        8260d <Node_vPdmInit.constprop.114+0x3d5>
   82d3b:	28 67 88                	b.lhz      r3,0x10(r7)
   82d3e:	24 87 68                	b.lbz      r4,0x16(r7)
   82d41:	30 c1 24                	b.addi     r6,r1,0x24
   82d44:	30 e1 38                	b.addi     r7,r1,0x1c
   82d47:	4b 23 50                	b.jal      8585a <iPDM_SearchForBufferIdInList>
   82d4a:	d0 00 39 0d             	b.beqi     r3,0x0,82853 <Node_vPdmInit.constprop.114+0x61b>
   82d4e:	0e e0                   	b.j        82d6b <Node_vPdmInit.constprop.114+0xb33>
   82d50:	28 67 88                	b.lhz      r3,0x10(r7)
   82d53:	24 87 68                	b.lbz      r4,0x16(r7)
   82d56:	00 bf                   	b.addi     r5,r5,-0x1
   82d58:	30 c1 24                	b.addi     r6,r1,0x24
   82d5b:	30 e1 38                	b.addi     r7,r1,0x1c
   82d5e:	3e 05 28                	b.extbz    r5,r5
   82d61:	4a 7d 50                	b.jal      8585a <iPDM_SearchForBufferIdInList>
   82d64:	d0 00 33 35             	b.beqi     r3,0x0,82830 <Node_vPdmInit.constprop.114+0x5f8>
   82d68:	46 cb df                	b.j        8293b <Node_vPdmInit.constprop.114+0x703>
   82d6b:	2c c1 58                	b.lwz      r6,0x18(r1)
   82d6e:	2c e1 68                	b.lwz      r7,0x14(r1)
   82d71:	24 a6 28                	b.lbz      r5,0x14(r6)
   82d74:	28 67 88                	b.lhz      r3,0x10(r7)
   82d77:	24 87 68                	b.lbz      r4,0x16(r7)
   82d7a:	00 bf                   	b.addi     r5,r5,-0x1
   82d7c:	30 c1 24                	b.addi     r6,r1,0x24
   82d7f:	30 e1 38                	b.addi     r7,r1,0x1c
   82d82:	3e 05 28                	b.extbz    r5,r5
   82d85:	4a ad 50                	b.jal      8585a <iPDM_SearchForBufferIdInList>
   82d88:	d0 00 3a b5             	b.beqi     r3,0x0,8285d <Node_vPdmInit.constprop.114+0x625>
   82d8c:	46 f5 df                	b.j        8293b <Node_vPdmInit.constprop.114+0x703>
   82d8f:	2c e1 58                	b.lwz      r7,0x18(r1)
   82d92:	2c 61 78                	b.lwz      r3,0x1c(r1)
   82d95:	24 e7 28                	b.lbz      r7,0x14(r7)
   82d98:	24 c3 c8                	b.lbz      r6,0x13(r3)
   82d9b:	00 ff                   	b.addi     r7,r7,-0x1
   82d9d:	d2 cc 71 0d             	b.bne      r6,r7,828a5 <Node_vPdmInit.constprop.114+0x66d>
   82da1:	46 2f 5f                	b.j        82895 <Node_vPdmInit.constprop.114+0x65d>
   82da4:	38 60 70                	b.ori      r3,r0,0xe
   82da7:	30 81 08                	b.addi     r4,r1,0x10
   82daa:	30 a1 24                	b.addi     r5,r1,0x24
   82dad:	04 c5                   	b.mov      r6,r5
   82daf:	49 ef c8                	b.jal      87d8d <vPDM_MoveAllDataFromListToList>
   82db2:	2c 61 58                	b.lwz      r3,0x18(r1)
   82db5:	24 81 08                	b.lbz      r4,0x10(r1)
   82db8:	24 e3 28                	b.lbz      r7,0x14(r3)
   82dbb:	d2 ce 48 4d             	b.bne      r7,r4,828dc <Node_vPdmInit.constprop.114+0x6a4>
   82dbf:	46 e8 df                	b.j        828d6 <Node_vPdmInit.constprop.114+0x69e>
   82dc2:	25 0a 10                	b.lbz      r8,0x8(r10)
   82dc5:	24 65 80                	b.lbz      r3,0x1(r5)
   82dc8:	00 c0                   	b.movi     r6,0x0
   82dca:	00 e0                   	b.movi     r7,0x0
   82dcc:	46 81 6f                	b.j        8244d <Node_vPdmInit.constprop.114+0x215>
   82dcf:	47 be 84                	b.reti     0x7,0x21
	...

00082dd4 <iUDP_GetUDPheaderSize>:
   82dd4:	3e 04 2c                	b.ff1      r5,r4
   82dd7:	3e 03 34                	b.ff1      r6,r3
   82dda:	00 bf                   	b.addi     r5,r5,-0x1
   82ddc:	00 df                   	b.addi     r6,r6,-0x1
   82dde:	60 c5 31                	b.or       r6,r5,r6
   82de1:	04 e3                   	b.mov      r7,r3
   82de3:	45 06 ac                	b.bltsi    r6,0x0,82e18 <iUDP_GetUDPheaderSize+0x44>
   82de6:	38 c0 10                	b.ori      r6,r0,0x8
   82de9:	20 c4 00                	b.sb       0x0(r4),r6
   82dec:	28 c3 8c                	b.lhz      r6,0x30(r3)
   82def:	6c c6 c1                	b.srli     r6,r6,0x3
   82df2:	20 c4 00                	b.sb       0x0(r4),r6
   82df5:	28 c3 97                	b.lhz      r6,0xe8(r3)
   82df8:	00 60                   	b.movi     r3,0x0
   82dfa:	34 c6 e0                	b.andi     r6,r6,0x7
   82dfd:	41 06 b8                	b.bnei     r6,0x0,82e1a <iUDP_GetUDPheaderSize+0x46>
   82e00:	28 e7 8c                	b.lhz      r7,0x30(r7)
   82e03:	34 c7 e0                	b.andi     r6,r7,0x7
   82e06:	41 06 10                	b.bnei     r6,0x0,82e0e <iUDP_GetUDPheaderSize+0x3a>
   82e09:	6c e7 c1                	b.srli     r7,r7,0x3
   82e0c:	0f 80                   	b.j        82e13 <iUDP_GetUDPheaderSize+0x3f>
   82e0e:	00 f2                   	b.addi     r7,r7,0x4
   82e10:	6c e7 c2                	b.srai     r7,r7,0x3
   82e13:	20 e4 00                	b.sb       0x0(r4),r7
   82e16:	0c 80                   	b.j        82e1a <iUDP_GetUDPheaderSize+0x46>
   82e18:	00 6f                   	b.movi     r3,-0x1
   82e1a:	47 d2 48                	b.jr       r9

00082e1d <boIdSearchMatch.17267>:
   82e1d:	2c e4 50                	b.lwz      r7,0x8(r4)
   82e20:	2c 63 40                	b.lwz      r3,0x0(r3)
   82e23:	60 67 1a                	b.xor      r3,r7,r3
   82e26:	3e 03 1c                	b.ff1      r3,r3
   82e29:	00 7f                   	b.addi     r3,r3,-0x1
   82e2b:	6c 63 f9                	b.srli     r3,r3,0x1f
   82e2e:	47 d2 48                	b.jr       r9

00082e31 <boPortSearchMatch.17263>:
   82e31:	28 e4 b8                	b.lhz      r7,0x1c(r4)
   82e34:	28 63 80                	b.lhz      r3,0x0(r3)
   82e37:	60 67 1a                	b.xor      r3,r7,r3
   82e3a:	3e 03 1a                	b.exthz    r3,r3
   82e3d:	00 7f                   	b.addi     r3,r3,-0x1
   82e3f:	6c 63 f9                	b.srli     r3,r3,0x1f
   82e42:	47 d2 48                	b.jr       r9

00082e45 <iWriteIPv6andDataHeaders>:
   82e45:	47 ae c0                	b.entri    0x7,0x3
   82e48:	20 01 e0                	b.sb       0x7(r1),r0
   82e4b:	05 65                   	b.mov      r11,r5
   82e4d:	05 c3                   	b.mov      r14,r3
   82e4f:	05 a4                   	b.mov      r13,r4
   82e51:	05 46                   	b.mov      r10,r6
   82e53:	05 e7                   	b.mov      r15,r7
   82e55:	05 88                   	b.mov      r12,r8
   82e57:	00 a0                   	b.movi     r5,0x0
   82e59:	d0 00 b5 90             	b.beqi     r11,0x0,82ef3 <iWriteIPv6andDataHeaders+0xae>
   82e5d:	8c e0 55 70 00 20       	b.lwz      r7,0x4000ea8(r0)
   82e63:	30 a1 a0                	b.addi     r5,r1,0x5
   82e66:	04 86                   	b.mov      r4,r6
   82e68:	2c e7 74                	b.lwz      r7,0x2c(r7)
   82e6b:	04 c8                   	b.mov      r6,r8
   82e6d:	47 d1 38                	b.jalr     r7
   82e70:	24 81 a0                	b.lbz      r4,0x5(r1)
   82e73:	28 ec b8                	b.lhz      r7,0x1c(r12)
   82e76:	d3 8e 41 00             	b.bgeu     r7,r4,82e7e <iWriteIPv6andDataHeaders+0x39>
   82e7a:	00 af                   	b.movi     r5,-0x1
   82e7c:	0f b8                   	b.j        82ef3 <iWriteIPv6andDataHeaders+0xae>
   82e7e:	8c e0 55 70 00 20       	b.lwz      r7,0x4000ea8(r0)
   82e84:	08 8e                   	b.add      r4,r4,r14
   82e86:	30 a1 60                	b.addi     r5,r1,0x6
   82e89:	30 c1 e0                	b.addi     r6,r1,0x7
   82e8c:	04 6a                   	b.mov      r3,r10
   82e8e:	2c e7 78                	b.lwz      r7,0x1c(r7)
   82e91:	47 d1 38                	b.jalr     r7
   82e94:	24 e1 60                	b.lbz      r7,0x6(r1)
   82e97:	24 c1 a0                	b.lbz      r6,0x5(r1)
   82e9a:	28 ac b8                	b.lhz      r5,0x1c(r12)
   82e9d:	60 87 34                	b.add      r4,r7,r6
   82ea0:	d3 48 55 bf             	b.bgts     r4,r5,82e7a <iWriteIPv6andDataHeaders+0x35>
   82ea4:	24 aa cf                	b.lbz      r5,0xf3(r10)
   82ea7:	40 05 34                	b.beqi     r5,0x0,82ed3 <iWriteIPv6andDataHeaders+0x8e>
   82eaa:	40 8d d0                	b.beqi     r13,0x1,82eb5 <iWriteIPv6andDataHeaders+0x70>
   82ead:	60 ab 35                	b.sub      r5,r11,r6
   82eb0:	60 a5 3d                	b.sub      r5,r5,r7
   82eb3:	0f 40                   	b.j        82ebe <iWriteIPv6andDataHeaders+0x79>
   82eb5:	24 a1 e0                	b.lbz      r5,0x7(r1)
   82eb8:	60 ab 2d                	b.sub      r5,r11,r5
   82ebb:	30 a5 1b                	b.addi     r5,r5,-0x28
   82ebe:	24 8a 8f                	b.lbz      r4,0xf1(r10)
   82ec1:	3e 05 2a                	b.exthz    r5,r5
   82ec4:	28 aa 57                	b.sh       0xea(r10),r5
   82ec7:	3c 24 88                	b.sfnei    r4,0x11
   82eca:	47 29 00                	b.bf       82ed3 <iWriteIPv6andDataHeaders+0x8e>
   82ecd:	30 a5 10                	b.addi     r5,r5,0x8
   82ed0:	28 aa 34                	b.sh       0x2c(r10),r5
   82ed3:	08 e6                   	b.add      r7,r7,r6
   82ed5:	00 a2                   	b.movi     r5,0x4
   82ed7:	20 ef 00                	b.sb       0x0(r15),r7
   82eda:	00 e8                   	b.movi     r7,0x1
   82edc:	20 ea 3b                	b.sb       0xdc(r10),r7
   82edf:	41 03 28                	b.bnei     r3,0x0,82ef3 <iWriteIPv6andDataHeaders+0xae>
   82ee2:	8c e0 55 70 00 20       	b.lwz      r7,0x4000ea8(r0)
   82ee8:	00 a4                   	b.movi     r5,0x2
   82eea:	28 e7 b9                	b.lhz      r7,0x9c(r7)
   82eed:	3d a7 58                	b.sfgeu    r7,r11
   82ef0:	64 a0 2a                	b.cmov     r5,r0,r5
   82ef3:	04 65                   	b.mov      r3,r5
   82ef5:	47 be c0                	b.reti     0x7,0x3

00082ef8 <iIPv6_CalculateIPv6AddressChecksum.1507>:
   82ef8:	3e 04 34                	b.ff1      r6,r4
   82efb:	3e 03 3c                	b.ff1      r7,r3
   82efe:	00 df                   	b.addi     r6,r6,-0x1
   82f00:	00 ff                   	b.addi     r7,r7,-0x1
   82f02:	60 e6 39                	b.or       r7,r6,r7
   82f05:	42 07 28                	b.bgesi    r7,0x0,82f19 <iIPv6_CalculateIPv6AddressChecksum.1507+0x21>
   82f08:	8c e0 55 70 00 20       	b.lwz      r7,0x4000ea8(r0)
   82f0e:	d8 c0 60 80             	b.addi     r6,r0,0x106
   82f12:	00 6f                   	b.movi     r3,-0x1
   82f14:	2c c7 32                	b.sw       0x4c(r7),r6
   82f17:	0f 90                   	b.j        82f3e <iIPv6_CalculateIPv6AddressChecksum.1507+0x46>
   82f19:	2c 04 00                	b.sw       0x0(r4),r0
   82f1c:	00 e0                   	b.movi     r7,0x0
   82f1e:	60 a3 3c                	b.add      r5,r3,r7
   82f21:	00 f2                   	b.addi     r7,r7,0x4
   82f23:	3c 27 08                	b.sfnei    r7,0x10
   82f26:	29 05 80                	b.lhz      r8,0x0(r5)
   82f29:	2c c4 40                	b.lwz      r6,0x0(r4)
   82f2c:	08 c8                   	b.add      r6,r6,r8
   82f2e:	2c c4 00                	b.sw       0x0(r4),r6
   82f31:	28 a5 c0                	b.lhz      r5,0x2(r5)
   82f34:	08 c5                   	b.add      r6,r6,r5
   82f36:	2c c4 00                	b.sw       0x0(r4),r6
   82f39:	47 2a 7f                	b.bf       82f1e <iIPv6_CalculateIPv6AddressChecksum.1507+0x26>
   82f3c:	00 60                   	b.movi     r3,0x0
   82f3e:	47 d2 48                	b.jr       r9

00082f41 <iIPv6_CalculateIPv6PseudoHeaderChecksum>:
   82f41:	3e 05 34                	b.ff1      r6,r5
   82f44:	3e 03 3c                	b.ff1      r7,r3
   82f47:	00 df                   	b.addi     r6,r6,-0x1
   82f49:	00 ff                   	b.addi     r7,r7,-0x1
   82f4b:	47 ac a0                	b.entri    0x3,0x5
   82f4e:	60 e6 39                	b.or       r7,r6,r7
   82f51:	05 43                   	b.mov      r10,r3
   82f53:	05 64                   	b.mov      r11,r4
   82f55:	42 07 28                	b.bgesi    r7,0x0,82f69 <iIPv6_CalculateIPv6PseudoHeaderChecksum+0x28>
   82f58:	8c e0 55 70 00 20       	b.lwz      r7,0x4000ea8(r0)
   82f5e:	d8 c0 60 80             	b.addi     r6,r0,0x106
   82f62:	00 6f                   	b.movi     r3,-0x1
   82f64:	2c c7 32                	b.sw       0x4c(r7),r6
   82f67:	0d d0                   	b.j        82f95 <iIPv6_CalculateIPv6PseudoHeaderChecksum+0x54>
   82f69:	30 81 10                	b.addi     r4,r1,0x8
   82f6c:	30 63 10                	b.addi     r3,r3,0x8
   82f6f:	2c a1 20                	b.sw       0x4(r1),r5
   82f72:	49 87 ff                	b.jal      82ef8 <iIPv6_CalculateIPv6AddressChecksum.1507>
   82f75:	30 6a 18                	b.addi     r3,r10,0x18
   82f78:	30 81 30                	b.addi     r4,r1,0xc
   82f7b:	4a fb ff                	b.jal      82ef8 <iIPv6_CalculateIPv6AddressChecksum.1507>
   82f7e:	2c c1 70                	b.lwz      r6,0xc(r1)
   82f81:	2c e1 50                	b.lwz      r7,0x8(r1)
   82f84:	2c a1 60                	b.lwz      r5,0x4(r1)
   82f87:	08 e6                   	b.add      r7,r7,r6
   82f89:	00 60                   	b.movi     r3,0x0
   82f8b:	24 ca 8f                	b.lbz      r6,0xf1(r10)
   82f8e:	08 e6                   	b.add      r7,r7,r6
   82f90:	09 67                   	b.add      r11,r11,r7
   82f92:	2d 65 00                	b.sw       0x0(r5),r11
   82f95:	47 bc a0                	b.reti     0x3,0x5

00082f98 <boBufferByHandleSearchMatch.16418>:
   82f98:	2c a4 47                	b.lwz      r5,0xe0(r4)
   82f9b:	2c c3 60                	b.lwz      r6,0x4(r3)
   82f9e:	00 e0                   	b.movi     r7,0x0
   82fa0:	d2 ca 66 80             	b.bne      r5,r6,82fb6 <boBufferByHandleSearchMatch.16418+0x1e>
   82fa4:	24 a4 1f                	b.lbz      r5,0xf8(r4)
   82fa7:	24 c3 00                	b.lbz      r6,0x0(r3)
   82faa:	d2 cc 53 00             	b.bne      r6,r5,82fb6 <boBufferByHandleSearchMatch.16418+0x1e>
   82fae:	00 e8                   	b.movi     r7,0x1
   82fb0:	41 06 60                	b.bnei     r6,0x0,82fb6 <boBufferByHandleSearchMatch.16418+0x1e>
   82fb3:	24 e4 3b                	b.lbz      r7,0xdc(r4)
   82fb6:	04 67                   	b.mov      r3,r7
   82fb8:	47 d2 48                	b.jr       r9

00082fbb <boTagIdSearchMatch.16422>:
   82fbb:	28 c3 80                	b.lhz      r6,0x0(r3)
   82fbe:	24 e4 b7                	b.lbz      r7,0xed(r4)
   82fc1:	00 60                   	b.movi     r3,0x0
   82fc3:	d2 ce 62 80             	b.bne      r7,r6,82fd7 <boTagIdSearchMatch.16422+0x1c>
   82fc7:	24 64 9f                	b.lbz      r3,0xf9(r4)
   82fca:	00 e8                   	b.movi     r7,0x1
   82fcc:	60 63 3a                	b.xor      r3,r3,r7
   82fcf:	3e 03 18                	b.extbz    r3,r3
   82fd2:	00 7f                   	b.addi     r3,r3,-0x1
   82fd4:	6c 63 f9                	b.srli     r3,r3,0x1f
   82fd7:	47 d2 48                	b.jr       r9

00082fda <boBufferReadyToTXSearchMatch.16414>:
   82fda:	24 e4 9f                	b.lbz      r7,0xf9(r4)
   82fdd:	00 60                   	b.movi     r3,0x0
   82fdf:	41 87 88                	b.bnei     r7,0x1,82ff0 <boBufferReadyToTXSearchMatch.16414+0x16>
   82fe2:	24 64 db                	b.lbz      r3,0xdb(r4)
   82fe5:	60 63 3a                	b.xor      r3,r3,r7
   82fe8:	3e 03 18                	b.extbz    r3,r3
   82feb:	00 7f                   	b.addi     r3,r3,-0x1
   82fed:	6c 63 f9                	b.srli     r3,r3,0x1f
   82ff0:	47 d2 48                	b.jr       r9

00082ff3 <boBufferByTagIdAndSrcAddrSearchMatch.16410>:
   82ff3:	28 c3 80                	b.lhz      r6,0x0(r3)
   82ff6:	28 a4 b7                	b.lhz      r5,0xec(r4)
   82ff9:	04 e3                   	b.mov      r7,r3
   82ffb:	00 60                   	b.movi     r3,0x0
   82ffd:	d2 ca 60 a0             	b.bne      r5,r6,8304d <boBufferByTagIdAndSrcAddrSearchMatch.16410+0x5a>
   83001:	24 a4 1f                	b.lbz      r5,0xf8(r4)
   83004:	24 c7 40                	b.lbz      r6,0x2(r7)
   83007:	d2 ca 66 20             	b.bne      r5,r6,8304d <boBufferByTagIdAndSrcAddrSearchMatch.16410+0x5a>
   8300b:	2c e7 60                	b.lwz      r7,0x4(r7)
   8300e:	24 c7 40                	b.lbz      r6,0x2(r7)
   83011:	41 c6 84                	b.bnei     r6,0x3,83032 <boBufferByTagIdAndSrcAddrSearchMatch.16410+0x3f>
   83014:	24 c4 32                	b.lbz      r6,0x4c(r4)
   83017:	41 86 6c                	b.bnei     r6,0x1,8304d <boBufferByTagIdAndSrcAddrSearchMatch.16410+0x5a>
   8301a:	2c a4 62                	b.lwz      r5,0x44(r4)
   8301d:	2c c7 60                	b.lwz      r6,0x4(r7)
   83020:	d2 ca 6b 40             	b.bne      r5,r6,8304d <boBufferByTagIdAndSrcAddrSearchMatch.16410+0x5a>
   83024:	2c c4 52                	b.lwz      r6,0x48(r4)
   83027:	2c e7 50                	b.lwz      r7,0x8(r7)
   8302a:	d2 cc 7c 40             	b.bne      r6,r7,8304d <boBufferByTagIdAndSrcAddrSearchMatch.16410+0x5a>
   8302e:	00 68                   	b.movi     r3,0x1
   83030:	0e e0                   	b.j        8304d <boBufferByTagIdAndSrcAddrSearchMatch.16410+0x5a>
   83032:	41 46 d8                	b.bnei     r6,0x2,8304d <boBufferByTagIdAndSrcAddrSearchMatch.16410+0x5a>
   83035:	24 c4 32                	b.lbz      r6,0x4c(r4)
   83038:	41 06 a8                	b.bnei     r6,0x0,8304d <boBufferByTagIdAndSrcAddrSearchMatch.16410+0x5a>
   8303b:	28 a4 a2                	b.lhz      r5,0x44(r4)
   8303e:	28 c7 80                	b.lhz      r6,0x0(r7)
   83041:	d2 ca 63 00             	b.bne      r5,r6,8304d <boBufferByTagIdAndSrcAddrSearchMatch.16410+0x5a>
   83045:	28 c4 e2                	b.lhz      r6,0x46(r4)
   83048:	28 e7 a0                	b.lhz      r7,0x4(r7)
   8304b:	0f ef                   	b.j        8302a <boBufferByTagIdAndSrcAddrSearchMatch.16410+0x37>
   8304d:	47 d2 48                	b.jr       r9

00083050 <boAddressSearchMatch.16406>:
   83050:	d8 84 00 80             	b.addi     r4,r4,0x100
   83054:	60 64 1a                	b.xor      r3,r4,r3
   83057:	3e 03 1c                	b.ff1      r3,r3
   8305a:	00 7f                   	b.addi     r3,r3,-0x1
   8305c:	6c 63 f9                	b.srli     r3,r3,0x1f
   8305f:	47 d2 48                	b.jr       r9

00083062 <eEUI_CompareMulticast.1555>:
   83062:	47 aa 80                	b.entri    0x5,0x1
   83065:	2d 63 40                	b.lwz      r11,0x0(r3)
   83068:	6c cb 09                	b.srli     r6,r11,0x10
   8306b:	3e 06 39                	b.extbs    r7,r6
   8306e:	42 07 a0                	b.bgesi    r7,0x0,83073 <eEUI_CompareMulticast.1555+0x11>
   83071:	0f ec                   	b.j        83150 <eEUI_CompareMulticast.1555+0xee>
   83073:	34 a6 02                	b.andi     r5,r6,0x40
   83076:	00 e6                   	b.movi     r7,0x6
   83078:	d0 40 5d b0             	b.bnei     r5,0x0,83153 <eEUI_CompareMulticast.1555+0xf1>
   8307c:	35 46 f0                	b.andi     r10,r6,0xf
   8307f:	34 c6 0c                	b.andi     r6,r6,0x30
   83082:	38 e0 10                	b.ori      r7,r0,0x8
   83085:	3c 06 04                	b.sfeqi    r6,0x20
   83088:	47 2d 30                	b.bf       83153 <eEUI_CompareMulticast.1555+0xf1>
   8308b:	3c 06 0c                	b.sfeqi    r6,0x30
   8308e:	47 21 a0                	b.bf       830e6 <eEUI_CompareMulticast.1555+0x84>
   83091:	3c 06 08                	b.sfeqi    r6,0x10
   83094:	47 21 20                	b.bf       830dc <eEUI_CompareMulticast.1555+0x7a>
   83097:	95 6b ff ff 00 00       	b.andi     r11,r11,0xffff
   8309d:	d0 40 bc d0             	b.bnei     r11,0x0,83150 <eEUI_CompareMulticast.1555+0xee>
   830a1:	2c e3 60                	b.lwz      r7,0x4(r3)
   830a4:	d0 40 73 50             	b.bnei     r7,0x0,83150 <eEUI_CompareMulticast.1555+0xee>
   830a8:	2c e3 50                	b.lwz      r7,0x8(r3)
   830ab:	d0 40 7a 50             	b.bnei     r7,0x0,83150 <eEUI_CompareMulticast.1555+0xee>
   830af:	2c e3 70                	b.lwz      r7,0xc(r3)
   830b2:	40 47 e8                	b.beqi     r7,0x2,830c9 <eEUI_CompareMulticast.1555+0x67>
   830b5:	3c 07 68                	b.sfeqi    r7,0x16
   830b8:	47 28 80                	b.bf       830c9 <eEUI_CompareMulticast.1555+0x67>
   830bb:	d0 60 7a 90             	b.bnei     r7,0x1,83150 <eEUI_CompareMulticast.1555+0xee>
   830bf:	01 5f                   	b.addi     r10,r10,-0x1
   830c1:	00 ea                   	b.movi     r7,0x5
   830c3:	d1 e0 ab 10             	b.bgtui    r10,0x1,83150 <eEUI_CompareMulticast.1555+0xee>
   830c7:	0c c4                   	b.j        83153 <eEUI_CompareMulticast.1555+0xf1>
   830c9:	8c e0 55 70 00 20       	b.lwz      r7,0x4000ea8(r0)
   830cf:	24 e7 12                	b.lbz      r7,0x48(r7)
   830d2:	41 87 7e                	b.bnei     r7,0x1,83150 <eEUI_CompareMulticast.1555+0xee>
   830d5:	00 e6                   	b.movi     r7,0x6
   830d7:	41 4a 9e                	b.bnei     r10,0x2,83150 <eEUI_CompareMulticast.1555+0xee>
   830da:	0e 78                   	b.j        83153 <eEUI_CompareMulticast.1555+0xf1>
   830dc:	00 ee                   	b.movi     r7,0x7
   830de:	d1 d0 aa e0             	b.bgtui    r10,0x2,83153 <eEUI_CompareMulticast.1555+0xf1>
   830e2:	00 e2                   	b.movi     r7,0x4
   830e4:	0f d8                   	b.j        83153 <eEUI_CompareMulticast.1555+0xf1>
   830e6:	8c c0 55 70 00 20       	b.lwz      r6,0x4000ea8(r0)
   830ec:	2d a3 60                	b.lwz      r13,0x4(r3)
   830ef:	2c e6 41                	b.lwz      r7,0x80(r6)
   830f2:	2d 83 50                	b.lwz      r12,0x8(r3)
   830f5:	61 ad 3a                	b.xor      r13,r13,r7
   830f8:	38 a0 02                	b.ori      r5,r0,0x40
   830fb:	00 60                   	b.movi     r3,0x0
   830fd:	2c e6 7e                	b.lwz      r7,0x7c(r6)
   83100:	00 88                   	b.movi     r4,0x1
   83102:	61 8c 3a                	b.xor      r12,r12,r7
   83105:	34 eb ff                	b.andi     r7,r11,0xff
   83108:	60 a5 3d                	b.sub      r5,r5,r7
   8310b:	4b be 52                	b.jal      95b02 <__ashldi3>
   8310e:	60 80 25                	b.sub      r4,r0,r4
   83111:	3c 24 00                	b.sfnei    r4,0x0
   83114:	00 e8                   	b.movi     r7,0x1
   83116:	60 60 1d                	b.sub      r3,r0,r3
   83119:	64 e7 02                	b.cmov     r7,r7,r0
   8311c:	60 e3 3d                	b.sub      r7,r3,r7
   8311f:	61 a7 68                	b.and      r13,r7,r13
   83122:	61 84 60                	b.and      r12,r4,r12
   83125:	60 8d 61                	b.or       r4,r13,r12
   83128:	00 e6                   	b.movi     r7,0x6
   8312a:	41 04 94                	b.bnei     r4,0x0,83153 <eEUI_CompareMulticast.1555+0xf1>
   8312d:	38 c0 02                	b.ori      r6,r0,0x40
   83130:	61 6b 32                	b.xor      r11,r11,r6
   83133:	3e 0b 58                	b.extbz    r11,r11
   83136:	01 7f                   	b.addi     r11,r11,-0x1
   83138:	00 e8                   	b.movi     r7,0x1
   8313a:	3c ea 40                	b.sfleui   r10,0x2
   8313d:	6d 6b f9                	b.srli     r11,r11,0x1f
   83140:	64 e7 02                	b.cmov     r7,r7,r0
   83143:	60 e7 59                	b.or       r7,r7,r11
   83146:	3e 07 38                	b.extbz    r7,r7
   83149:	41 07 99                	b.bnei     r7,0x0,830e2 <eEUI_CompareMulticast.1555+0x80>
   8314c:	00 ee                   	b.movi     r7,0x7
   8314e:	0e 80                   	b.j        83153 <eEUI_CompareMulticast.1555+0xf1>
   83150:	38 e0 10                	b.ori      r7,r0,0x8
   83153:	04 67                   	b.mov      r3,r7
   83155:	47 ba 80                	b.reti     0x5,0x1

00083158 <vHandleNwkCallback.15587>:
   83158:	8c e0 70 d0 00 20       	b.lwz      r7,0x4000b0c(r0)
   8315e:	47 a8 80                	b.entri    0x1,0x1
   83161:	40 07 38                	b.beqi     r7,0x0,8317d <vHandleNwkCallback.15587+0x25>
   83164:	3c e4 10                	b.sfleui   r4,0x8
   83167:	47 2b 00                	b.bf       83174 <vHandleNwkCallback.15587+0x1c>
   8316a:	00 91                   	b.addi     r4,r4,-0x8
   8316c:	30 a5 10                	b.addi     r5,r5,0x8
   8316f:	3e 04 20                	b.extbz    r4,r4
   83172:	0d 80                   	b.j        83178 <vHandleNwkCallback.15587+0x20>
   83174:	00 a0                   	b.movi     r5,0x0
   83176:	00 80                   	b.movi     r4,0x0
   83178:	47 d1 38                	b.jalr     r7
   8317b:	0c 80                   	b.j        8317f <vHandleNwkCallback.15587+0x27>
   8317d:	00 68                   	b.movi     r3,0x1
   8317f:	47 b8 80                	b.reti     0x1,0x1

00083182 <vQueueApi.14398>:
   83182:	38 a0 28                	b.ori      r5,r0,0x14
   83185:	98 60 0c 70 00 20       	b.ori      r3,r0,0x4000e30
   8318b:	47 a8 80                	b.entri    0x1,0x1
   8318e:	d4 73 73 ef             	b.jal      5c <memcpy>
   83192:	47 b8 80                	b.reti     0x1,0x1

00083195 <vEstablishRoute_Backoff.13044>:
   83195:	8c e0 40 10 00 20       	b.lwz      r7,0x4000800(r0)
   8319b:	00 c8                   	b.movi     r6,0x1
   8319d:	c0 c7 94 80             	b.sb       0x129(r7),r6
   831a1:	47 d2 48                	b.jr       r9

000831a4 <vActiveScan_Backoff.13049>:
   831a4:	47 d2 48                	b.jr       r9

000831a7 <vNed_StateTimeoutHandler>:
   831a7:	8c e0 40 10 00 20       	b.lwz      r7,0x4000800(r0)
   831ad:	00 c8                   	b.movi     r6,0x1
   831af:	cc c7 32 80             	b.sw       0x14c(r7),r6
   831b3:	47 d2 48                	b.jr       r9

000831b6 <vNed_PollPeriodHandler>:
   831b6:	8c e0 40 10 00 20       	b.lwz      r7,0x4000800(r0)
   831bc:	00 c8                   	b.movi     r6,0x1
   831be:	c0 c7 54 80             	b.sb       0x12a(r7),r6
   831c2:	47 d2 48                	b.jr       r9

000831c5 <vNed_PollTimeoutHandler>:
   831c5:	8c e0 40 10 00 20       	b.lwz      r7,0x4000800(r0)
   831cb:	c4 c7 b8 80             	b.lbz      r6,0x11d(r7)
   831cf:	41 86 a4                	b.bnei     r6,0x1,831f4 <vNed_PollTimeoutHandler+0x2f>
   831d2:	c0 07 b8 80             	b.sb       0x11d(r7),r0
   831d6:	8c e0 7f e0 00 20       	b.lwz      r7,0x40007fc(r0)
   831dc:	c4 c7 26 80             	b.lbz      r6,0x164(r7)
   831e0:	3c 06 b0                	b.sfeqi    r6,0xd
   831e3:	47 29 00                	b.bf       831ec <vNed_PollTimeoutHandler+0x27>
   831e6:	3c 06 f0                	b.sfeqi    r6,0xf
   831e9:	47 3d 00                	b.bnf      831f4 <vNed_PollTimeoutHandler+0x2f>
   831ec:	2c c7 44                	b.lwz      r6,0x20(r7)
   831ef:	00 d8                   	b.addi     r6,r6,0x1
   831f1:	2c c7 04                	b.sw       0x20(r7),r6
   831f4:	47 d2 48                	b.jr       r9

000831f7 <vNed_ScanTimeoutHandler>:
   831f7:	8c e0 7f e0 00 20       	b.lwz      r7,0x40007fc(r0)
   831fd:	47 a8 80                	b.entri    0x1,0x1
   83200:	c4 c7 26 80             	b.lbz      r6,0x164(r7)
   83204:	00 d7                   	b.addi     r6,r6,-0x2
   83206:	3e 06 30                	b.extbz    r6,r6
   83209:	3c a6 30                	b.sfgtui   r6,0xc
   8320c:	47 28 e0                	b.bf       8327d <vNed_ScanTimeoutHandler+0x86>
   8320f:	6c c6 40                	b.slli     r6,r6,0x2
   83212:	90 c6 04 4c 10 00       	b.addi     r6,r6,0x83220
   83218:	2c c6 40                	b.lwz      r6,0x0(r6)
   8321b:	47 d2 30                	b.jr       r6
   8321e:	00 00                   	b.trap     0x0
   83220:	00 08                   	b.trap     0x1
   83222:	32 54 00                	b.addi     r18,r20,0x0
   83225:	08 32                   	b.add      r1,r1,r18
   83227:	7d                      	.word 0x7d
   83228:	00 08                   	b.trap     0x1
   8322a:	32 54 00                	b.addi     r18,r20,0x0
   8322d:	08 32                   	b.add      r1,r1,r18
   8322f:	7d                      	.word 0x7d
   83230:	00 08                   	b.trap     0x1
   83232:	32 7d 00                	b.addi     r19,r29,0x0
   83235:	08 32                   	b.add      r1,r1,r18
   83237:	5b 00 08                	bn.mld     r24,0x2(r0),0x0
   8323a:	32 5f 00                	b.addi     r18,r31,0x0
   8323d:	08 32                   	b.add      r1,r1,r18
   8323f:	7d                      	.word 0x7d
   83240:	00 08                   	b.trap     0x1
   83242:	32 7d 00                	b.addi     r19,r29,0x0
   83245:	08 32                   	b.add      r1,r1,r18
   83247:	7d                      	.word 0x7d
   83248:	00 08                   	b.trap     0x1
   8324a:	32 7d 00                	b.addi     r19,r29,0x0
   8324d:	08 32                   	b.add      r1,r1,r18
   8324f:	7d                      	.word 0x7d
   83250:	00 08                   	b.trap     0x1
   83252:	32 67 00                	b.addi     r19,r7,0x0
   83255:	c8 20 c7 18             	b.lhz      r1,0x18e2(r0)
   83259:	0c 90                   	b.j        8327d <vNed_ScanTimeoutHandler+0x86>
   8325b:	00 ca                   	b.movi     r6,0x5
   8325d:	0c 80                   	b.j        83261 <vNed_ScanTimeoutHandler+0x6a>
   8325f:	00 c6                   	b.movi     r6,0x6
   83261:	c0 c7 26 80             	b.sb       0x164(r7),r6
   83265:	0c 60                   	b.j        8327d <vNed_ScanTimeoutHandler+0x86>
   83267:	cc c7 79 80             	b.lwz      r6,0x19c(r7)
   8326b:	40 06 48                	b.beqi     r6,0x0,8327d <vNed_ScanTimeoutHandler+0x86>
   8326e:	c4 a7 45 80             	b.lbz      r5,0x1a2(r7)
   83272:	cc 07 39 80             	b.sw       0x19c(r7),r0
   83276:	c0 a7 26 80             	b.sb       0x164(r7),r5
   8327a:	47 d1 30                	b.jalr     r6
   8327d:	47 b8 80                	b.reti     0x1,0x1

00083280 <bOND_SafeToSleep.14386>:
   83280:	47 a8 80                	b.entri    0x1,0x1
   83283:	4b 3a 1c                	b.jal      913f6 <bJnc_IsStackRunning>
   83286:	40 03 e8                	b.beqi     r3,0x0,8329d <bOND_SafeToSleep.14386+0x1d>
   83289:	84 e0 06 70 00 20       	b.lbz      r7,0x4000e60(r0)
   8328f:	40 07 70                	b.beqi     r7,0x0,8329d <bOND_SafeToSleep.14386+0x1d>
   83292:	84 e0 d8 70 00 20       	b.lbz      r7,0x4000e1b(r0)
   83298:	00 60                   	b.movi     r3,0x0
   8329a:	41 87 30                	b.bnei     r7,0x1,832a6 <bOND_SafeToSleep.14386+0x26>
   8329d:	8c 60 6a 70 00 20       	b.lwz      r3,0x4000e54(r0)
   832a3:	47 d1 18                	b.jalr     r3
   832a6:	47 b8 80                	b.reti     0x1,0x1

000832a9 <vScanOrAssociate_Backoff>:
   832a9:	47 a8 80                	b.entri    0x1,0x1
   832ac:	48 59 1c                	b.jal      91514 <vJnc_ClearScanListVect>
   832af:	8c e0 7f e0 00 20       	b.lwz      r7,0x40007fc(r0)
   832b5:	00 cc                   	b.movi     r6,0x3
   832b7:	c0 c7 26 80             	b.sb       0x164(r7),r6
   832bb:	47 b8 80                	b.reti     0x1,0x1

000832be <u8GroupAddUnique.18219>:
   832be:	47 a6 00                	b.entri    0x6,0x0
   832c1:	05 a3                   	b.mov      r13,r3
   832c3:	05 c4                   	b.mov      r14,r4
   832c5:	05 45                   	b.mov      r10,r5
   832c7:	05 84                   	b.mov      r12,r4
   832c9:	01 60                   	b.movi     r11,0x0
   832cb:	0f a0                   	b.j        832e2 <u8GroupAddUnique.18219+0x24>
   832cd:	38 a0 08                	b.ori      r5,r0,0x10
   832d0:	04 8c                   	b.mov      r4,r12
   832d2:	04 6d                   	b.mov      r3,r13
   832d4:	31 8c 08                	b.addi     r12,r12,0x10
   832d7:	49 5d 12                	b.jal      955c1 <memcmp>
   832da:	40 03 f8                	b.beqi     r3,0x0,832f9 <u8GroupAddUnique.18219+0x3b>
   832dd:	01 78                   	b.addi     r11,r11,0x1
   832df:	3e 0b 58                	b.extbz    r11,r11
   832e2:	d2 d6 ad 7f             	b.bne      r11,r10,832cd <u8GroupAddUnique.18219+0xf>
   832e6:	6c 6a 20                	b.slli     r3,r10,0x4
   832e9:	08 6e                   	b.add      r3,r3,r14
   832eb:	38 a0 08                	b.ori      r5,r0,0x10
   832ee:	01 58                   	b.addi     r10,r10,0x1
   832f0:	04 8d                   	b.mov      r4,r13
   832f2:	3e 0a 50                	b.extbz    r10,r10
   832f5:	d4 e6 b3 ef             	b.jal      5c <memcpy>
   832f9:	04 6a                   	b.mov      r3,r10
   832fb:	47 b6 00                	b.reti     0x6,0x0

000832fe <u8CompressAddrs.18204>:
   832fe:	47 ae e0                	b.entri    0x7,0x7
   83301:	05 63                   	b.mov      r11,r3
   83303:	2c 81 08                	b.sw       0x10(r1),r4
   83306:	01 c0                   	b.movi     r14,0x0
   83308:	2c a1 28                	b.sw       0x14(r1),r5
   8330b:	01 40                   	b.movi     r10,0x0
   8330d:	01 88                   	b.movi     r12,0x1
   8330f:	0f 94                   	b.j        833b6 <u8CompressAddrs.18204+0xb8>
   83311:	60 cb 3c                	b.add      r6,r11,r7
   83314:	30 67 80                	b.addi     r3,r7,0x1
   83317:	08 6b                   	b.add      r3,r3,r11
   83319:	38 a0 b0                	b.ori      r5,r0,0xd
   8331c:	25 a6 00                	b.lbz      r13,0x0(r6)
   8331f:	2c 81 50                	b.lwz      r4,0x8(r1)
   83322:	6d ad 80                	b.slli     r13,r13,0x1
   83325:	31 ad 70                	b.addi     r13,r13,0xe
   83328:	09 a7                   	b.add      r13,r13,r7
   8332a:	3e 0d 68                	b.extbz    r13,r13
   8332d:	54 c1 00                	b.msw      0x0(r1),r6,0x0
   83330:	4a 25 12                	b.jal      955c1 <memcmp>
   83333:	50 c1 00                	b.mlwz     r6,0x0(r1),0x0
   83336:	41 03 5c                	b.bnei     r3,0x0,83370 <u8CompressAddrs.18204+0x72>
   83339:	d3 9a aa 80             	b.bgeu     r13,r10,8334e <u8CompressAddrs.18204+0x50>
   8333d:	30 6d 40                	b.addi     r3,r13,0x2
   83340:	08 6b                   	b.add      r3,r3,r11
   83342:	60 8b 6c                	b.add      r4,r11,r13
   83345:	60 aa 6d                	b.sub      r5,r10,r13
   83348:	4b b5 12                	b.jal      955ff <memmove>
   8334b:	50 c1 00                	b.mlwz     r6,0x0(r1),0x0
   8334e:	24 af 00                	b.lbz      r5,0x0(r15)
   83351:	09 ab                   	b.add      r13,r13,r11
   83353:	01 54                   	b.addi     r10,r10,0x2
   83355:	3e 0a 50                	b.extbz    r10,r10
   83358:	20 ad 00                	b.sb       0x0(r13),r5
   8335b:	24 af 80                	b.lbz      r5,0x1(r15)
   8335e:	20 ad 80                	b.sb       0x1(r13),r5
   83361:	24 a6 00                	b.lbz      r5,0x0(r6)
   83364:	00 b8                   	b.addi     r5,r5,0x1
   83366:	20 a6 00                	b.sb       0x0(r6),r5
   83369:	00 c8                   	b.movi     r6,0x1
   8336b:	2c c1 30                	b.sw       0xc(r1),r6
   8336e:	0c 80                   	b.j        83372 <u8CompressAddrs.18204+0x74>
   83370:	04 ed                   	b.mov      r7,r13
   83372:	2c a1 70                	b.lwz      r5,0xc(r1)
   83375:	3d ea 38                	b.sfgtu    r10,r7
   83378:	60 cc 2a                	b.xor      r6,r12,r5
   8337b:	64 8c 02                	b.cmov     r4,r12,r0
   8337e:	3e 06 28                	b.extbz    r5,r6
   83381:	60 c4 30                	b.and      r6,r4,r6
   83384:	3e 06 30                	b.extbz    r6,r6
   83387:	41 06 51                	b.bnei     r6,0x0,83311 <u8CompressAddrs.18204+0x13>
   8338a:	3d 2a 22                	b.sfltui   r10,0x44
   8338d:	64 ec 02                	b.cmov     r7,r12,r0
   83390:	60 e5 38                	b.and      r7,r5,r7
   83393:	40 07 78                	b.beqi     r7,0x0,833b1 <u8CompressAddrs.18204+0xb3>
   83396:	60 eb 54                	b.add      r7,r11,r10
   83399:	30 6a 80                	b.addi     r3,r10,0x1
   8339c:	08 6b                   	b.add      r3,r3,r11
   8339e:	38 a0 f0                	b.ori      r5,r0,0xf
   833a1:	31 4a 08                	b.addi     r10,r10,0x10
   833a4:	3e 0a 50                	b.extbz    r10,r10
   833a7:	2c 81 50                	b.lwz      r4,0x8(r1)
   833aa:	21 87 00                	b.sb       0x0(r7),r12
   833ad:	d4 f5 33 ef             	b.jal      5c <memcpy>
   833b1:	01 d8                   	b.addi     r14,r14,0x1
   833b3:	3e 0e 70                	b.extbz    r14,r14
   833b6:	2c e1 68                	b.lwz      r7,0x14(r1)
   833b9:	3d 2a 4a                	b.sfltui   r10,0x52
   833bc:	64 cc 02                	b.cmov     r6,r12,r0
   833bf:	3d e7 70                	b.sfgtu    r7,r14
   833c2:	64 ec 02                	b.cmov     r7,r12,r0
   833c5:	60 e6 38                	b.and      r7,r6,r7
   833c8:	3e 07 38                	b.extbz    r7,r7
   833cb:	40 07 d8                	b.beqi     r7,0x0,833e6 <u8CompressAddrs.18204+0xe8>
   833ce:	2c c1 48                	b.lwz      r6,0x10(r1)
   833d1:	6d 0e 20                	b.slli     r8,r14,0x4
   833d4:	09 06                   	b.add      r8,r8,r6
   833d6:	30 e8 80                	b.addi     r7,r8,0x1
   833d9:	31 e8 70                	b.addi     r15,r8,0xe
   833dc:	2c e1 10                	b.sw       0x8(r1),r7
   833df:	00 e0                   	b.movi     r7,0x0
   833e1:	2c 01 30                	b.sw       0xc(r1),r0
   833e4:	0d c7                   	b.j        83372 <u8CompressAddrs.18204+0x74>
   833e6:	04 6a                   	b.mov      r3,r10
   833e8:	47 be e0                	b.reti     0x7,0x7

000833eb <u8GetChangedButUnnotifiedGroups.17271>:
   833eb:	47 ae 80                	b.entri    0x7,0x1
   833ee:	2d 64 40                	b.lwz      r11,0x0(r4)
   833f1:	05 a4                   	b.mov      r13,r4
   833f3:	61 6b 5b                	b.nand     r11,r11,r11
   833f6:	05 e5                   	b.mov      r15,r5
   833f8:	61 6b 18                	b.and      r11,r11,r3
   833fb:	01 40                   	b.movi     r10,0x0
   833fd:	01 80                   	b.movi     r12,0x0
   833ff:	01 c8                   	b.movi     r14,0x1
   83401:	0c b0                   	b.j        83435 <u8GetChangedButUnnotifiedGroups.17271+0x4a>
   83403:	00 e8                   	b.movi     r7,0x1
   83405:	60 e7 66                	b.sll      r7,r7,r12
   83408:	60 c7 58                	b.and      r6,r7,r11
   8340b:	40 06 14                	b.beqi     r6,0x0,83433 <u8GetChangedButUnnotifiedGroups.17271+0x48>
   8340e:	2c cd 40                	b.lwz      r6,0x0(r13)
   83411:	8c 80 6b 90 00 20       	b.lwz      r4,0x40009d4(r0)
   83417:	61 6b 3a                	b.xor      r11,r11,r7
   8341a:	60 e6 39                	b.or       r7,r6,r7
   8341d:	6c 6a 20                	b.slli     r3,r10,0x4
   83420:	08 6f                   	b.add      r3,r3,r15
   83422:	38 a0 08                	b.ori      r5,r0,0x10
   83425:	01 58                   	b.addi     r10,r10,0x1
   83427:	2c ed 00                	b.sw       0x0(r13),r7
   8342a:	6c ec 20                	b.slli     r7,r12,0x4
   8342d:	08 87                   	b.add      r4,r4,r7
   8342f:	d4 b4 33 ef             	b.jal      5c <memcpy>
   83433:	01 98                   	b.addi     r12,r12,0x1
   83435:	3e 0b 3c                	b.ff1      r7,r11
   83438:	60 e0 3d                	b.sub      r7,r0,r7
   8343b:	3c ea c0                	b.sfleui   r10,0x3
   8343e:	6c e7 f9                	b.srli     r7,r7,0x1f
   83441:	64 ce 02                	b.cmov     r6,r14,r0
   83444:	60 e7 30                	b.and      r7,r7,r6
   83447:	41 07 3d                	b.bnei     r7,0x0,83403 <u8GetChangedButUnnotifiedGroups.17271+0x18>
   8344a:	3e 0a 18                	b.extbz    r3,r10
   8344d:	47 be 80                	b.reti     0x7,0x1

00083450 <b6LP_HandleRxEvent>:
   83450:	8c e0 55 70 00 20       	b.lwz      r7,0x4000ea8(r0)
   83456:	47 a8 80                	b.entri    0x1,0x1
   83459:	2c e7 6c                	b.lwz      r7,0x34(r7)
   8345c:	47 d1 38                	b.jalr     r7
   8345f:	00 e8                   	b.movi     r7,0x1
   83461:	60 63 3a                	b.xor      r3,r3,r7
   83464:	3e 03 1c                	b.ff1      r3,r3
   83467:	00 7f                   	b.addi     r3,r3,-0x1
   83469:	6c 63 f9                	b.srli     r3,r3,0x1f
   8346c:	47 b8 80                	b.reti     0x1,0x1

0008346f <u16IPv6_Truncate32bitChecksumTo16bit>:
   8346f:	0d 40                   	b.j        83479 <u16IPv6_Truncate32bitChecksumTo16bit+0xa>
   83471:	94 63 ff ff 00 00       	b.andi     r3,r3,0xffff
   83477:	08 67                   	b.add      r3,r3,r7
   83479:	6c e3 09                	b.srli     r7,r3,0x10
   8347c:	41 07 af                	b.bnei     r7,0x0,83471 <u16IPv6_Truncate32bitChecksumTo16bit+0x2>
   8347f:	98 e0 ff ff 00 00       	b.ori      r7,r0,0xffff
   83485:	60 63 1b                	b.nand     r3,r3,r3
   83488:	3e 03 1a                	b.exthz    r3,r3
   8348b:	3c 23 00                	b.sfnei    r3,0x0
   8348e:	64 63 3a                	b.cmov     r3,r3,r7
   83491:	47 d2 48                	b.jr       r9

00083494 <u32IPv6_CalculatePayloadDataChecksum>:
   83494:	6d 04 81                	b.srli     r8,r4,0x1
   83497:	47 ac 80                	b.entri    0x3,0x1
   8349a:	34 84 80                	b.andi     r4,r4,0x1
   8349d:	30 c3 80                	b.addi     r6,r3,0x1
   834a0:	00 a0                   	b.movi     r5,0x0
   834a2:	00 e0                   	b.movi     r7,0x0
   834a4:	0d a0                   	b.j        834ba <u32IPv6_CalculatePayloadDataChecksum+0x26>
   834a6:	c5 46 bf ff             	b.lbz      r10,-0x3(r6)
   834aa:	c5 66 7f ff             	b.lbz      r11,-0x2(r6)
   834ae:	6d 4a 10                	b.slli     r10,r10,0x8
   834b1:	09 4b                   	b.add      r10,r10,r11
   834b3:	3e 0a 52                	b.exthz    r10,r10
   834b6:	00 b8                   	b.addi     r5,r5,0x1
   834b8:	08 ea                   	b.add      r7,r7,r10
   834ba:	00 d4                   	b.addi     r6,r6,0x2
   834bc:	d3 50 55 7f             	b.bgts     r8,r5,834a6 <u32IPv6_CalculatePayloadDataChecksum+0x12>
   834c0:	40 04 08                	b.beqi     r4,0x0,834d0 <u32IPv6_CalculatePayloadDataChecksum+0x3c>
   834c3:	6d 08 80                	b.slli     r8,r8,0x1
   834c6:	08 68                   	b.add      r3,r3,r8
   834c8:	24 c3 00                	b.lbz      r6,0x0(r3)
   834cb:	6c c6 10                	b.slli     r6,r6,0x8
   834ce:	08 e6                   	b.add      r7,r7,r6
   834d0:	04 67                   	b.mov      r3,r7
   834d2:	47 bc 80                	b.reti     0x3,0x1

000834d5 <u16_6LP_DefGetSizeOfIPv6Record>:
   834d5:	8c e0 55 70 00 20       	b.lwz      r7,0x4000ea8(r0)
   834db:	28 67 b9                	b.lhz      r3,0x9c(r7)
   834de:	d8 63 db 00             	b.addi     r3,r3,0xdb
   834e2:	94 63 3f ff 00 00       	b.andi     r3,r3,0xfffc
   834e8:	47 d2 48                	b.jr       r9

000834eb <i6LP_DefCreateInterfaceIdFrom64>:
   834eb:	3e 04 34                	b.ff1      r6,r4
   834ee:	3e 03 3c                	b.ff1      r7,r3
   834f1:	00 df                   	b.addi     r6,r6,-0x1
   834f3:	00 ff                   	b.addi     r7,r7,-0x1
   834f5:	47 a4 00                	b.entri    0x2,0x0
   834f8:	60 e6 39                	b.or       r7,r6,r7
   834fb:	05 43                   	b.mov      r10,r3
   834fd:	45 07 b8                	b.bltsi    r7,0x0,8351a <i6LP_DefCreateInterfaceIdFrom64+0x2f>
   83500:	38 a0 10                	b.ori      r5,r0,0x8
   83503:	d4 9a d3 ef             	b.jal      5c <memcpy>
   83507:	2c ca 60                	b.lwz      r6,0x4(r10)
   8350a:	98 e0 00 00 00 40       	b.ori      r7,r0,0x2000000
   83510:	60 e6 3a                	b.xor      r7,r6,r7
   83513:	00 60                   	b.movi     r3,0x0
   83515:	2c ea 20                	b.sw       0x4(r10),r7
   83518:	0c 80                   	b.j        8351c <i6LP_DefCreateInterfaceIdFrom64+0x31>
   8351a:	00 6f                   	b.movi     r3,-0x1
   8351c:	47 b4 00                	b.reti     0x2,0x0

0008351f <eEUI_CompareWithPrefix>:
   8351f:	2c e3 40                	b.lwz      r7,0x0(r3)
   83522:	9d c7 00 00 01 7f       	b.sfnei    r7,-0x1800000
   83528:	47 29 00                	b.bf       83531 <eEUI_CompareWithPrefix+0x12>
   8352b:	2c c3 60                	b.lwz      r6,0x4(r3)
   8352e:	40 06 d4                	b.beqi     r6,0x0,83559 <eEUI_CompareWithPrefix+0x3a>
   83531:	8c c0 55 70 00 20       	b.lwz      r6,0x4000ea8(r0)
   83537:	2c a6 41                	b.lwz      r5,0x80(r6)
   8353a:	d2 ce 57 00             	b.bne      r7,r5,83548 <eEUI_CompareWithPrefix+0x29>
   8353e:	2c a3 60                	b.lwz      r5,0x4(r3)
   83541:	2c c6 7e                	b.lwz      r6,0x7c(r6)
   83544:	d2 8a 69 80             	b.beq      r5,r6,8355d <eEUI_CompareWithPrefix+0x3e>
   83548:	6c c7 19                	b.srli     r6,r7,0x18
   8354b:	9d c6 ff 00 00 00       	b.sfnei    r6,0xff
   83551:	00 ec                   	b.movi     r7,0x3
   83553:	47 23 00                	b.bf       8355f <eEUI_CompareWithPrefix+0x40>
   83556:	46 30 df                	b.j        83062 <eEUI_CompareMulticast.1555>
   83559:	00 e8                   	b.movi     r7,0x1
   8355b:	0c 80                   	b.j        8355f <eEUI_CompareWithPrefix+0x40>
   8355d:	00 e4                   	b.movi     r7,0x2
   8355f:	04 67                   	b.mov      r3,r7
   83561:	47 d2 48                	b.jr       r9

00083564 <eEUI_CompareWithDeviceAddress>:
   83564:	8c e0 55 70 00 20       	b.lwz      r7,0x4000ea8(r0)
   8356a:	47 a4 00                	b.entri    0x2,0x0
   8356d:	24 a7 12                	b.lbz      r5,0x48(r7)
   83570:	2c c3 40                	b.lwz      r6,0x0(r3)
   83573:	41 85 e4                	b.bnei     r5,0x1,8359a <eEUI_CompareWithDeviceAddress+0x36>
   83576:	00 a0                   	b.movi     r5,0x0
   83578:	41 06 38                	b.bnei     r6,0x0,83594 <eEUI_CompareWithDeviceAddress+0x30>
   8357b:	2c 83 60                	b.lwz      r4,0x4(r3)
   8357e:	04 a6                   	b.mov      r5,r6
   83580:	41 04 28                	b.bnei     r4,0x0,83594 <eEUI_CompareWithDeviceAddress+0x30>
   83583:	2c 83 50                	b.lwz      r4,0x8(r3)
   83586:	41 04 70                	b.bnei     r4,0x0,83594 <eEUI_CompareWithDeviceAddress+0x30>
   83589:	2c a3 70                	b.lwz      r5,0xc(r3)
   8358c:	3e 05 2c                	b.ff1      r5,r5
   8358f:	00 bf                   	b.addi     r5,r5,-0x1
   83591:	6c a5 f9                	b.srli     r5,r5,0x1f
   83594:	3e 05 28                	b.extbz    r5,r5
   83597:	41 05 72                	b.bnei     r5,0x0,835e5 <eEUI_CompareWithDeviceAddress+0x81>
   8359a:	6c c6 19                	b.srli     r6,r6,0x18
   8359d:	9d c6 ff 00 00 00       	b.sfnei    r6,0xff
   835a3:	47 29 00                	b.bf       835ac <eEUI_CompareWithDeviceAddress+0x48>
   835a6:	47 c4 00                	b.rtnei    0x2,0x0
   835a9:	46 9d 5f                	b.j        83062 <eEUI_CompareMulticast.1555>
   835ac:	2c a3 50                	b.lwz      r5,0x8(r3)
   835af:	2c c7 51                	b.lwz      r6,0x88(r7)
   835b2:	01 40                   	b.movi     r10,0x0
   835b4:	d2 ca 6a 80             	b.bne      r5,r6,835c9 <eEUI_CompareWithDeviceAddress+0x65>
   835b8:	2d 43 70                	b.lwz      r10,0xc(r3)
   835bb:	2c e7 61                	b.lwz      r7,0x84(r7)
   835be:	61 4a 3a                	b.xor      r10,r10,r7
   835c1:	3e 0a 54                	b.ff1      r10,r10
   835c4:	01 5f                   	b.addi     r10,r10,-0x1
   835c6:	6d 4a f9                	b.srli     r10,r10,0x1f
   835c9:	49 ab ff                	b.jal      8351f <eEUI_CompareWithPrefix>
   835cc:	00 ec                   	b.movi     r7,0x3
   835ce:	60 e3 3a                	b.xor      r7,r3,r7
   835d1:	3e 07 38                	b.extbz    r7,r7
   835d4:	60 e0 3d                	b.sub      r7,r0,r7
   835d7:	6c e7 f9                	b.srli     r7,r7,0x1f
   835da:	61 4a 38                	b.and      r10,r10,r7
   835dd:	3c 0a 00                	b.sfeqi    r10,0x0
   835e0:	64 63 02                	b.cmov     r3,r3,r0
   835e3:	0c 80                   	b.j        835e7 <eEUI_CompareWithDeviceAddress+0x83>
   835e5:	00 60                   	b.movi     r3,0x0
   835e7:	47 b4 00                	b.reti     0x2,0x0

000835ea <vReturnBuffer.15154>:
   835ea:	a8 c0 88 00 00 00       	b.mfspr    r6,r0,0x11
   835f0:	04 02                   	b.di       
   835f2:	2c a4 40                	b.lwz      r5,0x0(r4)
   835f5:	04 e5                   	b.mov      r7,r5
   835f7:	0f 40                   	b.j        83602 <vReturnBuffer.15154+0x18>
   835f9:	d2 c6 76 00             	b.bne      r3,r7,835ff <vReturnBuffer.15154+0x15>
   835fd:	0d c0                   	b.j        8360b <vReturnBuffer.15154+0x21>
   835ff:	2c e7 40                	b.lwz      r7,0x0(r7)
   83602:	41 07 ef                	b.bnei     r7,0x0,835f9 <vReturnBuffer.15154+0xf>
   83605:	2c a3 00                	b.sw       0x0(r3),r5
   83608:	2c 64 00                	b.sw       0x0(r4),r3
   8360b:	a8 c0 88 00 00 01       	b.mtspr    r0,r6,0x11
   83611:	47 d2 48                	b.jr       r9

00083614 <vMiniMac_ReturnTxBufferCallback>:
   83614:	98 80 1b 10 00 20       	b.ori      r4,r0,0x40008d8
   8361a:	0c 2f                   	b.j        835ea <vReturnBuffer.15154>

0008361c <eOND_DevGetImage>:
   8361c:	84 c0 16 70 00 20       	b.lbz      r6,0x4000e68(r0)
   83622:	47 a8 80                	b.entri    0x1,0x1
   83625:	04 e3                   	b.mov      r7,r3
   83627:	00 64                   	b.movi     r3,0x2
   83629:	d3 ce 60 10             	b.bgtu     r7,r6,836a9 <eOND_DevGetImage+0x8d>
   8362d:	d2 ce 63 c0             	b.bne      r7,r6,83669 <eOND_DevGetImage+0x4d>
   83631:	00 e8                   	b.movi     r7,0x1
   83633:	20 e4 28                	b.sb       0x14(r4),r7
   83636:	38 a0 10                	b.ori      r5,r0,0x8
   83639:	04 64                   	b.mov      r3,r4
   8363b:	8c e0 73 b0 00 20       	b.lwz      r7,0x4000dcc(r0)
   83641:	28 04 08                	b.sh       0x10(r4),r0
   83644:	2c e4 10                	b.sw       0x8(r4),r7
   83647:	88 e0 8b b0 00 20       	b.lhz      r7,0x4000dd0(r0)
   8364d:	28 e4 30                	b.sh       0xc(r4),r7
   83650:	88 e0 cb b0 00 20       	b.lhz      r7,0x4000dd2(r0)
   83656:	28 e4 70                	b.sh       0xe(r4),r7
   83659:	88 e0 9b b0 00 20       	b.lhz      r7,0x4000dd8(r0)
   8365f:	28 e4 48                	b.sh       0x12(r4),r7
   83662:	00 80                   	b.movi     r4,0x0
   83664:	4b ef e2                	b.jal      95643 <memset>
   83667:	0c 08                   	b.j        836a7 <eOND_DevGetImage+0x8b>
   83669:	38 60 24                	b.ori      r3,r0,0x24
   8366c:	64 e7 1b                	b.mul      r7,r7,r3
   8366f:	8c 60 76 70 00 20       	b.lwz      r3,0x4000e6c(r0)
   83675:	08 67                   	b.add      r3,r3,r7
   83677:	24 e3 f8                	b.lbz      r7,0x1f(r3)
   8367a:	20 e4 28                	b.sb       0x14(r4),r7
   8367d:	2c e3 40                	b.lwz      r7,0x0(r3)
   83680:	2c e4 10                	b.sw       0x8(r4),r7
   83683:	28 e3 a0                	b.lhz      r7,0x4(r3)
   83686:	28 e4 30                	b.sh       0xc(r4),r7
   83689:	28 e3 e0                	b.lhz      r7,0x6(r3)
   8368c:	28 e4 70                	b.sh       0xe(r4),r7
   8368f:	28 e3 b8                	b.lhz      r7,0x1c(r3)
   83692:	28 e4 08                	b.sh       0x10(r4),r7
   83695:	28 e3 a8                	b.lhz      r7,0x14(r3)
   83698:	28 e4 48                	b.sh       0x12(r4),r7
   8369b:	2c e3 70                	b.lwz      r7,0xc(r3)
   8369e:	2c e4 00                	b.sw       0x0(r4),r7
   836a1:	2c e3 48                	b.lwz      r7,0x10(r3)
   836a4:	2c e4 20                	b.sw       0x4(r4),r7
   836a7:	00 60                   	b.movi     r3,0x0
   836a9:	47 b8 80                	b.reti     0x1,0x1

000836ac <vUpdateImageValues.9913.1662>:
   836ac:	84 e0 93 10 00 20       	b.lbz      r7,0x40008c9(r0)
   836b2:	47 ac e0                	b.entri    0x3,0x7
   836b5:	9d 87 ff 00 00 00       	b.sfeqi    r7,0xff
   836bb:	47 38 20                	b.bnf      836fc <vUpdateImageValues.9913.1662+0x50>
   836be:	0f d0                   	b.j        836ed <vUpdateImageValues.9913.1662+0x41>
   836c0:	24 e1 28                	b.lbz      r7,0x14(r1)
   836c3:	41 87 64                	b.bnei     r7,0x1,836e9 <vUpdateImageValues.9913.1662+0x3d>
   836c6:	2c e1 50                	b.lwz      r7,0x8(r1)
   836c9:	81 60 93 10 00 20       	b.sb       0x40008c9(r0),r11
   836cf:	8c e0 03 10 00 20       	b.sw       0x40008c0(r0),r7
   836d5:	28 e1 b0                	b.lhz      r7,0xc(r1)
   836d8:	88 e0 63 10 00 20       	b.sh       0x40008c6(r0),r7
   836de:	28 e1 f0                	b.lhz      r7,0xe(r1)
   836e1:	88 e0 23 10 00 20       	b.sh       0x40008c4(r0),r7
   836e7:	0e a0                   	b.j        836fc <vUpdateImageValues.9913.1662+0x50>
   836e9:	01 58                   	b.addi     r10,r10,0x1
   836eb:	0c 80                   	b.j        836ef <vUpdateImageValues.9913.1662+0x43>
   836ed:	01 40                   	b.movi     r10,0x0
   836ef:	3e 0a 58                	b.extbz    r11,r10
   836f2:	04 81                   	b.mov      r4,r1
   836f4:	04 6b                   	b.mov      r3,r11
   836f6:	49 93 ff                	b.jal      8361c <eOND_DevGetImage>
   836f9:	41 43 e3                	b.bnei     r3,0x2,836c0 <vUpdateImageValues.9913.1662+0x14>
   836fc:	47 bc e0                	b.reti     0x3,0x7

000836ff <vGetImage32.9923>:
   836ff:	47 a8 c0                	b.entri    0x1,0x3
   83702:	2c 61 20                	b.sw       0x4(r1),r3
   83705:	2c 81 00                	b.sw       0x0(r1),r4
   83708:	48 97 ff                	b.jal      836ac <vUpdateImageValues.9913.1662>
   8370b:	2c 61 60                	b.lwz      r3,0x4(r1)
   8370e:	2c 81 40                	b.lwz      r4,0x0(r1)
   83711:	00 a2                   	b.movi     r5,0x4
   83713:	00 c0                   	b.movi     r6,0x0
   83715:	47 c8 c0                	b.rtnei    0x1,0x3
   83718:	d5 40 87 00             	b.j        9181a <eJIP_PacketAddData>

0008371c <vGetImage16.9919>:
   8371c:	47 a8 c0                	b.entri    0x1,0x3
   8371f:	2c 61 20                	b.sw       0x4(r1),r3
   83722:	2c 81 00                	b.sw       0x0(r1),r4
   83725:	4b 87 ff                	b.jal      836ac <vUpdateImageValues.9913.1662>
   83728:	2c 61 60                	b.lwz      r3,0x4(r1)
   8372b:	2c 81 40                	b.lwz      r4,0x0(r1)
   8372e:	00 a4                   	b.movi     r5,0x2
   83730:	00 c0                   	b.movi     r6,0x0
   83732:	47 c8 c0                	b.rtnei    0x1,0x3
   83735:	d5 a7 07 00             	b.j        9181a <eJIP_PacketAddData>

00083739 <vGetImage8.9915>:
   83739:	47 a8 c0                	b.entri    0x1,0x3
   8373c:	2c 61 20                	b.sw       0x4(r1),r3
   8373f:	2c 81 00                	b.sw       0x0(r1),r4
   83742:	49 5b ff                	b.jal      836ac <vUpdateImageValues.9913.1662>
   83745:	2c 61 60                	b.lwz      r3,0x4(r1)
   83748:	2c 81 40                	b.lwz      r4,0x0(r1)
   8374b:	00 a8                   	b.movi     r5,0x1
   8374d:	00 c0                   	b.movi     r6,0x0
   8374f:	47 c8 c0                	b.rtnei    0x1,0x3
   83752:	d5 13 07 00             	b.j        9181a <eJIP_PacketAddData>

00083756 <vFillBlockBitmap.14412>:
   83756:	47 a2 00                	b.entri    0x4,0x0
   83759:	d9 80 00 08             	b.addi     r12,r0,0x1000
   8375d:	9f 44 00 08 00 00       	b.sfleui   r4,0x1000
   83763:	65 84 62                	b.cmov     r12,r4,r12
   83766:	3e 0c 52                	b.exthz    r10,r12
   83769:	6d 4a c1                	b.srli     r10,r10,0x3
   8376c:	05 63                   	b.mov      r11,r3
   8376e:	00 80                   	b.movi     r4,0x0
   83770:	04 aa                   	b.mov      r5,r10
   83772:	4a 2d e2                	b.jal      95643 <memset>
   83775:	d8 a0 00 40             	b.addi     r5,r0,0x200
   83779:	09 6a                   	b.add      r11,r11,r10
   8377b:	38 80 ff                	b.ori      r4,r0,0xff
   8377e:	60 a5 55                	b.sub      r5,r5,r10
   83781:	04 6b                   	b.mov      r3,r11
   83783:	48 0d e2                	b.jal      95643 <memset>
   83786:	35 8c e0                	b.andi     r12,r12,0x7
   83789:	38 e0 ff                	b.ori      r7,r0,0xff
   8378c:	61 87 66                	b.sll      r12,r7,r12
   8378f:	21 8b 00                	b.sb       0x0(r11),r12
   83792:	47 b2 00                	b.reti     0x4,0x0

00083795 <vOND_GenerateEvent>:
   83795:	84 e0 d8 70 00 20       	b.lbz      r7,0x4000e1b(r0)
   8379b:	47 a8 80                	b.entri    0x1,0x1
   8379e:	d2 28 7f 00             	b.bleui    r7,0x5,837ad <vOND_GenerateEvent+0x18>
   837a2:	90 e3 94 a0 10 00       	b.addi     r7,r3,0x80529
   837a8:	24 e7 14                	b.lbz      r7,0x28(r7)
   837ab:	0c 20                   	b.j        837bb <vOND_GenerateEvent+0x26>
   837ad:	6c e7 c0                	b.slli     r7,r7,0x3
   837b0:	08 e3                   	b.add      r7,r7,r3
   837b2:	90 e7 94 a0 10 00       	b.addi     r7,r7,0x80529
   837b8:	24 e7 00                	b.lbz      r7,0x0(r7)
   837bb:	9d 87 ff 00 00 00       	b.sfeqi    r7,0xff
   837c1:	47 24 80                	b.bf       837d3 <vOND_GenerateEvent+0x3e>
   837c4:	6c e7 40                	b.slli     r7,r7,0x2
   837c7:	90 e7 0a 60 10 00       	b.addi     r7,r7,0x80650
   837cd:	2c e7 40                	b.lwz      r7,0x0(r7)
   837d0:	47 d1 38                	b.jalr     r7
   837d3:	47 b8 80                	b.reti     0x1,0x1

000837d6 <eStartDownload.9902>:
   837d6:	47 a4 60                	b.entri    0x2,0x6
   837d9:	8c 80 43 10 00 20       	b.lwz      r4,0x40008c0(r0)
   837df:	88 60 e3 10 00 20       	b.lhz      r3,0x40008c6(r0)
   837e5:	89 00 a3 10 00 20       	b.lhz      r8,0x40008c4(r0)
   837eb:	84 a0 16 70 00 20       	b.lbz      r5,0x4000e68(r0)
   837f1:	8c c0 76 70 00 20       	b.lwz      r6,0x4000e6c(r0)
   837f7:	00 e0                   	b.movi     r7,0x0
   837f9:	0e 30                   	b.j        8382a <eStartDownload.9902+0x54>
   837fb:	30 c6 24                	b.addi     r6,r6,0x24
   837fe:	c5 46 df ff             	b.lbz      r10,-0x5(r6)
   83802:	41 0a 64                	b.bnei     r10,0x0,83828 <eStartDownload.9902+0x52>
   83805:	00 e4                   	b.movi     r7,0x2
   83807:	2c 81 10                	b.sw       0x8(r1),r4
   8380a:	38 a0 28                	b.ori      r5,r0,0x14
   8380d:	30 81 20                	b.addi     r4,r1,0x4
   83810:	28 61 30                	b.sh       0xc(r1),r3
   83813:	00 6e                   	b.movi     r3,0x7
   83815:	20 e1 20                	b.sb       0x4(r1),r7
   83818:	29 01 70                	b.sh       0xe(r1),r8
   8381b:	2c 01 08                	b.sw       0x10(r1),r0
   8381e:	2c 01 28                	b.sw       0x14(r1),r0
   83821:	48 bb ff                	b.jal      83795 <vOND_GenerateEvent>
   83824:	00 60                   	b.movi     r3,0x0
   83826:	0f 40                   	b.j        83831 <eStartDownload.9902+0x5b>
   83828:	00 f8                   	b.addi     r7,r7,0x1
   8382a:	d3 4a 78 bf             	b.bgts     r5,r7,837fb <eStartDownload.9902+0x25>
   8382e:	38 60 ff                	b.ori      r3,r0,0xff
   83831:	47 b4 60                	b.reti     0x2,0x6

00083834 <eLoadImage.9898>:
   83834:	84 c0 16 70 00 20       	b.lbz      r6,0x4000e68(r0)
   8383a:	47 a8 e0                	b.entri    0x1,0x7
   8383d:	04 e3                   	b.mov      r7,r3
   8383f:	38 60 ff                	b.ori      r3,r0,0xff
   83842:	d3 8e 6b 40             	b.bgeu     r7,r6,8386f <eLoadImage.9898+0x3b>
   83846:	38 c0 24                	b.ori      r6,r0,0x24
   83849:	64 c7 33                	b.mul      r6,r7,r6
   8384c:	8c a0 76 70 00 20       	b.lwz      r5,0x4000e6c(r0)
   83852:	08 c5                   	b.add      r6,r6,r5
   83854:	24 c6 f8                	b.lbz      r6,0x1f(r6)
   83857:	41 c6 18                	b.bnei     r6,0x3,8386f <eLoadImage.9898+0x3b>
   8385a:	00 c8                   	b.movi     r6,0x1
   8385c:	30 81 20                	b.addi     r4,r1,0x4
   8385f:	38 a0 28                	b.ori      r5,r0,0x14
   83862:	00 6e                   	b.movi     r3,0x7
   83864:	20 c1 20                	b.sb       0x4(r1),r6
   83867:	20 e1 10                	b.sb       0x8(r1),r7
   8386a:	4b 53 ff                	b.jal      83795 <vOND_GenerateEvent>
   8386d:	00 60                   	b.movi     r3,0x0
   8386f:	47 b8 e0                	b.reti     0x1,0x7

00083872 <vStartBlockTimer.14456>:
   83872:	47 ac 80                	b.entri    0x3,0x1
   83875:	28 e3 b8                	b.lhz      r7,0x1c(r3)
   83878:	2c 03 18                	b.sw       0x18(r3),r0
   8387b:	05 43                   	b.mov      r10,r3
   8387d:	20 03 78                	b.sb       0x1e(r3),r0
   83880:	05 64                   	b.mov      r11,r4
   83882:	40 07 8c                	b.beqi     r7,0x0,838b3 <vStartBlockTimer.14456+0x41>
   83885:	2c e3 50                	b.lwz      r7,0x8(r3)
   83888:	38 60 26                	b.ori      r3,r0,0x64
   8388b:	d0 3e 78 80             	b.beqi     r7,-0x1,8389c <vStartBlockTimer.14456+0x2a>
   8388f:	94 67 ff ff ff fe       	f.abs.s    r3,r7
   83895:	d8 80 8e 40             	b.addi     r4,r0,0x271
   83899:	4b c1 e2                	b.jal      956a8 <__udivsi3>
   8389c:	40 0b 10                	b.beqi     r11,0x0,838a4 <vStartBlockTimer.14456+0x32>
   8389f:	00 ea                   	b.movi     r7,0x5
   838a1:	64 63 3b                	b.mul      r3,r3,r7
   838a4:	24 ea 04                	b.lbz      r7,0x20(r10)
   838a7:	6c e7 41                	b.srli     r7,r7,0x2
   838aa:	60 63 3e                	b.sll      r3,r3,r7
   838ad:	40 03 60                	b.beqi     r3,0x0,838b3 <vStartBlockTimer.14456+0x41>
   838b0:	2c 6a 18                	b.sw       0x18(r10),r3
   838b3:	47 bc 80                	b.reti     0x3,0x1

000838b6 <u8DetermineFlashSize.14406>:
   838b6:	8c e0 40 a8 00 80       	b.lwz      r7,0x1001500(r0)
   838bc:	00 60                   	b.movi     r3,0x0
   838be:	34 e7 e0                	b.andi     r7,r7,0x7
   838c1:	41 e7 98                	b.bnei     r7,0x7,838da <u8DetermineFlashSize.14406+0x24>
   838c4:	cc f0 77 01             	b.lwz      r7,-0x7f14(r16)
   838c8:	34 e7 f0                	b.andi     r7,r7,0xf
   838cb:	00 68                   	b.movi     r3,0x1
   838cd:	40 07 b0                	b.beqi     r7,0x0,838da <u8DetermineFlashSize.14406+0x24>
   838d0:	98 e0 2a 6e 08 4c       	b.ori      r7,r0,0x32107654
   838d6:	cc f0 37 01             	b.sw       -0x7f14(r16),r7
   838da:	47 d2 48                	b.jr       r9

000838dd <psSearchDatabase.13991>:
   838dd:	8c e0 76 d0 00 20       	b.lwz      r7,0x4000b6c(r0)
   838e3:	00 c0                   	b.movi     r6,0x0
   838e5:	2d 07 40                	b.lwz      r8,0x0(r7)
   838e8:	04 a7                   	b.mov      r5,r7
   838ea:	d2 c6 8d 00             	b.bne      r3,r8,838f5 <psSearchDatabase.13991+0x18>
   838ee:	2d 07 60                	b.lwz      r8,0x4(r7)
   838f1:	d2 88 88 80             	b.beq      r4,r8,83902 <psSearchDatabase.13991+0x25>
   838f5:	00 d8                   	b.addi     r6,r6,0x1
   838f7:	30 e7 38                	b.addi     r7,r7,0x1c
   838fa:	3c 26 50                	b.sfnei    r6,0xa
   838fd:	47 21 7f                	b.bf       838e5 <psSearchDatabase.13991+0x8>
   83900:	00 a0                   	b.movi     r5,0x0
   83902:	04 65                   	b.mov      r3,r5
   83904:	47 d2 48                	b.jr       r9

00083907 <vSecurityUpdateKey>:
   83907:	38 a0 28                	b.ori      r5,r0,0x14
   8390a:	64 a3 2b                	b.mul      r5,r3,r5
   8390d:	2d 04 40                	b.lwz      r8,0x0(r4)
   83910:	90 e5 35 e0 00 20       	b.addi     r7,r5,0x40007ac
   83916:	90 a5 3d e0 00 20       	b.addi     r5,r5,0x40007bc
   8391c:	2d 07 00                	b.sw       0x0(r7),r8
   8391f:	2d 04 60                	b.lwz      r8,0x4(r4)
   83922:	2c c4 70                	b.lwz      r6,0xc(r4)
   83925:	2d 07 20                	b.sw       0x4(r7),r8
   83928:	2d 04 50                	b.lwz      r8,0x8(r4)
   8392b:	2c c7 30                	b.sw       0xc(r7),r6
   8392e:	2d 07 10                	b.sw       0x8(r7),r8
   83931:	30 e3 80                	b.addi     r7,r3,0x1
   83934:	28 e5 00                	b.sh       0x0(r5),r7
   83937:	41 03 28                	b.bnei     r3,0x0,8394b <vSecurityUpdateKey+0x44>
   8393a:	8c 60 7f e0 00 20       	b.lwz      r3,0x40007fc(r0)
   83940:	38 a0 08                	b.ori      r5,r0,0x10
   83943:	d8 63 11 80             	b.addi     r3,r3,0x188
   83947:	d5 a8 e3 ef             	b.j        5c <memcpy>
   8394b:	47 d2 48                	b.jr       r9

0008394e <vApi_SetNwkKey>:
   8394e:	47 a4 00                	b.entri    0x2,0x0
   83951:	05 43                   	b.mov      r10,r3
   83953:	48 b7 ff                	b.jal      83907 <vSecurityUpdateKey>
   83956:	8c e0 7f e0 00 20       	b.lwz      r7,0x40007fc(r0)
   8395c:	01 58                   	b.addi     r10,r10,0x1
   8395e:	c1 47 59 80             	b.sb       0x19a(r7),r10
   83962:	47 b4 00                	b.reti     0x2,0x0

00083965 <MibNwkSecurity_vSetSecurityKey.part.1.3233>:
   83965:	6c 83 20                	b.slli     r4,r3,0x4
   83968:	90 84 3a 60 00 20       	b.addi     r4,r4,0x400065c
   8396e:	00 ef                   	b.movi     r7,-0x1
   83970:	00 60                   	b.movi     r3,0x0
   83972:	88 e0 0b e0 00 20       	b.sh       0x40007d0(r0),r7
   83978:	0d af                   	b.j        8394e <vApi_SetNwkKey>

0008397a <u8SecurityIsNeighbour>:
   8397a:	8c c0 77 e0 00 20       	b.lwz      r6,0x40007ec(r0)
   83980:	04 e3                   	b.mov      r7,r3
   83982:	24 66 00                	b.lbz      r3,0x0(r6)
   83985:	38 a0 30                	b.ori      r5,r0,0xc
   83988:	00 74                   	b.addi     r3,r3,0x2
   8398a:	3e 03 18                	b.extbz    r3,r3
   8398d:	0d 50                   	b.j        839b7 <u8SecurityIsNeighbour+0x3d>
   8398f:	64 c3 2b                	b.mul      r6,r3,r5
   83992:	2d 07 40                	b.lwz      r8,0x0(r7)
   83995:	90 86 0a 30 00 20       	b.addi     r4,r6,0x4000c50
   8399b:	2c 84 40                	b.lwz      r4,0x0(r4)
   8399e:	d2 d0 42 80             	b.bne      r8,r4,839b2 <u8SecurityIsNeighbour+0x38>
   839a2:	90 c6 2a 30 00 20       	b.addi     r6,r6,0x4000c54
   839a8:	2c 87 60                	b.lwz      r4,0x4(r7)
   839ab:	2c c6 40                	b.lwz      r6,0x0(r6)
   839ae:	d2 88 64 80             	b.beq      r4,r6,839c0 <u8SecurityIsNeighbour+0x46>
   839b2:	00 78                   	b.addi     r3,r3,0x1
   839b4:	3e 03 18                	b.extbz    r3,r3
   839b7:	3c e3 98                	b.sfleui   r3,0x19
   839ba:	47 2a bf                	b.bf       8398f <u8SecurityIsNeighbour+0x15>
   839bd:	38 60 ff                	b.ori      r3,r0,0xff
   839c0:	47 d2 48                	b.jr       r9

000839c3 <u8SecurityFreeEntry>:
   839c3:	8c e0 77 e0 00 20       	b.lwz      r7,0x40007ec(r0)
   839c9:	47 a4 00                	b.entri    0x2,0x0
   839cc:	24 c7 00                	b.lbz      r6,0x0(r7)
   839cf:	38 80 30                	b.ori      r4,r0,0xc
   839d2:	00 e0                   	b.movi     r7,0x0
   839d4:	64 86 23                	b.mul      r4,r6,r4
   839d7:	30 a6 40                	b.addi     r5,r6,0x2
   839da:	90 84 0a 30 00 20       	b.addi     r4,r4,0x4000c50
   839e0:	39 00 30                	b.ori      r8,r0,0xc
