
c:/NXP/bstudio_nxp/workspace2/JN-AN-1190-JenNet-IP-Application-Template/Binary/0x11111111s_DeviceTemplate_DR1174_EndDevice_JN5168.elf:     file format elf32-ba


Disassembly of section .vsr_handlers:

00080050 <_exception_external_interrupt>:
   80050:	30 21 0d                	b.addi     r1,r1,-0x50
   80053:	2c 61 30                	b.sw       0xc(r1),r3
   80056:	2d 41 14                	b.sw       0x28(r1),r10
   80059:	a8 60 04 00 00 00       	b.mfspr    r3,r0,0x20
   8005f:	2c 61 12                	b.sw       0x48(r1),r3
   80062:	a8 60 02 00 00 00       	b.mfspr    r3,r0,0x40
   80068:	2c 61 22                	b.sw       0x44(r1),r3
   8006b:	a8 60 08 12 00 00       	b.mfspr    r3,r0,0x4810
   80071:	2c 61 32                	b.sw       0x4c(r1),r3
   80074:	a8 60 88 12 00 00       	b.mfspr    r3,r0,0x4811
   8007a:	a8 60 08 12 00 01       	b.mtspr    r0,r3,0x4810
   80080:	a9 40 c8 12 00 00       	b.mfspr    r10,r0,0x4813
   80086:	04 01                   	b.ei       
   80088:	2c 41 10                	b.sw       0x8(r1),r2
   8008b:	2c 81 08                	b.sw       0x10(r1),r4
   8008e:	2c a1 28                	b.sw       0x14(r1),r5
   80091:	2c c1 18                	b.sw       0x18(r1),r6
   80094:	2c e1 38                	b.sw       0x1c(r1),r7
   80097:	2d 01 04                	b.sw       0x20(r1),r8
   8009a:	2d 21 24                	b.sw       0x24(r1),r9
   8009d:	d2 94 00 40             	b.beq      r10,r0,800bd <_exception_external_interrupt+0x6d>
   800a1:	3e 0a 24                	b.ff1      r4,r10
   800a4:	61 4a 27                	b.srl      r10,r10,r4
   800a7:	61 4a 26                	b.sll      r10,r10,r4
   800aa:	00 9f                   	b.addi     r4,r4,-0x1
   800ac:	6c e4 40                	b.slli     r7,r4,0x2
   800af:	8c e7 62 b0 00 20       	b.lwz      r7,0x4000d44(r7)
   800b5:	60 60 09                	b.or       r3,r0,r1
   800b8:	47 d1 38                	b.jalr     r7
   800bb:	0d 1f                   	b.j        8009d <_exception_external_interrupt+0x4d>
   800bd:	2c 41 50                	b.lwz      r2,0x8(r1)
   800c0:	2c 61 70                	b.lwz      r3,0xc(r1)
   800c3:	2c a1 68                	b.lwz      r5,0x14(r1)
   800c6:	2c c1 58                	b.lwz      r6,0x18(r1)
   800c9:	2c e1 78                	b.lwz      r7,0x1c(r1)
   800cc:	2d 01 44                	b.lwz      r8,0x20(r1)
   800cf:	2d 21 64                	b.lwz      r9,0x24(r1)
   800d2:	2d 41 54                	b.lwz      r10,0x28(r1)
   800d5:	04 02                   	b.di       
   800d7:	2c 81 62                	b.lwz      r4,0x44(r1)
   800da:	a8 80 02 00 00 01       	b.mtspr    r0,r4,0x40
   800e0:	2c 81 52                	b.lwz      r4,0x48(r1)
   800e3:	a8 80 04 00 00 01       	b.mtspr    r0,r4,0x20
   800e9:	2c 81 72                	b.lwz      r4,0x4c(r1)
   800ec:	a8 80 08 12 00 01       	b.mtspr    r0,r4,0x4810
   800f2:	2c 81 48                	b.lwz      r4,0x10(r1)
   800f5:	30 21 0a                	b.addi     r1,r1,0x50

000800f8 <_default_vsr_dummy>:
   800f8:	04 00                   	b.rfe      

Disassembly of section .text:

00080580 <iUDP_GetUDPheaderSize>:
   80580:	3e 04 2c                	b.ff1      r5,r4
   80583:	3e 03 34                	b.ff1      r6,r3
   80586:	00 bf                   	b.addi     r5,r5,-0x1
   80588:	00 df                   	b.addi     r6,r6,-0x1
   8058a:	60 c5 31                	b.or       r6,r5,r6
   8058d:	04 e3                   	b.mov      r7,r3
   8058f:	45 06 ac                	b.bltsi    r6,0x0,805c4 <iUDP_GetUDPheaderSize+0x44>
   80592:	38 c0 10                	b.ori      r6,r0,0x8
   80595:	20 c4 00                	b.sb       0x0(r4),r6
   80598:	28 c3 8c                	b.lhz      r6,0x30(r3)
   8059b:	6c c6 c1                	b.srli     r6,r6,0x3
   8059e:	20 c4 00                	b.sb       0x0(r4),r6
   805a1:	28 c3 97                	b.lhz      r6,0xe8(r3)
   805a4:	00 60                   	b.movi     r3,0x0
   805a6:	34 c6 e0                	b.andi     r6,r6,0x7
   805a9:	41 06 b8                	b.bnei     r6,0x0,805c6 <iUDP_GetUDPheaderSize+0x46>
   805ac:	28 e7 8c                	b.lhz      r7,0x30(r7)
   805af:	34 c7 e0                	b.andi     r6,r7,0x7
   805b2:	41 06 10                	b.bnei     r6,0x0,805ba <iUDP_GetUDPheaderSize+0x3a>
   805b5:	6c e7 c1                	b.srli     r7,r7,0x3
   805b8:	0f 80                   	b.j        805bf <iUDP_GetUDPheaderSize+0x3f>
   805ba:	00 f2                   	b.addi     r7,r7,0x4
   805bc:	6c e7 c2                	b.srai     r7,r7,0x3
   805bf:	20 e4 00                	b.sb       0x0(r4),r7
   805c2:	0c 80                   	b.j        805c6 <iUDP_GetUDPheaderSize+0x46>
   805c4:	00 6f                   	b.movi     r3,-0x1
   805c6:	47 d2 48                	b.jr       r9

000805c9 <boIdSearchMatch.16021>:
   805c9:	2c e4 50                	b.lwz      r7,0x8(r4)
   805cc:	2c 63 40                	b.lwz      r3,0x0(r3)
   805cf:	60 67 1a                	b.xor      r3,r7,r3
   805d2:	3e 03 1c                	b.ff1      r3,r3
   805d5:	00 7f                   	b.addi     r3,r3,-0x1
   805d7:	6c 63 f9                	b.srli     r3,r3,0x1f
   805da:	47 d2 48                	b.jr       r9

000805dd <boPortSearchMatch.16017>:
   805dd:	28 e4 b8                	b.lhz      r7,0x1c(r4)
   805e0:	28 63 80                	b.lhz      r3,0x0(r3)
   805e3:	60 67 1a                	b.xor      r3,r7,r3
   805e6:	3e 03 1a                	b.exthz    r3,r3
   805e9:	00 7f                   	b.addi     r3,r3,-0x1
   805eb:	6c 63 f9                	b.srli     r3,r3,0x1f
   805ee:	47 d2 48                	b.jr       r9

000805f1 <iWriteIPv6andDataHeaders>:
   805f1:	47 ae c0                	b.entri    0x7,0x3
   805f4:	20 01 e0                	b.sb       0x7(r1),r0
   805f7:	05 65                   	b.mov      r11,r5
   805f9:	05 c3                   	b.mov      r14,r3
   805fb:	05 a4                   	b.mov      r13,r4
   805fd:	05 46                   	b.mov      r10,r6
   805ff:	05 e7                   	b.mov      r15,r7
   80601:	05 88                   	b.mov      r12,r8
   80603:	00 a0                   	b.movi     r5,0x0
   80605:	d0 00 b5 90             	b.beqi     r11,0x0,8069f <iWriteIPv6andDataHeaders+0xae>
   80609:	8c e0 7c b0 00 20       	b.lwz      r7,0x4000d3c(r0)
   8060f:	30 a1 a0                	b.addi     r5,r1,0x5
   80612:	04 86                   	b.mov      r4,r6
   80614:	2c e7 74                	b.lwz      r7,0x2c(r7)
   80617:	04 c8                   	b.mov      r6,r8
   80619:	47 d1 38                	b.jalr     r7
   8061c:	24 81 a0                	b.lbz      r4,0x5(r1)
   8061f:	28 ec b8                	b.lhz      r7,0x1c(r12)
   80622:	d3 8e 41 00             	b.bgeu     r7,r4,8062a <iWriteIPv6andDataHeaders+0x39>
   80626:	00 af                   	b.movi     r5,-0x1
   80628:	0f b8                   	b.j        8069f <iWriteIPv6andDataHeaders+0xae>
   8062a:	8c e0 7c b0 00 20       	b.lwz      r7,0x4000d3c(r0)
   80630:	08 8e                   	b.add      r4,r4,r14
   80632:	30 a1 60                	b.addi     r5,r1,0x6
   80635:	30 c1 e0                	b.addi     r6,r1,0x7
   80638:	04 6a                   	b.mov      r3,r10
   8063a:	2c e7 78                	b.lwz      r7,0x1c(r7)
   8063d:	47 d1 38                	b.jalr     r7
   80640:	24 e1 60                	b.lbz      r7,0x6(r1)
   80643:	24 c1 a0                	b.lbz      r6,0x5(r1)
   80646:	28 ac b8                	b.lhz      r5,0x1c(r12)
   80649:	60 87 34                	b.add      r4,r7,r6
   8064c:	d3 48 55 bf             	b.bgts     r4,r5,80626 <iWriteIPv6andDataHeaders+0x35>
   80650:	24 aa cf                	b.lbz      r5,0xf3(r10)
   80653:	40 05 34                	b.beqi     r5,0x0,8067f <iWriteIPv6andDataHeaders+0x8e>
   80656:	40 8d d0                	b.beqi     r13,0x1,80661 <iWriteIPv6andDataHeaders+0x70>
   80659:	60 ab 35                	b.sub      r5,r11,r6
   8065c:	60 a5 3d                	b.sub      r5,r5,r7
   8065f:	0f 40                   	b.j        8066a <iWriteIPv6andDataHeaders+0x79>
   80661:	24 a1 e0                	b.lbz      r5,0x7(r1)
   80664:	60 ab 2d                	b.sub      r5,r11,r5
   80667:	30 a5 1b                	b.addi     r5,r5,-0x28
   8066a:	24 8a 8f                	b.lbz      r4,0xf1(r10)
   8066d:	3e 05 2a                	b.exthz    r5,r5
   80670:	28 aa 57                	b.sh       0xea(r10),r5
   80673:	3c 24 88                	b.sfnei    r4,0x11
   80676:	47 29 00                	b.bf       8067f <iWriteIPv6andDataHeaders+0x8e>
   80679:	30 a5 10                	b.addi     r5,r5,0x8
   8067c:	28 aa 34                	b.sh       0x2c(r10),r5
   8067f:	08 e6                   	b.add      r7,r7,r6
   80681:	00 a2                   	b.movi     r5,0x4
   80683:	20 ef 00                	b.sb       0x0(r15),r7
   80686:	00 e8                   	b.movi     r7,0x1
   80688:	20 ea 3b                	b.sb       0xdc(r10),r7
   8068b:	41 03 28                	b.bnei     r3,0x0,8069f <iWriteIPv6andDataHeaders+0xae>
   8068e:	8c e0 7c b0 00 20       	b.lwz      r7,0x4000d3c(r0)
   80694:	00 a4                   	b.movi     r5,0x2
   80696:	28 e7 b9                	b.lhz      r7,0x9c(r7)
   80699:	3d a7 58                	b.sfgeu    r7,r11
   8069c:	64 a0 2a                	b.cmov     r5,r0,r5
   8069f:	04 65                   	b.mov      r3,r5
   806a1:	47 be c0                	b.reti     0x7,0x3

000806a4 <iIPv6_CalculateIPv6AddressChecksum.1507>:
   806a4:	3e 04 34                	b.ff1      r6,r4
   806a7:	3e 03 3c                	b.ff1      r7,r3
   806aa:	00 df                   	b.addi     r6,r6,-0x1
   806ac:	00 ff                   	b.addi     r7,r7,-0x1
   806ae:	60 e6 39                	b.or       r7,r6,r7
   806b1:	42 07 28                	b.bgesi    r7,0x0,806c5 <iIPv6_CalculateIPv6AddressChecksum.1507+0x21>
   806b4:	8c e0 7c b0 00 20       	b.lwz      r7,0x4000d3c(r0)
   806ba:	d8 c0 60 80             	b.addi     r6,r0,0x106
   806be:	00 6f                   	b.movi     r3,-0x1
   806c0:	2c c7 32                	b.sw       0x4c(r7),r6
   806c3:	0f 90                   	b.j        806ea <iIPv6_CalculateIPv6AddressChecksum.1507+0x46>
   806c5:	2c 04 00                	b.sw       0x0(r4),r0
   806c8:	00 e0                   	b.movi     r7,0x0
   806ca:	60 a3 3c                	b.add      r5,r3,r7
   806cd:	00 f2                   	b.addi     r7,r7,0x4
   806cf:	3c 27 08                	b.sfnei    r7,0x10
   806d2:	29 05 80                	b.lhz      r8,0x0(r5)
   806d5:	2c c4 40                	b.lwz      r6,0x0(r4)
   806d8:	08 c8                   	b.add      r6,r6,r8
   806da:	2c c4 00                	b.sw       0x0(r4),r6
   806dd:	28 a5 c0                	b.lhz      r5,0x2(r5)
   806e0:	08 c5                   	b.add      r6,r6,r5
   806e2:	2c c4 00                	b.sw       0x0(r4),r6
   806e5:	47 2a 7f                	b.bf       806ca <iIPv6_CalculateIPv6AddressChecksum.1507+0x26>
   806e8:	00 60                   	b.movi     r3,0x0
   806ea:	47 d2 48                	b.jr       r9

000806ed <iIPv6_CalculateIPv6PseudoHeaderChecksum>:
   806ed:	3e 05 34                	b.ff1      r6,r5
   806f0:	3e 03 3c                	b.ff1      r7,r3
   806f3:	00 df                   	b.addi     r6,r6,-0x1
   806f5:	00 ff                   	b.addi     r7,r7,-0x1
   806f7:	47 ac a0                	b.entri    0x3,0x5
   806fa:	60 e6 39                	b.or       r7,r6,r7
   806fd:	05 43                   	b.mov      r10,r3
   806ff:	05 64                   	b.mov      r11,r4
   80701:	42 07 28                	b.bgesi    r7,0x0,80715 <iIPv6_CalculateIPv6PseudoHeaderChecksum+0x28>
   80704:	8c e0 7c b0 00 20       	b.lwz      r7,0x4000d3c(r0)
   8070a:	d8 c0 60 80             	b.addi     r6,r0,0x106
   8070e:	00 6f                   	b.movi     r3,-0x1
   80710:	2c c7 32                	b.sw       0x4c(r7),r6
   80713:	0d d0                   	b.j        80741 <iIPv6_CalculateIPv6PseudoHeaderChecksum+0x54>
   80715:	30 81 10                	b.addi     r4,r1,0x8
   80718:	30 63 10                	b.addi     r3,r3,0x8
   8071b:	2c a1 20                	b.sw       0x4(r1),r5
   8071e:	49 87 ff                	b.jal      806a4 <iIPv6_CalculateIPv6AddressChecksum.1507>
   80721:	30 6a 18                	b.addi     r3,r10,0x18
   80724:	30 81 30                	b.addi     r4,r1,0xc
   80727:	4a fb ff                	b.jal      806a4 <iIPv6_CalculateIPv6AddressChecksum.1507>
   8072a:	2c c1 70                	b.lwz      r6,0xc(r1)
   8072d:	2c e1 50                	b.lwz      r7,0x8(r1)
   80730:	2c a1 60                	b.lwz      r5,0x4(r1)
   80733:	08 e6                   	b.add      r7,r7,r6
   80735:	00 60                   	b.movi     r3,0x0
   80737:	24 ca 8f                	b.lbz      r6,0xf1(r10)
   8073a:	08 e6                   	b.add      r7,r7,r6
   8073c:	09 67                   	b.add      r11,r11,r7
   8073e:	2d 65 00                	b.sw       0x0(r5),r11
   80741:	47 bc a0                	b.reti     0x3,0x5

00080744 <boBufferByHandleSearchMatch.15172>:
   80744:	2c a4 47                	b.lwz      r5,0xe0(r4)
   80747:	2c c3 60                	b.lwz      r6,0x4(r3)
   8074a:	00 e0                   	b.movi     r7,0x0
   8074c:	d2 ca 66 80             	b.bne      r5,r6,80762 <boBufferByHandleSearchMatch.15172+0x1e>
   80750:	24 a4 1f                	b.lbz      r5,0xf8(r4)
   80753:	24 c3 00                	b.lbz      r6,0x0(r3)
   80756:	d2 cc 53 00             	b.bne      r6,r5,80762 <boBufferByHandleSearchMatch.15172+0x1e>
   8075a:	00 e8                   	b.movi     r7,0x1
   8075c:	41 06 60                	b.bnei     r6,0x0,80762 <boBufferByHandleSearchMatch.15172+0x1e>
   8075f:	24 e4 3b                	b.lbz      r7,0xdc(r4)
   80762:	04 67                   	b.mov      r3,r7
   80764:	47 d2 48                	b.jr       r9

00080767 <boTagIdSearchMatch.15176>:
   80767:	28 c3 80                	b.lhz      r6,0x0(r3)
   8076a:	24 e4 b7                	b.lbz      r7,0xed(r4)
   8076d:	00 60                   	b.movi     r3,0x0
   8076f:	d2 ce 62 80             	b.bne      r7,r6,80783 <boTagIdSearchMatch.15176+0x1c>
   80773:	24 64 9f                	b.lbz      r3,0xf9(r4)
   80776:	00 e8                   	b.movi     r7,0x1
   80778:	60 63 3a                	b.xor      r3,r3,r7
   8077b:	3e 03 18                	b.extbz    r3,r3
   8077e:	00 7f                   	b.addi     r3,r3,-0x1
   80780:	6c 63 f9                	b.srli     r3,r3,0x1f
   80783:	47 d2 48                	b.jr       r9

00080786 <boBufferReadyToTXSearchMatch.15168>:
   80786:	24 e4 9f                	b.lbz      r7,0xf9(r4)
   80789:	00 60                   	b.movi     r3,0x0
   8078b:	41 87 88                	b.bnei     r7,0x1,8079c <boBufferReadyToTXSearchMatch.15168+0x16>
   8078e:	24 64 db                	b.lbz      r3,0xdb(r4)
   80791:	60 63 3a                	b.xor      r3,r3,r7
   80794:	3e 03 18                	b.extbz    r3,r3
   80797:	00 7f                   	b.addi     r3,r3,-0x1
   80799:	6c 63 f9                	b.srli     r3,r3,0x1f
   8079c:	47 d2 48                	b.jr       r9

0008079f <boBufferByTagIdAndSrcAddrSearchMatch.15164>:
   8079f:	28 c3 80                	b.lhz      r6,0x0(r3)
   807a2:	28 a4 b7                	b.lhz      r5,0xec(r4)
   807a5:	04 e3                   	b.mov      r7,r3
   807a7:	00 60                   	b.movi     r3,0x0
   807a9:	d2 ca 60 a0             	b.bne      r5,r6,807f9 <boBufferByTagIdAndSrcAddrSearchMatch.15164+0x5a>
   807ad:	24 a4 1f                	b.lbz      r5,0xf8(r4)
   807b0:	24 c7 40                	b.lbz      r6,0x2(r7)
   807b3:	d2 ca 66 20             	b.bne      r5,r6,807f9 <boBufferByTagIdAndSrcAddrSearchMatch.15164+0x5a>
   807b7:	2c e7 60                	b.lwz      r7,0x4(r7)
   807ba:	24 c7 40                	b.lbz      r6,0x2(r7)
   807bd:	41 c6 84                	b.bnei     r6,0x3,807de <boBufferByTagIdAndSrcAddrSearchMatch.15164+0x3f>
   807c0:	24 c4 32                	b.lbz      r6,0x4c(r4)
   807c3:	41 86 6c                	b.bnei     r6,0x1,807f9 <boBufferByTagIdAndSrcAddrSearchMatch.15164+0x5a>
   807c6:	2c a4 62                	b.lwz      r5,0x44(r4)
   807c9:	2c c7 60                	b.lwz      r6,0x4(r7)
   807cc:	d2 ca 6b 40             	b.bne      r5,r6,807f9 <boBufferByTagIdAndSrcAddrSearchMatch.15164+0x5a>
   807d0:	2c c4 52                	b.lwz      r6,0x48(r4)
   807d3:	2c e7 50                	b.lwz      r7,0x8(r7)
   807d6:	d2 cc 7c 40             	b.bne      r6,r7,807f9 <boBufferByTagIdAndSrcAddrSearchMatch.15164+0x5a>
   807da:	00 68                   	b.movi     r3,0x1
   807dc:	0e e0                   	b.j        807f9 <boBufferByTagIdAndSrcAddrSearchMatch.15164+0x5a>
   807de:	41 46 d8                	b.bnei     r6,0x2,807f9 <boBufferByTagIdAndSrcAddrSearchMatch.15164+0x5a>
   807e1:	24 c4 32                	b.lbz      r6,0x4c(r4)
   807e4:	41 06 a8                	b.bnei     r6,0x0,807f9 <boBufferByTagIdAndSrcAddrSearchMatch.15164+0x5a>
   807e7:	28 a4 a2                	b.lhz      r5,0x44(r4)
   807ea:	28 c7 80                	b.lhz      r6,0x0(r7)
   807ed:	d2 ca 63 00             	b.bne      r5,r6,807f9 <boBufferByTagIdAndSrcAddrSearchMatch.15164+0x5a>
   807f1:	28 c4 e2                	b.lhz      r6,0x46(r4)
   807f4:	28 e7 a0                	b.lhz      r7,0x4(r7)
   807f7:	0f ef                   	b.j        807d6 <boBufferByTagIdAndSrcAddrSearchMatch.15164+0x37>
   807f9:	47 d2 48                	b.jr       r9

000807fc <boAddressSearchMatch.15160>:
   807fc:	d8 84 00 80             	b.addi     r4,r4,0x100
   80800:	60 64 1a                	b.xor      r3,r4,r3
   80803:	3e 03 1c                	b.ff1      r3,r3
   80806:	00 7f                   	b.addi     r3,r3,-0x1
   80808:	6c 63 f9                	b.srli     r3,r3,0x1f
   8080b:	47 d2 48                	b.jr       r9

0008080e <eEUI_CompareMulticast.1556>:
   8080e:	47 aa 80                	b.entri    0x5,0x1
   80811:	2d 63 40                	b.lwz      r11,0x0(r3)
   80814:	6c cb 09                	b.srli     r6,r11,0x10
   80817:	3e 06 39                	b.extbs    r7,r6
   8081a:	42 07 a0                	b.bgesi    r7,0x0,8081f <eEUI_CompareMulticast.1556+0x11>
   8081d:	0f ec                   	b.j        808fc <eEUI_CompareMulticast.1556+0xee>
   8081f:	34 a6 02                	b.andi     r5,r6,0x40
   80822:	00 e6                   	b.movi     r7,0x6
   80824:	d0 40 5d b0             	b.bnei     r5,0x0,808ff <eEUI_CompareMulticast.1556+0xf1>
   80828:	35 46 f0                	b.andi     r10,r6,0xf
   8082b:	34 c6 0c                	b.andi     r6,r6,0x30
   8082e:	38 e0 10                	b.ori      r7,r0,0x8
   80831:	3c 06 04                	b.sfeqi    r6,0x20
   80834:	47 2d 30                	b.bf       808ff <eEUI_CompareMulticast.1556+0xf1>
   80837:	3c 06 0c                	b.sfeqi    r6,0x30
   8083a:	47 21 a0                	b.bf       80892 <eEUI_CompareMulticast.1556+0x84>
   8083d:	3c 06 08                	b.sfeqi    r6,0x10
   80840:	47 21 20                	b.bf       80888 <eEUI_CompareMulticast.1556+0x7a>
   80843:	95 6b ff ff 00 00       	b.andi     r11,r11,0xffff
   80849:	d0 40 bc d0             	b.bnei     r11,0x0,808fc <eEUI_CompareMulticast.1556+0xee>
   8084d:	2c e3 60                	b.lwz      r7,0x4(r3)
   80850:	d0 40 73 50             	b.bnei     r7,0x0,808fc <eEUI_CompareMulticast.1556+0xee>
   80854:	2c e3 50                	b.lwz      r7,0x8(r3)
   80857:	d0 40 7a 50             	b.bnei     r7,0x0,808fc <eEUI_CompareMulticast.1556+0xee>
   8085b:	2c e3 70                	b.lwz      r7,0xc(r3)
   8085e:	40 47 e8                	b.beqi     r7,0x2,80875 <eEUI_CompareMulticast.1556+0x67>
   80861:	3c 07 68                	b.sfeqi    r7,0x16
   80864:	47 28 80                	b.bf       80875 <eEUI_CompareMulticast.1556+0x67>
   80867:	d0 60 7a 90             	b.bnei     r7,0x1,808fc <eEUI_CompareMulticast.1556+0xee>
   8086b:	01 5f                   	b.addi     r10,r10,-0x1
   8086d:	00 ea                   	b.movi     r7,0x5
   8086f:	d1 e0 ab 10             	b.bgtui    r10,0x1,808fc <eEUI_CompareMulticast.1556+0xee>
   80873:	0c c4                   	b.j        808ff <eEUI_CompareMulticast.1556+0xf1>
   80875:	8c e0 7c b0 00 20       	b.lwz      r7,0x4000d3c(r0)
   8087b:	24 e7 12                	b.lbz      r7,0x48(r7)
   8087e:	41 87 7e                	b.bnei     r7,0x1,808fc <eEUI_CompareMulticast.1556+0xee>
   80881:	00 e6                   	b.movi     r7,0x6
   80883:	41 4a 9e                	b.bnei     r10,0x2,808fc <eEUI_CompareMulticast.1556+0xee>
   80886:	0e 78                   	b.j        808ff <eEUI_CompareMulticast.1556+0xf1>
   80888:	00 ee                   	b.movi     r7,0x7
   8088a:	d1 d0 aa e0             	b.bgtui    r10,0x2,808ff <eEUI_CompareMulticast.1556+0xf1>
   8088e:	00 e2                   	b.movi     r7,0x4
   80890:	0f d8                   	b.j        808ff <eEUI_CompareMulticast.1556+0xf1>
   80892:	8c c0 7c b0 00 20       	b.lwz      r6,0x4000d3c(r0)
   80898:	2d a3 60                	b.lwz      r13,0x4(r3)
   8089b:	2c e6 41                	b.lwz      r7,0x80(r6)
   8089e:	2d 83 50                	b.lwz      r12,0x8(r3)
   808a1:	61 ad 3a                	b.xor      r13,r13,r7
   808a4:	38 a0 02                	b.ori      r5,r0,0x40
   808a7:	00 60                   	b.movi     r3,0x0
   808a9:	2c e6 7e                	b.lwz      r7,0x7c(r6)
   808ac:	00 88                   	b.movi     r4,0x1
   808ae:	61 8c 3a                	b.xor      r12,r12,r7
   808b1:	34 eb ff                	b.andi     r7,r11,0xff
   808b4:	60 a5 3d                	b.sub      r5,r5,r7
   808b7:	4b 47 4a                	b.jal      95442 <__ashldi3>
   808ba:	60 80 25                	b.sub      r4,r0,r4
   808bd:	3c 24 00                	b.sfnei    r4,0x0
   808c0:	00 e8                   	b.movi     r7,0x1
   808c2:	60 60 1d                	b.sub      r3,r0,r3
   808c5:	64 e7 02                	b.cmov     r7,r7,r0
   808c8:	60 e3 3d                	b.sub      r7,r3,r7
   808cb:	61 a7 68                	b.and      r13,r7,r13
   808ce:	61 84 60                	b.and      r12,r4,r12
   808d1:	60 8d 61                	b.or       r4,r13,r12
   808d4:	00 e6                   	b.movi     r7,0x6
   808d6:	41 04 94                	b.bnei     r4,0x0,808ff <eEUI_CompareMulticast.1556+0xf1>
   808d9:	38 c0 02                	b.ori      r6,r0,0x40
   808dc:	61 6b 32                	b.xor      r11,r11,r6
   808df:	3e 0b 58                	b.extbz    r11,r11
   808e2:	01 7f                   	b.addi     r11,r11,-0x1
   808e4:	00 e8                   	b.movi     r7,0x1
   808e6:	3c ea 40                	b.sfleui   r10,0x2
   808e9:	6d 6b f9                	b.srli     r11,r11,0x1f
   808ec:	64 e7 02                	b.cmov     r7,r7,r0
   808ef:	60 e7 59                	b.or       r7,r7,r11
   808f2:	3e 07 38                	b.extbz    r7,r7
   808f5:	41 07 99                	b.bnei     r7,0x0,8088e <eEUI_CompareMulticast.1556+0x80>
   808f8:	00 ee                   	b.movi     r7,0x7
   808fa:	0e 80                   	b.j        808ff <eEUI_CompareMulticast.1556+0xf1>
   808fc:	38 e0 10                	b.ori      r7,r0,0x8
   808ff:	04 67                   	b.mov      r3,r7
   80901:	47 ba 80                	b.reti     0x5,0x1

00080904 <vHandleNwkCallback.14341>:
   80904:	8c e0 54 60 00 20       	b.lwz      r7,0x4000628(r0)
   8090a:	47 a8 80                	b.entri    0x1,0x1
   8090d:	40 07 38                	b.beqi     r7,0x0,80929 <vHandleNwkCallback.14341+0x25>
   80910:	3c e4 10                	b.sfleui   r4,0x8
   80913:	47 2b 00                	b.bf       80920 <vHandleNwkCallback.14341+0x1c>
   80916:	00 91                   	b.addi     r4,r4,-0x8
   80918:	30 a5 10                	b.addi     r5,r5,0x8
   8091b:	3e 04 20                	b.extbz    r4,r4
   8091e:	0d 80                   	b.j        80924 <vHandleNwkCallback.14341+0x20>
   80920:	00 a0                   	b.movi     r5,0x0
   80922:	00 80                   	b.movi     r4,0x0
   80924:	47 d1 38                	b.jalr     r7
   80927:	0c 80                   	b.j        8092b <vHandleNwkCallback.14341+0x27>
   80929:	00 68                   	b.movi     r3,0x1
   8092b:	47 b8 80                	b.reti     0x1,0x1

0008092e <vQueueApi.13152>:
   8092e:	38 a0 28                	b.ori      r5,r0,0x14
   80931:	98 60 1f 90 00 20       	b.ori      r3,r0,0x40009f8
   80937:	47 a8 80                	b.entri    0x1,0x1
   8093a:	d4 44 ef ef             	b.jal      5c <memcpy>
   8093e:	47 b8 80                	b.reti     0x1,0x1

00080941 <vEstablishRoute_Backoff.11798>:
   80941:	8c e0 74 b0 00 20       	b.lwz      r7,0x4000d2c(r0)
   80947:	00 c8                   	b.movi     r6,0x1
   80949:	c0 c7 94 80             	b.sb       0x129(r7),r6
   8094d:	47 d2 48                	b.jr       r9

00080950 <vActiveScan_Backoff.11803>:
   80950:	47 d2 48                	b.jr       r9

00080953 <vNed_StateTimeoutHandler>:
   80953:	8c e0 74 b0 00 20       	b.lwz      r7,0x4000d2c(r0)
   80959:	00 c8                   	b.movi     r6,0x1
   8095b:	cc c7 32 80             	b.sw       0x14c(r7),r6
   8095f:	47 d2 48                	b.jr       r9

00080962 <vNed_PollPeriodHandler>:
   80962:	8c e0 74 b0 00 20       	b.lwz      r7,0x4000d2c(r0)
   80968:	00 c8                   	b.movi     r6,0x1
   8096a:	c0 c7 54 80             	b.sb       0x12a(r7),r6
   8096e:	47 d2 48                	b.jr       r9

00080971 <vNed_PollTimeoutHandler>:
   80971:	8c e0 74 b0 00 20       	b.lwz      r7,0x4000d2c(r0)
   80977:	c4 c7 b8 80             	b.lbz      r6,0x11d(r7)
   8097b:	41 86 a4                	b.bnei     r6,0x1,809a0 <vNed_PollTimeoutHandler+0x2f>
   8097e:	c0 07 b8 80             	b.sb       0x11d(r7),r0
   80982:	8c e0 4c b0 00 20       	b.lwz      r7,0x4000d30(r0)
   80988:	c4 c7 26 80             	b.lbz      r6,0x164(r7)
   8098c:	3c 06 b0                	b.sfeqi    r6,0xd
   8098f:	47 29 00                	b.bf       80998 <vNed_PollTimeoutHandler+0x27>
   80992:	3c 06 f0                	b.sfeqi    r6,0xf
   80995:	47 3d 00                	b.bnf      809a0 <vNed_PollTimeoutHandler+0x2f>
   80998:	2c c7 44                	b.lwz      r6,0x20(r7)
   8099b:	00 d8                   	b.addi     r6,r6,0x1
   8099d:	2c c7 04                	b.sw       0x20(r7),r6
   809a0:	47 d2 48                	b.jr       r9

000809a3 <vNed_ScanTimeoutHandler>:
   809a3:	8c e0 4c b0 00 20       	b.lwz      r7,0x4000d30(r0)
   809a9:	47 a8 80                	b.entri    0x1,0x1
   809ac:	c4 c7 26 80             	b.lbz      r6,0x164(r7)
   809b0:	00 d7                   	b.addi     r6,r6,-0x2
   809b2:	3e 06 30                	b.extbz    r6,r6
   809b5:	3c a6 30                	b.sfgtui   r6,0xc
   809b8:	47 28 e0                	b.bf       80a29 <vNed_ScanTimeoutHandler+0x86>
   809bb:	6c c6 40                	b.slli     r6,r6,0x2
   809be:	90 c6 33 90 10 00       	b.addi     r6,r6,0x809cc
   809c4:	2c c6 40                	b.lwz      r6,0x0(r6)
   809c7:	47 d2 30                	b.jr       r6
   809ca:	00 00                   	b.trap     0x0
   809cc:	00 08                   	b.trap     0x1
   809ce:	0a 00                   	b.add      r16,r16,r0
   809d0:	00 08                   	b.trap     0x1
   809d2:	0a 29                   	b.add      r17,r17,r9
   809d4:	00 08                   	b.trap     0x1
   809d6:	0a 00                   	b.add      r16,r16,r0
   809d8:	00 08                   	b.trap     0x1
   809da:	0a 29                   	b.add      r17,r17,r9
   809dc:	00 08                   	b.trap     0x1
   809de:	0a 29                   	b.add      r17,r17,r9
   809e0:	00 08                   	b.trap     0x1
   809e2:	0a 07                   	b.add      r16,r16,r7
   809e4:	00 08                   	b.trap     0x1
   809e6:	0a 0b                   	b.add      r16,r16,r11
   809e8:	00 08                   	b.trap     0x1
   809ea:	0a 29                   	b.add      r17,r17,r9
   809ec:	00 08                   	b.trap     0x1
   809ee:	0a 29                   	b.add      r17,r17,r9
   809f0:	00 08                   	b.trap     0x1
   809f2:	0a 29                   	b.add      r17,r17,r9
   809f4:	00 08                   	b.trap     0x1
   809f6:	0a 29                   	b.add      r17,r17,r9
   809f8:	00 08                   	b.trap     0x1
   809fa:	0a 29                   	b.add      r17,r17,r9
   809fc:	00 08                   	b.trap     0x1
   809fe:	0a 13                   	b.add      r16,r16,r19
   80a00:	00 c8                   	b.movi     r6,0x1
   80a02:	20 c7 18                	b.sb       0x18(r7),r6
   80a05:	0c 90                   	b.j        80a29 <vNed_ScanTimeoutHandler+0x86>
   80a07:	00 ca                   	b.movi     r6,0x5
   80a09:	0c 80                   	b.j        80a0d <vNed_ScanTimeoutHandler+0x6a>
   80a0b:	00 c6                   	b.movi     r6,0x6
   80a0d:	c0 c7 26 80             	b.sb       0x164(r7),r6
   80a11:	0c 60                   	b.j        80a29 <vNed_ScanTimeoutHandler+0x86>
   80a13:	cc c7 79 80             	b.lwz      r6,0x19c(r7)
   80a17:	40 06 48                	b.beqi     r6,0x0,80a29 <vNed_ScanTimeoutHandler+0x86>
   80a1a:	c4 a7 45 80             	b.lbz      r5,0x1a2(r7)
   80a1e:	cc 07 39 80             	b.sw       0x19c(r7),r0
   80a22:	c0 a7 26 80             	b.sb       0x164(r7),r5
   80a26:	47 d1 30                	b.jalr     r6
   80a29:	47 b8 80                	b.reti     0x1,0x1

00080a2c <vRouterActiveScanResponse_Backoff>:
   80a2c:	8c e0 4c b0 00 20       	b.lwz      r7,0x4000d30(r0)
   80a32:	00 cc                   	b.movi     r6,0x3
   80a34:	c0 c7 26 80             	b.sb       0x164(r7),r6
   80a38:	47 d2 48                	b.jr       r9

00080a3b <vActiveScan_Backoff.10225>:
   80a3b:	47 d2 48                	b.jr       r9

00080a3e <bOND_SafeToSleep.13140>:
   80a3e:	47 a8 80                	b.entri    0x1,0x1
   80a41:	4b f9 ac                	b.jal      8e0c0 <bJnc_IsStackRunning>
   80a44:	40 03 e8                	b.beqi     r3,0x0,80a5b <bOND_SafeToSleep.13140+0x1d>
   80a47:	84 e0 34 50 00 20       	b.lbz      r7,0x4000a2c(r0)
   80a4d:	40 07 70                	b.beqi     r7,0x0,80a5b <bOND_SafeToSleep.13140+0x1d>
   80a50:	84 e0 c7 90 00 20       	b.lbz      r7,0x40009e3(r0)
   80a56:	00 60                   	b.movi     r3,0x0
   80a58:	41 87 30                	b.bnei     r7,0x1,80a64 <bOND_SafeToSleep.13140+0x26>
   80a5b:	8c 60 78 50 00 20       	b.lwz      r3,0x4000a1c(r0)
   80a61:	47 d1 18                	b.jalr     r3
   80a64:	47 b8 80                	b.reti     0x1,0x1

00080a67 <vScanOrAssociate_Backoff>:
   80a67:	47 a8 80                	b.entri    0x1,0x1
   80a6a:	48 bb ac                	b.jal      8e1de <vJnc_ClearScanListVect>
   80a6d:	8c e0 4c b0 00 20       	b.lwz      r7,0x4000d30(r0)
   80a73:	00 cc                   	b.movi     r6,0x3
   80a75:	c0 c7 26 80             	b.sb       0x164(r7),r6
   80a79:	47 b8 80                	b.reti     0x1,0x1

00080a7c <u8GroupAddUnique.16973>:
   80a7c:	47 a6 00                	b.entri    0x6,0x0
   80a7f:	05 a3                   	b.mov      r13,r3
   80a81:	05 c4                   	b.mov      r14,r4
   80a83:	05 45                   	b.mov      r10,r5
   80a85:	05 84                   	b.mov      r12,r4
   80a87:	01 60                   	b.movi     r11,0x0
   80a89:	0f a0                   	b.j        80aa0 <u8GroupAddUnique.16973+0x24>
   80a8b:	38 a0 08                	b.ori      r5,r0,0x10
   80a8e:	04 8c                   	b.mov      r4,r12
   80a90:	04 6d                   	b.mov      r3,r13
   80a92:	31 8c 08                	b.addi     r12,r12,0x10
   80a95:	4a d8 8a                	b.jal      94f02 <memcmp>
   80a98:	40 03 f8                	b.beqi     r3,0x0,80ab7 <u8GroupAddUnique.16973+0x3b>
   80a9b:	01 78                   	b.addi     r11,r11,0x1
   80a9d:	3e 0b 58                	b.extbz    r11,r11
   80aa0:	d2 d6 ad 7f             	b.bne      r11,r10,80a8b <u8GroupAddUnique.16973+0xf>
   80aa4:	6c 6a 20                	b.slli     r3,r10,0x4
   80aa7:	08 6e                   	b.add      r3,r3,r14
   80aa9:	38 a0 08                	b.ori      r5,r0,0x10
   80aac:	01 58                   	b.addi     r10,r10,0x1
   80aae:	04 8d                   	b.mov      r4,r13
   80ab0:	3e 0a 50                	b.extbz    r10,r10
   80ab3:	d4 95 af ef             	b.jal      5c <memcpy>
   80ab7:	04 6a                   	b.mov      r3,r10
   80ab9:	47 b6 00                	b.reti     0x6,0x0

00080abc <u8CompressAddrs.16958>:
   80abc:	47 ae e0                	b.entri    0x7,0x7
   80abf:	05 63                   	b.mov      r11,r3
   80ac1:	2c 81 08                	b.sw       0x10(r1),r4
   80ac4:	01 c0                   	b.movi     r14,0x0
   80ac6:	2c a1 28                	b.sw       0x14(r1),r5
   80ac9:	01 40                   	b.movi     r10,0x0
   80acb:	01 88                   	b.movi     r12,0x1
   80acd:	0f 94                   	b.j        80b74 <u8CompressAddrs.16958+0xb8>
   80acf:	60 cb 3c                	b.add      r6,r11,r7
   80ad2:	30 67 80                	b.addi     r3,r7,0x1
   80ad5:	08 6b                   	b.add      r3,r3,r11
   80ad7:	38 a0 b0                	b.ori      r5,r0,0xd
   80ada:	25 a6 00                	b.lbz      r13,0x0(r6)
   80add:	2c 81 50                	b.lwz      r4,0x8(r1)
   80ae0:	6d ad 80                	b.slli     r13,r13,0x1
   80ae3:	31 ad 70                	b.addi     r13,r13,0xe
   80ae6:	09 a7                   	b.add      r13,r13,r7
   80ae8:	3e 0d 68                	b.extbz    r13,r13
   80aeb:	54 c1 00                	b.msw      0x0(r1),r6,0x0
   80aee:	48 a0 8a                	b.jal      94f02 <memcmp>
   80af1:	50 c1 00                	b.mlwz     r6,0x0(r1),0x0
   80af4:	41 03 5c                	b.bnei     r3,0x0,80b2e <u8CompressAddrs.16958+0x72>
   80af7:	d3 9a aa 80             	b.bgeu     r13,r10,80b0c <u8CompressAddrs.16958+0x50>
   80afb:	30 6d 40                	b.addi     r3,r13,0x2
   80afe:	08 6b                   	b.add      r3,r3,r11
   80b00:	60 8b 6c                	b.add      r4,r11,r13
   80b03:	60 aa 6d                	b.sub      r5,r10,r13
   80b06:	49 70 8a                	b.jal      94f40 <memmove>
   80b09:	50 c1 00                	b.mlwz     r6,0x0(r1),0x0
   80b0c:	24 af 00                	b.lbz      r5,0x0(r15)
   80b0f:	09 ab                   	b.add      r13,r13,r11
   80b11:	01 54                   	b.addi     r10,r10,0x2
   80b13:	3e 0a 50                	b.extbz    r10,r10
   80b16:	20 ad 00                	b.sb       0x0(r13),r5
   80b19:	24 af 80                	b.lbz      r5,0x1(r15)
   80b1c:	20 ad 80                	b.sb       0x1(r13),r5
   80b1f:	24 a6 00                	b.lbz      r5,0x0(r6)
   80b22:	00 b8                   	b.addi     r5,r5,0x1
   80b24:	20 a6 00                	b.sb       0x0(r6),r5
   80b27:	00 c8                   	b.movi     r6,0x1
   80b29:	2c c1 30                	b.sw       0xc(r1),r6
   80b2c:	0c 80                   	b.j        80b30 <u8CompressAddrs.16958+0x74>
   80b2e:	04 ed                   	b.mov      r7,r13
   80b30:	2c a1 70                	b.lwz      r5,0xc(r1)
   80b33:	3d ea 38                	b.sfgtu    r10,r7
   80b36:	60 cc 2a                	b.xor      r6,r12,r5
   80b39:	64 8c 02                	b.cmov     r4,r12,r0
   80b3c:	3e 06 28                	b.extbz    r5,r6
   80b3f:	60 c4 30                	b.and      r6,r4,r6
   80b42:	3e 06 30                	b.extbz    r6,r6
   80b45:	41 06 51                	b.bnei     r6,0x0,80acf <u8CompressAddrs.16958+0x13>
   80b48:	3d 2a 22                	b.sfltui   r10,0x44
   80b4b:	64 ec 02                	b.cmov     r7,r12,r0
   80b4e:	60 e5 38                	b.and      r7,r5,r7
   80b51:	40 07 78                	b.beqi     r7,0x0,80b6f <u8CompressAddrs.16958+0xb3>
   80b54:	60 eb 54                	b.add      r7,r11,r10
   80b57:	30 6a 80                	b.addi     r3,r10,0x1
   80b5a:	08 6b                   	b.add      r3,r3,r11
   80b5c:	38 a0 f0                	b.ori      r5,r0,0xf
   80b5f:	31 4a 08                	b.addi     r10,r10,0x10
   80b62:	3e 0a 50                	b.extbz    r10,r10
   80b65:	2c 81 50                	b.lwz      r4,0x8(r1)
   80b68:	21 87 00                	b.sb       0x0(r7),r12
   80b6b:	d4 8f 2f ef             	b.jal      5c <memcpy>
   80b6f:	01 d8                   	b.addi     r14,r14,0x1
   80b71:	3e 0e 70                	b.extbz    r14,r14
   80b74:	2c e1 68                	b.lwz      r7,0x14(r1)
   80b77:	3d 2a 4a                	b.sfltui   r10,0x52
   80b7a:	64 cc 02                	b.cmov     r6,r12,r0
   80b7d:	3d e7 70                	b.sfgtu    r7,r14
   80b80:	64 ec 02                	b.cmov     r7,r12,r0
   80b83:	60 e6 38                	b.and      r7,r6,r7
   80b86:	3e 07 38                	b.extbz    r7,r7
   80b89:	40 07 d8                	b.beqi     r7,0x0,80ba4 <u8CompressAddrs.16958+0xe8>
   80b8c:	2c c1 48                	b.lwz      r6,0x10(r1)
   80b8f:	6d 0e 20                	b.slli     r8,r14,0x4
   80b92:	09 06                   	b.add      r8,r8,r6
   80b94:	30 e8 80                	b.addi     r7,r8,0x1
   80b97:	31 e8 70                	b.addi     r15,r8,0xe
   80b9a:	2c e1 10                	b.sw       0x8(r1),r7
   80b9d:	00 e0                   	b.movi     r7,0x0
   80b9f:	2c 01 30                	b.sw       0xc(r1),r0
   80ba2:	0d c7                   	b.j        80b30 <u8CompressAddrs.16958+0x74>
   80ba4:	04 6a                   	b.mov      r3,r10
   80ba6:	47 be e0                	b.reti     0x7,0x7

00080ba9 <u8GetChangedButUnnotifiedGroups.16025>:
   80ba9:	47 ae 80                	b.entri    0x7,0x1
   80bac:	2d 64 40                	b.lwz      r11,0x0(r4)
   80baf:	05 a4                   	b.mov      r13,r4
   80bb1:	61 6b 5b                	b.nand     r11,r11,r11
   80bb4:	05 e5                   	b.mov      r15,r5
   80bb6:	61 6b 18                	b.and      r11,r11,r3
   80bb9:	01 40                   	b.movi     r10,0x0
   80bbb:	01 80                   	b.movi     r12,0x0
   80bbd:	01 c8                   	b.movi     r14,0x1
   80bbf:	0c b0                   	b.j        80bf3 <u8GetChangedButUnnotifiedGroups.16025+0x4a>
   80bc1:	00 e8                   	b.movi     r7,0x1
   80bc3:	60 e7 66                	b.sll      r7,r7,r12
   80bc6:	60 c7 58                	b.and      r6,r7,r11
   80bc9:	40 06 14                	b.beqi     r6,0x0,80bf1 <u8GetChangedButUnnotifiedGroups.16025+0x48>
   80bcc:	2c cd 40                	b.lwz      r6,0x0(r13)
   80bcf:	8c 80 76 e0 00 20       	b.lwz      r4,0x400076c(r0)
   80bd5:	61 6b 3a                	b.xor      r11,r11,r7
   80bd8:	60 e6 39                	b.or       r7,r6,r7
   80bdb:	6c 6a 20                	b.slli     r3,r10,0x4
   80bde:	08 6f                   	b.add      r3,r3,r15
   80be0:	38 a0 08                	b.ori      r5,r0,0x10
   80be3:	01 58                   	b.addi     r10,r10,0x1
   80be5:	2c ed 00                	b.sw       0x0(r13),r7
   80be8:	6c ec 20                	b.slli     r7,r12,0x4
   80beb:	08 87                   	b.add      r4,r4,r7
   80bed:	d4 f6 2f ef             	b.jal      5c <memcpy>
   80bf1:	01 98                   	b.addi     r12,r12,0x1
   80bf3:	3e 0b 3c                	b.ff1      r7,r11
   80bf6:	60 e0 3d                	b.sub      r7,r0,r7
   80bf9:	3c ea c0                	b.sfleui   r10,0x3
   80bfc:	6c e7 f9                	b.srli     r7,r7,0x1f
   80bff:	64 ce 02                	b.cmov     r6,r14,r0
   80c02:	60 e7 30                	b.and      r7,r7,r6
   80c05:	41 07 3d                	b.bnei     r7,0x0,80bc1 <u8GetChangedButUnnotifiedGroups.16025+0x18>
   80c08:	3e 0a 18                	b.extbz    r3,r10
   80c0b:	47 be 80                	b.reti     0x7,0x1

00080c0e <b6LP_HandleRxEvent>:
   80c0e:	8c e0 7c b0 00 20       	b.lwz      r7,0x4000d3c(r0)
   80c14:	47 a8 80                	b.entri    0x1,0x1
   80c17:	2c e7 6c                	b.lwz      r7,0x34(r7)
   80c1a:	47 d1 38                	b.jalr     r7
   80c1d:	00 e8                   	b.movi     r7,0x1
   80c1f:	60 63 3a                	b.xor      r3,r3,r7
   80c22:	3e 03 1c                	b.ff1      r3,r3
   80c25:	00 7f                   	b.addi     r3,r3,-0x1
   80c27:	6c 63 f9                	b.srli     r3,r3,0x1f
   80c2a:	47 b8 80                	b.reti     0x1,0x1

00080c2d <u16IPv6_Truncate32bitChecksumTo16bit>:
   80c2d:	0d 40                   	b.j        80c37 <u16IPv6_Truncate32bitChecksumTo16bit+0xa>
   80c2f:	94 63 ff ff 00 00       	b.andi     r3,r3,0xffff
   80c35:	08 67                   	b.add      r3,r3,r7
   80c37:	6c e3 09                	b.srli     r7,r3,0x10
   80c3a:	41 07 af                	b.bnei     r7,0x0,80c2f <u16IPv6_Truncate32bitChecksumTo16bit+0x2>
   80c3d:	98 e0 ff ff 00 00       	b.ori      r7,r0,0xffff
   80c43:	60 63 1b                	b.nand     r3,r3,r3
   80c46:	3e 03 1a                	b.exthz    r3,r3
   80c49:	3c 23 00                	b.sfnei    r3,0x0
   80c4c:	64 63 3a                	b.cmov     r3,r3,r7
   80c4f:	47 d2 48                	b.jr       r9

00080c52 <u32IPv6_CalculatePayloadDataChecksum>:
   80c52:	6d 04 81                	b.srli     r8,r4,0x1
   80c55:	47 ac 80                	b.entri    0x3,0x1
   80c58:	34 84 80                	b.andi     r4,r4,0x1
   80c5b:	30 c3 80                	b.addi     r6,r3,0x1
   80c5e:	00 a0                   	b.movi     r5,0x0
   80c60:	00 e0                   	b.movi     r7,0x0
   80c62:	0d a0                   	b.j        80c78 <u32IPv6_CalculatePayloadDataChecksum+0x26>
   80c64:	c5 46 bf ff             	b.lbz      r10,-0x3(r6)
   80c68:	c5 66 7f ff             	b.lbz      r11,-0x2(r6)
   80c6c:	6d 4a 10                	b.slli     r10,r10,0x8
   80c6f:	09 4b                   	b.add      r10,r10,r11
   80c71:	3e 0a 52                	b.exthz    r10,r10
   80c74:	00 b8                   	b.addi     r5,r5,0x1
   80c76:	08 ea                   	b.add      r7,r7,r10
   80c78:	00 d4                   	b.addi     r6,r6,0x2
   80c7a:	d3 50 55 7f             	b.bgts     r8,r5,80c64 <u32IPv6_CalculatePayloadDataChecksum+0x12>
   80c7e:	40 04 08                	b.beqi     r4,0x0,80c8e <u32IPv6_CalculatePayloadDataChecksum+0x3c>
   80c81:	6d 08 80                	b.slli     r8,r8,0x1
   80c84:	08 68                   	b.add      r3,r3,r8
   80c86:	24 c3 00                	b.lbz      r6,0x0(r3)
   80c89:	6c c6 10                	b.slli     r6,r6,0x8
   80c8c:	08 e6                   	b.add      r7,r7,r6
   80c8e:	04 67                   	b.mov      r3,r7
   80c90:	47 bc 80                	b.reti     0x3,0x1

00080c93 <u16_6LP_DefGetSizeOfIPv6Record>:
   80c93:	8c e0 7c b0 00 20       	b.lwz      r7,0x4000d3c(r0)
   80c99:	28 67 b9                	b.lhz      r3,0x9c(r7)
   80c9c:	d8 63 db 00             	b.addi     r3,r3,0xdb
   80ca0:	94 63 3f ff 00 00       	b.andi     r3,r3,0xfffc
   80ca6:	47 d2 48                	b.jr       r9

00080ca9 <i6LP_DefCreateInterfaceIdFrom64>:
   80ca9:	3e 04 34                	b.ff1      r6,r4
   80cac:	3e 03 3c                	b.ff1      r7,r3
   80caf:	00 df                   	b.addi     r6,r6,-0x1
   80cb1:	00 ff                   	b.addi     r7,r7,-0x1
   80cb3:	47 a4 00                	b.entri    0x2,0x0
   80cb6:	60 e6 39                	b.or       r7,r6,r7
   80cb9:	05 43                   	b.mov      r10,r3
   80cbb:	45 07 b8                	b.bltsi    r7,0x0,80cd8 <i6LP_DefCreateInterfaceIdFrom64+0x2f>
   80cbe:	38 a0 10                	b.ori      r5,r0,0x8
   80cc1:	d4 d9 cf ef             	b.jal      5c <memcpy>
   80cc5:	2c ca 60                	b.lwz      r6,0x4(r10)
   80cc8:	98 e0 00 00 00 40       	b.ori      r7,r0,0x2000000
   80cce:	60 e6 3a                	b.xor      r7,r6,r7
   80cd1:	00 60                   	b.movi     r3,0x0
   80cd3:	2c ea 20                	b.sw       0x4(r10),r7
   80cd6:	0c 80                   	b.j        80cda <i6LP_DefCreateInterfaceIdFrom64+0x31>
   80cd8:	00 6f                   	b.movi     r3,-0x1
   80cda:	47 b4 00                	b.reti     0x2,0x0

00080cdd <eEUI_CompareWithPrefix>:
   80cdd:	2c e3 40                	b.lwz      r7,0x0(r3)
   80ce0:	9d c7 00 00 01 7f       	b.sfnei    r7,-0x1800000
   80ce6:	47 29 00                	b.bf       80cef <eEUI_CompareWithPrefix+0x12>
   80ce9:	2c c3 60                	b.lwz      r6,0x4(r3)
   80cec:	40 06 d4                	b.beqi     r6,0x0,80d17 <eEUI_CompareWithPrefix+0x3a>
   80cef:	8c c0 7c b0 00 20       	b.lwz      r6,0x4000d3c(r0)
   80cf5:	2c a6 41                	b.lwz      r5,0x80(r6)
   80cf8:	d2 ce 57 00             	b.bne      r7,r5,80d06 <eEUI_CompareWithPrefix+0x29>
   80cfc:	2c a3 60                	b.lwz      r5,0x4(r3)
   80cff:	2c c6 7e                	b.lwz      r6,0x7c(r6)
   80d02:	d2 8a 69 80             	b.beq      r5,r6,80d1b <eEUI_CompareWithPrefix+0x3e>
   80d06:	6c c7 19                	b.srli     r6,r7,0x18
   80d09:	9d c6 ff 00 00 00       	b.sfnei    r6,0xff
   80d0f:	00 ec                   	b.movi     r7,0x3
   80d11:	47 23 00                	b.bf       80d1d <eEUI_CompareWithPrefix+0x40>
   80d14:	46 5f 5f                	b.j        8080e <eEUI_CompareMulticast.1556>
   80d17:	00 e8                   	b.movi     r7,0x1
   80d19:	0c 80                   	b.j        80d1d <eEUI_CompareWithPrefix+0x40>
   80d1b:	00 e4                   	b.movi     r7,0x2
   80d1d:	04 67                   	b.mov      r3,r7
   80d1f:	47 d2 48                	b.jr       r9

00080d22 <eEUI_CompareWithDeviceAddress>:
   80d22:	8c e0 7c b0 00 20       	b.lwz      r7,0x4000d3c(r0)
   80d28:	47 a4 00                	b.entri    0x2,0x0
   80d2b:	24 a7 12                	b.lbz      r5,0x48(r7)
   80d2e:	2c c3 40                	b.lwz      r6,0x0(r3)
   80d31:	41 85 e4                	b.bnei     r5,0x1,80d58 <eEUI_CompareWithDeviceAddress+0x36>
   80d34:	00 a0                   	b.movi     r5,0x0
   80d36:	41 06 38                	b.bnei     r6,0x0,80d52 <eEUI_CompareWithDeviceAddress+0x30>
   80d39:	2c 83 60                	b.lwz      r4,0x4(r3)
   80d3c:	04 a6                   	b.mov      r5,r6
   80d3e:	41 04 28                	b.bnei     r4,0x0,80d52 <eEUI_CompareWithDeviceAddress+0x30>
   80d41:	2c 83 50                	b.lwz      r4,0x8(r3)
   80d44:	41 04 70                	b.bnei     r4,0x0,80d52 <eEUI_CompareWithDeviceAddress+0x30>
   80d47:	2c a3 70                	b.lwz      r5,0xc(r3)
   80d4a:	3e 05 2c                	b.ff1      r5,r5
   80d4d:	00 bf                   	b.addi     r5,r5,-0x1
   80d4f:	6c a5 f9                	b.srli     r5,r5,0x1f
   80d52:	3e 05 28                	b.extbz    r5,r5
   80d55:	41 05 72                	b.bnei     r5,0x0,80da3 <eEUI_CompareWithDeviceAddress+0x81>
   80d58:	6c c6 19                	b.srli     r6,r6,0x18
   80d5b:	9d c6 ff 00 00 00       	b.sfnei    r6,0xff
   80d61:	47 29 00                	b.bf       80d6a <eEUI_CompareWithDeviceAddress+0x48>
   80d64:	47 c4 00                	b.rtnei    0x2,0x0
   80d67:	46 e5 5f                	b.j        8080e <eEUI_CompareMulticast.1556>
   80d6a:	2c a3 50                	b.lwz      r5,0x8(r3)
   80d6d:	2c c7 51                	b.lwz      r6,0x88(r7)
   80d70:	01 40                   	b.movi     r10,0x0
   80d72:	d2 ca 6a 80             	b.bne      r5,r6,80d87 <eEUI_CompareWithDeviceAddress+0x65>
   80d76:	2d 43 70                	b.lwz      r10,0xc(r3)
   80d79:	2c e7 61                	b.lwz      r7,0x84(r7)
   80d7c:	61 4a 3a                	b.xor      r10,r10,r7
   80d7f:	3e 0a 54                	b.ff1      r10,r10
   80d82:	01 5f                   	b.addi     r10,r10,-0x1
   80d84:	6d 4a f9                	b.srli     r10,r10,0x1f
   80d87:	49 ab ff                	b.jal      80cdd <eEUI_CompareWithPrefix>
   80d8a:	00 ec                   	b.movi     r7,0x3
   80d8c:	60 e3 3a                	b.xor      r7,r3,r7
   80d8f:	3e 07 38                	b.extbz    r7,r7
   80d92:	60 e0 3d                	b.sub      r7,r0,r7
   80d95:	6c e7 f9                	b.srli     r7,r7,0x1f
   80d98:	61 4a 38                	b.and      r10,r10,r7
   80d9b:	3c 0a 00                	b.sfeqi    r10,0x0
   80d9e:	64 63 02                	b.cmov     r3,r3,r0
   80da1:	0c 80                   	b.j        80da5 <eEUI_CompareWithDeviceAddress+0x83>
   80da3:	00 60                   	b.movi     r3,0x0
   80da5:	47 b4 00                	b.reti     0x2,0x0

00080da8 <vReturnBuffer.13908>:
   80da8:	a8 c0 88 00 00 00       	b.mfspr    r6,r0,0x11
   80dae:	04 02                   	b.di       
   80db0:	2c a4 40                	b.lwz      r5,0x0(r4)
   80db3:	04 e5                   	b.mov      r7,r5
   80db5:	0f 40                   	b.j        80dc0 <vReturnBuffer.13908+0x18>
   80db7:	d2 c6 76 00             	b.bne      r3,r7,80dbd <vReturnBuffer.13908+0x15>
   80dbb:	0d c0                   	b.j        80dc9 <vReturnBuffer.13908+0x21>
   80dbd:	2c e7 40                	b.lwz      r7,0x0(r7)
   80dc0:	41 07 ef                	b.bnei     r7,0x0,80db7 <vReturnBuffer.13908+0xf>
   80dc3:	2c a3 00                	b.sw       0x0(r3),r5
   80dc6:	2c 64 00                	b.sw       0x0(r4),r3
   80dc9:	a8 c0 88 00 00 01       	b.mtspr    r0,r6,0x11
   80dcf:	47 d2 48                	b.jr       r9

00080dd2 <vMiniMac_ReturnTxBufferCallback>:
   80dd2:	98 80 15 60 00 20       	b.ori      r4,r0,0x40006a8
   80dd8:	0c 2f                   	b.j        80da8 <vReturnBuffer.13908>

00080dda <eOND_DevGetImage>:
   80dda:	84 c0 2c 50 00 20       	b.lbz      r6,0x4000a34(r0)
   80de0:	47 a8 80                	b.entri    0x1,0x1
   80de3:	04 e3                   	b.mov      r7,r3
   80de5:	00 64                   	b.movi     r3,0x2
   80de7:	d3 ce 60 10             	b.bgtu     r7,r6,80e67 <eOND_DevGetImage+0x8d>
   80deb:	d2 ce 63 c0             	b.bne      r7,r6,80e27 <eOND_DevGetImage+0x4d>
   80def:	00 e8                   	b.movi     r7,0x1
   80df1:	20 e4 28                	b.sb       0x14(r4),r7
   80df4:	38 a0 10                	b.ori      r5,r0,0x8
   80df7:	04 64                   	b.mov      r3,r4
   80df9:	8c e0 69 90 00 20       	b.lwz      r7,0x4000994(r0)
   80dff:	28 04 08                	b.sh       0x10(r4),r0
   80e02:	2c e4 10                	b.sw       0x8(r4),r7
   80e05:	88 e0 99 90 00 20       	b.lhz      r7,0x4000998(r0)
   80e0b:	28 e4 30                	b.sh       0xc(r4),r7
   80e0e:	88 e0 d9 90 00 20       	b.lhz      r7,0x400099a(r0)
   80e14:	28 e4 70                	b.sh       0xe(r4),r7
   80e17:	88 e0 85 90 00 20       	b.lhz      r7,0x40009a0(r0)
   80e1d:	28 e4 48                	b.sh       0x12(r4),r7
   80e20:	00 80                   	b.movi     r4,0x0
   80e22:	49 1a 0a                	b.jal      94f84 <memset>
   80e25:	0c 08                   	b.j        80e65 <eOND_DevGetImage+0x8b>
   80e27:	38 60 24                	b.ori      r3,r0,0x24
   80e2a:	64 e7 1b                	b.mul      r7,r7,r3
   80e2d:	8c 60 5c 50 00 20       	b.lwz      r3,0x4000a38(r0)
   80e33:	08 67                   	b.add      r3,r3,r7
   80e35:	24 e3 f8                	b.lbz      r7,0x1f(r3)
   80e38:	20 e4 28                	b.sb       0x14(r4),r7
   80e3b:	2c e3 40                	b.lwz      r7,0x0(r3)
   80e3e:	2c e4 10                	b.sw       0x8(r4),r7
   80e41:	28 e3 a0                	b.lhz      r7,0x4(r3)
   80e44:	28 e4 30                	b.sh       0xc(r4),r7
   80e47:	28 e3 e0                	b.lhz      r7,0x6(r3)
   80e4a:	28 e4 70                	b.sh       0xe(r4),r7
   80e4d:	28 e3 b8                	b.lhz      r7,0x1c(r3)
   80e50:	28 e4 08                	b.sh       0x10(r4),r7
   80e53:	28 e3 a8                	b.lhz      r7,0x14(r3)
   80e56:	28 e4 48                	b.sh       0x12(r4),r7
   80e59:	2c e3 70                	b.lwz      r7,0xc(r3)
   80e5c:	2c e4 00                	b.sw       0x0(r4),r7
   80e5f:	2c e3 48                	b.lwz      r7,0x10(r3)
   80e62:	2c e4 20                	b.sw       0x4(r4),r7
   80e65:	00 60                   	b.movi     r3,0x0
   80e67:	47 b8 80                	b.reti     0x1,0x1

00080e6a <vUpdateImageValues.8667.1662>:
   80e6a:	84 e0 99 60 00 20       	b.lbz      r7,0x4000699(r0)
   80e70:	47 ac e0                	b.entri    0x3,0x7
   80e73:	9d 87 ff 00 00 00       	b.sfeqi    r7,0xff
   80e79:	47 38 20                	b.bnf      80eba <vUpdateImageValues.8667.1662+0x50>
   80e7c:	0f d0                   	b.j        80eab <vUpdateImageValues.8667.1662+0x41>
   80e7e:	24 e1 28                	b.lbz      r7,0x14(r1)
   80e81:	41 87 64                	b.bnei     r7,0x1,80ea7 <vUpdateImageValues.8667.1662+0x3d>
   80e84:	2c e1 50                	b.lwz      r7,0x8(r1)
   80e87:	81 60 99 60 00 20       	b.sb       0x4000699(r0),r11
   80e8d:	8c e0 09 60 00 20       	b.sw       0x4000690(r0),r7
   80e93:	28 e1 b0                	b.lhz      r7,0xc(r1)
   80e96:	88 e0 69 60 00 20       	b.sh       0x4000696(r0),r7
   80e9c:	28 e1 f0                	b.lhz      r7,0xe(r1)
   80e9f:	88 e0 29 60 00 20       	b.sh       0x4000694(r0),r7
   80ea5:	0e a0                   	b.j        80eba <vUpdateImageValues.8667.1662+0x50>
   80ea7:	01 58                   	b.addi     r10,r10,0x1
   80ea9:	0c 80                   	b.j        80ead <vUpdateImageValues.8667.1662+0x43>
   80eab:	01 40                   	b.movi     r10,0x0
   80ead:	3e 0a 58                	b.extbz    r11,r10
   80eb0:	04 81                   	b.mov      r4,r1
   80eb2:	04 6b                   	b.mov      r3,r11
   80eb4:	49 93 ff                	b.jal      80dda <eOND_DevGetImage>
   80eb7:	41 43 e3                	b.bnei     r3,0x2,80e7e <vUpdateImageValues.8667.1662+0x14>
   80eba:	47 bc e0                	b.reti     0x3,0x7

00080ebd <vGetImage32.8677>:
   80ebd:	47 a8 c0                	b.entri    0x1,0x3
   80ec0:	2c 61 20                	b.sw       0x4(r1),r3
   80ec3:	2c 81 00                	b.sw       0x0(r1),r4
   80ec6:	48 97 ff                	b.jal      80e6a <vUpdateImageValues.8667.1662>
   80ec9:	2c 61 60                	b.lwz      r3,0x4(r1)
   80ecc:	2c 81 40                	b.lwz      r4,0x0(r1)
   80ecf:	00 a2                   	b.movi     r5,0x4
   80ed1:	00 c0                   	b.movi     r6,0x0
   80ed3:	47 c8 c0                	b.rtnei    0x1,0x3
   80ed6:	d5 70 6b 00             	b.j        8e4e4 <eJIP_PacketAddData>

00080eda <vGetImage16.8673>:
   80eda:	47 a8 c0                	b.entri    0x1,0x3
   80edd:	2c 61 20                	b.sw       0x4(r1),r3
   80ee0:	2c 81 00                	b.sw       0x0(r1),r4
   80ee3:	4b 87 ff                	b.jal      80e6a <vUpdateImageValues.8667.1662>
   80ee6:	2c 61 60                	b.lwz      r3,0x4(r1)
   80ee9:	2c 81 40                	b.lwz      r4,0x0(r1)
   80eec:	00 a4                   	b.movi     r5,0x2
   80eee:	00 c0                   	b.movi     r6,0x0
   80ef0:	47 c8 c0                	b.rtnei    0x1,0x3
   80ef3:	d5 8f ab 00             	b.j        8e4e4 <eJIP_PacketAddData>

00080ef7 <vGetImage8.8669>:
   80ef7:	47 a8 c0                	b.entri    0x1,0x3
   80efa:	2c 61 20                	b.sw       0x4(r1),r3
   80efd:	2c 81 00                	b.sw       0x0(r1),r4
   80f00:	49 5b ff                	b.jal      80e6a <vUpdateImageValues.8667.1662>
   80f03:	2c 61 60                	b.lwz      r3,0x4(r1)
   80f06:	2c 81 40                	b.lwz      r4,0x0(r1)
   80f09:	00 a8                   	b.movi     r5,0x1
   80f0b:	00 c0                   	b.movi     r6,0x0
   80f0d:	47 c8 c0                	b.rtnei    0x1,0x3
   80f10:	d5 2b ab 00             	b.j        8e4e4 <eJIP_PacketAddData>

00080f14 <vFillBlockBitmap.13166>:
   80f14:	47 a2 00                	b.entri    0x4,0x0
   80f17:	d9 80 00 08             	b.addi     r12,r0,0x1000
   80f1b:	9f 44 00 08 00 00       	b.sfleui   r4,0x1000
   80f21:	65 84 62                	b.cmov     r12,r4,r12
   80f24:	3e 0c 52                	b.exthz    r10,r12
   80f27:	6d 4a c1                	b.srli     r10,r10,0x3
   80f2a:	05 63                   	b.mov      r11,r3
   80f2c:	00 80                   	b.movi     r4,0x0
   80f2e:	04 aa                   	b.mov      r5,r10
   80f30:	48 a8 0a                	b.jal      94f84 <memset>
   80f33:	d8 a0 00 40             	b.addi     r5,r0,0x200
   80f37:	09 6a                   	b.add      r11,r11,r10
   80f39:	38 80 ff                	b.ori      r4,r0,0xff
   80f3c:	60 a5 55                	b.sub      r5,r5,r10
   80f3f:	04 6b                   	b.mov      r3,r11
   80f41:	4b 08 0a                	b.jal      94f84 <memset>
   80f44:	35 8c e0                	b.andi     r12,r12,0x7
   80f47:	38 e0 ff                	b.ori      r7,r0,0xff
   80f4a:	61 87 66                	b.sll      r12,r7,r12
   80f4d:	21 8b 00                	b.sb       0x0(r11),r12
   80f50:	47 b2 00                	b.reti     0x4,0x0

00080f53 <vOND_GenerateEvent>:
   80f53:	84 e0 c7 90 00 20       	b.lbz      r7,0x40009e3(r0)
   80f59:	47 a8 80                	b.entri    0x1,0x1
   80f5c:	d2 28 7f 00             	b.bleui    r7,0x5,80f6b <vOND_GenerateEvent+0x18>
   80f60:	90 e3 3f 00 10 00       	b.addi     r7,r3,0x800fc
   80f66:	24 e7 14                	b.lbz      r7,0x28(r7)
   80f69:	0c 20                   	b.j        80f79 <vOND_GenerateEvent+0x26>
   80f6b:	6c e7 c0                	b.slli     r7,r7,0x3
   80f6e:	08 e3                   	b.add      r7,r7,r3
   80f70:	90 e7 3f 00 10 00       	b.addi     r7,r7,0x800fc
   80f76:	24 e7 00                	b.lbz      r7,0x0(r7)
   80f79:	9d 87 ff 00 00 00       	b.sfeqi    r7,0xff
   80f7f:	47 24 80                	b.bf       80f91 <vOND_GenerateEvent+0x3e>
   80f82:	6c e7 40                	b.slli     r7,r7,0x2
   80f85:	90 e7 22 20 10 00       	b.addi     r7,r7,0x80444
   80f8b:	2c e7 40                	b.lwz      r7,0x0(r7)
   80f8e:	47 d1 38                	b.jalr     r7
   80f91:	47 b8 80                	b.reti     0x1,0x1

00080f94 <eStartDownload.8656>:
   80f94:	47 a4 60                	b.entri    0x2,0x6
   80f97:	8c 80 49 60 00 20       	b.lwz      r4,0x4000690(r0)
   80f9d:	88 60 e9 60 00 20       	b.lhz      r3,0x4000696(r0)
   80fa3:	89 00 a9 60 00 20       	b.lhz      r8,0x4000694(r0)
   80fa9:	84 a0 2c 50 00 20       	b.lbz      r5,0x4000a34(r0)
   80faf:	8c c0 5c 50 00 20       	b.lwz      r6,0x4000a38(r0)
   80fb5:	00 e0                   	b.movi     r7,0x0
   80fb7:	0e 30                   	b.j        80fe8 <eStartDownload.8656+0x54>
   80fb9:	30 c6 24                	b.addi     r6,r6,0x24
   80fbc:	c5 46 df ff             	b.lbz      r10,-0x5(r6)
   80fc0:	41 0a 64                	b.bnei     r10,0x0,80fe6 <eStartDownload.8656+0x52>
   80fc3:	00 e4                   	b.movi     r7,0x2
   80fc5:	2c 81 10                	b.sw       0x8(r1),r4
   80fc8:	38 a0 28                	b.ori      r5,r0,0x14
   80fcb:	30 81 20                	b.addi     r4,r1,0x4
   80fce:	28 61 30                	b.sh       0xc(r1),r3
   80fd1:	00 6e                   	b.movi     r3,0x7
   80fd3:	20 e1 20                	b.sb       0x4(r1),r7
   80fd6:	29 01 70                	b.sh       0xe(r1),r8
   80fd9:	2c 01 08                	b.sw       0x10(r1),r0
   80fdc:	2c 01 28                	b.sw       0x14(r1),r0
   80fdf:	48 bb ff                	b.jal      80f53 <vOND_GenerateEvent>
   80fe2:	00 60                   	b.movi     r3,0x0
   80fe4:	0f 40                   	b.j        80fef <eStartDownload.8656+0x5b>
   80fe6:	00 f8                   	b.addi     r7,r7,0x1
   80fe8:	d3 4a 78 bf             	b.bgts     r5,r7,80fb9 <eStartDownload.8656+0x25>
   80fec:	38 60 ff                	b.ori      r3,r0,0xff
   80fef:	47 b4 60                	b.reti     0x2,0x6

00080ff2 <eLoadImage.8652>:
   80ff2:	84 c0 2c 50 00 20       	b.lbz      r6,0x4000a34(r0)
   80ff8:	47 a8 e0                	b.entri    0x1,0x7
   80ffb:	04 e3                   	b.mov      r7,r3
   80ffd:	38 60 ff                	b.ori      r3,r0,0xff
   81000:	d3 8e 6b 40             	b.bgeu     r7,r6,8102d <eLoadImage.8652+0x3b>
   81004:	38 c0 24                	b.ori      r6,r0,0x24
   81007:	64 c7 33                	b.mul      r6,r7,r6
   8100a:	8c a0 5c 50 00 20       	b.lwz      r5,0x4000a38(r0)
   81010:	08 c5                   	b.add      r6,r6,r5
   81012:	24 c6 f8                	b.lbz      r6,0x1f(r6)
   81015:	41 c6 18                	b.bnei     r6,0x3,8102d <eLoadImage.8652+0x3b>
   81018:	00 c8                   	b.movi     r6,0x1
   8101a:	30 81 20                	b.addi     r4,r1,0x4
   8101d:	38 a0 28                	b.ori      r5,r0,0x14
   81020:	00 6e                   	b.movi     r3,0x7
   81022:	20 c1 20                	b.sb       0x4(r1),r6
   81025:	20 e1 10                	b.sb       0x8(r1),r7
   81028:	4b 53 ff                	b.jal      80f53 <vOND_GenerateEvent>
   8102b:	00 60                   	b.movi     r3,0x0
   8102d:	47 b8 e0                	b.reti     0x1,0x7

00081030 <vStartBlockTimer.13210>:
   81030:	47 ac 80                	b.entri    0x3,0x1
   81033:	28 e3 b8                	b.lhz      r7,0x1c(r3)
   81036:	2c 03 18                	b.sw       0x18(r3),r0
   81039:	05 43                   	b.mov      r10,r3
   8103b:	20 03 78                	b.sb       0x1e(r3),r0
   8103e:	05 64                   	b.mov      r11,r4
   81040:	40 07 8c                	b.beqi     r7,0x0,81071 <vStartBlockTimer.13210+0x41>
   81043:	2c e3 50                	b.lwz      r7,0x8(r3)
   81046:	38 60 26                	b.ori      r3,r0,0x64
   81049:	d0 3e 78 80             	b.beqi     r7,-0x1,8105a <vStartBlockTimer.13210+0x2a>
   8104d:	94 67 ff ff ff fe       	f.abs.s    r3,r7
   81053:	d8 80 8e 40             	b.addi     r4,r0,0x271
   81057:	4a 27 f2                	b.jal      94fe8 <__udivsi3>
   8105a:	40 0b 10                	b.beqi     r11,0x0,81062 <vStartBlockTimer.13210+0x32>
   8105d:	00 ea                   	b.movi     r7,0x5
   8105f:	64 63 3b                	b.mul      r3,r3,r7
   81062:	24 ea 04                	b.lbz      r7,0x20(r10)
   81065:	6c e7 41                	b.srli     r7,r7,0x2
   81068:	60 63 3e                	b.sll      r3,r3,r7
   8106b:	40 03 60                	b.beqi     r3,0x0,81071 <vStartBlockTimer.13210+0x41>
   8106e:	2c 6a 18                	b.sw       0x18(r10),r3
   81071:	47 bc 80                	b.reti     0x3,0x1

00081074 <u8DetermineFlashSize.13160>:
   81074:	8c e0 40 a8 00 80       	b.lwz      r7,0x1001500(r0)
   8107a:	00 60                   	b.movi     r3,0x0
   8107c:	34 e7 e0                	b.andi     r7,r7,0x7
   8107f:	41 e7 98                	b.bnei     r7,0x7,81098 <u8DetermineFlashSize.13160+0x24>
   81082:	cc f0 77 01             	b.lwz      r7,-0x7f14(r16)
   81086:	34 e7 f0                	b.andi     r7,r7,0xf
   81089:	00 68                   	b.movi     r3,0x1
   8108b:	40 07 b0                	b.beqi     r7,0x0,81098 <u8DetermineFlashSize.13160+0x24>
   8108e:	98 e0 2a 6e 08 4c       	b.ori      r7,r0,0x32107654
   81094:	cc f0 37 01             	b.sw       -0x7f14(r16),r7
   81098:	47 d2 48                	b.jr       r9

0008109b <psSearchDatabase.12745>:
   8109b:	8c e0 51 e0 00 20       	b.lwz      r7,0x4000788(r0)
   810a1:	00 c0                   	b.movi     r6,0x0
   810a3:	2d 07 40                	b.lwz      r8,0x0(r7)
   810a6:	04 a7                   	b.mov      r5,r7
   810a8:	d2 c6 8d 00             	b.bne      r3,r8,810b3 <psSearchDatabase.12745+0x18>
   810ac:	2d 07 60                	b.lwz      r8,0x4(r7)
   810af:	d2 88 88 80             	b.beq      r4,r8,810c0 <psSearchDatabase.12745+0x25>
   810b3:	00 d8                   	b.addi     r6,r6,0x1
   810b5:	30 e7 38                	b.addi     r7,r7,0x1c
   810b8:	3c 26 50                	b.sfnei    r6,0xa
   810bb:	47 21 7f                	b.bf       810a3 <psSearchDatabase.12745+0x8>
   810be:	00 a0                   	b.movi     r5,0x0
   810c0:	04 65                   	b.mov      r3,r5
   810c2:	47 d2 48                	b.jr       r9

000810c5 <vSecurityUpdateKey>:
   810c5:	38 a0 28                	b.ori      r5,r0,0x14
   810c8:	64 a3 2b                	b.mul      r5,r3,r5
   810cb:	2d 04 40                	b.lwz      r8,0x0(r4)
   810ce:	90 e5 11 50 00 20       	b.addi     r7,r5,0x4000a88
   810d4:	90 a5 19 50 00 20       	b.addi     r5,r5,0x4000a98
   810da:	2d 07 00                	b.sw       0x0(r7),r8
   810dd:	2d 04 60                	b.lwz      r8,0x4(r4)
   810e0:	2c c4 70                	b.lwz      r6,0xc(r4)
   810e3:	2d 07 20                	b.sw       0x4(r7),r8
   810e6:	2d 04 50                	b.lwz      r8,0x8(r4)
   810e9:	2c c7 30                	b.sw       0xc(r7),r6
   810ec:	2d 07 10                	b.sw       0x8(r7),r8
   810ef:	30 e3 80                	b.addi     r7,r3,0x1
   810f2:	28 e5 00                	b.sh       0x0(r5),r7
   810f5:	41 03 28                	b.bnei     r3,0x0,81109 <vSecurityUpdateKey+0x44>
   810f8:	8c 60 4c b0 00 20       	b.lwz      r3,0x4000d30(r0)
   810fe:	38 a0 08                	b.ori      r5,r0,0x10
   81101:	d8 63 11 80             	b.addi     r3,r3,0x188
   81105:	d5 ea f7 ef             	b.j        5c <memcpy>
   81109:	47 d2 48                	b.jr       r9

0008110c <vApi_SetNwkKey>:
   8110c:	47 a4 00                	b.entri    0x2,0x0
   8110f:	05 43                   	b.mov      r10,r3
   81111:	48 b7 ff                	b.jal      810c5 <vSecurityUpdateKey>
   81114:	8c e0 4c b0 00 20       	b.lwz      r7,0x4000d30(r0)
   8111a:	01 58                   	b.addi     r10,r10,0x1
   8111c:	c1 47 59 80             	b.sb       0x19a(r7),r10
   81120:	47 b4 00                	b.reti     0x2,0x0

00081123 <MibNwkSecurity_vSetSecurityKey.part.1.2982>:
   81123:	6c 83 20                	b.slli     r4,r3,0x4
   81126:	90 84 2f d0 00 20       	b.addi     r4,r4,0x4000bf4
   8112c:	00 ef                   	b.movi     r7,-0x1
   8112e:	00 60                   	b.movi     r3,0x0
   81130:	88 e0 35 50 00 20       	b.sh       0x4000aac(r0),r7
   81136:	0d af                   	b.j        8110c <vApi_SetNwkKey>

00081138 <u8SecurityIsNeighbour>:
   81138:	8c c0 6a 20 00 20       	b.lwz      r6,0x4000454(r0)
   8113e:	04 e3                   	b.mov      r7,r3
   81140:	24 66 00                	b.lbz      r3,0x0(r6)
   81143:	38 a0 30                	b.ori      r5,r0,0xc
   81146:	00 74                   	b.addi     r3,r3,0x2
   81148:	3e 03 18                	b.extbz    r3,r3
   8114b:	0d 50                   	b.j        81175 <u8SecurityIsNeighbour+0x3d>
   8114d:	64 c3 2b                	b.mul      r6,r3,r5
   81150:	2d 07 40                	b.lwz      r8,0x0(r7)
   81153:	90 86 10 10 00 20       	b.addi     r4,r6,0x4000808
   81159:	2c 84 40                	b.lwz      r4,0x0(r4)
   8115c:	d2 d0 42 80             	b.bne      r8,r4,81170 <u8SecurityIsNeighbour+0x38>
   81160:	90 c6 30 10 00 20       	b.addi     r6,r6,0x400080c
   81166:	2c 87 60                	b.lwz      r4,0x4(r7)
   81169:	2c c6 40                	b.lwz      r6,0x0(r6)
   8116c:	d2 88 64 80             	b.beq      r4,r6,8117e <u8SecurityIsNeighbour+0x46>
   81170:	00 78                   	b.addi     r3,r3,0x1
   81172:	3e 03 18                	b.extbz    r3,r3
   81175:	3c e3 98                	b.sfleui   r3,0x19
   81178:	47 2a bf                	b.bf       8114d <u8SecurityIsNeighbour+0x15>
   8117b:	38 60 ff                	b.ori      r3,r0,0xff
   8117e:	47 d2 48                	b.jr       r9

00081181 <u8SecurityFreeEntry>:
   81181:	8c e0 6a 20 00 20       	b.lwz      r7,0x4000454(r0)
   81187:	47 a4 00                	b.entri    0x2,0x0
   8118a:	24 c7 00                	b.lbz      r6,0x0(r7)
   8118d:	38 80 30                	b.ori      r4,r0,0xc
   81190:	00 e0                   	b.movi     r7,0x0
   81192:	64 86 23                	b.mul      r4,r6,r4
   81195:	30 a6 40                	b.addi     r5,r6,0x2
   81198:	90 84 10 10 00 20       	b.addi     r4,r4,0x4000808
   8119e:	39 00 30                	b.ori      r8,r0,0xc
   811a1:	0d 60                   	b.j        811bb <u8SecurityFreeEntry+0x3a>
   811a3:	64 c7 43                	b.mul      r6,r7,r8
   811a6:	08 c4                   	b.add      r6,r6,r4
   811a8:	2d 46 58                	b.lwz      r10,0x18(r6)
   811ab:	41 0a 70                	b.bnei     r10,0x0,811b9 <u8SecurityFreeEntry+0x38>
   811ae:	2c c6 78                	b.lwz      r6,0x1c(r6)
   811b1:	41 06 10                	b.bnei     r6,0x0,811b9 <u8SecurityFreeEntry+0x38>
   811b4:	3e 03 18                	b.extbz    r3,r3
   811b7:	0c 20                   	b.j        811c7 <u8SecurityFreeEntry+0x46>
   811b9:	00 f8                   	b.addi     r7,r7,0x1
   811bb:	60 65 3c                	b.add      r3,r5,r7
   811be:	3c c3 98                	b.sflesi   r3,0x19
   811c1:	47 24 7f                	b.bf       811a3 <u8SecurityFreeEntry+0x22>
   811c4:	38 60 ff                	b.ori      r3,r0,0xff
   811c7:	47 b4 00                	b.reti     0x2,0x0

000811ca <vInterrupt_Resume>:
   811ca:	8c e0 7f c0 00 20       	b.lwz      r7,0x40003fc(r0)
   811d0:	40 07 34                	b.beqi     r7,0x0,811fc <vInterrupt_Resume+0x32>
   811d3:	8c e0 7f c0 00 20       	b.lwz      r7,0x40003fc(r0)
   811d9:	00 ff                   	b.addi     r7,r7,-0x1
   811db:	8c e0 3f c0 00 20       	b.sw       0x40003fc(r0),r7
   811e1:	41 07 d8                	b.bnei     r7,0x0,811fc <vInterrupt_Resume+0x32>
   811e4:	a8 c0 88 00 00 00       	b.mfspr    r6,r0,0x11
   811ea:	8c e0 60 20 00 20       	b.lwz      r7,0x4000404(r0)
   811f0:	34 e7 60                	b.andi     r7,r7,0x6
   811f3:	60 e6 39                	b.or       r7,r6,r7
   811f6:	a8 e0 88 00 00 01       	b.mtspr    r0,r7,0x11
   811fc:	47 d2 48                	b.jr       r9

000811ff <vInterrupt_Suspend>:
   811ff:	8c e0 7f c0 00 20       	b.lwz      r7,0x40003fc(r0)
   81205:	30 c7 80                	b.addi     r6,r7,0x1
   81208:	8c c0 3f c0 00 20       	b.sw       0x40003fc(r0),r6
   8120e:	41 07 e4                	b.bnei     r7,0x0,81235 <vInterrupt_Suspend+0x36>
   81211:	a8 e0 88 00 00 00       	b.mfspr    r7,r0,0x11
   81217:	8c e0 20 20 00 20       	b.sw       0x4000404(r0),r7
   8121d:	34 e7 60                	b.andi     r7,r7,0x6
   81220:	40 07 a8                	b.beqi     r7,0x0,81235 <vInterrupt_Suspend+0x36>
   81223:	a8 e0 88 00 00 00       	b.mfspr    r7,r0,0x11
   81229:	94 e7 9f ff ff ff       	b.andi     r7,r7,0xfffffff9
   8122f:	a8 e0 88 00 00 01       	b.mtspr    r0,r7,0x11
   81235:	47 d2 48                	b.jr       r9

00081238 <eJIP_RegisterMib>:
   81238:	84 e0 02 60 00 20       	b.lbz      r7,0x4000640(r0)
   8123e:	47 a4 00                	b.entri    0x2,0x0
   81241:	9d 87 ff 00 00 00       	b.sfeqi    r7,0xff
   81247:	05 43                   	b.mov      r10,r3
   81249:	38 60 ff                	b.ori      r3,r0,0xff
   8124c:	47 24 20                	b.bf       8128e <eJIP_RegisterMib+0x56>
   8124f:	2c ea 50                	b.lwz      r7,0x8(r10)
   81252:	40 07 3c                	b.beqi     r7,0x0,8128e <eJIP_RegisterMib+0x56>
   81255:	49 57 ff                	b.jal      811ff <vInterrupt_Suspend>
   81258:	8c e0 5f c0 00 20       	b.lwz      r7,0x40003f8(r0)
   8125e:	41 07 d0                	b.bnei     r7,0x0,81269 <eJIP_RegisterMib+0x31>
   81261:	8d 40 1f c0 00 20       	b.sw       0x40003f8(r0),r10
   81267:	0f 40                   	b.j        81272 <eJIP_RegisterMib+0x3a>
   81269:	8c e0 40 20 00 20       	b.lwz      r7,0x4000400(r0)
   8126f:	2d 47 00                	b.sw       0x0(r7),r10
   81272:	84 e0 02 60 00 20       	b.lbz      r7,0x4000640(r0)
   81278:	8d 40 00 20 00 20       	b.sw       0x4000400(r0),r10
   8127e:	20 ea 30                	b.sb       0xc(r10),r7
   81281:	00 f8                   	b.addi     r7,r7,0x1
   81283:	80 e0 02 60 00 20       	b.sb       0x4000640(r0),r7
   81289:	4a 0b ff                	b.jal      811ca <vInterrupt_Resume>
   8128c:	00 60                   	b.movi     r3,0x0
   8128e:	47 b4 00                	b.reti     0x2,0x0

00081291 <iNed_StopTimerVect>:
   81291:	47 a8 c0                	b.entri    0x1,0x3
   81294:	2c 61 20                	b.sw       0x4(r1),r3
   81297:	48 5b ff                	b.jal      811ff <vInterrupt_Suspend>
   8129a:	2c 61 60                	b.lwz      r3,0x4(r1)
   8129d:	8c e0 74 b0 00 20       	b.lwz      r7,0x4000d2c(r0)
   812a3:	30 63 68                	b.addi     r3,r3,0x16
   812a6:	6c 63 20                	b.slli     r3,r3,0x4
   812a9:	08 67                   	b.add      r3,r3,r7
   812ab:	2c 03 20                	b.sw       0x4(r3),r0
   812ae:	48 e3 ff                	b.jal      811ca <vInterrupt_Resume>
   812b1:	00 60                   	b.movi     r3,0x0
   812b3:	47 b8 c0                	b.reti     0x1,0x3

000812b6 <u16GetNextHopVect>:
   812b6:	8c e0 4c b0 00 20       	b.lwz      r7,0x4000d30(r0)
   812bc:	00 78                   	b.addi     r3,r3,0x1
   812be:	47 ac 80                	b.entri    0x3,0x1
   812c1:	3e 03 1a                	b.exthz    r3,r3
   812c4:	28 c7 9f                	b.lhz      r6,0xf8(r7)
   812c7:	8d 00 56 20 00 20       	b.lwz      r8,0x4000468(r0)
   812cd:	0f 50                   	b.j        812f8 <u16GetNextHopVect+0x42>
   812cf:	2d 48 54                	b.lwz      r10,0x28(r8)
   812d2:	6c e3 20                	b.slli     r7,r3,0x4
   812d5:	08 ea                   	b.add      r7,r7,r10
   812d7:	2d 67 60                	b.lwz      r11,0x4(r7)
   812da:	2d 44 60                	b.lwz      r10,0x4(r4)
   812dd:	d2 d6 a6 80             	b.bne      r11,r10,812f3 <u16GetNextHopVect+0x3d>
   812e1:	2d 67 40                	b.lwz      r11,0x0(r7)
   812e4:	2d 44 40                	b.lwz      r10,0x0(r4)
   812e7:	d2 d6 a3 00             	b.bne      r11,r10,812f3 <u16GetNextHopVect+0x3d>
   812eb:	24 e7 10                	b.lbz      r7,0x8(r7)
   812ee:	20 e5 00                	b.sb       0x0(r5),r7
   812f1:	0e 20                   	b.j        81302 <u16GetNextHopVect+0x4c>
   812f3:	00 78                   	b.addi     r3,r3,0x1
   812f5:	3e 03 1a                	b.exthz    r3,r3
   812f8:	d3 cc 3e bf             	b.bgtu     r6,r3,812cf <u16GetNextHopVect+0x19>
   812fc:	98 60 ff ff 00 00       	b.ori      r3,r0,0xffff
   81302:	47 bc 80                	b.reti     0x3,0x1

00081305 <vSwap.11084>:
   81305:	47 aa a0                	b.entri    0x5,0x5
   81308:	8d 60 56 20 00 20       	b.lwz      r11,0x4000468(r0)
   8130e:	6c 63 20                	b.slli     r3,r3,0x4
   81311:	38 a0 08                	b.ori      r5,r0,0x10
   81314:	05 44                   	b.mov      r10,r4
   81316:	2d 8b 54                	b.lwz      r12,0x28(r11)
   81319:	6d 4a 20                	b.slli     r10,r10,0x4
   8131c:	61 ac 1c                	b.add      r13,r12,r3
   8131f:	04 8d                   	b.mov      r4,r13
   81321:	04 61                   	b.mov      r3,r1
   81323:	d4 9c b7 ef             	b.jal      5c <memcpy>
   81327:	60 8c 54                	b.add      r4,r12,r10
   8132a:	38 a0 08                	b.ori      r5,r0,0x10
   8132d:	04 6d                   	b.mov      r3,r13
   8132f:	d4 b4 b7 ef             	b.jal      5c <memcpy>
   81333:	2c 6b 54                	b.lwz      r3,0x28(r11)
   81336:	38 a0 08                	b.ori      r5,r0,0x10
   81339:	08 6a                   	b.add      r3,r3,r10
   8133b:	04 81                   	b.mov      r4,r1
   8133d:	d4 f8 b7 ef             	b.jal      5c <memcpy>
   81341:	47 ba a0                	b.reti     0x5,0x5

00081344 <bNwk_GetNextHopAddressVect>:
   81344:	8c e0 4c b0 00 20       	b.lwz      r7,0x4000d30(r0)
   8134a:	47 a8 80                	b.entri    0x1,0x1
   8134d:	c4 c7 a6 80             	b.lbz      r6,0x165(r7)
   81351:	41 46 90                	b.bnei     r6,0x2,8135a <bNwk_GetNextHopAddressVect+0x16>
   81354:	d8 87 16 80             	b.addi     r4,r7,0x168
   81358:	0e e0                   	b.j        81375 <bNwk_GetNextHopAddressVect+0x31>
   8135a:	9d 84 ff 00 00 00       	b.sfeqi    r4,0xff
   81360:	47 23 40                	b.bf       8138c <bNwk_GetNextHopAddressVect+0x48>
   81363:	8c e0 62 50 00 20       	b.lwz      r7,0x4000a44(r0)
   81369:	6c 84 a0                	b.slli     r4,r4,0x5
   8136c:	08 87                   	b.add      r4,r4,r7
   8136e:	24 e4 90                	b.lbz      r7,0x9(r4)
   81371:	d1 d0 7f 00             	b.bgtui    r7,0x2,81380 <bNwk_GetNextHopAddressVect+0x3c>
   81375:	38 a0 10                	b.ori      r5,r0,0x8
   81378:	d4 27 37 ef             	b.jal      5c <memcpy>
   8137c:	00 68                   	b.movi     r3,0x1
   8137e:	0d 10                   	b.j        813a0 <bNwk_GetNextHopAddressVect+0x5c>
   81380:	38 a0 10                	b.ori      r5,r0,0x8
   81383:	00 80                   	b.movi     r4,0x0
   81385:	4b ff 72                	b.jal      94f84 <memset>
   81388:	00 60                   	b.movi     r3,0x0
   8138a:	0d a0                   	b.j        813a0 <bNwk_GetNextHopAddressVect+0x5c>
   8138c:	d8 87 16 80             	b.addi     r4,r7,0x168
   81390:	38 a0 10                	b.ori      r5,r0,0x8
   81393:	d4 93 37 ef             	b.jal      5c <memcpy>
   81397:	8c e0 4c b0 00 20       	b.lwz      r7,0x4000d30(r0)
   8139d:	24 67 83                	b.lbz      r3,0xc1(r7)
   813a0:	47 b8 80                	b.reti     0x1,0x1

000813a3 <bApi_GetNeighbourTableEntry>:
   813a3:	8c a0 4c b0 00 20       	b.lwz      r5,0x4000d30(r0)
   813a9:	47 ac 80                	b.entri    0x3,0x1
   813ac:	8c e0 62 50 00 20       	b.lwz      r7,0x4000a44(r0)
   813b2:	24 c5 4b                	b.lbz      r6,0xd2(r5)
   813b5:	05 44                   	b.mov      r10,r4
   813b7:	c4 e7 84 40             	b.lbz      r7,0x221(r7)
   813bb:	40 06 a0                	b.beqi     r6,0x0,813c0 <bApi_GetNeighbourTableEntry+0x1d>
   813be:	0c 80                   	b.j        813c2 <bApi_GetNeighbourTableEntry+0x1f>
   813c0:	00 f8                   	b.addi     r7,r7,0x1
   813c2:	20 ea 80                	b.sb       0x1(r10),r7
   813c5:	00 e0                   	b.movi     r7,0x0
   813c7:	8c c0 62 50 00 20       	b.lwz      r6,0x4000a44(r0)
   813cd:	c4 86 84 40             	b.lbz      r4,0x221(r6)
   813d1:	d3 c6 4d 90             	b.bgtu     r3,r4,8146c <bApi_GetNeighbourTableEntry+0xc9>
   813d5:	41 03 dc                	b.bnei     r3,0x0,81410 <bApi_GetNeighbourTableEntry+0x6d>
   813d8:	24 c5 4b                	b.lbz      r6,0xd2(r5)
   813db:	d0 40 68 90             	b.bnei     r6,0x0,8146c <bApi_GetNeighbourTableEntry+0xc9>
   813df:	20 0a 00                	b.sb       0x0(r10),r0
   813e2:	30 6a 20                	b.addi     r3,r10,0x4
   813e5:	38 80 ff                	b.ori      r4,r0,0xff
   813e8:	48 eb ff                	b.jal      81344 <bNwk_GetNextHopAddressVect>
   813eb:	8c e0 4c b0 00 20       	b.lwz      r7,0x4000d30(r0)
   813f1:	20 0a 30                	b.sb       0xc(r10),r0
   813f4:	24 c7 23                	b.lbz      r6,0xc4(r7)
   813f7:	20 ca b0                	b.sb       0xd(r10),r6
   813fa:	28 c7 e3                	b.lhz      r6,0xc6(r7)
   813fd:	28 ca 70                	b.sh       0xe(r10),r6
   81400:	28 c7 93                	b.lhz      r6,0xc8(r7)
   81403:	28 ca 08                	b.sh       0x10(r10),r6
   81406:	28 e7 d3                	b.lhz      r7,0xca(r7)
   81409:	28 ea 48                	b.sh       0x12(r10),r7
   8140c:	00 ef                   	b.movi     r7,-0x1
   8140e:	0c 48                   	b.j        81456 <bApi_GetNeighbourTableEntry+0xb3>
   81410:	00 e8                   	b.movi     r7,0x1
   81412:	01 60                   	b.movi     r11,0x0
   81414:	24 a6 90                	b.lbz      r5,0x9(r6)
   81417:	41 45 12                	b.bnei     r5,0x2,8145f <bApi_GetNeighbourTableEntry+0xbc>
   8141a:	d2 ce 3c 20             	b.bne      r7,r3,8145d <bApi_GetNeighbourTableEntry+0xba>
   8141e:	20 ea 00                	b.sb       0x0(r10),r7
   81421:	30 6a 20                	b.addi     r3,r10,0x4
   81424:	3e 0b 20                	b.extbz    r4,r11
   81427:	4a e3 ff                	b.jal      81344 <bNwk_GetNextHopAddressVect>
   8142a:	8c e0 62 50 00 20       	b.lwz      r7,0x4000a44(r0)
   81430:	6d 6b a0                	b.slli     r11,r11,0x5
   81433:	08 eb                   	b.add      r7,r7,r11
   81435:	24 c7 10                	b.lbz      r6,0x8(r7)
   81438:	20 ca 30                	b.sb       0xc(r10),r6
   8143b:	24 c7 50                	b.lbz      r6,0xa(r7)
   8143e:	20 ca b0                	b.sb       0xd(r10),r6
   81441:	28 c7 b0                	b.lhz      r6,0xc(r7)
   81444:	28 ca 70                	b.sh       0xe(r10),r6
   81447:	28 c7 f0                	b.lhz      r6,0xe(r7)
   8144a:	28 ca 08                	b.sh       0x10(r10),r6
   8144d:	28 c7 88                	b.lhz      r6,0x10(r7)
   81450:	2c e7 58                	b.lwz      r7,0x18(r7)
   81453:	28 ca 48                	b.sh       0x12(r10),r6
   81456:	2c ea 28                	b.sw       0x14(r10),r7
   81459:	00 e8                   	b.movi     r7,0x1
   8145b:	0e 20                   	b.j        8146c <bApi_GetNeighbourTableEntry+0xc9>
   8145d:	00 f8                   	b.addi     r7,r7,0x1
   8145f:	01 78                   	b.addi     r11,r11,0x1
   81461:	30 c6 04                	b.addi     r6,r6,0x20
   81464:	3c 2b 08                	b.sfnei    r11,0x10
   81467:	47 2b 5f                	b.bf       81414 <bApi_GetNeighbourTableEntry+0x71>
   8146a:	00 e0                   	b.movi     r7,0x0
   8146c:	04 67                   	b.mov      r3,r7
   8146e:	47 bc 80                	b.reti     0x3,0x1

00081471 <vGetParentMacAddress.7788>:
   81471:	8c e0 7c b0 00 20       	b.lwz      r7,0x4000d3c(r0)
   81477:	47 a4 10                	b.entri    0x2,0x8
   8147a:	24 e7 92                	b.lbz      r7,0x49(r7)
   8147d:	05 43                   	b.mov      r10,r3
   8147f:	41 47 e8                	b.bnei     r7,0x2,81496 <vGetParentMacAddress.7788+0x25>
   81482:	30 81 10                	b.addi     r4,r1,0x8
   81485:	00 60                   	b.movi     r3,0x0
   81487:	48 e3 ff                	b.jal      813a3 <bApi_GetNeighbourTableEntry>
   8148a:	2c e1 48                	b.lwz      r7,0x10(r1)
   8148d:	2c e1 00                	b.sw       0x0(r1),r7
   81490:	2c e1 70                	b.lwz      r7,0xc(r1)
   81493:	2c e1 20                	b.sw       0x4(r1),r7
   81496:	38 a0 10                	b.ori      r5,r0,0x8
   81499:	04 6a                   	b.mov      r3,r10
   8149b:	04 81                   	b.mov      r4,r1
   8149d:	00 c0                   	b.movi     r6,0x0
   8149f:	4a 88 2c                	b.jal      8e4e4 <eJIP_PacketAddData>
   814a2:	47 b4 10                	b.reti     0x2,0x8

000814a5 <vNwk_SetDepthVect>:
   814a5:	8c e0 4c b0 00 20       	b.lwz      r7,0x4000d30(r0)
   814ab:	8c c0 62 50 00 20       	b.lwz      r6,0x4000a44(r0)
   814b1:	c8 67 1e 80             	b.sh       0x178(r7),r3
   814b5:	c4 e6 84 40             	b.lbz      r7,0x221(r6)
   814b9:	88 60 2f 50 00 20       	b.sh       0x4000af4(r0),r3
   814bf:	40 07 14                	b.beqi     r7,0x0,814e7 <vNwk_SetDepthVect+0x42>
   814c2:	8c 80 6a 20 00 20       	b.lwz      r4,0x4000454(r0)
   814c8:	00 e0                   	b.movi     r7,0x0
   814ca:	0d a0                   	b.j        814e0 <vNwk_SetDepthVect+0x3b>
   814cc:	6c a7 a0                	b.slli     r5,r7,0x5
   814cf:	08 a6                   	b.add      r5,r5,r6
   814d1:	24 65 90                	b.lbz      r3,0x9(r5)
   814d4:	d1 d0 3e 00             	b.bgtui    r3,0x2,814db <vNwk_SetDepthVect+0x36>
   814d8:	20 05 b8                	b.sb       0x1d(r5),r0
   814db:	00 f8                   	b.addi     r7,r7,0x1
   814dd:	3e 07 38                	b.extbz    r7,r7
   814e0:	24 a4 00                	b.lbz      r5,0x0(r4)
   814e3:	d3 ca 79 7f             	b.bgtu     r5,r7,814cc <vNwk_SetDepthVect+0x27>
   814e7:	47 d2 48                	b.jr       r9

000814ea <bCheckRxSeqNoVect>:
   814ea:	47 ac 80                	b.entri    0x3,0x1
   814ed:	2c a3 60                	b.lwz      r5,0x4(r3)
   814f0:	d0 7e 5d 00             	b.bnei     r5,-0x1,814fb <bCheckRxSeqNoVect+0x11>
   814f4:	2c e3 40                	b.lwz      r7,0x0(r3)
   814f7:	d0 3e 73 a0             	b.beqi     r7,-0x1,81553 <bCheckRxSeqNoVect+0x69>
   814fb:	8c e0 7a 20 00 20       	b.lwz      r7,0x400045c(r0)
   81501:	d2 8a 74 80             	b.beq      r5,r7,81513 <bCheckRxSeqNoVect+0x29>
   81505:	8c e0 4c b0 00 20       	b.lwz      r7,0x4000d30(r0)
   8150b:	04 c7                   	b.mov      r6,r7
   8150d:	d9 07 03 00             	b.addi     r8,r7,0xc0
   81511:	0e 20                   	b.j        81522 <bCheckRxSeqNoVect+0x38>
   81513:	2c c3 40                	b.lwz      r6,0x0(r3)
   81516:	8c e0 5a 20 00 20       	b.lwz      r7,0x4000458(r0)
   8151c:	d2 cc 79 7f             	b.bne      r6,r7,81505 <bCheckRxSeqNoVect+0x1b>
   81520:	0f 30                   	b.j        81553 <bCheckRxSeqNoVect+0x69>
   81522:	2d 46 60                	b.lwz      r10,0x4(r6)
   81525:	d2 ca aa 80             	b.bne      r5,r10,8153a <bCheckRxSeqNoVect+0x50>
   81529:	2d 46 40                	b.lwz      r10,0x0(r6)
   8152c:	2d 63 40                	b.lwz      r11,0x0(r3)
   8152f:	d2 d6 ad 00             	b.bne      r11,r10,8153a <bCheckRxSeqNoVect+0x50>
   81533:	25 46 10                	b.lbz      r10,0x8(r6)
   81536:	d2 94 4b 00             	b.beq      r10,r4,81543 <bCheckRxSeqNoVect+0x59>
   8153a:	30 c6 30                	b.addi     r6,r6,0xc
   8153d:	d2 cc 8a 7f             	b.bne      r6,r8,81522 <bCheckRxSeqNoVect+0x38>
   81541:	0d a0                   	b.j        81557 <bCheckRxSeqNoVect+0x6d>
   81543:	00 60                   	b.movi     r3,0x0
   81545:	24 c7 03                	b.lbz      r6,0xc0(r7)
   81548:	3c 26 08                	b.sfnei    r6,0x10
   8154b:	47 23 40                	b.bf       81577 <bCheckRxSeqNoVect+0x8d>
   8154e:	20 07 03                	b.sb       0xc0(r7),r0
   81551:	0d 90                   	b.j        81577 <bCheckRxSeqNoVect+0x8d>
   81553:	00 60                   	b.movi     r3,0x0
   81555:	0d 10                   	b.j        81577 <bCheckRxSeqNoVect+0x8d>
   81557:	25 07 03                	b.lbz      r8,0xc0(r7)
   8155a:	38 c0 30                	b.ori      r6,r0,0xc
   8155d:	64 c8 33                	b.mul      r6,r8,r6
   81560:	01 18                   	b.addi     r8,r8,0x1
   81562:	08 c7                   	b.add      r6,r6,r7
   81564:	2c a6 20                	b.sw       0x4(r6),r5
   81567:	2c a3 40                	b.lwz      r5,0x0(r3)
   8156a:	20 86 10                	b.sb       0x8(r6),r4
   8156d:	00 68                   	b.movi     r3,0x1
   8156f:	2c a6 00                	b.sw       0x0(r6),r5
   81572:	21 07 03                	b.sb       0xc0(r7),r8
   81575:	0c 2f                   	b.j        81545 <bCheckRxSeqNoVect+0x5b>
   81577:	47 bc 80                	b.reti     0x3,0x1

0008157a <bNwk_IsParentVect>:
   8157a:	04 c3                   	b.mov      r6,r3
   8157c:	40 03 8c                	b.beqi     r3,0x0,815ad <bNwk_IsParentVect+0x33>
   8157f:	8c e0 4c b0 00 20       	b.lwz      r7,0x4000d30(r0)
   81585:	00 60                   	b.movi     r3,0x0
   81587:	24 a7 83                	b.lbz      r5,0xc1(r7)
   8158a:	40 05 a4                	b.beqi     r5,0x0,815af <bNwk_IsParentVect+0x35>
   8158d:	cc 87 76 80             	b.lwz      r4,0x16c(r7)
   81591:	2c a6 60                	b.lwz      r5,0x4(r6)
   81594:	d2 c8 5d 80             	b.bne      r4,r5,815af <bNwk_IsParentVect+0x35>
   81598:	cc a7 56 80             	b.lwz      r5,0x168(r7)
   8159c:	2c c6 40                	b.lwz      r6,0x0(r6)
   8159f:	d2 ca 60 80             	b.bne      r5,r6,815af <bNwk_IsParentVect+0x35>
   815a3:	24 67 4b                	b.lbz      r3,0xd2(r7)
   815a6:	00 7f                   	b.addi     r3,r3,-0x1
   815a8:	6c 63 f9                	b.srli     r3,r3,0x1f
   815ab:	0c 80                   	b.j        815af <bNwk_IsParentVect+0x35>
   815ad:	00 60                   	b.movi     r3,0x0
   815af:	47 d2 48                	b.jr       r9

000815b2 <bNwk_IsChild>:
   815b2:	47 a4 00                	b.entri    0x2,0x0
   815b5:	40 03 82                	b.beqi     r3,0x0,815f6 <bNwk_IsChild+0x44>
   815b8:	8c e0 6a 20 00 20       	b.lwz      r7,0x4000454(r0)
   815be:	00 c0                   	b.movi     r6,0x0
   815c0:	24 a7 00                	b.lbz      r5,0x0(r7)
   815c3:	8c e0 62 50 00 20       	b.lwz      r7,0x4000a44(r0)
   815c9:	0e 50                   	b.j        815f2 <bNwk_IsChild+0x40>
   815cb:	25 07 90                	b.lbz      r8,0x9(r7)
   815ce:	d1 d0 8f 80             	b.bgtui    r8,0x2,815ed <bNwk_IsChild+0x3b>
   815d2:	2d 03 60                	b.lwz      r8,0x4(r3)
   815d5:	2d 47 60                	b.lwz      r10,0x4(r7)
   815d8:	d2 d4 8a 80             	b.bne      r10,r8,815ed <bNwk_IsChild+0x3b>
   815dc:	2d 03 40                	b.lwz      r8,0x0(r3)
   815df:	2d 47 40                	b.lwz      r10,0x0(r7)
   815e2:	d2 d4 8d 00             	b.bne      r10,r8,815ed <bNwk_IsChild+0x3b>
   815e6:	20 c4 00                	b.sb       0x0(r4),r6
   815e9:	00 68                   	b.movi     r3,0x1
   815eb:	0e c0                   	b.j        815f8 <bNwk_IsChild+0x46>
   815ed:	00 d8                   	b.addi     r6,r6,0x1
   815ef:	30 e7 04                	b.addi     r7,r7,0x20
   815f2:	d3 4a 69 bf             	b.bgts     r5,r6,815cb <bNwk_IsChild+0x19>
   815f6:	00 60                   	b.movi     r3,0x0
   815f8:	47 b4 00                	b.reti     0x2,0x0

000815fb <vJnc_HandleBeaconVect>:
   815fb:	47 ae f0                	b.entri    0x7,0xf
   815fe:	25 a3 4a                	b.lbz      r13,0x52(r3)
   81601:	24 c3 ca                	b.lbz      r6,0x53(r3)
   81604:	6d ad 10                	b.slli     r13,r13,0x8
   81607:	61 a6 69                	b.or       r13,r6,r13
   8160a:	05 43                   	b.mov      r10,r3
   8160c:	24 c3 3a                	b.lbz      r6,0x5c(r3)
   8160f:	24 e3 13                	b.lbz      r7,0xc8(r3)
   81612:	25 c3 0a                	b.lbz      r14,0x50(r3)
   81615:	25 83 aa                	b.lbz      r12,0x55(r3)
   81618:	3c a6 90                	b.sfgtui   r6,0x9
   8161b:	47 27 00                	b.bf       81629 <vJnc_HandleBeaconVect+0x2e>
   8161e:	6c c6 20                	b.slli     r6,r6,0x4
   81621:	90 c6 36 00 00 20       	b.addi     r6,r6,0x400006c
   81627:	0c 40                   	b.j        8162f <vJnc_HandleBeaconVect+0x34>
   81629:	8c c0 6a 20 00 20       	b.lwz      r6,0x4000454(r0)
   8162f:	25 e6 60                	b.lbz      r15,0x6(r6)
   81632:	8c c0 74 b0 00 20       	b.lwz      r6,0x4000d2c(r0)
   81638:	50 8a 20                	b.mlwz     r4,0x4(r10),0x0
   8163b:	cc c6 4c 80             	b.lwz      r6,0x130(r6)
   8163f:	54 81 08                	b.msw      0x10(r1),r4,0x0
   81642:	29 6a 88                	b.lhz      r11,0x10(r10)
   81645:	41 06 88                	b.bnei     r6,0x0,81656 <vJnc_HandleBeaconVect+0x5b>
   81648:	8c c0 56 20 00 20       	b.lwz      r6,0x4000468(r0)
   8164e:	24 c6 00                	b.lbz      r6,0x0(r6)
   81651:	40 06 3e                	b.beqi     r6,0x0,816cd <vJnc_HandleBeaconVect+0xd2>
   81654:	0c 94                   	b.j        816f8 <vJnc_HandleBeaconVect+0xfd>
   81656:	3c 27 c8                	b.sfnei    r7,0x13
   81659:	47 2f 7f                	b.bf       81648 <vJnc_HandleBeaconVect+0x4d>
   8165c:	2c a1 38                	b.sw       0x1c(r1),r5
   8165f:	24 aa a8                	b.lbz      r5,0x15(r10)
   81662:	2c 81 18                	b.sw       0x18(r1),r4
   81665:	20 a1 24                	b.sb       0x24(r1),r5
   81668:	24 aa e8                	b.lbz      r5,0x17(r10)
   8166b:	29 61 04                	b.sh       0x20(r1),r11
   8166e:	29 a1 44                	b.sh       0x22(r1),r13
   81671:	20 a1 a4                	b.sb       0x25(r1),r5
   81674:	21 81 64                	b.sb       0x26(r1),r12
   81677:	24 aa 6a                	b.lbz      r5,0x56(r10)
   8167a:	24 8a ea                	b.lbz      r4,0x57(r10)
   8167d:	6c a5 10                	b.slli     r5,r5,0x8
   81680:	60 a4 29                	b.or       r5,r4,r5
   81683:	28 a1 14                	b.sh       0x28(r1),r5
   81686:	24 6a 1a                	b.lbz      r3,0x58(r10)
   81689:	24 8a 9a                	b.lbz      r4,0x59(r10)
   8168c:	24 aa 5a                	b.lbz      r5,0x5a(r10)
   8168f:	6c 63 18                	b.slli     r3,r3,0x18
   81692:	6c 84 08                	b.slli     r4,r4,0x10
   81695:	60 84 19                	b.or       r4,r4,r3
   81698:	6c a5 10                	b.slli     r5,r5,0x8
   8169b:	60 a5 21                	b.or       r5,r5,r4
   8169e:	30 61 0c                	b.addi     r3,r1,0x30
   816a1:	24 8a da                	b.lbz      r4,0x5b(r10)
   816a4:	2c e1 00                	b.sw       0x0(r1),r7
   816a7:	60 a4 29                	b.or       r5,r4,r5
   816aa:	30 8a ba                	b.addi     r4,r10,0x5d
   816ad:	2c a1 34                	b.sw       0x2c(r1),r5
   816b0:	00 a6                   	b.movi     r5,0x6
   816b2:	2c c1 20                	b.sw       0x4(r1),r6
   816b5:	d4 e5 97 ef             	b.jal      5c <memcpy>
   816b9:	2c c1 60                	b.lwz      r6,0x4(r1)
   816bc:	30 61 18                	b.addi     r3,r1,0x18
   816bf:	04 8e                   	b.mov      r4,r14
   816c1:	47 d1 30                	b.jalr     r6
   816c4:	2c e1 40                	b.lwz      r7,0x0(r1)
   816c7:	d0 00 39 28             	b.beqi     r3,0x0,81810 <vJnc_HandleBeaconVect+0x215>
   816cb:	0e fb                   	b.j        81648 <vJnc_HandleBeaconVect+0x4d>
   816cd:	8c a0 4c b0 00 20       	b.lwz      r5,0x4000d30(r0)
   816d3:	24 a5 4b                	b.lbz      r5,0xd2(r5)
   816d6:	40 05 44                	b.beqi     r5,0x0,816f8 <vJnc_HandleBeaconVect+0xfd>
   816d9:	8c e0 74 b0 00 20       	b.lwz      r7,0x4000d2c(r0)
   816df:	c4 c7 10 80             	b.lbz      r6,0x108(r7)
   816e3:	3e 06 29                	b.extbs    r5,r6
   816e6:	d1 40 55 48             	b.bltsi    r5,0x0,81810 <vJnc_HandleBeaconVect+0x215>
   816ea:	6c c6 80                	b.slli     r6,r6,0x1
   816ed:	08 c7                   	b.add      r6,r6,r7
   816ef:	29 66 00                	b.sh       0x0(r6),r11
   816f2:	c4 c7 10 80             	b.lbz      r6,0x108(r7)
   816f6:	0c a2                   	b.j        8180a <vJnc_HandleBeaconVect+0x20f>
   816f8:	28 aa c8                	b.lhz      r5,0x12(r10)
   816fb:	3e 05 2b                	b.exths    r5,r5
   816fe:	d0 80 54 88             	b.bgesi    r5,0x0,81810 <vJnc_HandleBeaconVect+0x215>
   81702:	8c a0 74 b0 00 20       	b.lwz      r5,0x4000d2c(r0)
   81708:	c4 85 10 80             	b.lbz      r4,0x108(r5)
   8170c:	d1 f8 42 08             	b.bgtui    r4,0x7,81810 <vJnc_HandleBeaconVect+0x215>
   81710:	00 84                   	b.movi     r4,0x2
   81712:	61 ce 22                	b.xor      r14,r14,r4
   81715:	38 80 c8                	b.ori      r4,r0,0x13
   81718:	60 e7 22                	b.xor      r7,r7,r4
   8171b:	3e 0e 70                	b.extbz    r14,r14
   8171e:	3e 07 38                	b.extbz    r7,r7
   81721:	01 df                   	b.addi     r14,r14,-0x1
   81723:	00 ff                   	b.addi     r7,r7,-0x1
   81725:	60 ee 38                	b.and      r7,r14,r7
   81728:	d0 80 71 70             	b.bgesi    r7,0x0,81810 <vJnc_HandleBeaconVect+0x215>
   8172c:	8c e0 4c b0 00 20       	b.lwz      r7,0x4000d30(r0)
   81732:	c8 e7 ee 80             	b.lhz      r7,0x176(r7)
   81736:	9d 87 ff ff 00 00       	b.sfeqi    r7,0xffff
   8173c:	47 2e 00                	b.bf       81743 <vJnc_HandleBeaconVect+0x148>
   8173f:	d2 ce b8 b0             	b.bne      r7,r11,81810 <vJnc_HandleBeaconVect+0x215>
   81743:	24 ea e8                	b.lbz      r7,0x17(r10)
   81746:	d3 de 75 30             	b.bgtu     r15,r7,81810 <vJnc_HandleBeaconVect+0x215>
   8174a:	24 ea 6a                	b.lbz      r7,0x56(r10)
   8174d:	24 8a ea                	b.lbz      r4,0x57(r10)
   81750:	6c e7 10                	b.slli     r7,r7,0x8
   81753:	60 e4 39                	b.or       r7,r4,r7
   81756:	c8 a5 8a 80             	b.lhz      r5,0x150(r5)
   8175a:	d2 ca 76 d0             	b.bne      r5,r7,81810 <vJnc_HandleBeaconVect+0x215>
   8175e:	41 06 14                	b.bnei     r6,0x0,81786 <vJnc_HandleBeaconVect+0x18b>
   81761:	30 61 08                	b.addi     r3,r1,0x10
   81764:	30 81 f0                	b.addi     r4,r1,0xf
   81767:	4b 49 ff                	b.jal      815b2 <bNwk_IsChild>
   8176a:	d0 40 36 50             	b.bnei     r3,0x0,81810 <vJnc_HandleBeaconVect+0x215>
   8176e:	98 60 ff ff 00 00       	b.ori      r3,r0,0xffff
   81774:	30 81 08                	b.addi     r4,r1,0x10
   81777:	30 a1 f0                	b.addi     r5,r1,0xf
   8177a:	48 f3 7f                	b.jal      812b6 <u16GetNextHopVect>
   8177d:	9d c3 ff ff 00 00       	b.sfnei    r3,0xffff
   81783:	47 2b 10                	b.bf       81810 <vJnc_HandleBeaconVect+0x215>
   81786:	8c c0 74 b0 00 20       	b.lwz      r6,0x4000d2c(r0)
   8178c:	2c a1 48                	b.lwz      r5,0x10(r1)
   8178f:	c4 66 10 80             	b.lbz      r3,0x108(r6)
   81793:	6c 63 a0                	b.slli     r3,r3,0x5
   81796:	60 e6 1c                	b.add      r7,r6,r3
   81799:	30 63 18                	b.addi     r3,r3,0x18
   8179c:	08 66                   	b.add      r3,r3,r6
   8179e:	2c a7 00                	b.sw       0x0(r7),r5
   817a1:	2c a1 68                	b.lwz      r5,0x14(r1)
   817a4:	29 67 10                	b.sh       0x8(r7),r11
   817a7:	2c a7 20                	b.sw       0x4(r7),r5
   817aa:	29 a7 50                	b.sh       0xa(r7),r13
   817ad:	24 aa a8                	b.lbz      r5,0x15(r10)
   817b0:	20 a7 30                	b.sb       0xc(r7),r5
   817b3:	24 aa e8                	b.lbz      r5,0x17(r10)
   817b6:	21 87 70                	b.sb       0xe(r7),r12
   817b9:	20 a7 b0                	b.sb       0xd(r7),r5
   817bc:	24 aa 6a                	b.lbz      r5,0x56(r10)
   817bf:	24 8a ea                	b.lbz      r4,0x57(r10)
   817c2:	6c a5 10                	b.slli     r5,r5,0x8
   817c5:	60 a4 29                	b.or       r5,r4,r5
   817c8:	28 a7 08                	b.sh       0x10(r7),r5
   817cb:	25 0a 1a                	b.lbz      r8,0x58(r10)
   817ce:	24 8a 9a                	b.lbz      r4,0x59(r10)
   817d1:	24 aa 5a                	b.lbz      r5,0x5a(r10)
   817d4:	6d 08 18                	b.slli     r8,r8,0x18
   817d7:	6c 84 08                	b.slli     r4,r4,0x10
   817da:	60 84 41                	b.or       r4,r4,r8
   817dd:	6c a5 10                	b.slli     r5,r5,0x8
   817e0:	60 a5 21                	b.or       r5,r5,r4
   817e3:	24 8a da                	b.lbz      r4,0x5b(r10)
   817e6:	60 a4 29                	b.or       r5,r4,r5
   817e9:	30 8a ba                	b.addi     r4,r10,0x5d
   817ec:	2c a7 28                	b.sw       0x14(r7),r5
   817ef:	00 a6                   	b.movi     r5,0x6
   817f1:	d4 d6 17 ef             	b.jal      5c <memcpy>
   817f5:	8c e0 74 b0 00 20       	b.lwz      r7,0x4000d2c(r0)
   817fb:	24 8a 3a                	b.lbz      r4,0x5c(r10)
   817fe:	c4 c7 10 80             	b.lbz      r6,0x108(r7)
   81802:	6c a6 a0                	b.slli     r5,r6,0x5
   81805:	08 a7                   	b.add      r5,r5,r7
   81807:	20 85 78                	b.sb       0x1e(r5),r4
   8180a:	00 d8                   	b.addi     r6,r6,0x1
   8180c:	c0 c7 10 80             	b.sb       0x108(r7),r6
   81810:	47 be f0                	b.reti     0x7,0xf

00081813 <vInitialiseChildEntry.10230>:
   81813:	47 ac 80                	b.entri    0x3,0x1
   81816:	00 e8                   	b.movi     r7,0x1
   81818:	20 03 50                	b.sb       0xa(r3),r0
   8181b:	34 84 10                	b.andi     r4,r4,0x8
   8181e:	20 e3 90                	b.sb       0x9(r3),r7
   81821:	28 03 30                	b.sh       0xc(r3),r0
   81824:	28 03 70                	b.sh       0xe(r3),r0
   81827:	28 03 08                	b.sh       0x10(r3),r0
   8182a:	20 03 48                	b.sb       0x12(r3),r0
   8182d:	20 03 38                	b.sb       0x1c(r3),r0
   81830:	20 e3 b8                	b.sb       0x1d(r3),r7
   81833:	8c c0 56 20 00 20       	b.lwz      r6,0x4000468(r0)
   81839:	40 04 d0                	b.beqi     r4,0x0,81844 <vInitialiseChildEntry.10230+0x31>
   8183c:	20 03 10                	b.sb       0x8(r3),r0
   8183f:	2c e6 44                	b.lwz      r7,0x20(r6)
   81842:	0c 40                   	b.j        8184a <vInitialiseChildEntry.10230+0x37>
   81844:	20 e3 10                	b.sb       0x8(r3),r7
   81847:	2c e6 78                	b.lwz      r7,0x1c(r6)
   8184a:	8d 40 62 50 00 20       	b.lwz      r10,0x4000a44(r0)
   81850:	2c e3 28                	b.sw       0x14(r3),r7
   81853:	d8 60 80 ff             	b.addi     r3,r0,-0xff
   81857:	c4 ea 84 40             	b.lbz      r7,0x221(r10)
   8185b:	8d 60 4c b0 00 20       	b.lwz      r11,0x4000d30(r0)
   81861:	00 f8                   	b.addi     r7,r7,0x1
   81863:	c0 ea 84 40             	b.sb       0x221(r10),r7
   81867:	8c e0 6a 20 00 20       	b.lwz      r7,0x4000454(r0)
   8186d:	24 87 00                	b.lbz      r4,0x0(r7)
   81870:	48 fa 72                	b.jal      951ec <__divsi3>
   81873:	24 eb 2f                	b.lbz      r7,0xf4(r11)
   81876:	08 67                   	b.add      r3,r3,r7
   81878:	20 6b 2f                	b.sb       0xf4(r11),r3
   8187b:	c4 ea 84 40             	b.lbz      r7,0x221(r10)
   8187f:	80 e0 ef 50 00 20       	b.sb       0x4000af7(r0),r7
   81885:	47 bc 80                	b.reti     0x3,0x1

00081888 <v6LP_Tick>:
   81888:	47 ae e6                	b.entri    0x7,0x67
   8188b:	cd 90 64 29             	b.lwz      r12,-0x6bdc(r16)
   8188f:	8c c0 5e 20 00 20       	b.lwz      r6,0x4000478(r0)
   81895:	88 e0 ba 00 00 20       	b.lhz      r7,0x400005c(r0)
   8189b:	60 cc 35                	b.sub      r6,r12,r6
   8189e:	a3 ce 6d db 00 00       	b.bgtu     r7,r6,82659 <v6LP_Tick+0xdd1>
   818a4:	8d 80 1e 20 00 20       	b.sw       0x4000478(r0),r12
   818aa:	0f f0                   	b.j        818e9 <v6LP_Tick+0x61>
   818ac:	84 c0 a9 20 00 20       	b.lbz      r6,0x4000495(r0)
   818b2:	8c e0 49 20 00 20       	b.lwz      r7,0x4000490(r0)
   818b8:	3e 06 30                	b.extbz    r6,r6
   818bb:	6c c6 c0                	b.slli     r6,r6,0x3
   818be:	08 c7                   	b.add      r6,r6,r7
   818c0:	2c e6 40                	b.lwz      r7,0x0(r6)
   818c3:	40 07 90                	b.beqi     r7,0x0,818cc <v6LP_Tick+0x44>
   818c6:	2c 66 60                	b.lwz      r3,0x4(r6)
   818c9:	47 d1 38                	b.jalr     r7
   818cc:	84 e0 a9 20 00 20       	b.lbz      r7,0x4000495(r0)
   818d2:	84 c0 1a 00 00 20       	b.lbz      r6,0x4000058(r0)
   818d8:	00 f8                   	b.addi     r7,r7,0x1
   818da:	3e 07 38                	b.extbz    r7,r7
   818dd:	3d e6 38                	b.sfgtu    r6,r7
   818e0:	64 e7 02                	b.cmov     r7,r7,r0
   818e3:	80 e0 a9 20 00 20       	b.sb       0x4000495(r0),r7
   818e9:	84 c0 a9 20 00 20       	b.lbz      r6,0x4000495(r0)
   818ef:	84 e0 29 20 00 20       	b.lbz      r7,0x4000494(r0)
   818f5:	3e 06 30                	b.extbz    r6,r6
   818f8:	3e 07 38                	b.extbz    r7,r7
   818fb:	d2 cc 78 df             	b.bne      r6,r7,818ac <v6LP_Tick+0x24>
   818ff:	46 f2 a0                	b.j        81e4e <v6LP_Tick+0x5c6>
   81902:	85 40 b1 20 00 20       	b.lbz      r10,0x400048d(r0)
   81908:	38 e0 31                	b.ori      r7,r0,0x8c
   8190b:	3e 0a 50                	b.extbz    r10,r10
   8190e:	65 4a 3b                	b.mul      r10,r10,r7
   81911:	8c e0 51 20 00 20       	b.lwz      r7,0x4000488(r0)
   81917:	09 47                   	b.add      r10,r10,r7
   81919:	24 ea 51                	b.lbz      r7,0x8a(r10)
   8191c:	24 8a 11                	b.lbz      r4,0x88(r10)
   8191f:	80 e0 3e 20 00 20       	b.sb       0x400047c(r0),r7
   81925:	3c 04 88                	b.sfeqi    r4,0x11
   81928:	24 ea d1                	b.lbz      r7,0x8b(r10)
   8192b:	25 6a 91                	b.lbz      r11,0x89(r10)
   8192e:	80 e0 be 20 00 20       	b.sb       0x400047d(r0),r7
   81934:	47 24 d0                	b.bf       819e6 <v6LP_Tick+0x15e>
   81937:	3c a4 88                	b.sfgtui   r4,0x11
   8193a:	47 2f c0                	b.bf       81979 <v6LP_Tick+0xf1>
   8193d:	3c 04 90                	b.sfeqi    r4,0x9
   81940:	47 2c 10                	b.bf       819c3 <v6LP_Tick+0x13b>
   81943:	3c a4 90                	b.sfgtui   r4,0x9
   81946:	47 20 80                	b.bf       81956 <v6LP_Tick+0xce>
   81949:	d0 20 47 b0             	b.beqi     r4,0x1,81a27 <v6LP_Tick+0x19f>
   8194d:	40 04 6e                	b.beqi     r4,0x0,819c3 <v6LP_Tick+0x13b>
   81950:	d0 58 48 72             	b.bnei     r4,0x6,81e31 <v6LP_Tick+0x5a9>
   81954:	0f 42                   	b.j        81a5f <v6LP_Tick+0x1d7>
   81956:	3c 04 b0                	b.sfeqi    r4,0xd
   81959:	47 20 c4                	b.bf       81b89 <v6LP_Tick+0x301>
   8195c:	3c a4 b0                	b.sfgtui   r4,0xd
   8195f:	47 2d 00                	b.bf       8196a <v6LP_Tick+0xe2>
   81962:	3c 04 50                	b.sfeqi    r4,0xa
   81965:	47 33 32                	b.bnf      81e31 <v6LP_Tick+0x5a9>
   81968:	0c 12                   	b.j        81a88 <v6LP_Tick+0x200>
   8196a:	3c 04 70                	b.sfeqi    r4,0xe
   8196d:	47 24 14                	b.bf       81bef <v6LP_Tick+0x367>
   81970:	3c 04 f0                	b.sfeqi    r4,0xf
   81973:	47 37 d2                	b.bnf      81e31 <v6LP_Tick+0x5a9>
   81976:	46 c8 40                	b.j        81b89 <v6LP_Tick+0x301>
   81979:	3c 04 98                	b.sfeqi    r4,0x19
   8197c:	47 25 52                	b.bf       81e26 <v6LP_Tick+0x59e>
   8197f:	3c a4 98                	b.sfgtui   r4,0x19
   81982:	47 21 80                	b.bf       8199a <v6LP_Tick+0x112>
   81985:	3c 04 a8                	b.sfeqi    r4,0x15
   81988:	47 25 e4                	b.bf       81c02 <v6LP_Tick+0x37a>
   8198b:	3d 24 a8                	b.sfltui   r4,0x15
   8198e:	47 2d f8                	b.bf       81b89 <v6LP_Tick+0x301>
   81991:	3c 04 e8                	b.sfeqi    r4,0x17
   81994:	47 3b 92                	b.bnf      81e31 <v6LP_Tick+0x5a9>
   81997:	46 dd 40                	b.j        81c52 <v6LP_Tick+0x3ca>
   8199a:	3c 04 0a                	b.sfeqi    r4,0x50
   8199d:	47 25 d4                	b.bf       81c57 <v6LP_Tick+0x3cf>
   819a0:	3c a4 0a                	b.sfgtui   r4,0x50
   819a3:	47 23 00                	b.bf       819af <v6LP_Tick+0x127>
   819a6:	3c 04 58                	b.sfeqi    r4,0x1a
   819a9:	47 31 12                	b.bnf      81e31 <v6LP_Tick+0x5a9>
   819ac:	46 3a 40                	b.j        81c08 <v6LP_Tick+0x380>
   819af:	9d 84 7f 00 00 00       	b.sfeqi    r4,0xfe
   819b5:	47 22 d0                	b.bf       81a69 <v6LP_Tick+0x1e1>
   819b8:	9d 84 ff 00 00 00       	b.sfeqi    r4,0xff
   819be:	47 3c e2                	b.bnf      81e31 <v6LP_Tick+0x5a9>
   819c1:	0e b4                   	b.j        81a76 <v6LP_Tick+0x1ee>
   819c3:	30 ea 10                	b.addi     r7,r10,0x8
   819c6:	d8 61 21 00             	b.addi     r3,r1,0x84
   819ca:	2c e1 39                	b.sw       0x9c(r1),r7
   819cd:	00 ec                   	b.movi     r7,0x3
   819cf:	20 e1 61                	b.sb       0x86(r1),r7
   819d2:	2c ea 40                	b.lwz      r7,0x0(r10)
   819d5:	29 61 05                	b.sh       0xa0(r1),r11
   819d8:	2c e1 11                	b.sw       0x88(r1),r7
   819db:	2c ea 60                	b.lwz      r7,0x4(r10)
   819de:	20 01 49                	b.sb       0x92(r1),r0
   819e1:	2c e1 31                	b.sw       0x8c(r1),r7
   819e4:	0e b8                   	b.j        81a59 <v6LP_Tick+0x1d1>
   819e6:	30 ea d8                	b.addi     r7,r10,0x1b
   819e9:	31 6b b7                	b.addi     r11,r11,-0x13
   819ec:	30 8a d0                	b.addi     r4,r10,0xb
   819ef:	38 a0 10                	b.ori      r5,r0,0x8
   819f2:	30 61 16                	b.addi     r3,r1,0x68
   819f5:	29 61 01                	b.sh       0x80(r1),r11
   819f8:	01 6c                   	b.movi     r11,0x3
   819fa:	2c e1 3e                	b.sw       0x7c(r1),r7
   819fd:	21 61 66                	b.sb       0x66(r1),r11
   81a00:	d4 3a 67 ef             	b.jal      5c <memcpy>
   81a04:	30 61 2e                	b.addi     r3,r1,0x74
   81a07:	30 8a c8                	b.addi     r4,r10,0x13
   81a0a:	38 a0 10                	b.ori      r5,r0,0x8
   81a0d:	21 61 4e                	b.sb       0x72(r1),r11
   81a10:	d4 32 67 ef             	b.jal      5c <memcpy>
   81a14:	30 61 26                	b.addi     r3,r1,0x64
   81a17:	4b be 3f                	b.jal      80c0e <b6LP_HandleRxEvent>
   81a1a:	d0 40 3e 82             	b.bnei     r3,0x0,81e31 <v6LP_Tick+0x5a9>
   81a1e:	30 61 2e                	b.addi     r3,r1,0x74
   81a21:	49 c2 dc                	b.jal      9072f <ePAR_SendFindNode>
   81a24:	46 b0 20                	b.j        81e31 <v6LP_Tick+0x5a9>
   81a27:	30 ea 10                	b.addi     r7,r10,0x8
   81a2a:	30 61 22                	b.addi     r3,r1,0x44
   81a2d:	2c e1 3a                	b.sw       0x5c(r1),r7
   81a30:	00 ec                   	b.movi     r7,0x3
   81a32:	20 e1 62                	b.sb       0x46(r1),r7
   81a35:	2c ca 40                	b.lwz      r6,0x0(r10)
   81a38:	29 61 06                	b.sh       0x60(r1),r11
   81a3b:	2c c1 12                	b.sw       0x48(r1),r6
   81a3e:	2c ca 60                	b.lwz      r6,0x4(r10)
   81a41:	20 e1 4a                	b.sb       0x52(r1),r7
   81a44:	8c e0 7a 20 00 20       	b.lwz      r7,0x400045c(r0)
   81a4a:	2c c1 32                	b.sw       0x4c(r1),r6
   81a4d:	2c e1 1a                	b.sw       0x58(r1),r7
   81a50:	8c e0 5a 20 00 20       	b.lwz      r7,0x4000458(r0)
   81a56:	2c e1 2a                	b.sw       0x54(r1),r7
   81a59:	4a b6 3f                	b.jal      80c0e <b6LP_HandleRxEvent>
   81a5c:	46 ab c0                	b.j        81e31 <v6LP_Tick+0x5a9>
   81a5f:	00 66                   	b.movi     r3,0x6
   81a61:	30 8a 10                	b.addi     r4,r10,0x8
   81a64:	00 a8                   	b.movi     r5,0x1
   81a66:	46 13 c0                	b.j        81e2e <v6LP_Tick+0x5a6>
   81a69:	24 ea 10                	b.lbz      r7,0x8(r10)
   81a6c:	30 61 20                	b.addi     r3,r1,0x4
   81a6f:	00 80                   	b.movi     r4,0x0
   81a71:	20 e1 20                	b.sb       0x4(r1),r7
   81a74:	0d c0                   	b.j        81a82 <v6LP_Tick+0x1fa>
   81a76:	24 ea 10                	b.lbz      r7,0x8(r10)
   81a79:	30 61 20                	b.addi     r3,r1,0x4
   81a7c:	38 80 47                	b.ori      r4,r0,0xe2
   81a7f:	20 e1 20                	b.sb       0x4(r1),r7
   81a82:	48 76 c4                	b.jal      8a83a <vHandleTxEvent>
   81a85:	46 35 c0                	b.j        81e31 <v6LP_Tick+0x5a9>
   81a88:	04 61                   	b.mov      r3,r1
   81a8a:	49 8f 88                	b.jal      86250 <iIPv6_SearchForBufferReadyToTX>
   81a8d:	41 03 48                	b.bnei     r3,0x0,81a9f <v6LP_Tick+0x217>
   81a90:	8c e0 7c b0 00 20       	b.lwz      r7,0x4000d3c(r0)
   81a96:	2c 61 40                	b.lwz      r3,0x0(r1)
   81a99:	2c e7 60                	b.lwz      r7,0x4(r7)
   81a9c:	47 d1 38                	b.jalr     r7
   81a9f:	84 80 5a 00 00 20       	b.lbz      r4,0x400005a(r0)
   81aa5:	8c 60 61 20 00 20       	b.lwz      r3,0x4000484(r0)
   81aab:	98 e0 5b 18 90 00       	b.ori      r7,r0,0x918da
   81ab1:	6c 84 20                	b.slli     r4,r4,0x4
   81ab4:	00 a0                   	b.movi     r5,0x0
   81ab6:	8c e0 28 20 00 20       	b.sw       0x4000414(r0),r7
   81abc:	8c 00 18 20 00 20       	b.sw       0x4000418(r0),r0
   81ac2:	80 00 1c 20 00 20       	b.sb       0x4000438(r0),r0
   81ac8:	4b f9 50                	b.jal      84547 <pvHeap_Alloc>
   81acb:	84 e0 19 20 00 20       	b.lbz      r7,0x4000498(r0)
   81ad1:	8c 60 21 20 00 20       	b.sw       0x4000484(r0),r3
   81ad7:	41 07 14                	b.bnei     r7,0x0,81aff <v6LP_Tick+0x277>
   81ada:	00 e8                   	b.movi     r7,0x1
   81adc:	80 e0 19 20 00 20       	b.sb       0x4000498(r0),r7
   81ae2:	8c e0 74 b0 00 20       	b.lwz      r7,0x4000d2c(r0)
   81ae8:	40 07 e8                	b.beqi     r7,0x0,81aff <v6LP_Tick+0x277>
   81aeb:	cc c7 5c 80             	b.lwz      r6,0x138(r7)
   81aef:	8c c0 10 20 00 20       	b.sw       0x4000408(r0),r6
   81af5:	98 c0 99 04 90 00       	b.ori      r6,r0,0x92099
   81afb:	cc c7 1c 80             	b.sw       0x138(r7),r6
   81aff:	84 80 9a 00 00 20       	b.lbz      r4,0x4000059(r0)
   81b05:	98 e0 24 2f 00 00       	b.ori      r7,r0,0xf424
   81b0b:	98 60 30 20 00 20       	b.ori      r3,r0,0x400040c
   81b11:	64 84 3b                	b.mul      r4,r4,r7
   81b14:	4b a5 82                	b.jal      921ab <TSV_eStart>
   81b17:	28 ea d8                	b.lhz      r7,0x1a(r10)
   81b1a:	8d a0 7c b0 00 20       	b.lwz      r13,0x4000d3c(r0)
   81b20:	00 60                   	b.movi     r3,0x0
   81b22:	28 ed 19                	b.sh       0x98(r13),r7
   81b25:	24 ed 12                	b.lbz      r7,0x48(r13)
   81b28:	40 87 9a                	b.beqi     r7,0x1,81b81 <v6LP_Tick+0x2f9>
   81b2b:	2c 8a 44                	b.lwz      r4,0x20(r10)
   81b2e:	40 04 a2                	b.beqi     r4,0x0,81b73 <v6LP_Tick+0x2eb>
   81b31:	24 e4 00                	b.lbz      r7,0x0(r4)
   81b34:	d2 38 7f c0             	b.bleui    r7,0x7,81b73 <v6LP_Tick+0x2eb>
   81b38:	00 98                   	b.addi     r4,r4,0x1
   81b3a:	38 a0 10                	b.ori      r5,r0,0x8
   81b3d:	30 61 10                	b.addi     r3,r1,0x8
   81b40:	d4 38 a7 ef             	b.jal      5c <memcpy>
   81b44:	50 c1 10                	b.mlwz     r6,0x8(r1),0x0
   81b47:	98 60 b8 20 00 20       	b.ori      r3,r0,0x400041d
   81b4d:	30 81 08                	b.addi     r4,r1,0x10
   81b50:	38 a0 10                	b.ori      r5,r0,0x8
   81b53:	2c ed 3e                	b.sw       0x7c(r13),r7
   81b56:	2c cd 01                	b.sw       0x80(r13),r6
   81b59:	54 c1 08                	b.msw      0x10(r1),r6,0x0
   81b5c:	d4 00 a7 ef             	b.jal      5c <memcpy>
   81b60:	84 e0 38 20 00 20       	b.lbz      r7,0x400041c(r0)
   81b66:	d1 f8 7b 00             	b.bgtui    r7,0x7,81b73 <v6LP_Tick+0x2eb>
   81b6a:	38 e0 10                	b.ori      r7,r0,0x8
   81b6d:	80 e0 38 20 00 20       	b.sb       0x400041c(r0),r7
   81b73:	88 60 dc 20 00 20       	b.lhz      r3,0x400043a(r0)
   81b79:	4a a8 a8                	b.jal      86fce <eCreateSocket.6721>
   81b7c:	4b f9 82                	b.jal      921fb <vStartTrapTimer>
   81b7f:	00 68                   	b.movi     r3,0x1
   81b81:	30 8a 10                	b.addi     r4,r10,0x8
   81b84:	04 ab                   	b.mov      r5,r11
   81b86:	46 15 40                	b.j        81e2e <v6LP_Tick+0x5a6>
   81b89:	2c ea 40                	b.lwz      r7,0x0(r10)
   81b8c:	30 84 cf                	b.addi     r4,r4,-0xd
   81b8f:	3e 04 20                	b.extbz    r4,r4
   81b92:	2c e1 24                	b.sw       0x24(r1),r7
   81b95:	90 84 34 80 10 00       	b.addi     r4,r4,0x8012c
   81b9b:	2c ea 60                	b.lwz      r7,0x4(r10)
   81b9e:	2c e1 14                	b.sw       0x28(r1),r7
   81ba1:	00 e7                   	b.movi     r7,-0x2
   81ba3:	28 e1 0c                	b.sh       0x30(r1),r7
   81ba6:	2c ea 50                	b.lwz      r7,0x8(r10)
   81ba9:	25 44 00                	b.lbz      r10,0x0(r4)
   81bac:	2c e1 34                	b.sw       0x2c(r1),r7
   81baf:	3c aa 50                	b.sfgtui   r10,0xa
   81bb2:	47 24 c0                	b.bf       81be4 <v6LP_Tick+0x35c>
   81bb5:	00 c8                   	b.movi     r6,0x1
   81bb7:	3e 0a 39                	b.extbs    r7,r10
   81bba:	60 e6 3e                	b.sll      r7,r6,r7
   81bbd:	94 c7 31 a0 00 00       	b.andi     r6,r7,0x58c
   81bc3:	41 06 d0                	b.bnei     r6,0x0,81bce <v6LP_Tick+0x346>
   81bc6:	34 e7 40                	b.andi     r7,r7,0x2
   81bc9:	41 07 f0                	b.bnei     r7,0x0,81bd8 <v6LP_Tick+0x350>
   81bcc:	0c 60                   	b.j        81be4 <v6LP_Tick+0x35c>
   81bce:	30 81 24                	b.addi     r4,r1,0x24
   81bd1:	04 6a                   	b.mov      r3,r10
   81bd3:	48 f7 42                	b.jal      9278f <vNetworkModule_Update>
   81bd6:	0d c0                   	b.j        81be4 <v6LP_Tick+0x35c>
   81bd8:	88 60 dc 20 00 20       	b.lhz      r3,0x400043a(r0)
   81bde:	48 3f 28                	b.jal      86fce <eCreateSocket.6721>
   81be1:	49 61 82                	b.jal      921fb <vStartTrapTimer>
   81be4:	04 6a                   	b.mov      r3,r10
   81be6:	30 81 24                	b.addi     r4,r1,0x24
   81be9:	38 a0 08                	b.ori      r5,r0,0x10
   81bec:	46 42 40                	b.j        81e2e <v6LP_Tick+0x5a6>
   81bef:	8c e0 7c b0 00 20       	b.lwz      r7,0x4000d3c(r0)
   81bf5:	2c e7 63                	b.lwz      r7,0xc4(r7)
   81bf8:	40 07 60                	b.beqi     r7,0x0,81bfe <v6LP_Tick+0x376>
   81bfb:	47 d1 38                	b.jalr     r7
   81bfe:	00 6a                   	b.movi     r3,0x5
   81c00:	0e 07                   	b.j        81b81 <v6LP_Tick+0x2f9>
   81c02:	38 60 90                	b.ori      r3,r0,0x9
   81c05:	46 24 40                	b.j        81e29 <v6LP_Tick+0x5a1>
   81c08:	88 e0 ec 20 00 20       	b.lhz      r7,0x4000436(r0)
   81c0e:	2c 01 25                	b.sw       0xa4(r1),r0
   81c11:	04 61                   	b.mov      r3,r1
   81c13:	2c 01 0d                	b.sw       0xb0(r1),r0
   81c16:	2c 01 2d                	b.sw       0xb4(r1),r0
   81c19:	2c 01 1d                	b.sw       0xb8(r1),r0
   81c1c:	2c 01 3d                	b.sw       0xbc(r1),r0
   81c1f:	28 e1 15                	b.sh       0xa8(r1),r7
   81c22:	48 6b 08                	b.jal      85f7a <i6LP_DefGetDataBuffer>
   81c25:	d0 40 33 04             	b.bnei     r3,0x0,81e31 <v6LP_Tick+0x5a9>
   81c29:	2c 61 40                	b.lwz      r3,0x0(r1)
   81c2c:	38 a0 10                	b.ori      r5,r0,0x8
   81c2f:	04 8a                   	b.mov      r4,r10
   81c31:	20 03 00                	b.sb       0x0(r3),r0
   81c34:	20 03 80                	b.sb       0x1(r3),r0
   81c37:	00 74                   	b.addi     r3,r3,0x2
   81c39:	d4 c4 27 ef             	b.jal      5c <memcpy>
   81c3d:	2c 81 40                	b.lwz      r4,0x0(r1)
   81c40:	8c 60 72 00 00 20       	b.lwz      r3,0x400004c(r0)
   81c46:	38 a0 50                	b.ori      r5,r0,0xa
   81c49:	d8 c1 25 00             	b.addi     r6,r1,0xa4
   81c4d:	4b bd 04                	b.jal      89f44 <i6LP_DefSendTo.constprop.23>
   81c50:	0e 1e                   	b.j        81e31 <v6LP_Tick+0x5a9>
   81c52:	38 60 30                	b.ori      r3,r0,0xc
   81c55:	0c ae                   	b.j        81e29 <v6LP_Tick+0x5a1>
   81c57:	24 ea c8                	b.lbz      r7,0x13(r10)
   81c5a:	30 cb 2f                	b.addi     r6,r11,-0xc
   81c5d:	31 aa 10                	b.addi     r13,r10,0x8
   81c60:	3e 06 30                	b.extbz    r6,r6
   81c63:	40 67 22                	b.beqi     r7,0x6,81ca7 <v6LP_Tick+0x41f>
   81c66:	d1 d8 7b 00             	b.bgtui    r7,0x6,81c73 <v6LP_Tick+0x3eb>
   81c6a:	40 47 b8                	b.beqi     r7,0x2,81c87 <v6LP_Tick+0x3ff>
   81c6d:	d0 48 72 38             	b.bnei     r7,0x4,81e31 <v6LP_Tick+0x5a9>
   81c71:	0d b0                   	b.j        81ca7 <v6LP_Tick+0x41f>
   81c73:	9d 87 21 00 00 00       	b.sfeqi    r7,0x84
   81c79:	47 27 c8                	b.bf       81db7 <v6LP_Tick+0x52f>
   81c7c:	9d 87 61 00 00 00       	b.sfeqi    r7,0x86
   81c82:	47 3f 58                	b.bnf      81e31 <v6LP_Tick+0x5a9>
   81c85:	0d 32                   	b.j        81db7 <v6LP_Tick+0x52f>
   81c87:	8c 60 61 20 00 20       	b.lwz      r3,0x4000484(r0)
   81c8d:	84 a0 1c 20 00 20       	b.lbz      r5,0x4000438(r0)
   81c93:	84 e0 5a 00 00 20       	b.lbz      r7,0x400005a(r0)
   81c99:	30 8a 28                	b.addi     r4,r10,0x14
   81c9c:	4a b0 82                	b.jal      920d1 <u8DecompressAddrs.16978>
   81c9f:	80 60 1c 20 00 20       	b.sb       0x4000438(r0),r3
   81ca5:	0c c6                   	b.j        81e31 <v6LP_Tick+0x5a9>
   81ca7:	8c e0 7c b0 00 20       	b.lwz      r7,0x4000d3c(r0)
   81cad:	24 e7 12                	b.lbz      r7,0x48(r7)
   81cb0:	d0 60 70 f0             	b.bnei     r7,0x1,81da0 <v6LP_Tick+0x518>
   81cb4:	d9 c1 23 00             	b.addi     r14,r1,0xc4
   81cb8:	30 8a 28                	b.addi     r4,r10,0x14
   81cbb:	04 6e                   	b.mov      r3,r14
   81cbd:	00 a0                   	b.movi     r5,0x0
   81cbf:	00 e2                   	b.movi     r7,0x4
   81cc1:	48 20 82                	b.jal      920d1 <u8DecompressAddrs.16978>
   81cc4:	05 63                   	b.mov      r11,r3
   81cc6:	d0 00 3d 68             	b.beqi     r3,0x0,81e31 <v6LP_Tick+0x5a9>
   81cca:	24 ea c8                	b.lbz      r7,0x13(r10)
   81ccd:	41 27 5c                	b.bnei     r7,0x4,81d07 <v6LP_Tick+0x47f>
   81cd0:	0d 60                   	b.j        81cea <v6LP_Tick+0x462>
   81cd2:	6c 6d 20                	b.slli     r3,r13,0x4
   81cd5:	08 6e                   	b.add      r3,r3,r14
   81cd7:	01 b8                   	b.addi     r13,r13,0x1
   81cd9:	8c 80 61 20 00 20       	b.lwz      r4,0x4000484(r0)
   81cdf:	4a e6 df                	b.jal      80a7c <u8GroupAddUnique.16973>
   81ce2:	80 60 1c 20 00 20       	b.sb       0x4000438(r0),r3
   81ce8:	0c 80                   	b.j        81cec <v6LP_Tick+0x464>
   81cea:	01 a0                   	b.movi     r13,0x0
   81cec:	84 a0 1c 20 00 20       	b.lbz      r5,0x4000438(r0)
   81cf2:	84 e0 5a 00 00 20       	b.lbz      r7,0x400005a(r0)
   81cf8:	d3 8a 71 00             	b.bgeu     r5,r7,81d00 <v6LP_Tick+0x478>
   81cfc:	d3 56 d6 bf             	b.bgts     r11,r13,81cd2 <v6LP_Tick+0x44a>
   81d00:	00 e8                   	b.movi     r7,0x1
   81d02:	20 e1 82                	b.sb       0x41(r1),r7
   81d05:	0e 80                   	b.j        81d0a <v6LP_Tick+0x482>
   81d07:	20 01 82                	b.sb       0x41(r1),r0
   81d0a:	24 aa c8                	b.lbz      r5,0x13(r10)
   81d0d:	d9 a1 23 00             	b.addi     r13,r1,0xc4
   81d11:	04 8b                   	b.mov      r4,r11
   81d13:	04 6d                   	b.mov      r3,r13
   81d15:	49 77 a4                	b.jal      8b4cf <bGenerateMLDv2.16953>
   81d18:	31 ca d0                	b.addi     r14,r10,0xb
   81d1b:	38 a0 10                	b.ori      r5,r0,0x8
   81d1e:	30 61 2c                	b.addi     r3,r1,0x34
   81d21:	04 8e                   	b.mov      r4,r14
   81d23:	d4 9c c7 ef             	b.jal      5c <memcpy>
   81d27:	38 60 d0                	b.ori      r3,r0,0xb
   81d2a:	30 81 2c                	b.addi     r4,r1,0x34
   81d2d:	38 a0 08                	b.ori      r5,r0,0x10
   81d30:	2d a1 3c                	b.sw       0x3c(r1),r13
   81d33:	21 61 02                	b.sb       0x40(r1),r11
   81d36:	4a 6e 3c                	b.jal      90f0f <vJIP_StackEvent>
   81d39:	38 e0 04                	b.ori      r7,r0,0x20
   81d3c:	38 a0 10                	b.ori      r5,r0,0x8
   81d3f:	30 61 38                	b.addi     r3,r1,0x1c
   81d42:	04 8e                   	b.mov      r4,r14
   81d44:	c0 e1 22 80             	b.sb       0x144(r1),r7
   81d48:	38 e0 0a                	b.ori      r7,r0,0x50
   81d4b:	c0 e1 62 80             	b.sb       0x146(r1),r7
   81d4f:	24 ea c8                	b.lbz      r7,0x13(r10)
   81d52:	30 e7 01                	b.addi     r7,r7,-0x80
   81d55:	c0 e1 f2 80             	b.sb       0x14f(r1),r7
   81d59:	d4 c0 c7 ef             	b.jal      5c <memcpy>
   81d5d:	2c e1 78                	b.lwz      r7,0x1c(r1)
   81d60:	98 80 1a 20 00 20       	b.ori      r4,r0,0x4000458
   81d66:	38 a0 10                	b.ori      r5,r0,0x8
   81d69:	04 6e                   	b.mov      r3,r14
   81d6b:	cc e1 0a 80             	b.sw       0x150(r1),r7
   81d6f:	2c e1 44                	b.lwz      r7,0x20(r1)
   81d72:	cc e1 2a 80             	b.sw       0x154(r1),r7
   81d76:	d4 67 47 ef             	b.jal      5c <memcpy>
   81d7a:	d8 61 1a 80             	b.addi     r3,r1,0x158
   81d7e:	04 8d                   	b.mov      r4,r13
   81d80:	04 ab                   	b.mov      r5,r11
   81d82:	49 72 df                	b.jal      80abc <u8CompressAddrs.16958>
   81d85:	30 e3 28                	b.addi     r7,r3,0x14
   81d88:	00 80                   	b.movi     r4,0x0
   81d8a:	8c 60 4c b0 00 20       	b.lwz      r3,0x4000d30(r0)
   81d90:	30 a1 38                	b.addi     r5,r1,0x1c
   81d93:	d8 63 19 80             	b.addi     r3,r3,0x198
   81d97:	d8 c1 22 80             	b.addi     r6,r1,0x144
   81d9b:	3e 07 3a                	b.exthz    r7,r7
   81d9e:	0f 04                   	b.j        81e21 <v6LP_Tick+0x599>
   81da0:	8c 60 4c b0 00 20       	b.lwz      r3,0x4000d30(r0)
   81da6:	00 80                   	b.movi     r4,0x0
   81da8:	d8 63 19 80             	b.addi     r3,r3,0x198
   81dac:	00 a0                   	b.movi     r5,0x0
   81dae:	04 cd                   	b.mov      r6,r13
   81db0:	04 eb                   	b.mov      r7,r11
   81db2:	48 5a 9c                	b.jal      9031a <eNwk_TransmitPacketVect>
   81db5:	0c f8                   	b.j        81e31 <v6LP_Tick+0x5a9>
   81db7:	30 61 38                	b.addi     r3,r1,0x1c
   81dba:	30 8a 28                	b.addi     r4,r10,0x14
   81dbd:	38 a0 10                	b.ori      r5,r0,0x8
   81dc0:	d4 39 47 ef             	b.jal      5c <memcpy>
   81dc4:	8c e0 7a 20 00 20       	b.lwz      r7,0x400045c(r0)
   81dca:	2c c1 44                	b.lwz      r6,0x20(r1)
   81dcd:	d2 cc 78 20             	b.bne      r6,r7,81e0e <v6LP_Tick+0x586>
   81dd1:	8c e0 5a 20 00 20       	b.lwz      r7,0x4000458(r0)
   81dd7:	2c c1 78                	b.lwz      r6,0x1c(r1)
   81dda:	d2 cc 72 c0             	b.bne      r6,r7,81e0e <v6LP_Tick+0x586>
   81dde:	30 8a 38                	b.addi     r4,r10,0x1c
   81de1:	30 cb 37                	b.addi     r6,r11,-0x14
   81de4:	d8 61 23 00             	b.addi     r3,r1,0xc4
   81de8:	00 a0                   	b.movi     r5,0x0
   81dea:	3e 06 30                	b.extbz    r6,r6
   81ded:	00 e2                   	b.movi     r7,0x4
   81def:	49 1d 02                	b.jal      920d1 <u8DecompressAddrs.16978>
   81df2:	24 aa c8                	b.lbz      r5,0x13(r10)
   81df5:	30 e0 21                	b.addi     r7,r0,-0x7c
   81df8:	60 a5 3a                	b.xor      r5,r5,r7
   81dfb:	3e 05 28                	b.extbz    r5,r5
   81dfe:	00 bf                   	b.addi     r5,r5,-0x1
   81e00:	04 83                   	b.mov      r4,r3
   81e02:	6c a5 f9                	b.srli     r5,r5,0x1f
   81e05:	d8 61 23 00             	b.addi     r3,r1,0xc4
   81e09:	4a 6d a0                	b.jal      834e2 <v6LP_SocketGroupChangeAcked>
   81e0c:	0e 90                   	b.j        81e31 <v6LP_Tick+0x5a9>
   81e0e:	8c 60 4c b0 00 20       	b.lwz      r3,0x4000d30(r0)
   81e14:	30 a1 38                	b.addi     r5,r1,0x1c
   81e17:	d8 63 19 80             	b.addi     r3,r3,0x198
   81e1b:	04 8a                   	b.mov      r4,r10
   81e1d:	04 cd                   	b.mov      r6,r13
   81e1f:	04 eb                   	b.mov      r7,r11
   81e21:	4a 97 38                	b.jal      891c6 <ePAR_RoutePacketVect>
   81e24:	0e c0                   	b.j        81e31 <v6LP_Tick+0x5a9>
   81e26:	38 60 b0                	b.ori      r3,r0,0xd
   81e29:	38 a0 10                	b.ori      r5,r0,0x8
   81e2c:	04 8a                   	b.mov      r4,r10
   81e2e:	4a 1c 3c                	b.jal      90f0f <vJIP_StackEvent>
   81e31:	84 e0 b1 20 00 20       	b.lbz      r7,0x400048d(r0)
   81e37:	84 c0 da 00 00 20       	b.lbz      r6,0x400005b(r0)
   81e3d:	00 f8                   	b.addi     r7,r7,0x1
   81e3f:	3e 07 38                	b.extbz    r7,r7
   81e42:	3d e6 38                	b.sfgtu    r6,r7
   81e45:	64 e7 02                	b.cmov     r7,r7,r0
   81e48:	80 e0 b1 20 00 20       	b.sb       0x400048d(r0),r7
   81e4e:	84 c0 b1 20 00 20       	b.lbz      r6,0x400048d(r0)
   81e54:	84 e0 31 20 00 20       	b.lbz      r7,0x400048c(r0)
   81e5a:	3e 06 30                	b.extbz    r6,r6
   81e5d:	3e 07 38                	b.extbz    r7,r7
   81e60:	d2 cc 74 55             	b.bne      r6,r7,81902 <v6LP_Tick+0x7a>
   81e64:	30 61 20                	b.addi     r3,r1,0x4
   81e67:	48 5c a0                	b.jal      8334f <vMicroIntEnableOnly.constprop.100>
   81e6a:	8c e0 72 20 00 20       	b.lwz      r7,0x400044c(r0)
   81e70:	40 07 44                	b.beqi     r7,0x0,81e92 <v6LP_Tick+0x60a>
   81e73:	8c c0 46 00 00 20       	b.lwz      r6,0x4000060(r0)
   81e79:	60 ec 3d                	b.sub      r7,r12,r7
   81e7c:	d3 cc 76 80             	b.bgtu     r6,r7,81e92 <v6LP_Tick+0x60a>
   81e80:	8c 00 12 20 00 20       	b.sw       0x4000448(r0),r0
   81e86:	8c 00 22 20 00 20       	b.sw       0x4000444(r0),r0
   81e8c:	8c 00 32 20 00 20       	b.sw       0x400044c(r0),r0
   81e92:	8c e0 52 20 00 20       	b.lwz      r7,0x4000448(r0)
   81e98:	8c 60 42 20 00 20       	b.lwz      r3,0x4000440(r0)
   81e9e:	8d a0 7c 20 00 20       	b.lwz      r13,0x400043c(r0)
   81ea4:	60 e7 18                	b.and      r7,r7,r3
   81ea7:	3c 2c 00                	b.sfnei    r12,0x0
   81eaa:	8c e0 12 20 00 20       	b.sw       0x4000448(r0),r7
   81eb0:	98 80 12 20 00 20       	b.ori      r4,r0,0x4000448
   81eb6:	d8 a1 20 80             	b.addi     r5,r1,0x104
   81eba:	01 e8                   	b.movi     r15,0x1
   81ebc:	8c e0 62 20 00 20       	b.lwz      r7,0x4000444(r0)
   81ec2:	65 ec 7a                	b.cmov     r15,r12,r15
   81ec5:	60 e7 68                	b.and      r7,r7,r13
   81ec8:	01 68                   	b.movi     r11,0x1
   81eca:	8c e0 22 20 00 20       	b.sw       0x4000444(r0),r7
   81ed0:	4a 6c df                	b.jal      80ba9 <u8GetChangedButUnnotifiedGroups.16025>
   81ed3:	05 43                   	b.mov      r10,r3
   81ed5:	41 03 38                	b.bnei     r3,0x0,81ef1 <v6LP_Tick+0x669>
   81ed8:	98 80 22 20 00 20       	b.ori      r4,r0,0x4000444
   81ede:	d8 a1 20 80             	b.addi     r5,r1,0x104
   81ee2:	04 6d                   	b.mov      r3,r13
   81ee4:	01 64                   	b.movi     r11,0x2
   81ee6:	4b 0c df                	b.jal      80ba9 <u8GetChangedButUnnotifiedGroups.16025>
   81ee9:	3c 03 00                	b.sfeqi    r3,0x0
   81eec:	65 6b 02                	b.cmov     r11,r11,r0
   81eef:	05 43                   	b.mov      r10,r3
   81ef1:	30 61 20                	b.addi     r3,r1,0x4
   81ef4:	4b 17 90                	b.jal      84697 <vMicroIntRestoreState>
   81ef7:	d0 10 bc 10             	b.beqi     r11,0x2,81f7a <v6LP_Tick+0x6f2>
   81efb:	00 e2                   	b.movi     r7,0x4
   81efd:	3c 0b 00                	b.sfeqi    r11,0x0
   81f00:	00 a6                   	b.movi     r5,0x6
   81f02:	64 a5 3a                	b.cmov     r5,r5,r7
   81f05:	01 a8                   	b.movi     r13,0x1
   81f07:	8c e0 74 b0 00 20       	b.lwz      r7,0x4000d2c(r0)
   81f0d:	c8 e7 8a 80             	b.lhz      r7,0x150(r7)
   81f11:	34 e7 80                	b.andi     r7,r7,0x1
   81f14:	41 07 54                	b.bnei     r7,0x0,81f3e <v6LP_Tick+0x6b6>
   81f17:	8c e0 7c b0 00 20       	b.lwz      r7,0x4000d3c(r0)
   81f1d:	d8 61 20 80             	b.addi     r3,r1,0x104
   81f21:	04 8a                   	b.mov      r4,r10
   81f23:	24 e7 12                	b.lbz      r7,0x48(r7)
   81f26:	41 87 c8                	b.bnei     r7,0x1,81f39 <v6LP_Tick+0x6b1>
   81f29:	49 96 a4                	b.jal      8b4cf <bGenerateMLDv2.16953>
   81f2c:	d8 61 20 80             	b.addi     r3,r1,0x104
   81f30:	04 8a                   	b.mov      r4,r10
   81f32:	04 ab                   	b.mov      r5,r11
   81f34:	49 d6 a0                	b.jal      834e2 <v6LP_SocketGroupChangeAcked>
   81f37:	0e 80                   	b.j        81f3c <v6LP_Tick+0x6b4>
   81f39:	48 32 5c                	b.jal      90869 <bGenerateJenNetGcastInfo.16963>
   81f3c:	01 a0                   	b.movi     r13,0x0
   81f3e:	d9 c1 20 80             	b.addi     r14,r1,0x104
   81f42:	38 60 d0                	b.ori      r3,r0,0xb
   81f45:	30 81 2c                	b.addi     r4,r1,0x34
   81f48:	38 a0 08                	b.ori      r5,r0,0x10
   81f4b:	2c 01 2c                	b.sw       0x34(r1),r0
   81f4e:	2c 01 1c                	b.sw       0x38(r1),r0
   81f51:	2d c1 3c                	b.sw       0x3c(r1),r14
   81f54:	21 41 02                	b.sb       0x40(r1),r10
   81f57:	21 61 82                	b.sb       0x41(r1),r11
   81f5a:	4a b7 dc                	b.jal      90f0f <vJIP_StackEvent>
   81f5d:	41 0d 30                	b.bnei     r13,0x0,81f69 <v6LP_Tick+0x6e1>
   81f60:	8c e0 46 00 00 20       	b.lwz      r7,0x4000060(r0)
   81f66:	41 07 70                	b.bnei     r7,0x0,81f74 <v6LP_Tick+0x6ec>
   81f69:	04 6e                   	b.mov      r3,r14
   81f6b:	04 8a                   	b.mov      r4,r10
   81f6d:	04 ab                   	b.mov      r5,r11
   81f6f:	4b 3a a0                	b.jal      834e2 <v6LP_SocketGroupChangeAcked>
   81f72:	0c 40                   	b.j        81f7a <v6LP_Tick+0x6f2>
   81f74:	8d e0 32 20 00 20       	b.sw       0x400044c(r0),r15
   81f7a:	84 e0 36 20 00 20       	b.lbz      r7,0x400046c(r0)
   81f80:	40 07 d8                	b.beqi     r7,0x0,81f9b <v6LP_Tick+0x713>
   81f83:	84 60 b6 20 00 20       	b.lbz      r3,0x400046d(r0)
   81f89:	84 80 76 20 00 20       	b.lbz      r4,0x400046e(r0)
   81f8f:	48 91 94                	b.jal      8c5b3 <bJnc_ResetStackVect>
   81f92:	41 83 90                	b.bnei     r3,0x1,81f9b <v6LP_Tick+0x713>
   81f95:	80 00 36 20 00 20       	b.sb       0x400046c(r0),r0
   81f9b:	8c e0 56 20 00 20       	b.lwz      r7,0x4000468(r0)
   81fa1:	24 e7 00                	b.lbz      r7,0x0(r7)
   81fa4:	d0 40 7b 54             	b.bnei     r7,0x0,82251 <v6LP_Tick+0x9c9>
   81fa8:	99 60 1f ed 00 00       	b.ori      r11,r0,0xb7f8
   81fae:	01 48                   	b.movi     r10,0x1
   81fb0:	8c e0 4c b0 00 20       	b.lwz      r7,0x4000d30(r0)
   81fb6:	84 a0 2a 00 00 20       	b.lbz      r5,0x4000054(r0)
   81fbc:	c4 c7 26 80             	b.lbz      r6,0x164(r7)
   81fc0:	d2 8a 65 00             	b.beq      r5,r6,81fca <v6LP_Tick+0x742>
   81fc4:	80 c0 2a 00 00 20       	b.sb       0x4000054(r0),r6
   81fca:	30 a6 ff                	b.addi     r5,r6,-0x1
   81fcd:	3e 05 28                	b.extbz    r5,r5
   81fd0:	3c a5 08                	b.sfgtui   r5,0x10
   81fd3:	47 2e 64                	b.bf       8223a <v6LP_Tick+0x9b2>
   81fd6:	6c a5 40                	b.slli     r5,r5,0x2
   81fd9:	90 a5 17 f8 10 00       	b.addi     r5,r5,0x81fe8
   81fdf:	2c a5 40                	b.lwz      r5,0x0(r5)
   81fe2:	47 d2 28                	b.jr       r5
   81fe5:	00 00                   	b.trap     0x0
   81fe7:	00 00                   	b.trap     0x0
   81fe9:	08 20                   	b.add      r1,r1,r0
   81feb:	2c 00 08                	b.sw       0x10(r0),r0
   81fee:	20 57 00                	b.sb       0x0(r23),r2
   81ff1:	08 20                   	b.add      r1,r1,r0
   81ff3:	c6 00 08 21             	b.lbz      r16,-0x7bf0(r0)
   81ff7:	52 00 08                	b.mlwz     r16,0x10(r0),0x0
   81ffa:	21 8a 00                	b.sb       0x0(r10),r12
   81ffd:	08 21                   	b.add      r1,r1,r1
   81fff:	8a 00 08 21 98 00       	b.sh       0x198410(r0),r16
   82005:	08 21                   	b.add      r1,r1,r1
   82007:	98 00 08 21 b0 00       	b.ori      r0,r0,0xd8410
   8200d:	08 21                   	b.add      r1,r1,r1
   8200f:	b5 00 08 21 cb 00       	b.copd     r8,0xd38410,0x0
   82015:	08 21                   	b.add      r1,r1,r1
   82017:	e2                      	.word 0xe2
   82018:	00 08                   	b.trap     0x1
   8201a:	22 3a 00                	b.sb       0x0(r26),r17
   8201d:	08 22                   	b.add      r1,r1,r2
   8201f:	3a 00 08                	b.ori      r16,r0,0x10
   82022:	22 07 00                	b.sb       0x0(r7),r16
   82025:	08 20                   	b.add      r1,r1,r0
   82027:	69 00 08                	b.subb     r8,r0,r1
   8202a:	20 ac 00                	b.sb       0x0(r12),r5
   8202d:	68 48 c4                	b.mod      r2,r8,r24
   82030:	70 41 03                	f.div.s    r2,r1,r0
   82033:	08 8c                   	b.add      r4,r4,r12
   82035:	e0                      	.word 0xe0
   82036:	4c                      	.word 0x4c
   82037:	b0 00 20 00 c4 2c       	b.copdss   r0,r0,r4,0x1a11800
   8203d:	07 17                   	b.mov      r24,r23
   8203f:	0f 5a                   	b.j        821aa <v6LP_Tick+0x922>
   82041:	8c e0 74 b0 00 20       	b.lwz      r7,0x4000d2c(r0)
   82047:	00 60                   	b.movi     r3,0x0
   82049:	c4 e7 30 80             	b.lbz      r7,0x10c(r7)
   8204d:	00 88                   	b.movi     r4,0x1
   8204f:	3c a7 10                	b.sfgtui   r7,0x8
   82052:	47 2e 70                	b.bf       82139 <v6LP_Tick+0x8b1>
   82055:	0e 9e                   	b.j        8223a <v6LP_Tick+0x9b2>
   82057:	2c c7 57                	b.lwz      r6,0xe8(r7)
   8205a:	9f 46 34 80 00 00       	b.sfleui   r6,0x12c
   82060:	47 25 b8                	b.bf       8223a <v6LP_Tick+0x9b2>
   82063:	c1 47 26 80             	b.sb       0x164(r7),r10
   82067:	0f 2e                   	b.j        8223a <v6LP_Tick+0x9b2>
   82069:	84 60 4a 20 00 20       	b.lbz      r3,0x4000452(r0)
   8206f:	4a 08 a0                	b.jal      834b0 <vMiniMac_PLME_SetReq_Channel>
   82072:	88 60 8a 20 00 20       	b.lhz      r3,0x4000450(r0)
   82078:	4b 24 e0                	b.jal      83d0b <vMiniMac_MLME_SetReq_PanId>
   8207b:	8d c0 4c b0 00 20       	b.lwz      r14,0x4000d30(r0)
   82081:	4a 57 f4                	b.jal      8e02a <rand>
   82084:	8c e0 6a 20 00 20       	b.lwz      r7,0x4000454(r0)
   8208a:	29 a7 90                	b.lhz      r13,0x8(r7)
   8208d:	28 87 d0                	b.lhz      r4,0xa(r7)
   82090:	60 84 6d                	b.sub      r4,r4,r13
   82093:	00 98                   	b.addi     r4,r4,0x1
   82095:	4b b3 32                	b.jal      953cc <__modsi3>
   82098:	8c e0 4c b0 00 20       	b.lwz      r7,0x4000d30(r0)
   8209e:	08 6d                   	b.add      r3,r3,r13
   820a0:	38 c0 88                	b.ori      r6,r0,0x11
   820a3:	c8 6e 05 80             	b.sh       0x1a0(r14),r3
   820a7:	2c 07 17                	b.sw       0xe8(r7),r0
   820aa:	0c 02                   	b.j        821aa <v6LP_Tick+0x922>
   820ac:	c8 c7 85 80             	b.lhz      r6,0x1a0(r7)
   820b0:	2c a7 57                	b.lwz      r5,0xe8(r7)
   820b3:	d3 8c 5e 18             	b.bgeu     r6,r5,8223a <v6LP_Tick+0x9b2>
   820b7:	c8 67 ee 80             	b.lhz      r3,0x176(r7)
   820bb:	80 00 ca 20 00 20       	b.sb       0x4000453(r0),r0
   820c1:	49 48 e0                	b.jal      83d0b <vMiniMac_MLME_SetReq_PanId>
   820c4:	0c f4                   	b.j        82180 <v6LP_Tick+0x8f8>
   820c6:	c4 c7 a6 80             	b.lbz      r6,0x165(r7)
   820ca:	41 06 14                	b.bnei     r6,0x0,820f2 <v6LP_Tick+0x86a>
   820cd:	8c c0 74 b0 00 20       	b.lwz      r6,0x4000d2c(r0)
   820d3:	c4 a6 58 80             	b.lbz      r5,0x11a(r6)
   820d7:	41 05 d8                	b.bnei     r5,0x0,820f2 <v6LP_Tick+0x86a>
   820da:	8c e0 6a 20 00 20       	b.lwz      r7,0x4000454(r0)
   820e0:	c1 46 58 80             	b.sb       0x11a(r6),r10
   820e4:	98 a0 dc 50 10 00       	b.ori      r5,r0,0x80a3b
   820ea:	28 67 90                	b.lhz      r3,0x8(r7)
   820ed:	28 87 d0                	b.lhz      r4,0xa(r7)
   820f0:	0e dc                   	b.j        821dd <v6LP_Tick+0x955>
   820f2:	84 c0 ca 20 00 20       	b.lbz      r6,0x4000453(r0)
   820f8:	40 06 10                	b.beqi     r6,0x0,82100 <v6LP_Tick+0x878>
   820fb:	38 c0 08                	b.ori      r6,r0,0x10
   820fe:	0c d4                   	b.j        821aa <v6LP_Tick+0x922>
   82100:	8c e0 74 b0 00 20       	b.lwz      r7,0x4000d2c(r0)
   82106:	c4 c7 08 80             	b.lbz      r6,0x110(r7)
   8210a:	40 06 84                	b.beqi     r6,0x0,8212b <v6LP_Tick+0x8a3>
   8210d:	88 c0 99 50 00 20       	b.lhz      r6,0x4000a98(r0)
   82113:	9f 46 ff 00 00 00       	b.sfleui   r6,0xff
   82119:	47 24 80                	b.bf       8212b <v6LP_Tick+0x8a3>
   8211c:	84 c0 4a 20 00 20       	b.lbz      r6,0x4000452(r0)
   82122:	40 06 90                	b.beqi     r6,0x0,8212b <v6LP_Tick+0x8a3>
   82125:	81 40 ca 20 00 20       	b.sb       0x4000453(r0),r10
   8212b:	c4 e7 30 80             	b.lbz      r7,0x10c(r7)
   8212f:	00 60                   	b.movi     r3,0x0
   82131:	3c e7 10                	b.sfleui   r7,0x8
   82134:	47 25 00                	b.bf       8213e <v6LP_Tick+0x8b6>
   82137:	00 8c                   	b.movi     r4,0x3
   82139:	49 78 94                	b.jal      8c5b3 <bJnc_ResetStackVect>
   8213c:	0d fc                   	b.j        8223a <v6LP_Tick+0x9b2>
   8213e:	48 fb b0                	b.jal      858ba <eJnc_StartScanVect>
   82141:	d0 40 39 f0             	b.bnei     r3,0x0,8223a <v6LP_Tick+0x9b2>
   82145:	8c e0 4c b0 00 20       	b.lwz      r7,0x4000d30(r0)
   8214b:	00 c2                   	b.movi     r6,0x4
   8214d:	2c 07 17                	b.sw       0xe8(r7),r0
   82150:	0d 68                   	b.j        821aa <v6LP_Tick+0x922>
   82152:	2c e7 57                	b.lwz      r7,0xe8(r7)
   82155:	9f 47 34 80 00 00       	b.sfleui   r7,0x12c
   8215b:	47 2f b0                	b.bf       8223a <v6LP_Tick+0x9b2>
   8215e:	8c e0 74 b0 00 20       	b.lwz      r7,0x4000d2c(r0)
   82164:	cc e7 74 80             	b.lwz      r7,0x12c(r7)
   82168:	40 07 a8                	b.beqi     r7,0x0,8217d <v6LP_Tick+0x8f5>
   8216b:	00 60                   	b.movi     r3,0x0
   8216d:	00 80                   	b.movi     r4,0x0
   8216f:	00 a0                   	b.movi     r5,0x0
   82171:	47 d1 38                	b.jalr     r7
   82174:	40 03 90                	b.beqi     r3,0x0,8217d <v6LP_Tick+0x8f5>
   82177:	00 60                   	b.movi     r3,0x0
   82179:	00 80                   	b.movi     r4,0x0
   8217b:	0d f7                   	b.j        82139 <v6LP_Tick+0x8b1>
   8217d:	4a 18 0c                	b.jal      8e1de <vJnc_ClearScanListVect>
   82180:	00 cc                   	b.movi     r6,0x3
   82182:	8c e0 4c b0 00 20       	b.lwz      r7,0x4000d30(r0)
   82188:	0d 10                   	b.j        821aa <v6LP_Tick+0x922>
   8218a:	49 45 94                	b.jal      8c814 <bJnc_StartAssociateVect>
   8218d:	8c e0 4c b0 00 20       	b.lwz      r7,0x4000d30(r0)
   82193:	2c 07 17                	b.sw       0xe8(r7),r0
   82196:	0c 94                   	b.j        8223a <v6LP_Tick+0x9b2>
   82198:	2c a7 57                	b.lwz      r5,0xe8(r7)
   8219b:	3c e5 26                	b.sfleui   r5,0x64
   8219e:	47 23 90                	b.bf       8223a <v6LP_Tick+0x9b2>
   821a1:	41 e6 e0                	b.bnei     r6,0x7,821a8 <v6LP_Tick+0x920>
   821a4:	00 ca                   	b.movi     r6,0x5
   821a6:	0c 80                   	b.j        821aa <v6LP_Tick+0x922>
   821a8:	00 c6                   	b.movi     r6,0x6
   821aa:	c0 c7 26 80             	b.sb       0x164(r7),r6
   821ae:	0c c4                   	b.j        8223a <v6LP_Tick+0x9b2>
   821b0:	4b 97 9c                	b.jal      90957 <vStartCoordVect>
   821b3:	0f 84                   	b.j        8223a <v6LP_Tick+0x9b2>
   821b5:	49 17 9c                	b.jal      90957 <vStartCoordVect>
   821b8:	8c e0 4c b0 00 20       	b.lwz      r7,0x4000d30(r0)
   821be:	00 68                   	b.movi     r3,0x1
   821c0:	c8 87 9e 80             	b.lhz      r4,0x178(r7)
   821c4:	00 a0                   	b.movi     r5,0x0
   821c6:	48 e5 74                	b.jal      8dc62 <vNwk_RouteEstablishedVect>
   821c9:	0e 38                   	b.j        8223a <v6LP_Tick+0x9b2>
   821cb:	8c e0 6a 20 00 20       	b.lwz      r7,0x4000454(r0)
   821d1:	98 a0 c2 3b 10 00       	b.ori      r5,r0,0x8dc43
   821d7:	28 67 b0                	b.lhz      r3,0xc(r7)
   821da:	28 87 f0                	b.lhz      r4,0xe(r7)
   821dd:	49 4f 28                	b.jal      875a7 <vJnc_BackOffVect>
   821e0:	0d 68                   	b.j        8223a <v6LP_Tick+0x9b2>
   821e2:	2c e7 57                	b.lwz      r7,0xe8(r7)
   821e5:	3c e7 26                	b.sfleui   r7,0x64
   821e8:	47 24 a0                	b.bf       8223a <v6LP_Tick+0x9b2>
   821eb:	49 7e 60                	b.jal      83be5 <vAHI_StartRandomNumberGenerator.constprop.90>
   821ee:	4a c9 90                	b.jal      8483b <bAHI_RndNumPoll>
   821f1:	40 03 bf                	b.beqi     r3,0x0,821ee <v6LP_Tick+0x966>
   821f4:	8c e0 4c b0 00 20       	b.lwz      r7,0x4000d30(r0)
   821fa:	cc d0 63 01             	b.lwz      r6,-0x7f3c(r16)
   821fe:	c0 c7 01 80             	b.sb       0x180(r7),r6
   82202:	38 c0 d0                	b.ori      r6,r0,0xb
   82205:	0e 97                   	b.j        821aa <v6LP_Tick+0x922>
   82207:	8c e0 74 b0 00 20       	b.lwz      r7,0x4000d2c(r0)
   8220d:	cc c7 78 80             	b.lwz      r6,0x11c(r7)
   82211:	94 c6 00 ff ff 00       	b.andi     r6,r6,0xffff00
   82217:	41 06 c8                	b.bnei     r6,0x0,8222a <v6LP_Tick+0x9a2>
   8221a:	cc e7 44 80             	b.lwz      r7,0x120(r7)
   8221e:	81 40 7e 20 00 20       	b.sb       0x400047e(r0),r10
   82224:	8c e0 01 20 00 20       	b.sw       0x4000480(r0),r7
   8222a:	8c e0 7d 08 00 40       	b.lwz      r7,0x20010bc(r0)
   82230:	34 e7 08                	b.andi     r7,r7,0x10
   82233:	40 07 e0                	b.beqi     r7,0x0,8223a <v6LP_Tick+0x9b2>
   82236:	cd 70 2d 01             	b.sw       -0x7f4c(r16),r11
   8223a:	8c e0 4c b0 00 20       	b.lwz      r7,0x4000d30(r0)
   82240:	84 c0 2a 00 00 20       	b.lbz      r6,0x4000054(r0)
   82246:	c4 e7 26 80             	b.lbz      r7,0x164(r7)
   8224a:	d2 cc 76 6b             	b.bne      r6,r7,81fb0 <v6LP_Tick+0x728>
   8224e:	46 74 c0                	b.j        8257c <v6LP_Tick+0xcf4>
   82251:	99 60 ca 90 10 00       	b.ori      r11,r0,0x80953
   82257:	99 40 c5 90 10 00       	b.ori      r10,r0,0x809a3
   8225d:	8c e0 4c b0 00 20       	b.lwz      r7,0x4000d30(r0)
   82263:	c4 c7 26 80             	b.lbz      r6,0x164(r7)
   82267:	8c e0 74 b0 00 20       	b.lwz      r7,0x4000d2c(r0)
   8226d:	41 06 84                	b.bnei     r6,0x0,8228e <v6LP_Tick+0xa06>
   82270:	c4 e7 4a 80             	b.lbz      r7,0x152(r7)
   82274:	d0 00 71 0c             	b.beqi     r7,0x0,8257c <v6LP_Tick+0xcf4>
   82278:	00 62                   	b.movi     r3,0x4
   8227a:	4b a0 3f                	b.jal      81291 <iNed_StopTimerVect>
   8227d:	8c e0 74 b0 00 20       	b.lwz      r7,0x4000d2c(r0)
   82283:	cc 07 32 80             	b.sw       0x14c(r7),r0
   82287:	c0 07 4a 80             	b.sb       0x152(r7),r0
   8228b:	46 8f 40                	b.j        8257c <v6LP_Tick+0xcf4>
   8228e:	cc e7 72 80             	b.lwz      r7,0x14c(r7)
   82292:	40 07 60                	b.beqi     r7,0x0,82298 <v6LP_Tick+0xa10>
   82295:	4b 6e 90                	b.jal      84870 <vAHI_SwReset>
   82298:	8c e0 74 b0 00 20       	b.lwz      r7,0x4000d2c(r0)
   8229e:	c4 c7 94 80             	b.lbz      r6,0x129(r7)
   822a2:	41 86 50                	b.bnei     r6,0x1,822ac <v6LP_Tick+0xa24>
   822a5:	c0 07 94 80             	b.sb       0x129(r7),r0
   822a9:	4a 26 d8                	b.jal      8903a <eApi_PollForData>
   822ac:	8c a0 74 b0 00 20       	b.lwz      r5,0x4000d2c(r0)
   822b2:	8c c0 4c b0 00 20       	b.lwz      r6,0x4000d30(r0)
   822b8:	c4 85 4a 80             	b.lbz      r4,0x152(r5)
   822bc:	c4 e6 26 80             	b.lbz      r7,0x164(r6)
   822c0:	d2 88 71 20             	b.beq      r4,r7,82308 <v6LP_Tick+0xa80>
   822c4:	c0 e5 4a 80             	b.sb       0x152(r5),r7
   822c8:	3c 07 b0                	b.sfeqi    r7,0xd
   822cb:	47 25 00                	b.bf       822d5 <v6LP_Tick+0xa4d>
   822ce:	cd a6 65 80             	b.lwz      r13,0x1a4(r6)
   822d2:	41 0d 28                	b.bnei     r13,0x0,822e6 <v6LP_Tick+0xa5e>
   822d5:	00 62                   	b.movi     r3,0x4
   822d7:	49 77 df                	b.jal      81291 <iNed_StopTimerVect>
   822da:	8c e0 74 b0 00 20       	b.lwz      r7,0x4000d2c(r0)
   822e0:	cc 07 32 80             	b.sw       0x14c(r7),r0
   822e4:	0c 90                   	b.j        82308 <v6LP_Tick+0xa80>
   822e6:	4a 63 df                	b.jal      811ff <vInterrupt_Suspend>
   822e9:	8c e0 74 b0 00 20       	b.lwz      r7,0x4000d2c(r0)
   822ef:	cc c7 5a 80             	b.lwz      r6,0x158(r7)
   822f3:	09 a6                   	b.add      r13,r13,r6
   822f5:	cd a7 39 80             	b.sw       0x19c(r7),r13
   822f9:	cc 07 05 80             	b.sw       0x1a0(r7),r0
   822fd:	cd 67 25 80             	b.sw       0x1a4(r7),r11
   82301:	cc 07 15 80             	b.sw       0x1a8(r7),r0
   82305:	4a 8d df                	b.jal      811ca <vInterrupt_Resume>
   82308:	8c e0 4c b0 00 20       	b.lwz      r7,0x4000d30(r0)
   8230e:	c4 c7 26 80             	b.lbz      r6,0x164(r7)
   82312:	3c a6 f0                	b.sfgtui   r6,0xf
   82315:	47 26 84                	b.bf       8252b <v6LP_Tick+0xca3>
   82318:	6c c6 40                	b.slli     r6,r6,0x2
   8231b:	90 c6 14 c4 10 00       	b.addi     r6,r6,0x82328
   82321:	2c c6 40                	b.lwz      r6,0x0(r6)
   82324:	47 d2 30                	b.jr       r6
   82327:	00 00                   	b.trap     0x0
   82329:	08 25                   	b.add      r1,r1,r5
   8232b:	32 00 08                	b.addi     r16,r0,0x10
   8232e:	25 2b 00                	b.lbz      r9,0x0(r11)
   82331:	08 25                   	b.add      r1,r1,r5
   82333:	2b 00 08                	b.sh       0x10(r0),r24
   82336:	23 68 00                	b.sb       0x0(r8),r27
   82339:	08 23                   	b.add      r1,r1,r3
   8233b:	dc 00 08 23             	f.beq.s    r0,r0,81f7c <v6LP_Tick+0x6f4>
   8233f:	f0                      	.word 0xf0
   82340:	00 08                   	b.trap     0x1
   82342:	23 f0 00                	b.sb       0x0(r16),r31
   82345:	08 25                   	b.add      r1,r1,r5
   82347:	32 00 08                	b.addi     r16,r0,0x10
   8234a:	25 32 00                	b.lbz      r9,0x0(r18)
   8234d:	08 25                   	b.add      r1,r1,r5
   8234f:	2b 00 08                	b.sh       0x10(r0),r24
   82352:	25 2b 00                	b.lbz      r9,0x0(r11)
   82355:	08 24                   	b.add      r1,r1,r4
   82357:	1d                      	.word 0x1d
   82358:	00 08                   	b.trap     0x1
   8235a:	24 2c 00                	b.lbz      r1,0x0(r12)
   8235d:	08 24                   	b.add      r1,r1,r4
   8235f:	77 00 08                	b.adds     r24,r0,r1
   82362:	24 8e 00                	b.lbz      r4,0x0(r14)
   82365:	08 24                   	b.add      r1,r1,r4
   82367:	d9 24 e7 18             	b.addi     r9,r4,0x18e7
   8236b:	40 07 82                	b.beqi     r7,0x0,823ac <v6LP_Tick+0xb24>
   8236e:	8c e0 74 b0 00 20       	b.lwz      r7,0x4000d2c(r0)
   82374:	cc e7 74 80             	b.lwz      r7,0x12c(r7)
   82378:	40 07 a8                	b.beqi     r7,0x0,8238d <v6LP_Tick+0xb05>
   8237b:	00 60                   	b.movi     r3,0x0
   8237d:	00 80                   	b.movi     r4,0x0
   8237f:	00 a0                   	b.movi     r5,0x0
   82381:	47 d1 38                	b.jalr     r7
   82384:	40 03 90                	b.beqi     r3,0x0,8238d <v6LP_Tick+0xb05>
   82387:	00 60                   	b.movi     r3,0x0
   82389:	00 80                   	b.movi     r4,0x0
   8238b:	0c 96                   	b.j        8252f <v6LP_Tick+0xca7>
   8238d:	8c e0 4c b0 00 20       	b.lwz      r7,0x4000d30(r0)
   82393:	38 80 50                	b.ori      r4,r0,0xa
   82396:	2c 67 68                	b.lwz      r3,0x14(r7)
   82399:	20 07 18                	b.sb       0x18(r7),r0
   8239c:	48 c8 d2                	b.jal      94fe8 <__udivsi3>
   8239f:	98 a0 0a 90 10 00       	b.ori      r5,r0,0x80950
   823a5:	3e 03 1a                	b.exthz    r3,r3
   823a8:	04 83                   	b.mov      r4,r3
   823aa:	0c 4c                   	b.j        82472 <v6LP_Tick+0xbea>
   823ac:	00 60                   	b.movi     r3,0x0
   823ae:	48 c2 b0                	b.jal      858ba <eJnc_StartScanVect>
   823b1:	d0 40 35 e8             	b.bnei     r3,0x0,8252b <v6LP_Tick+0xca3>
   823b5:	8c e0 4c b0 00 20       	b.lwz      r7,0x4000d30(r0)
   823bb:	00 c2                   	b.movi     r6,0x4
   823bd:	20 07 18                	b.sb       0x18(r7),r0
   823c0:	c0 c7 26 80             	b.sb       0x164(r7),r6
   823c4:	2d a7 48                	b.lwz      r13,0x10(r7)
   823c7:	48 71 df                	b.jal      811ff <vInterrupt_Suspend>
   823ca:	8c e0 74 b0 00 20       	b.lwz      r7,0x4000d2c(r0)
   823d0:	cc c7 5a 80             	b.lwz      r6,0x158(r7)
   823d4:	09 a6                   	b.add      r13,r13,r6
   823d6:	cd a7 3a 80             	b.sw       0x15c(r7),r13
   823da:	0d 30                   	b.j        8240c <v6LP_Tick+0xb84>
   823dc:	24 e7 18                	b.lbz      r7,0x18(r7)
   823df:	d0 00 7c a8             	b.beqi     r7,0x0,82532 <v6LP_Tick+0xcaa>
   823e3:	4b 7e f4                	b.jal      8e1de <vJnc_ClearScanListVect>
   823e6:	00 cc                   	b.movi     r6,0x3
   823e8:	8c e0 4c b0 00 20       	b.lwz      r7,0x4000d30(r0)
   823ee:	0d e8                   	b.j        8244c <v6LP_Tick+0xbc4>
   823f0:	48 90 94                	b.jal      8c814 <bJnc_StartAssociateVect>
   823f3:	d0 00 3f c8             	b.beqi     r3,0x0,82532 <v6LP_Tick+0xcaa>
   823f7:	48 41 df                	b.jal      811ff <vInterrupt_Suspend>
   823fa:	8c e0 74 b0 00 20       	b.lwz      r7,0x4000d2c(r0)
   82400:	cc c7 5a 80             	b.lwz      r6,0x158(r7)
   82404:	d8 c6 17 c0             	b.addi     r6,r6,0x3e8
   82408:	cc c7 3a 80             	b.sw       0x15c(r7),r6
   8240c:	cc 07 06 80             	b.sw       0x160(r7),r0
   82410:	cd 47 26 80             	b.sw       0x164(r7),r10
   82414:	cc 07 16 80             	b.sw       0x168(r7),r0
   82418:	49 36 df                	b.jal      811ca <vInterrupt_Resume>
   8241b:	0f a2                   	b.j        82532 <v6LP_Tick+0xcaa>
   8241d:	38 c0 30                	b.ori      r6,r0,0xc
   82420:	20 07 10                	b.sb       0x8(r7),r0
   82423:	c0 c7 26 80             	b.sb       0x164(r7),r6
   82427:	48 4d b4                	b.jal      8daef <vJnc_SendEstablishRouteVect.constprop.31>
   8242a:	0c 42                   	b.j        82532 <v6LP_Tick+0xcaa>
   8242c:	24 e7 10                	b.lbz      r7,0x8(r7)
   8242f:	40 07 c4                	b.beqi     r7,0x0,82452 <v6LP_Tick+0xbca>
   82432:	4b 37 a0                	b.jal      83be5 <vAHI_StartRandomNumberGenerator.constprop.90>
   82435:	49 80 90                	b.jal      8483b <bAHI_RndNumPoll>
   82438:	40 03 bf                	b.beqi     r3,0x0,82435 <v6LP_Tick+0xbad>
   8243b:	8c e0 4c b0 00 20       	b.lwz      r7,0x4000d30(r0)
   82441:	cc d0 63 01             	b.lwz      r6,-0x7f3c(r16)
   82445:	c0 c7 01 80             	b.sb       0x180(r7),r6
   82449:	38 c0 d0                	b.ori      r6,r0,0xb
   8244c:	c0 c7 26 80             	b.sb       0x164(r7),r6
   82450:	0d 1c                   	b.j        82532 <v6LP_Tick+0xcaa>
   82452:	8c e0 74 b0 00 20       	b.lwz      r7,0x4000d2c(r0)
   82458:	c4 e7 b8 80             	b.lbz      r7,0x11d(r7)
   8245c:	d0 40 76 b0             	b.bnei     r7,0x0,82532 <v6LP_Tick+0xcaa>
   82460:	8c e0 6a 20 00 20       	b.lwz      r7,0x4000454(r0)
   82466:	98 a0 82 90 10 00       	b.ori      r5,r0,0x80941
   8246c:	28 67 b0                	b.lhz      r3,0xc(r7)
   8246f:	28 87 f0                	b.lhz      r4,0xe(r7)
   82472:	4a b2 28                	b.jal      875a7 <vJnc_BackOffVect>
   82475:	0e f4                   	b.j        82532 <v6LP_Tick+0xcaa>
   82477:	8c e0 74 b0 00 20       	b.lwz      r7,0x4000d2c(r0)
   8247d:	c4 c7 54 80             	b.lbz      r6,0x12a(r7)
   82481:	d0 00 68 d0             	b.beqi     r6,0x0,82532 <v6LP_Tick+0xcaa>
   82485:	c0 07 54 80             	b.sb       0x12a(r7),r0
   82489:	4a 37 58                	b.jal      8903a <eApi_PollForData>
   8248c:	0d 94                   	b.j        82532 <v6LP_Tick+0xcaa>
   8248e:	8c c0 56 20 00 20       	b.lwz      r6,0x4000468(r0)
   82494:	24 c6 2c                	b.lbz      r6,0x34(r6)
   82497:	d0 00 6d 90             	b.beqi     r6,0x0,82532 <v6LP_Tick+0xcaa>
   8249b:	c4 c7 45 80             	b.lbz      r6,0x1a2(r7)
   8249f:	8c e0 74 b0 00 20       	b.lwz      r7,0x4000d2c(r0)
   824a5:	00 60                   	b.movi     r3,0x0
   824a7:	c0 c7 d8 80             	b.sb       0x11b(r7),r6
   824ab:	49 9e df                	b.jal      81291 <iNed_StopTimerVect>
   824ae:	00 68                   	b.movi     r3,0x1
   824b0:	4a 1e df                	b.jal      81291 <iNed_StopTimerVect>
   824b3:	00 64                   	b.movi     r3,0x2
   824b5:	48 ee df                	b.jal      81291 <iNed_StopTimerVect>
   824b8:	8c e0 4c b0 00 20       	b.lwz      r7,0x4000d30(r0)
   824be:	c8 c7 85 80             	b.lhz      r6,0x1a0(r7)
   824c2:	d8 e0 02 80             	b.addi     r7,r0,0x140
   824c6:	64 e6 3b                	b.mul      r7,r6,r7
   824c9:	8c e0 01 20 00 20       	b.sw       0x4000480(r0),r7
   824cf:	00 e8                   	b.movi     r7,0x1
   824d1:	80 e0 7e 20 00 20       	b.sb       0x400047e(r0),r7
   824d7:	0f 68                   	b.j        82532 <v6LP_Tick+0xcaa>
   824d9:	8c e0 74 b0 00 20       	b.lwz      r7,0x4000d2c(r0)
   824df:	cc e7 78 80             	b.lwz      r7,0x11c(r7)
   824e3:	94 e7 00 ff ff 00       	b.andi     r7,r7,0xffff00
   824e9:	41 07 54                	b.bnei     r7,0x0,82513 <v6LP_Tick+0xc8b>
   824ec:	00 60                   	b.movi     r3,0x0
   824ee:	4b 16 df                	b.jal      81291 <iNed_StopTimerVect>
   824f1:	00 68                   	b.movi     r3,0x1
   824f3:	49 e6 df                	b.jal      81291 <iNed_StopTimerVect>
   824f6:	00 64                   	b.movi     r3,0x2
   824f8:	4a 66 df                	b.jal      81291 <iNed_StopTimerVect>
   824fb:	8c e0 74 b0 00 20       	b.lwz      r7,0x4000d2c(r0)
   82501:	cc e7 44 80             	b.lwz      r7,0x120(r7)
   82505:	8c e0 01 20 00 20       	b.sw       0x4000480(r0),r7
   8250b:	00 e8                   	b.movi     r7,0x1
   8250d:	80 e0 7e 20 00 20       	b.sb       0x400047e(r0),r7
   82513:	8c e0 7d 08 00 40       	b.lwz      r7,0x20010bc(r0)
   82519:	34 e7 08                	b.andi     r7,r7,0x10
   8251c:	40 07 68                	b.beqi     r7,0x0,82532 <v6LP_Tick+0xcaa>
   8251f:	98 e0 1f ed 00 00       	b.ori      r7,r0,0xb7f8
   82525:	cc f0 2d 01             	b.sw       -0x7f4c(r16),r7
   82529:	0e 40                   	b.j        82532 <v6LP_Tick+0xcaa>
   8252b:	00 60                   	b.movi     r3,0x0
   8252d:	00 8c                   	b.movi     r4,0x3
   8252f:	48 84 14                	b.jal      8c5b3 <bJnc_ResetStackVect>
   82532:	8c e0 74 b0 00 20       	b.lwz      r7,0x4000d2c(r0)
   82538:	c4 c7 4a 80             	b.lbz      r6,0x152(r7)
   8253c:	8c e0 4c b0 00 20       	b.lwz      r7,0x4000d30(r0)
   82542:	c4 e7 26 80             	b.lbz      r7,0x164(r7)
   82546:	d2 cc 7e 8b             	b.bne      r6,r7,8225d <v6LP_Tick+0x9d5>
   8254a:	0c 90                   	b.j        8256e <v6LP_Tick+0xce6>
   8254c:	30 a1 10                	b.addi     r5,r1,0x8
   8254f:	00 66                   	b.movi     r3,0x6
   82551:	21 41 10                	b.sb       0x8(r1),r10
   82554:	00 80                   	b.movi     r4,0x0
   82556:	00 c8                   	b.movi     r6,0x1
   82558:	4a 05 7c                	b.jal      91fd9 <v6LP_ProcessStackEvent>
   8255b:	8c e0 4c b0 00 20       	b.lwz      r7,0x4000d30(r0)
   82561:	2c c7 44                	b.lwz      r6,0x20(r7)
   82564:	00 df                   	b.addi     r6,r6,-0x1
   82566:	2c c7 04                	b.sw       0x20(r7),r6
   82569:	49 eb b0                	b.jal      85cc7 <vFailedPacket.11813>
   8256c:	0c 80                   	b.j        82570 <v6LP_Tick+0xce8>
   8256e:	01 44                   	b.movi     r10,0x2
   82570:	8c e0 4c b0 00 20       	b.lwz      r7,0x4000d30(r0)
   82576:	2c e7 44                	b.lwz      r7,0x20(r7)
   82579:	41 07 cb                	b.bnei     r7,0x0,8254c <v6LP_Tick+0xcc4>
   8257c:	84 e0 7e 20 00 20       	b.lbz      r7,0x400047e(r0)
   82582:	d0 00 7e b0             	b.beqi     r7,0x0,82659 <v6LP_Tick+0xdd1>
   82586:	4a 0d 90                	b.jal      84c47 <eMiniMac_FrameInProgress>
   82589:	d0 40 30 b0             	b.bnei     r3,0x0,82659 <v6LP_Tick+0xdd1>
   8258d:	8c 60 4a 00 00 20       	b.lwz      r3,0x4000050(r0)
   82593:	47 d1 18                	b.jalr     r3
   82596:	d0 60 3c 30             	b.bnei     r3,0x1,82659 <v6LP_Tick+0xdd1>
   8259a:	8c e0 74 b0 00 20       	b.lwz      r7,0x4000d2c(r0)
   825a0:	80 00 7e 20 00 20       	b.sb       0x400047e(r0),r0
   825a6:	c5 47 f8 80             	b.lbz      r10,0x11f(r7)
   825aa:	8d 60 41 20 00 20       	b.lwz      r11,0x4000480(r0)
   825b0:	4b 2e 60                	b.jal      83f83 <vAHI_WakeTimerStop.part.3.23961.constprop.33>
   825b3:	4b 2a 10                	b.jal      84706 <u8AHI_WakeTimerFiredStatus>
   825b6:	8c e0 4c b0 00 20       	b.lwz      r7,0x4000d30(r0)
   825bc:	c4 e7 66 80             	b.lbz      r7,0x166(r7)
   825c0:	40 07 f0                	b.beqi     r7,0x0,825cf <v6LP_Tick+0xd47>
   825c3:	cc f0 60 01             	b.lwz      r7,-0x7ffc(r16)
   825c7:	34 e7 10                	b.andi     r7,r7,0x8
   825ca:	40 07 84                	b.beqi     r7,0x0,825eb <v6LP_Tick+0xd63>
   825cd:	0d 40                   	b.j        825d7 <v6LP_Tick+0xd4f>
   825cf:	48 79 90                	b.jal      84c47 <eMiniMac_FrameInProgress>
   825d2:	41 03 27                	b.bnei     r3,0x0,825b6 <v6LP_Tick+0xd2e>
   825d5:	0d df                   	b.j        825c3 <v6LP_Tick+0xd3b>
   825d7:	cc f0 47 69             	b.lwz      r7,-0x6920(r16)
   825db:	80 e0 46 20 00 20       	b.sb       0x4000462(r0),r7
   825e1:	cc f0 7b 69             	b.lwz      r7,-0x6924(r16)
   825e5:	88 e0 06 20 00 20       	b.sh       0x4000460(r0),r7
   825eb:	00 60                   	b.movi     r3,0x0
   825ed:	48 6e 10                	b.jal      847c5 <vAHI_TickTimerIntEnable>
   825f0:	00 60                   	b.movi     r3,0x0
   825f2:	49 d1 10                	b.jal      84820 <vAHI_TickTimerConfigure>
   825f5:	8c e0 66 20 00 20       	b.lwz      r7,0x4000464(r0)
   825fb:	40 07 60                	b.beqi     r7,0x0,82601 <v6LP_Tick+0xd79>
   825fe:	47 d1 38                	b.jalr     r7
   82601:	d2 20 ac 80             	b.bleui    r10,0x1,82614 <v6LP_Tick+0xd8c>
   82605:	8c e0 4c b0 00 20       	b.lwz      r7,0x4000d30(r0)
   8260b:	04 6a                   	b.mov      r3,r10
   8260d:	c0 07 26 80             	b.sb       0x164(r7),r0
   82611:	4a 94 3c                	b.jal      916b6 <vAHI_Sleep>
   82614:	00 60                   	b.movi     r3,0x0
   82616:	49 9e a0                	b.jal      83bfc <vAHI_WakeTimerEnable.part.0.23947.constprop.88>
   82619:	98 e0 00 00 00 20       	b.ori      r7,r0,0x4000000
   8261f:	cc f0 08 09             	b.sw       -0x6ff0(r16),r7
   82623:	cc d0 48 09             	b.lwz      r6,-0x6ff0(r16)
   82627:	94 c6 00 00 00 20       	b.andi     r6,r6,0x4000000
   8262d:	41 06 6f                	b.bnei     r6,0x0,82623 <v6LP_Tick+0xd9b>
   82630:	d8 e0 0c 09             	b.addi     r7,r0,-0x6fd0
   82634:	08 f0                   	b.add      r7,r7,r16
   82636:	2c c7 00                	b.sw       0x0(r7),r6
   82639:	d8 e0 28 09             	b.addi     r7,r0,-0x6fec
   8263d:	08 f0                   	b.add      r7,r7,r16
   8263f:	2d 67 00                	b.sw       0x0(r7),r11
   82642:	cc f0 78 09             	b.lwz      r7,-0x6fe4(r16)
   82646:	38 e7 80                	b.ori      r7,r7,0x1
   82649:	cc f0 38 09             	b.sw       -0x6fe4(r16),r7
   8264d:	cc f0 44 09             	b.lwz      r7,-0x6fe0(r16)
   82651:	34 e7 80                	b.andi     r7,r7,0x1
   82654:	40 07 9f                	b.beqi     r7,0x0,8264d <v6LP_Tick+0xdc5>
   82657:	0d d7                   	b.j        82605 <v6LP_Tick+0xd7d>
   82659:	8c e0 6e 20 00 20       	b.lwz      r7,0x4000474(r0)
   8265f:	60 ec 3d                	b.sub      r7,r12,r7
   82662:	9f 47 c4 2f 00 00       	b.sfleui   r7,0xf423
   82668:	47 2f 00                	b.bf       82677 <v6LP_Tick+0xdef>
   8266b:	8d 80 2e 20 00 20       	b.sw       0x4000474(r0),r12
   82671:	80 00 0e 20 00 20       	b.sb       0x4000470(r0),r0
   82677:	47 be e6                	b.reti     0x7,0x67
	...

0008267c <Node_vPdmInit.constprop.103>:
   8267c:	47 ae b8                	b.entri    0x7,0x1d
   8267f:	8c e0 79 20 00 20       	b.lwz      r7,0x400049c(r0)
   82685:	85 60 05 20 00 20       	b.lbz      r11,0x40004a0(r0)
   8268b:	cc d0 60 01             	b.lwz      r6,-0x7ffc(r16)
   8268f:	34 c6 40                	b.andi     r6,r6,0x2
   82692:	a0 40 67 e1 00 00       	b.bnei     r6,0x0,82f10 <Node_vPdmInit.constprop.103+0x894>
   82698:	3e 07 38                	b.extbz    r7,r7
   8269b:	30 cb ff                	b.addi     r6,r11,-0x1
   8269e:	30 a7 ff                	b.addi     r5,r7,-0x1
   826a1:	60 c5 31                	b.or       r6,r5,r6
   826a4:	a1 40 6b c1 00 00       	b.bltsi    r6,0x0,82ee1 <Node_vPdmInit.constprop.103+0x865>
   826aa:	38 80 38                	b.ori      r4,r0,0x1c
   826ad:	98 c0 0f 20 00 20       	b.ori      r6,r0,0x40004f0
   826b3:	00 a8                   	b.movi     r5,0x1
   826b5:	8c 60 6f 20 00 20       	b.lwz      r3,0x40004f4(r0)
   826bb:	64 8b 23                	b.mul      r4,r11,r4
   826be:	80 e0 0f 20 00 20       	b.sb       0x40004f0(r0),r7
   826c4:	8c c0 01 50 00 20       	b.sw       0x4000a80(r0),r6
   826ca:	81 60 8f 20 00 20       	b.sb       0x40004f1(r0),r11
   826d0:	81 60 1f 20 00 20       	b.sb       0x40004f8(r0),r11
   826d6:	4a 39 e0                	b.jal      84547 <pvHeap_Alloc>
   826d9:	8d 40 41 50 00 20       	b.lwz      r10,0x4000a80(r0)
   826df:	8c 60 2f 20 00 20       	b.sw       0x40004f4(r0),r3
   826e5:	2c ea 60                	b.lwz      r7,0x4(r10)
   826e8:	d0 00 79 fe             	b.beqi     r7,0x0,82ee1 <Node_vPdmInit.constprop.103+0x865>
   826ec:	24 8a 00                	b.lbz      r4,0x0(r10)
   826ef:	2c 6a 78                	b.lwz      r3,0x1c(r10)
   826f2:	30 84 0f                	b.addi     r4,r4,-0x10
   826f5:	00 a8                   	b.movi     r5,0x1
   826f7:	48 29 e0                	b.jal      84547 <pvHeap_Alloc>
   826fa:	2c 6a 38                	b.sw       0x1c(r10),r3
   826fd:	8d 40 41 50 00 20       	b.lwz      r10,0x4000a80(r0)
   82703:	2c ea 78                	b.lwz      r7,0x1c(r10)
   82706:	d0 00 7d be             	b.beqi     r7,0x0,82ee1 <Node_vPdmInit.constprop.103+0x865>
   8270a:	2c 6a 44                	b.lwz      r3,0x20(r10)
   8270d:	38 80 08                	b.ori      r4,r0,0x10
   82710:	00 a8                   	b.movi     r5,0x1
   82712:	4a b1 e0                	b.jal      84547 <pvHeap_Alloc>
   82715:	8c e0 41 50 00 20       	b.lwz      r7,0x4000a80(r0)
   8271b:	2c 6a 04                	b.sw       0x20(r10),r3
   8271e:	2c c7 44                	b.lwz      r6,0x20(r7)
   82721:	d0 00 60 3e             	b.beqi     r6,0x0,82ee1 <Node_vPdmInit.constprop.103+0x865>
   82725:	2c 07 30                	b.sw       0xc(r7),r0
   82728:	99 80 00 64 9a 82       	b.ori      r12,r0,0x41592600
   8272e:	01 40                   	b.movi     r10,0x0
   82730:	2c 07 08                	b.sw       0x10(r7),r0
   82733:	2c 07 28                	b.sw       0x14(r7),r0
   82736:	2c 07 18                	b.sw       0x18(r7),r0
   82739:	20 07 21                	b.sb       0x84(r7),r0
   8273c:	30 81 06                	b.addi     r4,r1,0x60
   8273f:	3e 0a 18                	b.extbz    r3,r10
   82742:	20 61 3a                	b.sb       0x5c(r1),r3
   82745:	4a 1d 0c                	b.jal      8ea26 <iPDM_ReadSegmentHeaderFromEEPROM>
   82748:	24 e1 d6                	b.lbz      r7,0x6b(r1)
   8274b:	3c 27 8c                	b.sfnei    r7,0x31
   8274e:	47 29 80                	b.bf       82767 <Node_vPdmInit.constprop.103+0xeb>
   82751:	2c c1 76                	b.lwz      r6,0x6c(r1)
   82754:	94 c6 00 ff ff ff       	b.andi     r6,r6,0xffffff00
   8275a:	60 c6 62                	b.xor      r6,r6,r12
   8275d:	3e 06 34                	b.ff1      r6,r6
   82760:	00 df                   	b.addi     r6,r6,-0x1
   82762:	6c c6 f9                	b.srli     r6,r6,0x1f
   82765:	0c 80                   	b.j        82769 <Node_vPdmInit.constprop.103+0xed>
   82767:	00 c0                   	b.movi     r6,0x0
   82769:	01 58                   	b.addi     r10,r10,0x1
   8276b:	8c e0 41 50 00 20       	b.lwz      r7,0x4000a80(r0)
   82771:	a0 20 68 69 00 00       	b.beqi     r6,0x1,830d2 <Node_vPdmInit.constprop.103+0xa56>
   82777:	24 e7 80                	b.lbz      r7,0x1(r7)
   8277a:	d3 4e a4 3f             	b.bgts     r7,r10,8273c <Node_vPdmInit.constprop.103+0xc0>
   8277e:	01 40                   	b.movi     r10,0x0
   82780:	01 aa                   	b.movi     r13,0x5
   82782:	0d f0                   	b.j        827c0 <Node_vPdmInit.constprop.103+0x144>
   82784:	3e 0a 60                	b.extbz    r12,r10
   82787:	04 6c                   	b.mov      r3,r12
   82789:	48 bd 50                	b.jal      8527d <bPDM_IsEEPROMsegmentErased>
   8278c:	41 03 4c                	b.bnei     r3,0x0,827be <Node_vPdmInit.constprop.103+0x142>
   8278f:	4b 96 0c                	b.jal      8e936 <bPDM_InitialiseEEPROM>
   82792:	6c ea 60                	b.slli     r7,r10,0x6
   82795:	04 6c                   	b.mov      r3,r12
   82797:	8c e0 21 00 00 80       	b.sw       0x1000084(r0),r7
   8279d:	8d a0 01 00 00 80       	b.sw       0x1000080(r0),r13
   827a3:	8c 00 11 00 00 80       	b.sw       0x1000088(r0),r0
   827a9:	8c 00 11 00 00 80       	b.sw       0x1000088(r0),r0
   827af:	8c 00 11 00 00 80       	b.sw       0x1000088(r0),r0
   827b5:	8c 00 11 00 00 80       	b.sw       0x1000088(r0),r0
   827bb:	4a f2 0c                	b.jal      8e8f8 <vPDM_WriteEEPROMfixSegmentData>
   827be:	01 58                   	b.addi     r10,r10,0x1
   827c0:	8c e0 41 50 00 20       	b.lwz      r7,0x4000a80(r0)
   827c6:	24 c7 80                	b.lbz      r6,0x1(r7)
   827c9:	d3 4c ad df             	b.bgts     r6,r10,82784 <Node_vPdmInit.constprop.103+0x108>
   827cd:	2c 07 30                	b.sw       0xc(r7),r0
   827d0:	01 40                   	b.movi     r10,0x0
   827d2:	2c 07 08                	b.sw       0x10(r7),r0
   827d5:	39 a0 38                	b.ori      r13,r0,0x1c
   827d8:	2c 07 28                	b.sw       0x14(r7),r0
   827db:	2c 07 18                	b.sw       0x18(r7),r0
   827de:	0c 30                   	b.j        8280e <Node_vPdmInit.constprop.103+0x192>
   827e0:	65 8a 6b                	b.mul      r12,r10,r13
   827e3:	2c c7 60                	b.lwz      r6,0x4(r7)
   827e6:	38 a0 08                	b.ori      r5,r0,0x10
   827e9:	08 cc                   	b.add      r6,r6,r12
   827eb:	00 80                   	b.movi     r4,0x0
   827ed:	21 46 10                	b.sb       0x8(r6),r10
   827f0:	01 58                   	b.addi     r10,r10,0x1
   827f2:	2c 67 60                	b.lwz      r3,0x4(r7)
   827f5:	08 6c                   	b.add      r3,r3,r12
   827f7:	30 63 30                	b.addi     r3,r3,0xc
   827fa:	49 47 92                	b.jal      94f84 <memset>
   827fd:	8c 60 41 50 00 20       	b.lwz      r3,0x4000a80(r0)
   82803:	2c 83 60                	b.lwz      r4,0x4(r3)
   82806:	30 63 28                	b.addi     r3,r3,0x14
   82809:	08 8c                   	b.add      r4,r4,r12
   8280b:	4b 00 0c                	b.jal      8e80e <vDLISTaddToTail>
   8280e:	8c e0 41 50 00 20       	b.lwz      r7,0x4000a80(r0)
   82814:	24 c7 80                	b.lbz      r6,0x1(r7)
   82817:	d3 4c a9 3f             	b.bgts     r6,r10,827e0 <Node_vPdmInit.constprop.103+0x164>
   8281b:	20 c7 10                	b.sb       0x8(r7),r6
   8281e:	46 c3 60                	b.j        82ee1 <Node_vPdmInit.constprop.103+0x865>
   82821:	65 ac 73                	b.mul      r13,r12,r14
   82824:	2c c7 60                	b.lwz      r6,0x4(r7)
   82827:	3e 0c 18                	b.extbz    r3,r12
   8282a:	08 cd                   	b.add      r6,r6,r13
   8282c:	20 66 10                	b.sb       0x8(r6),r3
   8282f:	2c 87 60                	b.lwz      r4,0x4(r7)
   82832:	08 8d                   	b.add      r4,r4,r13
   82834:	30 84 30                	b.addi     r4,r4,0xc
   82837:	4b de 0c                	b.jal      8ea26 <iPDM_ReadSegmentHeaderFromEEPROM>
   8283a:	8c a0 41 50 00 20       	b.lwz      r5,0x4000a80(r0)
   82840:	2c 85 60                	b.lwz      r4,0x4(r5)
   82843:	61 44 6c                	b.add      r10,r4,r13
   82846:	d0 00 a3 90             	b.beqi     r10,0x0,828e2 <Node_vPdmInit.constprop.103+0x266>
   8284a:	24 ea e8                	b.lbz      r7,0x17(r10)
   8284d:	41 07 28                	b.bnei     r7,0x0,82861 <Node_vPdmInit.constprop.103+0x1e5>
   82850:	2c ea 58                	b.lwz      r7,0x18(r10)
   82853:	94 e7 00 ff ff ff       	b.andi     r7,r7,0xffffff00
   82859:	a0 40 75 29 00 00       	b.bnei     r7,0x0,831a3 <Node_vPdmInit.constprop.103+0xb27>
   8285f:	0e a4                   	b.j        828f4 <Node_vPdmInit.constprop.103+0x278>
   82861:	3c 27 8c                	b.sfnei    r7,0x31
   82864:	d6 fc 90 00             	b.bf       831a3 <Node_vPdmInit.constprop.103+0xb27>
   82868:	2c ea 58                	b.lwz      r7,0x18(r10)
   8286b:	94 e7 00 ff ff ff       	b.andi     r7,r7,0xffffff00
   82871:	9d 87 00 64 9a 82       	b.sfeqi    r7,0x41592600
   82877:	47 2b e0                	b.bf       828f4 <Node_vPdmInit.constprop.103+0x278>
   8287a:	46 94 90                	b.j        831a3 <Node_vPdmInit.constprop.103+0xb27>
   8287d:	d2 8e 84 80             	b.beq      r7,r8,8288f <Node_vPdmInit.constprop.103+0x213>
   82881:	64 a7 73                	b.mul      r5,r7,r14
   82884:	08 a4                   	b.add      r5,r5,r4
   82886:	2c a5 70                	b.lwz      r5,0xc(r5)
   82889:	3d a6 28                	b.sfgeu    r6,r5
   8288c:	64 c6 2a                	b.cmov     r6,r6,r5
   8288f:	00 f8                   	b.addi     r7,r7,0x1
   82891:	d3 46 73 7f             	b.bgts     r3,r7,8287d <Node_vPdmInit.constprop.103+0x201>
   82895:	2c aa 70                	b.lwz      r5,0xc(r10)
   82898:	d8 e6 13 00             	b.addi     r7,r6,0xc8
   8289c:	d3 8e 56 20             	b.bgeu     r7,r5,828e2 <Node_vPdmInit.constprop.103+0x266>
   828a0:	00 d8                   	b.addi     r6,r6,0x1
   828a2:	00 88                   	b.movi     r4,0x1
   828a4:	2c ca 30                	b.sw       0xc(r10),r6
   828a7:	04 6a                   	b.mov      r3,r10
   828a9:	4a ee 0c                	b.jal      8ea86 <iPDM_SetVerifyBytesInFileSystemRecord>
   828ac:	24 ca 10                	b.lbz      r6,0x8(r10)
   828af:	2c ea 70                	b.lwz      r7,0xc(r10)
   828b2:	6c c6 60                	b.slli     r6,r6,0x6
   828b5:	04 6a                   	b.mov      r3,r10
   828b7:	8c c0 21 00 00 80       	b.sw       0x1000084(r0),r6
   828bd:	00 80                   	b.movi     r4,0x0
   828bf:	8d e0 01 00 00 80       	b.sw       0x1000080(r0),r15
   828c5:	8c e0 11 00 00 80       	b.sw       0x1000088(r0),r7
   828cb:	4b 76 0c                	b.jal      8ea86 <iPDM_SetVerifyBytesInFileSystemRecord>
   828ce:	8c e0 41 50 00 20       	b.lwz      r7,0x4000a80(r0)
   828d4:	2c e7 7a                	b.lwz      r7,0x5c(r7)
   828d7:	40 07 d0                	b.beqi     r7,0x0,828e2 <Node_vPdmInit.constprop.103+0x266>
   828da:	24 6a 10                	b.lbz      r3,0x8(r10)
   828dd:	00 8c                   	b.movi     r4,0x3
   828df:	47 d1 38                	b.jalr     r7
   828e2:	8c a0 41 50 00 20       	b.lwz      r5,0x4000a80(r0)
   828e8:	00 80                   	b.movi     r4,0x0
   828ea:	2c 65 60                	b.lwz      r3,0x4(r5)
   828ed:	30 a5 28                	b.addi     r5,r5,0x14
   828f0:	08 6d                   	b.add      r3,r3,r13
   828f2:	0d d8                   	b.j        82960 <Node_vPdmInit.constprop.103+0x2e4>
   828f4:	24 ea a8                	b.lbz      r7,0x15(r10)
   828f7:	00 ff                   	b.addi     r7,r7,-0x1
   828f9:	3e 07 38                	b.extbz    r7,r7
   828fc:	3c a7 50                	b.sfgtui   r7,0xa
   828ff:	47 25 a0                	b.bf       82959 <Node_vPdmInit.constprop.103+0x2dd>
   82902:	6c e7 40                	b.slli     r7,r7,0x2
   82905:	90 e7 28 94 10 00       	b.addi     r7,r7,0x82914
   8290b:	2c e7 40                	b.lwz      r7,0x0(r7)
   8290e:	47 d2 38                	b.jr       r7
   82911:	00 00                   	b.trap     0x0
   82913:	00 00                   	b.trap     0x0
   82915:	08 29                   	b.add      r1,r1,r9
   82917:	40 00 08                	b.beqi     r0,0x0,82927 <Node_vPdmInit.constprop.103+0x2ab>
   8291a:	29 4f 00                	b.sh       0x0(r15),r10
   8291d:	08 29                   	b.add      r1,r1,r9
   8291f:	45 00 08                	b.bltsi    r0,0x0,8292f <Node_vPdmInit.constprop.103+0x2b3>
   82922:	29 54 00                	b.sh       0x0(r20),r10
   82925:	08 29                   	b.add      r1,r1,r9
   82927:	59 00 08                	bn.mld     r8,0x2(r0),0x0
   8292a:	29 54 00                	b.sh       0x0(r20),r10
   8292d:	08 29                   	b.add      r1,r1,r9
   8292f:	54 00 08                	b.msw      0x10(r0),r0,0x0
   82932:	29 4a 00                	b.sh       0x0(r10),r10
   82935:	08 29                   	b.add      r1,r1,r9
   82937:	4a 00 08                	b.jal      86938 <iPDM_WriteSegmentHeaderAndData+0x3a>
   8293a:	29 4a 00                	b.sh       0x0(r10),r10
   8293d:	08 29                   	b.add      r1,r1,r9
   8293f:	4a 30 a5                	b.jal      6bd70 <_image_len+0x561d0>
   82942:	24 0e 60                	b.lbz      r0,0x6(r14)
   82945:	30 a5 3c                	b.addi     r5,r5,0x3c
   82948:	0c a0                   	b.j        8295c <Node_vPdmInit.constprop.103+0x2e0>
   8294a:	30 a5 22                	b.addi     r5,r5,0x44
   8294d:	0f c0                   	b.j        8295c <Node_vPdmInit.constprop.103+0x2e0>
   8294f:	30 a5 34                	b.addi     r5,r5,0x2c
   82952:	0d 40                   	b.j        8295c <Node_vPdmInit.constprop.103+0x2e0>
   82954:	30 a5 2c                	b.addi     r5,r5,0x34
   82957:	0e 80                   	b.j        8295c <Node_vPdmInit.constprop.103+0x2e0>
   82959:	30 a5 28                	b.addi     r5,r5,0x14
   8295c:	04 6a                   	b.mov      r3,r10
   8295e:	00 80                   	b.movi     r4,0x0
   82960:	01 98                   	b.addi     r12,r12,0x1
   82962:	48 35 b0                	b.jal      86012 <vPDM_AddFileSystemElementToListInAscendingWearCountOrder>
   82965:	8c e0 41 50 00 20       	b.lwz      r7,0x4000a80(r0)
   8296b:	24 c7 80                	b.lbz      r6,0x1(r7)
   8296e:	d3 4c cc d7             	b.bgts     r6,r12,82821 <Node_vPdmInit.constprop.103+0x1a5>
   82972:	2c 01 32                	b.sw       0x4c(r1),r0
   82975:	2c 01 0a                	b.sw       0x50(r1),r0
   82978:	0c 42                   	b.j        82a80 <Node_vPdmInit.constprop.103+0x404>
   8297a:	28 67 88                	b.lhz      r3,0x10(r7)
   8297d:	30 e1 32                	b.addi     r7,r1,0x4c
   82980:	38 a0 70                	b.ori      r5,r0,0xe
   82983:	30 c1 28                	b.addi     r6,r1,0x14
   82986:	31 08 3c                	b.addi     r8,r8,0x3c
   82989:	00 84                   	b.movi     r4,0x2
   8298b:	2c e1 00                	b.sw       0x0(r1),r7
   8298e:	30 e1 18                	b.addi     r7,r1,0x18
   82991:	48 14 e8                	b.jal      88631 <vPDM_MoveAllDataWithBufferIdFromListToList>
   82994:	2d 81 72                	b.lwz      r12,0x4c(r1)
   82997:	d0 00 cc 70             	b.beqi     r12,0x0,82a7a <Node_vPdmInit.constprop.103+0x3fe>
   8299b:	01 c8                   	b.movi     r14,0x1
   8299d:	01 40                   	b.movi     r10,0x0
   8299f:	01 a0                   	b.movi     r13,0x0
   829a1:	8c e0 41 50 00 20       	b.lwz      r7,0x4000a80(r0)
   829a7:	30 a1 38                	b.addi     r5,r1,0x1c
   829aa:	04 6c                   	b.mov      r3,r12
   829ac:	2c 87 78                	b.lwz      r4,0x1c(r7)
   829af:	4a af 70                	b.jal      86584 <iPDM_ReadUserDataFromFileSystemRecord>
   829b2:	8c e0 41 50 00 20       	b.lwz      r7,0x4000a80(r0)
   829b8:	2c 87 78                	b.lwz      r4,0x1c(r7)
   829bb:	24 e4 00                	b.lbz      r7,0x0(r4)
   829be:	00 f8                   	b.addi     r7,r7,0x1
   829c0:	08 e4                   	b.add      r7,r7,r4
   829c2:	24 c7 00                	b.lbz      r6,0x0(r7)
   829c5:	20 c1 08                	b.sb       0x10(r1),r6
   829c8:	24 e7 80                	b.lbz      r7,0x1(r7)
   829cb:	20 e1 88                	b.sb       0x11(r1),r7
   829ce:	28 e1 88                	b.lhz      r7,0x10(r1)
   829d1:	d3 ce d4 80             	b.bgtu     r7,r13,829e3 <Node_vPdmInit.constprop.103+0x367>
   829d5:	3c 2e 80                	b.sfnei    r14,0x1
   829d8:	65 4a 62                	b.cmov     r10,r10,r12
   829db:	3c 2e 80                	b.sfnei    r14,0x1
   829de:	65 ad 3a                	b.cmov     r13,r13,r7
   829e1:	0d 80                   	b.j        829e7 <Node_vPdmInit.constprop.103+0x36b>
   829e3:	05 4c                   	b.mov      r10,r12
   829e5:	05 a7                   	b.mov      r13,r7
   829e7:	2d 8c 40                	b.lwz      r12,0x0(r12)
   829ea:	01 c0                   	b.movi     r14,0x0
   829ec:	41 0c ad                	b.bnei     r12,0x0,829a1 <Node_vPdmInit.constprop.103+0x325>
   829ef:	30 a1 04                	b.addi     r5,r1,0x20
   829f2:	04 6a                   	b.mov      r3,r10
   829f4:	48 27 70                	b.jal      86584 <iPDM_ReadUserDataFromFileSystemRecord>
   829f7:	8c e0 41 50 00 20       	b.lwz      r7,0x4000a80(r0)
   829fd:	24 81 04                	b.lbz      r4,0x20(r1)
   82a00:	2c e7 78                	b.lwz      r7,0x1c(r7)
   82a03:	25 a7 00                	b.lbz      r13,0x0(r7)
   82a06:	30 cd 80                	b.addi     r6,r13,0x1
   82a09:	08 c7                   	b.add      r6,r6,r7
   82a0b:	24 a6 00                	b.lbz      r5,0x0(r6)
   82a0e:	20 a1 48                	b.sb       0x12(r1),r5
   82a11:	24 c6 80                	b.lbz      r6,0x1(r6)
   82a14:	20 c1 c8                	b.sb       0x13(r1),r6
   82a17:	40 0d 5c                	b.beqi     r13,0x0,82a51 <Node_vPdmInit.constprop.103+0x3d5>
   82a1a:	30 6d c0                	b.addi     r3,r13,0x3
   82a1d:	3e 03 18                	b.extbz    r3,r3
   82a20:	08 67                   	b.add      r3,r3,r7
   82a22:	00 c8                   	b.movi     r6,0x1
   82a24:	60 e3 64                	b.add      r7,r3,r12
   82a27:	24 e7 00                	b.lbz      r7,0x0(r7)
   82a2a:	41 87 d0                	b.bnei     r7,0x1,82a35 <Node_vPdmInit.constprop.103+0x3b9>
   82a2d:	01 98                   	b.addi     r12,r12,0x1
   82a2f:	00 a0                   	b.movi     r5,0x0
   82a31:	00 e0                   	b.movi     r7,0x0
   82a33:	0d c0                   	b.j        82a41 <Node_vPdmInit.constprop.103+0x3c5>
   82a35:	3c 27 00                	b.sfnei    r7,0x0
   82a38:	64 a0 32                	b.cmov     r5,r0,r6
   82a3b:	3c 27 00                	b.sfnei    r7,0x0
   82a3e:	64 e6 02                	b.cmov     r7,r6,r0
   82a41:	60 a7 29                	b.or       r5,r7,r5
   82a44:	40 05 90                	b.beqi     r5,0x0,82a4d <Node_vPdmInit.constprop.103+0x3d1>
   82a47:	41 87 50                	b.bnei     r7,0x1,82a51 <Node_vPdmInit.constprop.103+0x3d5>
   82a4a:	46 0d 60                	b.j        830fa <Node_vPdmInit.constprop.103+0xa7e>
   82a4d:	d3 48 ce bf             	b.bgts     r4,r12,82a24 <Node_vPdmInit.constprop.103+0x3a8>
   82a51:	8c c0 41 50 00 20       	b.lwz      r6,0x4000a80(r0)
   82a57:	38 80 70                	b.ori      r4,r0,0xe
   82a5a:	30 a1 32                	b.addi     r5,r1,0x4c
   82a5d:	30 c6 30                	b.addi     r6,r6,0xc
   82a60:	04 6a                   	b.mov      r3,r10
   82a62:	4b fe b0                	b.jal      86061 <vPDM_MoveFileRecordFromListToList>
   82a65:	8c c0 41 50 00 20       	b.lwz      r6,0x4000a80(r0)
   82a6b:	38 60 70                	b.ori      r3,r0,0xe
   82a6e:	30 81 04                	b.addi     r4,r1,0x20
   82a71:	30 a1 32                	b.addi     r5,r1,0x4c
   82a74:	30 c6 28                	b.addi     r6,r6,0x14
   82a77:	48 07 68                	b.jal      885f7 <vPDM_MoveAllDataFromListToList>
   82a7a:	8c e0 41 50 00 20       	b.lwz      r7,0x4000a80(r0)
   82a80:	2c e7 7c                	b.lwz      r7,0x3c(r7)
   82a83:	8d 00 41 50 00 20       	b.lwz      r8,0x4000a80(r0)
   82a89:	d0 40 78 f7             	b.bnei     r7,0x0,8297a <Node_vPdmInit.constprop.103+0x2fe>
   82a8d:	2c 01 32                	b.sw       0x4c(r1),r0
   82a90:	2c 01 0a                	b.sw       0x50(r1),r0
   82a93:	2c e8 6c                	b.lwz      r7,0x34(r8)
   82a96:	0c b0                   	b.j        82aca <Node_vPdmInit.constprop.103+0x44e>
   82a98:	28 67 88                	b.lhz      r3,0x10(r7)
   82a9b:	24 87 68                	b.lbz      r4,0x16(r7)
   82a9e:	31 41 32                	b.addi     r10,r1,0x4c
   82aa1:	30 e1 04                	b.addi     r7,r1,0x20
   82aa4:	38 a0 70                	b.ori      r5,r0,0xe
   82aa7:	30 c1 38                	b.addi     r6,r1,0x1c
   82aaa:	31 08 2c                	b.addi     r8,r8,0x34
   82aad:	2d 41 00                	b.sw       0x0(r1),r10
   82ab0:	4a 07 68                	b.jal      88631 <vPDM_MoveAllDataWithBufferIdFromListToList>
   82ab3:	8c 80 41 50 00 20       	b.lwz      r4,0x4000a80(r0)
   82ab9:	04 6a                   	b.mov      r3,r10
   82abb:	30 84 30                	b.addi     r4,r4,0xc
   82abe:	4a 3c 54                	b.jal      8d3af <iPDM_ReconstructReplacedDataTable>
   82ac1:	8c e0 41 50 00 20       	b.lwz      r7,0x4000a80(r0)
   82ac7:	2c e7 6c                	b.lwz      r7,0x34(r7)
   82aca:	8d 00 41 50 00 20       	b.lwz      r8,0x4000a80(r0)
   82ad0:	41 07 13                	b.bnei     r7,0x0,82a98 <Node_vPdmInit.constprop.103+0x41c>
   82ad3:	2c 01 24                	b.sw       0x24(r1),r0
   82ad6:	2c 01 14                	b.sw       0x28(r1),r0
   82ad9:	2d 48 74                	b.lwz      r10,0x2c(r8)
   82adc:	46 83 40                	b.j        82d9d <Node_vPdmInit.constprop.103+0x721>
   82adf:	28 6a 88                	b.lhz      r3,0x10(r10)
   82ae2:	24 8a 68                	b.lbz      r4,0x16(r10)
   82ae5:	30 e1 24                	b.addi     r7,r1,0x24
   82ae8:	38 a0 70                	b.ori      r5,r0,0xe
   82aeb:	30 c1 b0                	b.addi     r6,r1,0xd
   82aee:	31 08 34                	b.addi     r8,r8,0x2c
   82af1:	31 c1 04                	b.addi     r14,r1,0x20
   82af4:	2c e1 00                	b.sw       0x0(r1),r7
   82af7:	30 e1 70                	b.addi     r7,r1,0xe
   82afa:	4b b3 68                	b.jal      88631 <vPDM_MoveAllDataWithBufferIdFromListToList>
   82afd:	8c c0 41 50 00 20       	b.lwz      r6,0x4000a80(r0)
   82b03:	28 6a 88                	b.lhz      r3,0x10(r10)
   82b06:	38 a0 ff                	b.ori      r5,r0,0xff
   82b09:	30 c6 30                	b.addi     r6,r6,0xc
   82b0c:	00 84                   	b.movi     r4,0x2
   82b0e:	04 ee                   	b.mov      r7,r14
   82b10:	48 66 b0                	b.jal      860a8 <iPDM_SearchForBufferIdInList>
   82b13:	8d 80 41 50 00 20       	b.lwz      r12,0x4000a80(r0)
   82b19:	41 03 48                	b.bnei     r3,0x0,82b2b <Node_vPdmInit.constprop.103+0x4af>
   82b1c:	28 6a 88                	b.lhz      r3,0x10(r10)
   82b1f:	24 8a 68                	b.lbz      r4,0x16(r10)
   82b22:	30 ac 34                	b.addi     r5,r12,0x2c
   82b25:	4a 2d e8                	b.jal      889f6 <iPDM_DeleteAppendedSequence>
   82b28:	46 36 40                	b.j        82d94 <Node_vPdmInit.constprop.103+0x718>
   82b2b:	2d 41 64                	b.lwz      r10,0x24(r1)
   82b2e:	2c 01 34                	b.sw       0x2c(r1),r0
   82b31:	2c 01 0c                	b.sw       0x30(r1),r0
   82b34:	2c 01 2c                	b.sw       0x34(r1),r0
   82b37:	2c 01 1c                	b.sw       0x38(r1),r0
   82b3a:	2c 01 3c                	b.sw       0x3c(r1),r0
   82b3d:	2c 01 02                	b.sw       0x40(r1),r0
   82b40:	2c 01 22                	b.sw       0x44(r1),r0
   82b43:	2c 01 12                	b.sw       0x48(r1),r0
   82b46:	2c 01 32                	b.sw       0x4c(r1),r0
   82b49:	2c 01 0a                	b.sw       0x50(r1),r0
   82b4c:	d0 00 a4 10             	b.beqi     r10,0x0,82bce <Node_vPdmInit.constprop.103+0x552>
   82b50:	01 a0                   	b.movi     r13,0x0
   82b52:	20 01 38                	b.sb       0x1c(r1),r0
   82b55:	0c e0                   	b.j        82b71 <Node_vPdmInit.constprop.103+0x4f5>
   82b57:	2c 61 44                	b.lwz      r3,0x20(r1)
   82b5a:	38 80 70                	b.ori      r4,r0,0xe
   82b5d:	30 a1 24                	b.addi     r5,r1,0x24
   82b60:	30 c1 22                	b.addi     r6,r1,0x44
   82b63:	49 fc b0                	b.jal      86061 <vPDM_MoveFileRecordFromListToList>
   82b66:	24 e1 38                	b.lbz      r7,0x1c(r1)
   82b69:	2d a1 44                	b.lwz      r13,0x20(r1)
   82b6c:	00 f8                   	b.addi     r7,r7,0x1
   82b6e:	20 e1 38                	b.sb       0x1c(r1),r7
   82b71:	28 6a 88                	b.lhz      r3,0x10(r10)
   82b74:	24 8a 68                	b.lbz      r4,0x16(r10)
   82b77:	24 aa c8                	b.lbz      r5,0x13(r10)
   82b7a:	30 c1 24                	b.addi     r6,r1,0x24
   82b7d:	04 ee                   	b.mov      r7,r14
   82b7f:	4a 52 b0                	b.jal      860a8 <iPDM_SearchForBufferIdInList>
   82b82:	40 03 ab                	b.beqi     r3,0x0,82b57 <Node_vPdmInit.constprop.103+0x4db>
   82b85:	24 e1 38                	b.lbz      r7,0x1c(r1)
   82b88:	40 07 8c                	b.beqi     r7,0x0,82bb9 <Node_vPdmInit.constprop.103+0x53d>
   82b8b:	40 87 b0                	b.beqi     r7,0x1,82b98 <Node_vPdmInit.constprop.103+0x51c>
   82b8e:	30 61 22                	b.addi     r3,r1,0x44
   82b91:	04 8e                   	b.mov      r4,r14
   82b93:	4b 72 18                	b.jal      88cce <iPDM_FilterDuplicateAppendedSegmentsOnList.6649>
   82b96:	0e 80                   	b.j        82b9b <Node_vPdmInit.constprop.103+0x51f>
   82b98:	2d a1 04                	b.sw       0x20(r1),r13
   82b9b:	2c 61 44                	b.lwz      r3,0x20(r1)
   82b9e:	38 80 70                	b.ori      r4,r0,0xe
   82ba1:	30 a1 22                	b.addi     r5,r1,0x44
   82ba4:	30 c1 32                	b.addi     r6,r1,0x4c
   82ba7:	49 74 b0                	b.jal      86061 <vPDM_MoveFileRecordFromListToList>
   82baa:	38 60 70                	b.ori      r3,r0,0xe
   82bad:	30 81 38                	b.addi     r4,r1,0x1c
   82bb0:	30 a1 22                	b.addi     r5,r1,0x44
   82bb3:	30 c1 34                	b.addi     r6,r1,0x2c
   82bb6:	4a 09 68                	b.jal      885f7 <vPDM_MoveAllDataFromListToList>
   82bb9:	2d 41 64                	b.lwz      r10,0x24(r1)
   82bbc:	41 0a 69                	b.bnei     r10,0x0,82b52 <Node_vPdmInit.constprop.103+0x4d6>
   82bbf:	38 60 70                	b.ori      r3,r0,0xe
   82bc2:	30 81 38                	b.addi     r4,r1,0x1c
   82bc5:	30 a1 32                	b.addi     r5,r1,0x4c
   82bc8:	30 c1 24                	b.addi     r6,r1,0x24
   82bcb:	48 d1 68                	b.jal      885f7 <vPDM_MoveAllDataFromListToList>
   82bce:	2c e1 64                	b.lwz      r7,0x24(r1)
   82bd1:	8d 00 41 50 00 20       	b.lwz      r8,0x4000a80(r0)
   82bd7:	28 67 88                	b.lhz      r3,0x10(r7)
   82bda:	24 87 68                	b.lbz      r4,0x16(r7)
   82bdd:	31 a1 3c                	b.addi     r13,r1,0x3c
   82be0:	38 a0 70                	b.ori      r5,r0,0xe
   82be3:	30 c1 38                	b.addi     r6,r1,0x1c
   82be6:	30 e1 18                	b.addi     r7,r1,0x18
   82be9:	31 08 24                	b.addi     r8,r8,0x24
   82bec:	2d a1 00                	b.sw       0x0(r1),r13
   82bef:	49 09 68                	b.jal      88631 <vPDM_MoveAllDataWithBufferIdFromListToList>
   82bf2:	2d 41 64                	b.lwz      r10,0x24(r1)
   82bf5:	0f 90                   	b.j        82c1c <Node_vPdmInit.constprop.103+0x5a0>
   82bf7:	28 6a 88                	b.lhz      r3,0x10(r10)
   82bfa:	24 8a 68                	b.lbz      r4,0x16(r10)
   82bfd:	24 aa c8                	b.lbz      r5,0x13(r10)
   82c00:	30 e1 04                	b.addi     r7,r1,0x20
   82c03:	04 cd                   	b.mov      r6,r13
   82c05:	4b 14 b0                	b.jal      860a8 <iPDM_SearchForBufferIdInList>
   82c08:	41 03 88                	b.bnei     r3,0x0,82c19 <Node_vPdmInit.constprop.103+0x59d>
   82c0b:	2c 61 44                	b.lwz      r3,0x20(r1)
   82c0e:	38 80 70                	b.ori      r4,r0,0xe
   82c11:	30 c1 2c                	b.addi     r6,r1,0x34
   82c14:	04 ad                   	b.mov      r5,r13
   82c16:	4b 48 b0                	b.jal      86061 <vPDM_MoveFileRecordFromListToList>
   82c19:	2d 4a 40                	b.lwz      r10,0x0(r10)
   82c1c:	41 0a db                	b.bnei     r10,0x0,82bf7 <Node_vPdmInit.constprop.103+0x57b>
   82c1f:	38 60 70                	b.ori      r3,r0,0xe
   82c22:	30 81 38                	b.addi     r4,r1,0x1c
   82c25:	30 c1 24                	b.addi     r6,r1,0x24
   82c28:	04 ad                   	b.mov      r5,r13
   82c2a:	4a ce 68                	b.jal      885f7 <vPDM_MoveAllDataFromListToList>
   82c2d:	30 a1 24                	b.addi     r5,r1,0x24
   82c30:	38 60 70                	b.ori      r3,r0,0xe
   82c33:	30 81 f0                	b.addi     r4,r1,0xf
   82c36:	04 c5                   	b.mov      r6,r5
   82c38:	4b f6 68                	b.jal      885f7 <vPDM_MoveAllDataFromListToList>
   82c3b:	2c e1 64                	b.lwz      r7,0x24(r1)
   82c3e:	30 c1 24                	b.addi     r6,r1,0x24
   82c41:	00 a0                   	b.movi     r5,0x0
   82c43:	2c e1 28                	b.sw       0x14(r1),r7
   82c46:	28 67 88                	b.lhz      r3,0x10(r7)
   82c49:	24 87 68                	b.lbz      r4,0x16(r7)
   82c4c:	30 e1 18                	b.addi     r7,r1,0x18
   82c4f:	4a 68 b0                	b.jal      860a8 <iPDM_SearchForBufferIdInList>
   82c52:	d0 40 3b 48             	b.bnei     r3,0x0,82d7f <Node_vPdmInit.constprop.103+0x703>
   82c56:	2d 41 58                	b.lwz      r10,0x18(r1)
   82c59:	24 c1 f0                	b.lbz      r6,0xf(r1)
   82c5c:	24 aa 28                	b.lbz      r5,0x14(r10)
   82c5f:	d3 ca 60 48             	b.bgtu     r5,r6,82d7f <Node_vPdmInit.constprop.103+0x703>
   82c63:	2c e1 68                	b.lwz      r7,0x14(r1)
   82c66:	d3 cc 56 d2             	b.bgtu     r6,r5,8311c <Node_vPdmInit.constprop.103+0xaa0>
   82c6a:	24 ca a8                	b.lbz      r6,0x15(r10)
   82c6d:	d0 50 6f 52             	b.bnei     r6,0x2,8311c <Node_vPdmInit.constprop.103+0xaa0>
   82c71:	46 03 20                	b.j        83131 <Node_vPdmInit.constprop.103+0xab5>
   82c74:	2c 61 78                	b.lwz      r3,0x1c(r1)
   82c77:	24 e3 a8                	b.lbz      r7,0x15(r3)
   82c7a:	d0 50 70 30             	b.bnei     r7,0x2,82d3a <Node_vPdmInit.constprop.103+0x6be>
   82c7e:	24 e3 28                	b.lbz      r7,0x14(r3)
   82c81:	d0 20 79 d0             	b.beqi     r7,0x1,82d3a <Node_vPdmInit.constprop.103+0x6be>
   82c85:	30 81 24                	b.addi     r4,r1,0x24
   82c88:	30 a1 34                	b.addi     r5,r1,0x2c
   82c8b:	30 c1 2c                	b.addi     r6,r1,0x34
   82c8e:	4b b8 18                	b.jal      88d05 <iPDM_ReplaceSegmentFromJunkLists.5674>
   82c91:	d0 00 39 50             	b.beqi     r3,0x0,82d3a <Node_vPdmInit.constprop.103+0x6be>
   82c95:	0d 5c                   	b.j        82d7f <Node_vPdmInit.constprop.103+0x703>
   82c97:	2c e1 78                	b.lwz      r7,0x1c(r1)
   82c9a:	24 e7 a8                	b.lbz      r7,0x15(r7)
   82c9d:	d0 50 7f 52             	b.bnei     r7,0x2,8314c <Node_vPdmInit.constprop.103+0xad0>
   82ca1:	2c e1 78                	b.lwz      r7,0x1c(r1)
   82ca4:	24 c7 28                	b.lbz      r6,0x14(r7)
   82ca7:	41 86 90                	b.bnei     r6,0x1,82cb0 <Node_vPdmInit.constprop.103+0x634>
   82caa:	2c e1 04                	b.sw       0x20(r1),r7
   82cad:	46 1b 20                	b.j        83185 <Node_vPdmInit.constprop.103+0xb09>
   82cb0:	24 a7 c8                	b.lbz      r5,0x13(r7)
   82cb3:	2c e1 68                	b.lwz      r7,0x14(r1)
   82cb6:	08 a6                   	b.add      r5,r5,r6
   82cb8:	3e 05 28                	b.extbz    r5,r5
   82cbb:	20 a1 08                	b.sb       0x10(r1),r5
   82cbe:	30 c1 24                	b.addi     r6,r1,0x24
   82cc1:	00 bf                   	b.addi     r5,r5,-0x1
   82cc3:	3e 05 28                	b.extbz    r5,r5
   82cc6:	28 67 88                	b.lhz      r3,0x10(r7)
   82cc9:	24 87 68                	b.lbz      r4,0x16(r7)
   82ccc:	30 e1 04                	b.addi     r7,r1,0x20
   82ccf:	4a 6f 30                	b.jal      860a8 <iPDM_SearchForBufferIdInList>
   82cd2:	d0 40 37 92             	b.bnei     r3,0x0,83170 <Node_vPdmInit.constprop.103+0xaf4>
   82cd6:	46 f5 20                	b.j        83185 <Node_vPdmInit.constprop.103+0xb09>
   82cd9:	30 81 24                	b.addi     r4,r1,0x24
   82cdc:	30 a1 34                	b.addi     r5,r1,0x2c
   82cdf:	30 c1 2c                	b.addi     r6,r1,0x34
   82ce2:	4b 10 18                	b.jal      88d05 <iPDM_ReplaceSegmentFromJunkLists.5674>
   82ce5:	d0 40 35 90             	b.bnei     r3,0x0,82d7f <Node_vPdmInit.constprop.103+0x703>
   82ce9:	2c e1 58                	b.lwz      r7,0x18(r1)
   82cec:	2d a1 64                	b.lwz      r13,0x24(r1)
   82cef:	24 e7 28                	b.lbz      r7,0x14(r7)
   82cf2:	20 e1 48                	b.sb       0x12(r1),r7
   82cf5:	40 0d a2                	b.beqi     r13,0x0,82d3a <Node_vPdmInit.constprop.103+0x6be>
   82cf8:	98 80 52 fb 10 00       	b.ori      r4,r0,0x8df4a
   82cfe:	30 a1 48                	b.addi     r5,r1,0x12
   82d01:	04 6d                   	b.mov      r3,r13
   82d03:	4b 9d 30                	b.jal      85fea <psDLISTsearchForward>
   82d06:	40 03 2c                	b.beqi     r3,0x0,82d3a <Node_vPdmInit.constprop.103+0x6be>
   82d09:	38 80 30                	b.ori      r4,r0,0xc
   82d0c:	30 a1 24                	b.addi     r5,r1,0x24
   82d0f:	30 c1 2c                	b.addi     r6,r1,0x34
   82d12:	2d a3 40                	b.lwz      r13,0x0(r3)
   82d15:	48 cb 30                	b.jal      86061 <vPDM_MoveFileRecordFromListToList>
   82d18:	0e ef                   	b.j        82cf5 <Node_vPdmInit.constprop.103+0x679>
   82d1a:	24 e3 a8                	b.lbz      r7,0x15(r3)
   82d1d:	40 47 b8                	b.beqi     r7,0x2,82d3a <Node_vPdmInit.constprop.103+0x6be>
   82d20:	30 c1 24                	b.addi     r6,r1,0x24
   82d23:	30 e1 28                	b.addi     r7,r1,0x14
   82d26:	00 a4                   	b.movi     r5,0x2
   82d28:	4b ba 18                	b.jal      88e9f <iPDM_SegmentCopyAndAppendData.constprop.107>
   82d2b:	2c 61 58                	b.lwz      r3,0x18(r1)
   82d2e:	38 80 70                	b.ori      r4,r0,0xe
   82d31:	30 a1 24                	b.addi     r5,r1,0x24
   82d34:	30 c1 2c                	b.addi     r6,r1,0x34
   82d37:	49 53 30                	b.jal      86061 <vPDM_MoveFileRecordFromListToList>
   82d3a:	8c c0 41 50 00 20       	b.lwz      r6,0x4000a80(r0)
   82d40:	38 60 70                	b.ori      r3,r0,0xe
   82d43:	30 81 38                	b.addi     r4,r1,0x1c
   82d46:	30 a1 34                	b.addi     r5,r1,0x2c
   82d49:	30 c6 28                	b.addi     r6,r6,0x14
   82d4c:	4b 54 68                	b.jal      885f7 <vPDM_MoveAllDataFromListToList>
   82d4f:	8c c0 41 50 00 20       	b.lwz      r6,0x4000a80(r0)
   82d55:	38 60 70                	b.ori      r3,r0,0xe
   82d58:	30 81 38                	b.addi     r4,r1,0x1c
   82d5b:	30 a1 2c                	b.addi     r5,r1,0x34
   82d5e:	30 c6 28                	b.addi     r6,r6,0x14
   82d61:	49 a4 68                	b.jal      885f7 <vPDM_MoveAllDataFromListToList>
   82d64:	28 6a 88                	b.lhz      r3,0x10(r10)
   82d67:	24 8a 68                	b.lbz      r4,0x16(r10)
   82d6a:	24 aa 28                	b.lbz      r5,0x14(r10)
   82d6d:	30 c1 38                	b.addi     r6,r1,0x1c
   82d70:	30 e1 04                	b.addi     r7,r1,0x20
   82d73:	31 01 24                	b.addi     r8,r1,0x24
   82d76:	4b d7 68                	b.jal      88925 <iPDM_VerifyDataSequenceWithBufferId>
   82d79:	30 cc 30                	b.addi     r6,r12,0xc
   82d7c:	40 03 30                	b.beqi     r3,0x0,82d88 <Node_vPdmInit.constprop.103+0x70c>
   82d7f:	8c c0 41 50 00 20       	b.lwz      r6,0x4000a80(r0)
   82d85:	30 c6 28                	b.addi     r6,r6,0x14
   82d88:	38 60 70                	b.ori      r3,r0,0xe
   82d8b:	30 81 b0                	b.addi     r4,r1,0xd
   82d8e:	30 a1 24                	b.addi     r5,r1,0x24
   82d91:	49 98 68                	b.jal      885f7 <vPDM_MoveAllDataFromListToList>
   82d94:	8c e0 41 50 00 20       	b.lwz      r7,0x4000a80(r0)
   82d9a:	2d 47 74                	b.lwz      r10,0x2c(r7)
   82d9d:	8d 00 41 50 00 20       	b.lwz      r8,0x4000a80(r0)
   82da3:	d0 40 a3 cb             	b.bnei     r10,0x0,82adf <Node_vPdmInit.constprop.103+0x463>
   82da7:	2c 01 32                	b.sw       0x4c(r1),r0
   82daa:	2c 01 0a                	b.sw       0x50(r1),r0
   82dad:	2d 48 62                	b.lwz      r10,0x44(r8)
   82db0:	0c 68                   	b.j        82e08 <Node_vPdmInit.constprop.103+0x78c>
   82db2:	28 6a 88                	b.lhz      r3,0x10(r10)
   82db5:	24 8a 68                	b.lbz      r4,0x16(r10)
   82db8:	31 81 32                	b.addi     r12,r1,0x4c
   82dbb:	30 e1 04                	b.addi     r7,r1,0x20
   82dbe:	38 a0 70                	b.ori      r5,r0,0xe
   82dc1:	30 c1 38                	b.addi     r6,r1,0x1c
   82dc4:	31 08 22                	b.addi     r8,r8,0x44
   82dc7:	2d 81 00                	b.sw       0x0(r1),r12
   82dca:	4b 98 68                	b.jal      88631 <vPDM_MoveAllDataWithBufferIdFromListToList>
   82dcd:	8d a0 41 50 00 20       	b.lwz      r13,0x4000a80(r0)
   82dd3:	04 6c                   	b.mov      r3,r12
   82dd5:	49 24 fc                	b.jal      92a67 <iPDM_ReconstructValidImageBitmap>
   82dd8:	30 ed 30                	b.addi     r7,r13,0xc
   82ddb:	40 03 30                	b.beqi     r3,0x0,82de7 <Node_vPdmInit.constprop.103+0x76b>
   82dde:	8c e0 41 50 00 20       	b.lwz      r7,0x4000a80(r0)
   82de4:	30 e7 28                	b.addi     r7,r7,0x14
   82de7:	28 6a 88                	b.lhz      r3,0x10(r10)
   82dea:	24 8a 68                	b.lbz      r4,0x16(r10)
   82ded:	38 a0 70                	b.ori      r5,r0,0xe
   82df0:	30 c1 38                	b.addi     r6,r1,0x1c
   82df3:	31 01 32                	b.addi     r8,r1,0x4c
   82df6:	2c e1 00                	b.sw       0x0(r1),r7
   82df9:	30 e1 04                	b.addi     r7,r1,0x20
   82dfc:	4a b0 68                	b.jal      88631 <vPDM_MoveAllDataWithBufferIdFromListToList>
   82dff:	8c e0 41 50 00 20       	b.lwz      r7,0x4000a80(r0)
   82e05:	2d 47 62                	b.lwz      r10,0x44(r7)
   82e08:	8d 00 41 50 00 20       	b.lwz      r8,0x4000a80(r0)
   82e0e:	41 0a 25                	b.bnei     r10,0x0,82db2 <Node_vPdmInit.constprop.103+0x736>
   82e11:	2d 48 64                	b.lwz      r10,0x24(r8)
   82e14:	0d 74                   	b.j        82ece <Node_vPdmInit.constprop.103+0x852>
   82e16:	8c c0 41 50 00 20       	b.lwz      r6,0x4000a80(r0)
   82e1c:	28 6a 88                	b.lhz      r3,0x10(r10)
   82e1f:	38 a0 ff                	b.ori      r5,r0,0xff
   82e22:	30 c6 30                	b.addi     r6,r6,0xc
   82e25:	30 e1 04                	b.addi     r7,r1,0x20
   82e28:	00 84                   	b.movi     r4,0x2
   82e2a:	49 f9 30                	b.jal      860a8 <iPDM_SearchForBufferIdInList>
   82e2d:	8d 00 41 50 00 20       	b.lwz      r8,0x4000a80(r0)
   82e33:	3e 03 1c                	b.ff1      r3,r3
   82e36:	31 83 ff                	b.addi     r12,r3,-0x1
   82e39:	30 c1 28                	b.addi     r6,r1,0x14
   82e3c:	30 e1 18                	b.addi     r7,r1,0x18
   82e3f:	31 08 24                	b.addi     r8,r8,0x24
   82e42:	00 a0                   	b.movi     r5,0x0
   82e44:	28 6a 88                	b.lhz      r3,0x10(r10)
   82e47:	24 8a 68                	b.lbz      r4,0x16(r10)
   82e4a:	6d 8c f9                	b.srli     r12,r12,0x1f
   82e4d:	48 6d 68                	b.jal      88925 <iPDM_VerifyDataSequenceWithBufferId>
   82e50:	3e 03 1c                	b.ff1      r3,r3
   82e53:	60 e0 1d                	b.sub      r7,r0,r3
   82e56:	6c e7 f9                	b.srli     r7,r7,0x1f
   82e59:	3e 0c 68                	b.extbz    r13,r12
   82e5c:	61 87 61                	b.or       r12,r7,r12
   82e5f:	3e 0c 60                	b.extbz    r12,r12
   82e62:	8c c0 41 50 00 20       	b.lwz      r6,0x4000a80(r0)
   82e68:	41 0c 08                	b.bnei     r12,0x0,82e78 <Node_vPdmInit.constprop.103+0x7fc>
   82e6b:	24 a1 28                	b.lbz      r5,0x14(r1)
   82e6e:	24 e1 18                	b.lbz      r7,0x18(r1)
   82e71:	31 86 30                	b.addi     r12,r6,0xc
   82e74:	d2 8a 7c c0             	b.beq      r5,r7,82ea7 <Node_vPdmInit.constprop.103+0x82b>
   82e78:	31 86 28                	b.addi     r12,r6,0x14
   82e7b:	40 0d 34                	b.beqi     r13,0x0,82ea7 <Node_vPdmInit.constprop.103+0x82b>
   82e7e:	28 6a 88                	b.lhz      r3,0x10(r10)
   82e81:	24 8a 68                	b.lbz      r4,0x16(r10)
   82e84:	30 c6 24                	b.addi     r6,r6,0x24
   82e87:	30 e1 38                	b.addi     r7,r1,0x1c
   82e8a:	00 a0                   	b.movi     r5,0x0
   82e8c:	48 e1 30                	b.jal      860a8 <iPDM_SearchForBufferIdInList>
   82e8f:	41 03 18                	b.bnei     r3,0x0,82ea7 <Node_vPdmInit.constprop.103+0x82b>
   82e92:	8c c0 41 50 00 20       	b.lwz      r6,0x4000a80(r0)
   82e98:	2c 61 78                	b.lwz      r3,0x1c(r1)
   82e9b:	30 a6 24                	b.addi     r5,r6,0x24
   82e9e:	38 80 30                	b.ori      r4,r0,0xc
   82ea1:	30 c6 28                	b.addi     r6,r6,0x14
   82ea4:	4a f6 30                	b.jal      86061 <vPDM_MoveFileRecordFromListToList>
   82ea7:	8d 00 41 50 00 20       	b.lwz      r8,0x4000a80(r0)
   82ead:	28 6a 88                	b.lhz      r3,0x10(r10)
   82eb0:	24 8a 68                	b.lbz      r4,0x16(r10)
   82eb3:	30 e1 18                	b.addi     r7,r1,0x18
   82eb6:	38 a0 70                	b.ori      r5,r0,0xe
   82eb9:	30 c1 28                	b.addi     r6,r1,0x14
   82ebc:	31 08 24                	b.addi     r8,r8,0x24
   82ebf:	2d 81 00                	b.sw       0x0(r1),r12
   82ec2:	4b db a8                	b.jal      88631 <vPDM_MoveAllDataWithBufferIdFromListToList>
   82ec5:	8c e0 41 50 00 20       	b.lwz      r7,0x4000a80(r0)
   82ecb:	2d 47 64                	b.lwz      r10,0x24(r7)
   82ece:	d0 40 a1 2f             	b.bnei     r10,0x0,82e16 <Node_vPdmInit.constprop.103+0x79a>
   82ed2:	48 a9 78                	b.jal      8a926 <vPDM_DeleteUsedSegmentsOnDeallocList>
   82ed5:	8d 40 41 50 00 20       	b.lwz      r10,0x4000a80(r0)
   82edb:	4a 03 a8                	b.jal      885dc <u8PDM_CalculateFileSystemCapacity>
   82ede:	20 6a 10                	b.sb       0x8(r10),r3
   82ee1:	8d 40 41 50 00 20       	b.lwz      r10,0x4000a80(r0)
   82ee7:	00 e8                   	b.movi     r7,0x1
   82ee9:	2c ea 32                	b.sw       0x4c(r10),r7
   82eec:	98 e0 05 61 80 00       	b.ori      r7,r0,0x186a0
   82ef2:	2c ea 06                	b.sw       0x60(r10),r7
   82ef5:	21 6a 2a                	b.sb       0x54(r10),r11
   82ef8:	28 0a 1a                	b.sh       0x58(r10),r0
   82efb:	2c 0a 0a                	b.sw       0x50(r10),r0
   82efe:	2c 0a 3a                	b.sw       0x5c(r10),r0
   82f01:	4b 6d a8                	b.jal      885dc <u8PDM_CalculateFileSystemCapacity>
   82f04:	24 ea 80                	b.lbz      r7,0x1(r10)
   82f07:	60 67 1d                	b.sub      r3,r7,r3
   82f0a:	3e 03 38                	b.extbz    r7,r3
   82f0d:	28 ea 6a                	b.sh       0x56(r10),r7
   82f10:	98 60 25 20 00 20       	b.ori      r3,r0,0x40004a4
   82f16:	98 80 ff ff 00 00       	b.ori      r4,r0,0xffff
   82f1c:	98 a0 3d 20 00 20       	b.ori      r5,r0,0x40004bc
   82f22:	38 c0 10                	b.ori      r6,r0,0x8
   82f25:	4b 2b b0                	b.jal      86678 <PDM_eLoadRecord.constprop.119>
   82f28:	84 e0 25 20 00 20       	b.lbz      r7,0x40004a4(r0)
   82f2e:	d0 50 71 10             	b.bnei     r7,0x2,82fb6 <Node_vPdmInit.constprop.103+0x93a>
   82f32:	8c e0 7d 20 00 20       	b.lwz      r7,0x40004bc(r0)
   82f38:	9d 87 2e 88 80 11       	b.sfeqi    r7,-0x77feee8c
   82f3e:	47 2a 90                	b.bf       82fd3 <Node_vPdmInit.constprop.103+0x957>
   82f41:	8c e0 41 50 00 20       	b.lwz      r7,0x4000a80(r0)
   82f47:	2c 67 72                	b.lwz      r3,0x4c(r7)
   82f4a:	40 03 60                	b.beqi     r3,0x0,82f50 <Node_vPdmInit.constprop.103+0x8d4>
   82f4d:	4b 65 7c                	b.jal      929e8 <OS_eEnterCriticalSection>
   82f50:	8c e0 41 50 00 20       	b.lwz      r7,0x4000a80(r0)
   82f56:	2d 47 4a                	b.lwz      r10,0x50(r7)
   82f59:	0e 20                   	b.j        82f6a <Node_vPdmInit.constprop.103+0x8ee>
   82f5b:	2d 6a 48                	b.lwz      r11,0x10(r10)
   82f5e:	38 a0 18                	b.ori      r5,r0,0x18
   82f61:	04 6a                   	b.mov      r3,r10
   82f63:	00 80                   	b.movi     r4,0x0
   82f65:	05 4b                   	b.mov      r10,r11
   82f67:	4a e0 12                	b.jal      94f84 <memset>
   82f6a:	40 0a d0                	b.beqi     r10,0x0,82f75 <Node_vPdmInit.constprop.103+0x8f9>
   82f6d:	04 6a                   	b.mov      r3,r10
   82f6f:	49 af 74                	b.jal      8eb45 <bPDM_IsDescriptorValid>
   82f72:	40 83 97                	b.beqi     r3,0x1,82f5b <Node_vPdmInit.constprop.103+0x8df>
   82f75:	8c e0 41 50 00 20       	b.lwz      r7,0x4000a80(r0)
   82f7b:	2c 07 0a                	b.sw       0x50(r7),r0
   82f7e:	28 07 6a                	b.sh       0x56(r7),r0
   82f81:	28 07 1a                	b.sh       0x58(r7),r0
   82f84:	49 16 78                	b.jal      8a926 <vPDM_DeleteUsedSegmentsOnDeallocList>
   82f87:	8c c0 41 50 00 20       	b.lwz      r6,0x4000a80(r0)
   82f8d:	38 60 30                	b.ori      r3,r0,0xc
   82f90:	30 a6 30                	b.addi     r5,r6,0xc
   82f93:	30 81 04                	b.addi     r4,r1,0x20
   82f96:	30 c6 28                	b.addi     r6,r6,0x14
   82f99:	49 e9 a8                	b.jal      885f7 <vPDM_MoveAllDataFromListToList>
   82f9c:	8c e0 41 50 00 20       	b.lwz      r7,0x4000a80(r0)
   82fa2:	24 c7 80                	b.lbz      r6,0x1(r7)
   82fa5:	2c 67 72                	b.lwz      r3,0x4c(r7)
   82fa8:	20 c7 10                	b.sb       0x8(r7),r6
   82fab:	40 03 60                	b.beqi     r3,0x0,82fb1 <Node_vPdmInit.constprop.103+0x935>
   82fae:	49 91 7c                	b.jal      929d4 <OS_eExitCriticalSection>
   82fb1:	4b f4 60                	b.jal      84870 <vAHI_SwReset>
   82fb4:	0f e0                   	b.j        82fd3 <Node_vPdmInit.constprop.103+0x957>
   82fb6:	98 e0 2e 88 80 11       	b.ori      r7,r0,0x88011174
   82fbc:	98 60 25 20 00 20       	b.ori      r3,r0,0x40004a4
   82fc2:	8c e0 3d 20 00 20       	b.sw       0x40004bc(r0),r7
   82fc8:	00 ef                   	b.movi     r7,-0x1
   82fca:	8c e0 03 20 00 20       	b.sw       0x40004c0(r0),r7
   82fd0:	48 d1 94                	b.jal      8d5fc <PDM_vSaveRecord>
   82fd3:	98 80 00 ff 00 00       	b.ori      r4,r0,0xff00
   82fd9:	98 a0 13 d0 00 20       	b.ori      r5,r0,0x4000bc8
   82fdf:	38 c0 08                	b.ori      r6,r0,0x10
   82fe2:	98 60 0d d0 00 20       	b.ori      r3,r0,0x4000bb0
   82fe8:	8c 60 2d 60 00 20       	b.sw       0x40006b4(r0),r3
   82fee:	49 45 b0                	b.jal      86678 <PDM_eLoadRecord.constprop.119>
   82ff1:	98 e0 01 90 00 20       	b.ori      r7,r0,0x4000980
   82ff7:	8c e0 0b 50 00 20       	b.sw       0x4000ad0(r0),r7
   82ffd:	98 e0 3f 40 00 20       	b.ori      r7,r0,0x40002fc
   83003:	8c e0 01 90 00 20       	b.sw       0x4000980(r0),r7
   83009:	98 e0 23 20 00 20       	b.ori      r7,r0,0x40004c4
   8300f:	8c e0 2d 30 00 20       	b.sw       0x4000cb4(r0),r7
   83015:	38 e0 0c                	b.ori      r7,r0,0x30
   83018:	80 e0 2b 20 00 20       	b.sb       0x40004d4(r0),r7
   8301e:	d8 e0 00 01             	b.addi     r7,r0,-0x8000
   83022:	88 e0 17 20 00 20       	b.sh       0x40004e8(r0),r7
   83028:	38 e0 98                	b.ori      r7,r0,0x19
   8302b:	80 e0 37 20 00 20       	b.sb       0x40004ec(r0),r7
   83031:	00 e2                   	b.movi     r7,0x4
   83033:	80 e0 b7 20 00 20       	b.sb       0x40004ed(r0),r7
   83039:	8c e0 53 00 00 40       	b.lwz      r7,0x20000c8(r0)
   8303f:	8c 00 23 20 00 20       	b.sw       0x40004c4(r0),r0
   83045:	94 e7 ff ff f3 ff       	b.andi     r7,r7,0xffcfffff
   8304b:	8c e0 13 00 00 40       	b.sw       0x20000c8(r0),r7
   83051:	00 ef                   	b.movi     r7,-0x1
   83053:	88 00 57 20 00 20       	b.sh       0x40004ea(r0),r0
   83059:	80 e0 77 20 00 20       	b.sb       0x40004ee(r0),r7
   8305f:	49 94 90                	b.jal      85505 <MibAdcStatus_vStart>
   83062:	98 e0 36 d0 00 20       	b.ori      r7,r0,0x4000b6c
   83068:	98 80 11 7f 00 00       	b.ori      r4,r0,0xfe88
   8306e:	98 a0 11 d0 00 20       	b.ori      r5,r0,0x4000b88
   83074:	38 c0 08                	b.ori      r6,r0,0x10
   83077:	98 60 0e d0 00 20       	b.ori      r3,r0,0x4000b70
   8307d:	8c e0 3d 30 00 20       	b.sw       0x4000cbc(r0),r7
   83083:	98 e0 1c c0 00 20       	b.ori      r7,r0,0x4000338
   83089:	8c e0 36 d0 00 20       	b.sw       0x4000b6c(r0),r7
   8308f:	00 e8                   	b.movi     r7,0x1
   83091:	80 e0 79 d0 00 20       	b.sb       0x4000b9e(r0),r7
   83097:	4a 1e b0                	b.jal      86678 <PDM_eLoadRecord.constprop.119>
   8309a:	8c e0 7d 30 00 20       	b.lwz      r7,0x4000cbc(r0)
   830a0:	98 80 d1 7f 00 00       	b.ori      r4,r0,0xfe8b
   830a6:	98 60 1b d0 00 20       	b.ori      r3,r0,0x4000bd8
   830ac:	50 a7 04                	b.mlwz     r5,0x20(r7),0x0
   830af:	08 c5                   	b.add      r6,r6,r5
   830b1:	98 a0 0f d0 00 20       	b.ori      r5,r0,0x4000bf0
   830b7:	2c c7 34                	b.sw       0x2c(r7),r6
   830ba:	2c c7 1c                	b.sw       0x38(r7),r6
   830bd:	2c c7 54                	b.lwz      r6,0x28(r7)
   830c0:	2c c7 2c                	b.sw       0x34(r7),r6
   830c3:	d8 c6 00 08             	b.addi     r6,r6,0x1000
   830c7:	2c c7 14                	b.sw       0x28(r7),r6
   830ca:	38 c0 2e                	b.ori      r6,r0,0x74
   830cd:	4b 56 b0                	b.jal      86678 <PDM_eLoadRecord.constprop.119>
   830d0:	0c 1c                   	b.j        831b0 <Node_vPdmInit.constprop.103+0xb34>
   830d2:	2c 07 24                	b.sw       0x24(r7),r0
   830d5:	01 80                   	b.movi     r12,0x0
   830d7:	2c 07 14                	b.sw       0x28(r7),r0
   830da:	39 c0 38                	b.ori      r14,r0,0x1c
   830dd:	01 ea                   	b.movi     r15,0x5
   830df:	2c 07 34                	b.sw       0x2c(r7),r0
   830e2:	2c 07 0c                	b.sw       0x30(r7),r0
   830e5:	2c 07 2c                	b.sw       0x34(r7),r0
   830e8:	2c 07 1c                	b.sw       0x38(r7),r0
   830eb:	2c 07 3c                	b.sw       0x3c(r7),r0
   830ee:	2c 07 02                	b.sw       0x40(r7),r0
   830f1:	2c 07 22                	b.sw       0x44(r7),r0
   830f4:	2c 07 12                	b.sw       0x48(r7),r0
   830f7:	46 76 1f                	b.j        82965 <Node_vPdmInit.constprop.103+0x2e9>
   830fa:	04 6a                   	b.mov      r3,r10
   830fc:	00 88                   	b.movi     r4,0x1
   830fe:	48 46 74                	b.jal      8ea86 <iPDM_SetVerifyBytesInFileSystemRecord>
   83101:	24 6a 10                	b.lbz      r3,0x8(r10)
   83104:	31 ad c8                	b.addi     r13,r13,0x13
   83107:	60 8d 64                	b.add      r4,r13,r12
   8310a:	3e 04 20                	b.extbz    r4,r4
   8310d:	00 a8                   	b.movi     r5,0x1
   8310f:	4b 65 b4                	b.jal      8e7aa <vPDM_WriteByteIntoEEPROM>
   83112:	04 6a                   	b.mov      r3,r10
   83114:	00 80                   	b.movi     r4,0x0
   83116:	48 3a 74                	b.jal      8ea86 <iPDM_SetVerifyBytesInFileSystemRecord>
   83119:	46 1c 9f                	b.j        82a51 <Node_vPdmInit.constprop.103+0x3d5>
   8311c:	28 67 88                	b.lhz      r3,0x10(r7)
   8311f:	24 87 68                	b.lbz      r4,0x16(r7)
   83122:	30 c1 24                	b.addi     r6,r1,0x24
   83125:	30 e1 38                	b.addi     r7,r1,0x1c
   83128:	48 07 d0                	b.jal      860a8 <iPDM_SearchForBufferIdInList>
   8312b:	d0 00 33 6d             	b.beqi     r3,0x0,82c97 <Node_vPdmInit.constprop.103+0x61b>
   8312f:	0e e0                   	b.j        8314c <Node_vPdmInit.constprop.103+0xad0>
   83131:	28 67 88                	b.lhz      r3,0x10(r7)
   83134:	24 87 68                	b.lbz      r4,0x16(r7)
   83137:	00 bf                   	b.addi     r5,r5,-0x1
   83139:	30 c1 24                	b.addi     r6,r1,0x24
   8313c:	30 e1 38                	b.addi     r7,r1,0x1c
   8313f:	3e 05 28                	b.extbz    r5,r5
   83142:	49 9b d0                	b.jal      860a8 <iPDM_SearchForBufferIdInList>
   83145:	d0 00 3f 4d             	b.beqi     r3,0x0,82c74 <Node_vPdmInit.constprop.103+0x5f8>
   83149:	46 6c 3f                	b.j        82d7f <Node_vPdmInit.constprop.103+0x703>
   8314c:	2c c1 58                	b.lwz      r6,0x18(r1)
   8314f:	2c e1 68                	b.lwz      r7,0x14(r1)
   83152:	24 a6 28                	b.lbz      r5,0x14(r6)
   83155:	28 67 88                	b.lhz      r3,0x10(r7)
   83158:	24 87 68                	b.lbz      r4,0x16(r7)
   8315b:	00 bf                   	b.addi     r5,r5,-0x1
   8315d:	30 c1 24                	b.addi     r6,r1,0x24
   83160:	30 e1 38                	b.addi     r7,r1,0x1c
   83163:	3e 05 28                	b.extbz    r5,r5
   83166:	49 0b d0                	b.jal      860a8 <iPDM_SearchForBufferIdInList>
   83169:	d0 00 31 cd             	b.beqi     r3,0x0,82ca1 <Node_vPdmInit.constprop.103+0x625>
   8316d:	46 48 3f                	b.j        82d7f <Node_vPdmInit.constprop.103+0x703>
   83170:	2c e1 58                	b.lwz      r7,0x18(r1)
   83173:	2c 61 78                	b.lwz      r3,0x1c(r1)
   83176:	24 e7 28                	b.lbz      r7,0x14(r7)
   83179:	24 c3 c8                	b.lbz      r6,0x13(r3)
   8317c:	00 ff                   	b.addi     r7,r7,-0x1
   8317e:	d2 cc 7d 6d             	b.bne      r6,r7,82ce9 <Node_vPdmInit.constprop.103+0x66d>
   83182:	46 ea df                	b.j        82cd9 <Node_vPdmInit.constprop.103+0x65d>
   83185:	38 60 70                	b.ori      r3,r0,0xe
   83188:	30 81 08                	b.addi     r4,r1,0x10
   8318b:	30 a1 24                	b.addi     r5,r1,0x24
   8318e:	04 c5                   	b.mov      r6,r5
   83190:	4b 98 a8                	b.jal      885f7 <vPDM_MoveAllDataFromListToList>
   83193:	2c 61 58                	b.lwz      r3,0x18(r1)
   83196:	24 81 08                	b.lbz      r4,0x10(r1)
   83199:	24 e3 28                	b.lbz      r7,0x14(r3)
   8319c:	d2 ce 42 1d             	b.bne      r7,r4,82d20 <Node_vPdmInit.constprop.103+0x6a4>
   831a0:	46 5e df                	b.j        82d1a <Node_vPdmInit.constprop.103+0x69e>
   831a3:	25 0a 10                	b.lbz      r8,0x8(r10)
   831a6:	24 65 80                	b.lbz      r3,0x1(r5)
   831a9:	00 c0                   	b.movi     r6,0x0
   831ab:	00 e0                   	b.movi     r7,0x0
   831ad:	46 27 6f                	b.j        82891 <Node_vPdmInit.constprop.103+0x215>
   831b0:	47 be b8                	b.reti     0x7,0x1d
	...

000831b4 <pvHeapAllocOverflowProtect.2072>:
   831b4:	8c e0 73 a0 00 20       	b.lwz      r7,0x40005cc(r0)
   831ba:	47 a8 80                	b.entri    0x1,0x1
   831bd:	47 d1 38                	b.jalr     r7
   831c0:	8c e0 56 00 00 20       	b.lwz      r7,0x4000068(r0)
   831c6:	98 c7 00 00 00 01       	b.ori      r6,r7,0x80000000
   831cc:	cc d0 07 01             	b.sw       -0x7f20(r16),r6
   831d0:	8c c0 53 50 00 20       	b.lwz      r6,0x4000ac8(r0)
   831d6:	d3 8c 75 00             	b.bgeu     r6,r7,831e0 <pvHeapAllocOverflowProtect.2072+0x2c>
   831da:	8c e0 13 50 00 20       	b.sw       0x4000ac8(r0),r7
   831e0:	47 b8 80                	b.reti     0x1,0x1

000831e3 <vACI_IntHandlerAes>:
   831e3:	47 a4 00                	b.entri    0x2,0x0
   831e6:	cc f0 48 39             	b.lwz      r7,-0x63f0(r16)
   831ea:	cd 50 58 39             	b.lwz      r10,-0x63e8(r16)
   831ee:	61 4a 38                	b.and      r10,r10,r7
   831f1:	8c e0 7e a0 00 20       	b.lwz      r7,0x400057c(r0)
   831f7:	40 07 50                	b.beqi     r7,0x0,83201 <vACI_IntHandlerAes+0x1e>
   831fa:	00 62                   	b.movi     r3,0x4
   831fc:	04 8a                   	b.mov      r4,r10
   831fe:	47 d1 38                	b.jalr     r7
   83201:	cd 50 08 39             	b.sw       -0x63f0(r16),r10
   83205:	47 b4 00                	b.reti     0x2,0x0

00083208 <pvHeap_DefAlloc.24437>:
   83208:	47 a4 00                	b.entri    0x2,0x0
   8320b:	05 44                   	b.mov      r10,r4
   8320d:	41 03 3c                	b.bnei     r3,0x0,83249 <pvHeap_DefAlloc.24437+0x41>
   83210:	8c e0 56 00 00 20       	b.lwz      r7,0x4000068(r0)
   83216:	8c c0 66 80 10 00       	b.lwz      r6,0x80164(r0)
   8321c:	08 87                   	b.add      r4,r4,r7
   8321e:	d3 8c 41 00             	b.bgeu     r6,r4,83226 <pvHeap_DefAlloc.24437+0x1e>
   83222:	00 00                   	b.trap     0x0
   83224:	0c c8                   	b.j        83270 <pvHeap_DefAlloc.24437+0x68>
   83226:	40 05 30                	b.beqi     r5,0x0,83232 <pvHeap_DefAlloc.24437+0x2a>
   83229:	04 67                   	b.mov      r3,r7
   8322b:	00 80                   	b.movi     r4,0x0
   8322d:	04 aa                   	b.mov      r5,r10
   8322f:	4a aa e2                	b.jal      94f84 <memset>
   83232:	8c 60 56 00 00 20       	b.lwz      r3,0x4000068(r0)
   83238:	30 e3 c0                	b.addi     r7,r3,0x3
   8323b:	09 47                   	b.add      r10,r10,r7
   8323d:	95 4a 3f ff ff ff       	b.andi     r10,r10,0xfffffffc
   83243:	8d 40 16 00 00 20       	b.sw       0x4000068(r0),r10
   83249:	cc d0 47 01             	b.lwz      r6,-0x7f20(r16)
   8324d:	8c e0 56 00 00 20       	b.lwz      r7,0x4000068(r0)
   83253:	94 86 ff ff f0 00       	b.andi     r4,r6,0xfffff
   83259:	94 a7 ff ff f0 00       	b.andi     r5,r7,0xfffff
   8325f:	d3 88 58 80             	b.bgeu     r4,r5,83270 <pvHeap_DefAlloc.24437+0x68>
   83263:	94 c6 00 00 00 01       	b.andi     r6,r6,0x80000000
   83269:	60 e6 39                	b.or       r7,r6,r7
   8326c:	cc f0 07 01             	b.sw       -0x7f20(r16),r7
   83270:	47 b4 00                	b.reti     0x2,0x0

00083273 <bIssueACIcommand.constprop.125>:
   83273:	04 e3                   	b.mov      r7,r3
   83275:	00 60                   	b.movi     r3,0x0
   83277:	40 07 bc                	b.beqi     r7,0x0,832b4 <bIssueACIcommand.constprop.125+0x41>
   8327a:	cc d0 68 39             	b.lwz      r6,-0x63ec(r16)
   8327e:	34 c6 80                	b.andi     r6,r6,0x1
   83281:	40 06 cc                	b.beqi     r6,0x0,832b4 <bIssueACIcommand.constprop.125+0x41>
   83284:	2c c7 40                	b.lwz      r6,0x0(r7)
   83287:	cc d0 00 39             	b.sw       -0x6400(r16),r6
   8328b:	2c c7 60                	b.lwz      r6,0x4(r7)
   8328e:	cc d0 20 39             	b.sw       -0x63fc(r16),r6
   83292:	2c c7 50                	b.lwz      r6,0x8(r7)
   83295:	cc d0 10 39             	b.sw       -0x63f8(r16),r6
   83299:	2c e7 70                	b.lwz      r7,0xc(r7)
   8329c:	cc f0 30 39             	b.sw       -0x63f4(r16),r7
   832a0:	38 e0 88                	b.ori      r7,r0,0x11
   832a3:	cc f0 28 39             	b.sw       -0x63ec(r16),r7
   832a7:	cc 70 68 39             	b.lwz      r3,-0x63ec(r16)
   832ab:	6c 63 81                	b.srli     r3,r3,0x1
   832ae:	60 63 1b                	b.nand     r3,r3,r3
   832b1:	34 63 80                	b.andi     r3,r3,0x1
   832b4:	47 d2 48                	b.jr       r9

000832b7 <vAHI_AdcEnable.constprop.114>:
   832b7:	cc f0 40 f9             	b.lwz      r7,-0x6100(r16)
   832bb:	6c c3 20                	b.slli     r6,r3,0x4
   832be:	98 c6 10 10 00 00       	b.ori      r6,r6,0x808
   832c4:	94 e7 f1 ff ff 3f       	b.andi     r7,r7,0xfcffff8f
   832ca:	60 e7 31                	b.or       r7,r7,r6
   832cd:	80 00 1e a0 00 20       	b.sb       0x4000578(r0),r0
   832d3:	41 23 d0                	b.bnei     r3,0x4,832de <vAHI_AdcEnable.constprop.114+0x27>
   832d6:	98 e7 00 00 00 80       	b.ori      r7,r7,0x1000000
   832dc:	0d c0                   	b.j        832ea <vAHI_AdcEnable.constprop.114+0x33>
   832de:	98 c7 00 00 00 40       	b.ori      r6,r7,0x2000000
   832e4:	3c 03 a0                	b.sfeqi    r3,0x5
   832e7:	64 e6 3a                	b.cmov     r7,r6,r7
   832ea:	cc f0 00 f9             	b.sw       -0x6100(r16),r7
   832ee:	47 d2 48                	b.jr       r9

000832f1 <vPDM_SetEEPROMandFileSystemValidState>:
   832f1:	47 a4 40                	b.entri    0x2,0x2
   832f4:	24 e3 a8                	b.lbz      r7,0x15(r3)
   832f7:	05 43                   	b.mov      r10,r3
   832f9:	04 a4                   	b.mov      r5,r4
   832fb:	d2 8e 48 a0             	b.beq      r7,r4,8334c <vPDM_SetEEPROMandFileSystemValidState+0x5b>
   832ff:	3c 04 70                	b.sfeqi    r4,0xe
   83302:	47 25 20                	b.bf       8334c <vPDM_SetEEPROMandFileSystemValidState+0x5b>
   83305:	2c e3 70                	b.lwz      r7,0xc(r3)
   83308:	20 8a a8                	b.sb       0x15(r10),r4
   8330b:	00 f8                   	b.addi     r7,r7,0x1
   8330d:	00 88                   	b.movi     r4,0x1
   8330f:	2c e3 30                	b.sw       0xc(r3),r7
   83312:	2c a1 20                	b.sw       0x4(r1),r5
   83315:	4a 3b b4                	b.jal      8ea86 <iPDM_SetVerifyBytesInFileSystemRecord>
   83318:	24 6a 10                	b.lbz      r3,0x8(r10)
   8331b:	2c a1 60                	b.lwz      r5,0x4(r1)
   8331e:	38 80 90                	b.ori      r4,r0,0x9
   83321:	4a 44 b4                	b.jal      8e7aa <vPDM_WriteByteIntoEEPROM>
   83324:	24 ca 10                	b.lbz      r6,0x8(r10)
   83327:	2c ea 70                	b.lwz      r7,0xc(r10)
   8332a:	6c c6 60                	b.slli     r6,r6,0x6
   8332d:	04 6a                   	b.mov      r3,r10
   8332f:	8c c0 21 00 00 80       	b.sw       0x1000084(r0),r6
   83335:	00 ca                   	b.movi     r6,0x5
   83337:	8c c0 01 00 00 80       	b.sw       0x1000080(r0),r6
   8333d:	00 80                   	b.movi     r4,0x0
   8333f:	8c e0 11 00 00 80       	b.sw       0x1000088(r0),r7
   83345:	47 c4 40                	b.rtnei    0x2,0x2
   83348:	d5 7c ed 00             	b.j        8ea86 <iPDM_SetVerifyBytesInFileSystemRecord>
   8334c:	47 b4 40                	b.reti     0x2,0x2

0008334f <vMicroIntEnableOnly.constprop.100>:
   8334f:	a8 c0 88 00 00 00       	b.mfspr    r6,r0,0x11
   83355:	04 02                   	b.di       
   83357:	a8 e0 08 12 00 00       	b.mfspr    r7,r0,0x4810
   8335d:	3e 07 38                	b.extbz    r7,r7
   83360:	20 e3 00                	b.sb       0x0(r3),r7
   83363:	3c a7 50                	b.sfgtui   r7,0xa
   83366:	47 23 00                	b.bf       83372 <vMicroIntEnableOnly.constprop.100+0x23>
   83369:	38 e0 d0                	b.ori      r7,r0,0xb
   8336c:	a8 e0 08 12 00 01       	b.mtspr    r0,r7,0x4810
   83372:	a8 c0 88 00 00 01       	b.mtspr    r0,r6,0x11
   83378:	47 d2 48                	b.jr       r9

0008337b <eMiniMac_MCPS_PurgeReq>:
   8337b:	47 a6 40                	b.entri    0x6,0x2
   8337e:	2c 04 00                	b.sw       0x0(r4),r0
   83381:	05 a3                   	b.mov      r13,r3
   83383:	30 61 20                	b.addi     r3,r1,0x4
   83386:	05 84                   	b.mov      r12,r4
   83388:	39 60 e7                	b.ori      r11,r0,0xe7
   8338b:	48 8f ff                	b.jal      8334f <vMicroIntEnableOnly.constprop.100>
   8338e:	01 c8                   	b.movi     r14,0x1
   83390:	8d 40 40 b0 00 20       	b.lwz      r10,0x4000d00(r0)
   83396:	0c 30                   	b.j        833c6 <eMiniMac_MCPS_PurgeReq+0x4b>
   83398:	24 ea 2d                	b.lbz      r7,0xb4(r10)
   8339b:	d2 ce d1 40             	b.bne      r7,r13,833c3 <eMiniMac_MCPS_PurgeReq+0x48>
   8339f:	2c ea 65                	b.lwz      r7,0xa4(r10)
   833a2:	98 c0 3b a8 90 00       	b.ori      r6,r0,0x915dc
   833a8:	3d 67 30                	b.sfne     r7,r6
   833ab:	47 21 80                	b.bf       833c3 <eMiniMac_MCPS_PurgeReq+0x48>
   833ae:	24 ea ad                	b.lbz      r7,0xb5(r10)
   833b1:	41 c7 10                	b.bnei     r7,0x3,833b9 <eMiniMac_MCPS_PurgeReq+0x3e>
   833b4:	21 ca ad                	b.sb       0xb5(r10),r14
   833b7:	0d 40                   	b.j        833c1 <eMiniMac_MCPS_PurgeReq+0x46>
   833b9:	04 6a                   	b.mov      r3,r10
   833bb:	4b b4 60                	b.jal      84c72 <vRemoveFromTxQueue>
   833be:	2d 4c 00                	b.sw       0x0(r12),r10
   833c1:	01 60                   	b.movi     r11,0x0
   833c3:	2d 4a 79                	b.lwz      r10,0x9c(r10)
   833c6:	3e 0a 3c                	b.ff1      r7,r10
   833c9:	60 c0 5d                	b.sub      r6,r0,r11
   833cc:	60 e0 3d                	b.sub      r7,r0,r7
   833cf:	60 e6 38                	b.and      r7,r6,r7
   833d2:	45 07 63                	b.bltsi    r7,0x0,83398 <eMiniMac_MCPS_PurgeReq+0x1d>
   833d5:	30 61 20                	b.addi     r3,r1,0x4
   833d8:	4b f5 20                	b.jal      84697 <vMicroIntRestoreState>
   833db:	04 6b                   	b.mov      r3,r11
   833dd:	47 b6 40                	b.reti     0x6,0x2

000833e0 <vSetChannelAndPower>:
   833e0:	47 ac c0                	b.entri    0x3,0x3
   833e3:	98 80 2c 80 10 00       	b.ori      r4,r0,0x80134
   833e9:	05 43                   	b.mov      r10,r3
   833eb:	30 61 80                	b.addi     r3,r1,0x1
   833ee:	00 ac                   	b.movi     r5,0x3
   833f0:	d4 36 33 ef             	b.jal      5c <memcpy>
   833f4:	30 61 20                	b.addi     r3,r1,0x4
   833f7:	48 6b ff                	b.jal      8334f <vMicroIntEnableOnly.constprop.100>
   833fa:	cd 70 43 69             	b.lwz      r11,-0x6940(r16)
   833fe:	48 d0 60                	b.jal      84c2a <vRadioToOff>
   83401:	cd 50 10 79             	b.sw       -0x61f8(r16),r10
   83405:	cc f0 51 29             	b.lwz      r7,-0x6b78(r16)
   83409:	34 e7 a0                	b.andi     r7,r7,0x5
   8340c:	41 07 e0                	b.bnei     r7,0x0,83413 <vSetChannelAndPower+0x33>
   8340f:	cd 70 03 69             	b.sw       -0x6940(r16),r11
   83413:	30 61 20                	b.addi     r3,r1,0x4
   83416:	4a 05 20                	b.jal      84697 <vMicroIntRestoreState>
   83419:	cc b0 5c 79             	b.lwz      r5,-0x61c8(r16)
   8341d:	84 c0 9e a0 00 20       	b.lbz      r6,0x4000579(r0)
   83423:	30 e1 10                	b.addi     r7,r1,0x8
   83426:	08 e6                   	b.add      r7,r7,r6
   83428:	94 a5 f0 0f ff ff       	b.andi     r5,r5,0xfffff00f
   8342e:	c4 e7 9f ff             	b.lbz      r7,-0x7(r7)
   83432:	6c e7 20                	b.slli     r7,r7,0x4
   83435:	60 e5 39                	b.or       r7,r5,r7
   83438:	cc f0 1c 79             	b.sw       -0x61c8(r16),r7
   8343c:	cc b0 70 79             	b.lwz      r5,-0x61f4(r16)
   83440:	84 e0 01 e0 00 20       	b.lbz      r7,0x4000780(r0)
   83446:	41 46 70                	b.bnei     r6,0x2,83454 <vSetChannelAndPower+0x74>
   83449:	3c 2a 58                	b.sfnei    r10,0x1a
   8344c:	47 21 00                	b.bf       83454 <vSetChannelAndPower+0x74>
   8344f:	41 c7 a0                	b.bnei     r7,0x3,83454 <vSetChannelAndPower+0x74>
   83452:	00 e4                   	b.movi     r7,0x2
   83454:	94 c5 ff f1 ff ff       	b.andi     r6,r5,0xffff8fff
   8345a:	6c e7 30                	b.slli     r7,r7,0xc
   8345d:	60 e7 31                	b.or       r7,r7,r6
   83460:	cc f0 30 79             	b.sw       -0x61f4(r16),r7
   83464:	47 bc c0                	b.reti     0x3,0x3

00083467 <vMiniMac_PLME_SetReq_Power>:
   83467:	34 63 fc                	b.andi     r3,r3,0x3f
   8346a:	38 e0 02                	b.ori      r7,r0,0x40
   8346d:	3c a3 f8                	b.sfgtui   r3,0x1f
   83470:	64 63 3a                	b.cmov     r3,r3,r7
   83473:	30 63 67                	b.addi     r3,r3,-0x1a
   83476:	38 80 30                	b.ori      r4,r0,0xc
   83479:	47 a8 80                	b.entri    0x1,0x1
   8347c:	48 db 62                	b.jal      94fe8 <__udivsi3>
   8347f:	80 60 01 e0 00 20       	b.sb       0x4000780(r0),r3
   83485:	47 c8 80                	b.rtnei    0x1,0x1
   83488:	84 60 81 e0 00 20       	b.lbz      r3,0x4000781(r0)
   8348e:	0d 2b                   	b.j        833e0 <vSetChannelAndPower>

00083490 <eSetTxPower.8182>:
   83490:	47 a8 80                	b.entri    0x1,0x1
   83493:	38 e0 ff                	b.ori      r7,r0,0xff
   83496:	d1 f0 3a 80             	b.bgtui    r3,0x3,834ab <eSetTxPower.8182+0x1b>
   8349a:	38 e0 50                	b.ori      r7,r0,0xa
   8349d:	64 63 3b                	b.mul      r3,r3,r7
   834a0:	30 63 44                	b.addi     r3,r3,0x22
   834a3:	34 63 7f                	b.andi     r3,r3,0xfe
   834a6:	4a 0f ff                	b.jal      83467 <vMiniMac_PLME_SetReq_Power>
   834a9:	00 e0                   	b.movi     r7,0x0
   834ab:	04 67                   	b.mov      r3,r7
   834ad:	47 b8 80                	b.reti     0x1,0x1

000834b0 <vMiniMac_PLME_SetReq_Channel>:
   834b0:	80 60 81 e0 00 20       	b.sb       0x4000781(r0),r3
   834b6:	0d 53                   	b.j        833e0 <vSetChannelAndPower>

000834b8 <vMiniMac_SetHighPowerMode.constprop.98>:
   834b8:	00 e8                   	b.movi     r7,0x1
   834ba:	80 e0 9e a0 00 20       	b.sb       0x4000579(r0),r7
   834c0:	cc f0 40 01             	b.lwz      r7,-0x8000(r16)
   834c4:	98 e7 00 00 00 c0       	b.ori      r7,r7,0x3000000
   834ca:	cc f0 00 01             	b.sw       -0x8000(r16),r7
   834ce:	84 e0 20 b0 00 20       	b.lbz      r7,0x4000d04(r0)
   834d4:	40 07 d0                	b.beqi     r7,0x0,834df <vMiniMac_SetHighPowerMode.constprop.98+0x27>
   834d7:	84 60 81 e0 00 20       	b.lbz      r3,0x4000781(r0)
   834dd:	0f 03                   	b.j        833e0 <vSetChannelAndPower>
   834df:	47 d2 48                	b.jr       r9

000834e2 <v6LP_SocketGroupChangeAcked>:
   834e2:	47 ae e0                	b.entri    0x7,0x7
   834e5:	05 a3                   	b.mov      r13,r3
   834e7:	30 61 28                	b.addi     r3,r1,0x14
   834ea:	05 c4                   	b.mov      r14,r4
   834ec:	05 e5                   	b.mov      r15,r5
   834ee:	01 60                   	b.movi     r11,0x0
   834f0:	4b e9 ff                	b.jal      8334f <vMicroIntEnableOnly.constprop.100>
   834f3:	01 88                   	b.movi     r12,0x1
   834f5:	0d 64                   	b.j        8358f <v6LP_SocketGroupChangeAcked+0xad>
   834f7:	6c ea 20                	b.slli     r7,r10,0x4
   834fa:	08 e6                   	b.add      r7,r7,r6
   834fc:	38 a0 08                	b.ori      r5,r0,0x10
   834ff:	04 67                   	b.mov      r3,r7
   83501:	2c 81 70                	b.lwz      r4,0xc(r1)
   83504:	2c c1 20                	b.sw       0x4(r1),r6
   83507:	2c e1 00                	b.sw       0x0(r1),r7
   8350a:	2d 01 10                	b.sw       0x8(r1),r8
   8350d:	4a be 62                	b.jal      94f02 <memcmp>
   83510:	2c c1 60                	b.lwz      r6,0x4(r1)
   83513:	2c e1 40                	b.lwz      r7,0x0(r1)
   83516:	2d 01 50                	b.lwz      r8,0x8(r1)
   83519:	41 03 76                	b.bnei     r3,0x0,83587 <v6LP_SocketGroupChangeAcked+0xa5>
   8351c:	40 0f 4c                	b.beqi     r15,0x0,8354e <v6LP_SocketGroupChangeAcked+0x6c>
   8351f:	8c e0 42 20 00 20       	b.lwz      r7,0x4000440(r0)
   83525:	60 c7 57                	b.srl      r6,r7,r10
   83528:	34 c6 80                	b.andi     r6,r6,0x1
   8352b:	40 06 46                	b.beqi     r6,0x0,8358d <v6LP_SocketGroupChangeAcked+0xab>
   8352e:	8c c0 52 20 00 20       	b.lwz      r6,0x4000448(r0)
   83534:	61 4c 56                	b.sll      r10,r12,r10
   83537:	61 4a 53                	b.nand     r10,r10,r10
   8353a:	60 ca 30                	b.and      r6,r10,r6
   8353d:	60 ea 38                	b.and      r7,r10,r7
   83540:	8c c0 12 20 00 20       	b.sw       0x4000448(r0),r6
   83546:	8c e0 02 20 00 20       	b.sw       0x4000440(r0),r7
   8354c:	0e 08                   	b.j        8358d <v6LP_SocketGroupChangeAcked+0xab>
   8354e:	8c c0 7c 20 00 20       	b.lwz      r6,0x400043c(r0)
   83554:	60 a6 57                	b.srl      r5,r6,r10
   83557:	34 a5 80                	b.andi     r5,r5,0x1
   8355a:	40 05 cc                	b.beqi     r5,0x0,8358d <v6LP_SocketGroupChangeAcked+0xab>
   8355d:	61 4c 56                	b.sll      r10,r12,r10
   83560:	61 4a 53                	b.nand     r10,r10,r10
   83563:	60 ca 30                	b.and      r6,r10,r6
   83566:	04 67                   	b.mov      r3,r7
   83568:	8c a0 62 20 00 20       	b.lwz      r5,0x4000444(r0)
   8356e:	8c c0 3c 20 00 20       	b.sw       0x400043c(r0),r6
   83574:	60 aa 28                	b.and      r5,r10,r5
   83577:	00 80                   	b.movi     r4,0x0
   83579:	8c a0 22 20 00 20       	b.sw       0x4000444(r0),r5
   8357f:	38 a0 08                	b.ori      r5,r0,0x10
   83582:	49 01 62                	b.jal      94f84 <memset>
   83585:	0c 40                   	b.j        8358d <v6LP_SocketGroupChangeAcked+0xab>
   83587:	01 58                   	b.addi     r10,r10,0x1
   83589:	d3 50 a7 6f             	b.bgts     r8,r10,834f7 <v6LP_SocketGroupChangeAcked+0x15>
   8358d:	01 78                   	b.addi     r11,r11,0x1
   8358f:	d3 16 e3 80             	b.bges     r11,r14,835ab <v6LP_SocketGroupChangeAcked+0xc9>
   83593:	6c eb 20                	b.slli     r7,r11,0x4
   83596:	08 ed                   	b.add      r7,r7,r13
   83598:	01 40                   	b.movi     r10,0x0
   8359a:	85 00 37 40 00 20       	b.lbz      r8,0x40002ec(r0)
   835a0:	8c c0 76 e0 00 20       	b.lwz      r6,0x400076c(r0)
   835a6:	2c e1 30                	b.sw       0xc(r1),r7
   835a9:	0c 1f                   	b.j        83589 <v6LP_SocketGroupChangeAcked+0xa7>
   835ab:	30 61 28                	b.addi     r3,r1,0x14
   835ae:	4a 5c 20                	b.jal      84697 <vMicroIntRestoreState>
   835b1:	47 be e0                	b.reti     0x7,0x7

000835b4 <vMarkRouteAsMissing>:
   835b4:	47 a4 40                	b.entri    0x2,0x2
   835b7:	05 43                   	b.mov      r10,r3
   835b9:	30 61 20                	b.addi     r3,r1,0x4
   835bc:	4b 26 ff                	b.jal      8334f <vMicroIntEnableOnly.constprop.100>
   835bf:	8c c0 56 20 00 20       	b.lwz      r6,0x4000468(r0)
   835c5:	6c ea 20                	b.slli     r7,r10,0x4
   835c8:	00 8f                   	b.movi     r4,-0x1
   835ca:	2c a6 54                	b.lwz      r5,0x28(r6)
   835cd:	08 a7                   	b.add      r5,r5,r7
   835cf:	20 05 d0                	b.sb       0xb(r5),r0
   835d2:	2c a6 54                	b.lwz      r5,0x28(r6)
   835d5:	08 a7                   	b.add      r5,r5,r7
   835d7:	20 85 10                	b.sb       0x8(r5),r4
   835da:	2c c6 54                	b.lwz      r6,0x28(r6)
   835dd:	08 e6                   	b.add      r7,r7,r6
   835df:	20 07 50                	b.sb       0xa(r7),r0
   835e2:	8c e0 4c b0 00 20       	b.lwz      r7,0x4000d30(r0)
   835e8:	28 67 9f                	b.lhz      r3,0xf8(r7)
   835eb:	d3 94 35 80             	b.bgeu     r10,r3,83605 <vMarkRouteAsMissing+0x51>
   835ef:	00 7f                   	b.addi     r3,r3,-0x1
   835f1:	3e 03 1a                	b.exthz    r3,r3
   835f4:	28 67 1f                	b.sh       0xf8(r7),r3
   835f7:	04 8a                   	b.mov      r4,r10
   835f9:	48 c2 ef                	b.jal      81305 <vSwap.11084>
   835fc:	8c e0 4c b0 00 20       	b.lwz      r7,0x4000d30(r0)
   83602:	29 47 9f                	b.lhz      r10,0xf8(r7)
   83605:	8c c0 56 20 00 20       	b.lwz      r6,0x4000468(r0)
   8360b:	6c ea 20                	b.slli     r7,r10,0x4
   8360e:	30 a1 c0                	b.addi     r5,r1,0x3
   83611:	00 60                   	b.movi     r3,0x0
   83613:	2c 86 54                	b.lwz      r4,0x28(r6)
   83616:	08 87                   	b.add      r4,r4,r7
   83618:	49 e4 ef                	b.jal      812b6 <u16GetNextHopVect>
   8361b:	9d 83 ff ff 00 00       	b.sfeqi    r3,0xffff
   83621:	47 2b 80                	b.bf       8363e <vMarkRouteAsMissing+0x8a>
   83624:	8c e0 4c b0 00 20       	b.lwz      r7,0x4000d30(r0)
   8362a:	28 67 df                	b.lhz      r3,0xfa(r7)
   8362d:	d3 94 38 80             	b.bgeu     r10,r3,8363e <vMarkRouteAsMissing+0x8a>
   83631:	00 7f                   	b.addi     r3,r3,-0x1
   83633:	3e 03 1a                	b.exthz    r3,r3
   83636:	28 67 5f                	b.sh       0xfa(r7),r3
   83639:	04 8a                   	b.mov      r4,r10
   8363b:	49 4c ef                	b.jal      81305 <vSwap.11084>
   8363e:	30 61 20                	b.addi     r3,r1,0x4
   83641:	49 a8 20                	b.jal      84697 <vMicroIntRestoreState>
   83644:	47 b4 40                	b.reti     0x2,0x2

00083647 <iIPv6_CompressIPv6packet>:
   83647:	47 ae e0                	b.entri    0x7,0x7
   8364a:	05 43                   	b.mov      r10,r3
   8364c:	41 03 a8                	b.bnei     r3,0x0,83661 <iIPv6_CompressIPv6packet+0x1a>
   8364f:	8c e0 7c b0 00 20       	b.lwz      r7,0x4000d3c(r0)
   83655:	d8 c0 a0 80             	b.addi     r6,r0,0x105
   83659:	00 6f                   	b.movi     r3,-0x1
   8365b:	2c c7 32                	b.sw       0x4c(r7),r6
   8365e:	46 de c0                	b.j        839d9 <iIPv6_CompressIPv6packet+0x392>
   83661:	24 e3 0f                	b.lbz      r7,0xf0(r3)
   83664:	20 03 cf                	b.sb       0xf3(r3),r0
   83667:	28 03 17                	b.sh       0xe8(r3),r0
   8366a:	41 07 b6                	b.bnei     r7,0x0,836d7 <iIPv6_CompressIPv6packet+0x90>
   8366d:	2c e3 67                	b.lwz      r7,0xe4(r3)
   83670:	41 07 e6                	b.bnei     r7,0x0,836d7 <iIPv6_CompressIPv6packet+0x90>
   83673:	38 e0 10                	b.ori      r7,r0,0x8
   83676:	00 c0                   	b.movi     r6,0x0
   83678:	20 e3 cf                	b.sb       0xf3(r3),r7
   8367b:	38 e0 18                	b.ori      r7,r0,0x18
   8367e:	28 e3 17                	b.sh       0xe8(r3),r7
   83681:	2c e3 50                	b.lwz      r7,0x8(r3)
   83684:	9d c7 00 00 01 7f       	b.sfnei    r7,-0x1800000
   8368a:	47 27 00                	b.bf       83698 <iIPv6_CompressIPv6packet+0x51>
   8368d:	2c c3 70                	b.lwz      r6,0xc(r3)
   83690:	3e 06 34                	b.ff1      r6,r6
   83693:	00 df                   	b.addi     r6,r6,-0x1
   83695:	6c c6 f9                	b.srli     r6,r6,0x1f
   83698:	2c 6a 48                	b.lwz      r3,0x10(r10)
   8369b:	98 e0 00 00 00 40       	b.ori      r7,r0,0x2000000
   836a1:	60 63 3a                	b.xor      r3,r3,r7
   836a4:	00 e0                   	b.movi     r7,0x0
   836a6:	8c a0 7a 20 00 20       	b.lwz      r5,0x400045c(r0)
   836ac:	8c 80 5a 20 00 20       	b.lwz      r4,0x4000458(r0)
   836b2:	d2 ca 34 80             	b.bne      r5,r3,836c4 <iIPv6_CompressIPv6packet+0x7d>
   836b6:	2c ea 68                	b.lwz      r7,0x14(r10)
   836b9:	60 e4 3a                	b.xor      r7,r4,r7
   836bc:	3e 07 3c                	b.ff1      r7,r7
   836bf:	00 ff                   	b.addi     r7,r7,-0x1
   836c1:	6c e7 f9                	b.srli     r7,r7,0x1f
   836c4:	00 68                   	b.movi     r3,0x1
   836c6:	2c 8a 22                	b.sw       0x44(r10),r4
   836c9:	39 60 01                	b.ori      r11,r0,0x80
   836cc:	20 6a 32                	b.sb       0x4c(r10),r3
   836cf:	2c aa 12                	b.sw       0x48(r10),r5
   836d2:	41 06 28                	b.bnei     r6,0x0,836e6 <iIPv6_CompressIPv6packet+0x9f>
   836d5:	0e 40                   	b.j        836de <iIPv6_CompressIPv6packet+0x97>
   836d7:	d8 e0 12 80             	b.addi     r7,r0,0x148
   836db:	46 f1 40                	b.j        8396a <iIPv6_CompressIPv6packet+0x323>
   836de:	38 c0 1a                	b.ori      r6,r0,0x58
   836e1:	01 60                   	b.movi     r11,0x0
   836e3:	28 ca 17                	b.sh       0xe8(r10),r6
   836e6:	40 07 d0                	b.beqi     r7,0x0,836f1 <iIPv6_CompressIPv6packet+0xaa>
   836e9:	39 6b 02                	b.ori      r11,r11,0x40
   836ec:	3e 0b 58                	b.extbz    r11,r11
   836ef:	0f 40                   	b.j        836fa <iIPv6_CompressIPv6packet+0xb3>
   836f1:	28 ea 97                	b.lhz      r7,0xe8(r10)
   836f4:	30 e7 02                	b.addi     r7,r7,0x40
   836f7:	28 ea 17                	b.sh       0xe8(r10),r7
   836fa:	8c e0 7c b0 00 20       	b.lwz      r7,0x4000d3c(r0)
   83700:	2c ca 58                	b.lwz      r6,0x18(r10)
   83703:	2c 87 41                	b.lwz      r4,0x80(r7)
   83706:	00 a0                   	b.movi     r5,0x0
   83708:	d2 c8 6a 80             	b.bne      r4,r6,8371d <iIPv6_CompressIPv6packet+0xd6>
   8370c:	2c 87 7e                	b.lwz      r4,0x7c(r7)
   8370f:	2c aa 78                	b.lwz      r5,0x1c(r10)
   83712:	60 a4 2a                	b.xor      r5,r4,r5
   83715:	3e 05 2c                	b.ff1      r5,r5
   83718:	00 bf                   	b.addi     r5,r5,-0x1
   8371a:	6c a5 f9                	b.srli     r5,r5,0x1f
   8371d:	41 06 b4                	b.bnei     r6,0x0,8374a <iIPv6_CompressIPv6packet+0x103>
   83720:	2c 8a 78                	b.lwz      r4,0x1c(r10)
   83723:	41 04 e4                	b.bnei     r4,0x0,8374a <iIPv6_CompressIPv6packet+0x103>
   83726:	2c 8a 44                	b.lwz      r4,0x20(r10)
   83729:	41 04 84                	b.bnei     r4,0x0,8374a <iIPv6_CompressIPv6packet+0x103>
   8372c:	2c 8a 64                	b.lwz      r4,0x24(r10)
   8372f:	41 04 d8                	b.bnei     r4,0x0,8374a <iIPv6_CompressIPv6packet+0x103>
   83732:	24 e7 92                	b.lbz      r7,0x49(r7)
   83735:	41 47 70                	b.bnei     r7,0x2,83743 <iIPv6_CompressIPv6packet+0xfc>
   83738:	00 e8                   	b.movi     r7,0x1
   8373a:	2c 0a 0a                	b.sw       0x50(r10),r0
   8373d:	20 ea 1a                	b.sb       0x58(r10),r7
   83740:	2c 0a 2a                	b.sw       0x54(r10),r0
   83743:	00 e8                   	b.movi     r7,0x1
   83745:	20 ea 9a                	b.sb       0x59(r10),r7
   83748:	0e ce                   	b.j        83915 <iIPv6_CompressIPv6packet+0x2ce>
   8374a:	6c 86 19                	b.srli     r4,r6,0x18
   8374d:	9d 84 ff 00 00 00       	b.sfeqi    r4,0xff
   83753:	20 0a 9a                	b.sb       0x59(r10),r0
   83756:	47 23 00                	b.bf       83762 <iIPv6_CompressIPv6packet+0x11b>
   83759:	84 80 5e a0 00 20       	b.lbz      r4,0x400057a(r0)
   8375f:	40 04 28                	b.beqi     r4,0x0,83773 <iIPv6_CompressIPv6packet+0x12c>
   83762:	20 0a 1a                	b.sb       0x58(r10),r0
   83765:	28 e7 99                	b.lhz      r7,0x98(r7)
   83768:	28 ea 0a                	b.sh       0x50(r10),r7
   8376b:	00 ef                   	b.movi     r7,-0x1
   8376d:	28 ea 4a                	b.sh       0x52(r10),r7
   83770:	46 6a 40                	b.j        839c6 <iIPv6_CompressIPv6packet+0x37f>
   83773:	01 c0                   	b.movi     r14,0x0
   83775:	9d c6 00 00 01 7f       	b.sfnei    r6,-0x1800000
   8377b:	47 27 00                	b.bf       83789 <iIPv6_CompressIPv6packet+0x142>
   8377e:	2d ca 78                	b.lwz      r14,0x1c(r10)
   83781:	3e 0e 74                	b.ff1      r14,r14
   83784:	01 df                   	b.addi     r14,r14,-0x1
