
c:/NXP/bstudio_nxp/workspace2/JN-AN-1190-JenNet-IP-Application-Template/Binary/0x11121112s_DeviceTemplate_DR1174_EndDevice_JN5168_DEBUG.elf:     file format elf32-ba


Disassembly of section .vsr_handlers:

00080050 <_exception_external_interrupt>:
   80050:	30 21 0d                	b.addi     r1,r1,-0x50
   80053:	2c 61 30                	b.sw       0xc(r1),r3
   80056:	2d 41 14                	b.sw       0x28(r1),r10
   80059:	a8 60 04 00 00 00       	b.mfspr    r3,r0,0x20
   8005f:	2c 61 12                	b.sw       0x48(r1),r3
   80062:	a8 60 02 00 00 00       	b.mfspr    r3,r0,0x40
   80068:	2c 61 22                	b.sw       0x44(r1),r3
   8006b:	a8 60 08 12 00 00       	b.mfspr    r3,r0,0x4810
   80071:	2c 61 32                	b.sw       0x4c(r1),r3
   80074:	a8 60 88 12 00 00       	b.mfspr    r3,r0,0x4811
   8007a:	a8 60 08 12 00 01       	b.mtspr    r0,r3,0x4810
   80080:	a9 40 c8 12 00 00       	b.mfspr    r10,r0,0x4813
   80086:	04 01                   	b.ei       
   80088:	2c 41 10                	b.sw       0x8(r1),r2
   8008b:	2c 81 08                	b.sw       0x10(r1),r4
   8008e:	2c a1 28                	b.sw       0x14(r1),r5
   80091:	2c c1 18                	b.sw       0x18(r1),r6
   80094:	2c e1 38                	b.sw       0x1c(r1),r7
   80097:	2d 01 04                	b.sw       0x20(r1),r8
   8009a:	2d 21 24                	b.sw       0x24(r1),r9
   8009d:	d2 94 00 40             	b.beq      r10,r0,800bd <_exception_external_interrupt+0x6d>
   800a1:	3e 0a 24                	b.ff1      r4,r10
   800a4:	61 4a 27                	b.srl      r10,r10,r4
   800a7:	61 4a 26                	b.sll      r10,r10,r4
   800aa:	00 9f                   	b.addi     r4,r4,-0x1
   800ac:	6c e4 40                	b.slli     r7,r4,0x2
   800af:	8c e7 75 08 00 20       	b.lwz      r7,0x40010ac(r7)
   800b5:	60 60 09                	b.or       r3,r0,r1
   800b8:	47 d1 38                	b.jalr     r7
   800bb:	0d 1f                   	b.j        8009d <_exception_external_interrupt+0x4d>
   800bd:	2c 41 50                	b.lwz      r2,0x8(r1)
   800c0:	2c 61 70                	b.lwz      r3,0xc(r1)
   800c3:	2c a1 68                	b.lwz      r5,0x14(r1)
   800c6:	2c c1 58                	b.lwz      r6,0x18(r1)
   800c9:	2c e1 78                	b.lwz      r7,0x1c(r1)
   800cc:	2d 01 44                	b.lwz      r8,0x20(r1)
   800cf:	2d 21 64                	b.lwz      r9,0x24(r1)
   800d2:	2d 41 54                	b.lwz      r10,0x28(r1)
   800d5:	04 02                   	b.di       
   800d7:	2c 81 62                	b.lwz      r4,0x44(r1)
   800da:	a8 80 02 00 00 01       	b.mtspr    r0,r4,0x40
   800e0:	2c 81 52                	b.lwz      r4,0x48(r1)
   800e3:	a8 80 04 00 00 01       	b.mtspr    r0,r4,0x20
   800e9:	2c 81 72                	b.lwz      r4,0x4c(r1)
   800ec:	a8 80 08 12 00 01       	b.mtspr    r0,r4,0x4810
   800f2:	2c 81 48                	b.lwz      r4,0x10(r1)
   800f5:	30 21 0a                	b.addi     r1,r1,0x50

000800f8 <_default_vsr_dummy>:
   800f8:	04 00                   	b.rfe      

Disassembly of section .text:

00080bb4 <Device_vInit>:
   80bb4:	8c 00 0f 10 00 20       	b.sw       0x40008f0(r0),r0
   80bba:	47 ae f4                	b.entri    0x7,0x2f
   80bbd:	80 00 a7 10 00 20       	b.sb       0x40008e5(r0),r0
   80bc3:	05 43                   	b.mov      r10,r3
   80bc5:	8c 00 1c 90 00 20       	b.sw       0x4000938(r0),r0
   80bcb:	cc f0 79 01             	b.lwz      r7,-0x7f64(r16)
   80bcf:	94 e7 00 40 00 00       	b.andi     r7,r7,0x200
   80bd5:	40 07 6f                	b.beqi     r7,0x0,80bcb <Device_vInit+0x17>
   80bd8:	46 c0 04                	b.j        82bdb <Device_vInit+0x2027>
   80bdb:	38 80 0b                	b.ori      r4,r0,0xd0
   80bde:	00 60                   	b.movi     r3,0x0
   80be0:	00 a8                   	b.movi     r5,0x1
   80be2:	48 4f 28                	b.jal      85faa <pvHeap_Alloc>
   80be5:	8c 60 25 08 00 20       	b.sw       0x40010a4(r0),r3
   80beb:	40 03 90                	b.beqi     r3,0x0,80bf4 <Device_vInit+0x40>
   80bee:	20 03 92                	b.sb       0x49(r3),r0
   80bf1:	20 03 12                	b.sb       0x48(r3),r0
   80bf4:	98 c0 d8 d8 90 00       	b.ori      r6,r0,0x91b1b
   80bfa:	98 e0 8d 28 90 00       	b.ori      r7,r0,0x914b1
   80c00:	8c c0 18 60 00 20       	b.sw       0x4000618(r0),r6
   80c06:	8c c0 38 60 00 20       	b.sw       0x400061c(r0),r6
   80c0c:	98 c0 4b 28 90 00       	b.ori      r6,r0,0x914d2
   80c12:	8c e0 08 50 00 20       	b.sw       0x4000a10(r0),r7
   80c18:	8c e0 28 60 00 20       	b.sw       0x4000614(r0),r7
   80c1e:	8c e0 04 60 00 20       	b.sw       0x4000620(r0),r7
   80c24:	8c e0 24 60 00 20       	b.sw       0x4000624(r0),r7
   80c2a:	8c c0 14 60 00 20       	b.sw       0x4000628(r0),r6
   80c30:	8c c0 34 60 00 20       	b.sw       0x400062c(r0),r6
   80c36:	8c c0 0c 60 00 20       	b.sw       0x4000630(r0),r6
   80c3c:	8c e0 2c 60 00 20       	b.sw       0x4000634(r0),r7
   80c42:	49 bf 28                	b.jal      86038 <u32AHI_Init>
   80c45:	41 0a 46                	b.bnei     r10,0x0,80ca7 <Device_vInit+0xf3>
   80c48:	8c e0 53 20 00 20       	b.lwz      r7,0x40004c8(r0)
   80c4e:	80 00 3c 90 00 20       	b.sb       0x400093c(r0),r0
   80c54:	8c e0 32 e0 00 20       	b.sw       0x400074c(r0),r7
   80c5a:	8c e0 32 90 00 20       	b.sw       0x400094c(r0),r7
   80c60:	38 c1 00                	b.ori      r6,r1,0x0
   80c63:	98 a0 86 e9 40 00       	b.ori      r5,r0,0x29761
   80c69:	0f 80                   	b.j        80c70 <Device_vInit+0xbc>
   80c6b:	2c a7 00                	b.sw       0x0(r7),r5
   80c6e:	00 f2                   	b.addi     r7,r7,0x4
   80c70:	d3 cc 7d ff             	b.bgtu     r6,r7,80c6b <Device_vInit+0xb7>
   80c74:	8c e0 0a 90 00 20       	b.sw       0x4000950(r0),r7
   80c7a:	00 6f                   	b.movi     r3,-0x1
   80c7c:	8c e0 6a 00 00 20       	b.lwz      r7,0x4000054(r0)
   80c82:	00 80                   	b.movi     r4,0x0
   80c84:	8c e0 1c 60 00 20       	b.sw       0x4000638(r0),r7
   80c8a:	98 e0 2a 5a 10 00       	b.ori      r7,r0,0x85a54
   80c90:	8c e0 2a 00 00 20       	b.sw       0x4000054(r0),r7
   80c96:	48 b0 38                	b.jal      87cca <vAHI_DioSetDirection>
   80c99:	cc f0 7c 09             	b.lwz      r7,-0x6fc4(r16)
   80c9d:	94 e7 00 00 0f ff       	b.andi     r7,r7,0xfff00000
   80ca3:	cc f0 3c 09             	b.sw       -0x6fc4(r16),r7
   80ca7:	00 e8                   	b.movi     r7,0x1
   80ca9:	80 e0 3c 60 00 20       	b.sb       0x400063c(r0),r7
   80caf:	41 0a 06                	b.bnei     r10,0x0,80d0f <Device_vInit+0x15b>
   80cb2:	00 60                   	b.movi     r3,0x0
   80cb4:	4b d3 68                	b.jal      867e3 <vAHI_WakeTimerStop.part.3.25350>
   80cb7:	4b 1d 68                	b.jal      8679a <u8AHI_WakeTimerFiredStatus>
   80cba:	00 60                   	b.movi     r3,0x0
   80cbc:	4b 93 68                	b.jal      867e3 <vAHI_WakeTimerStop.part.3.25350>
   80cbf:	4b 6d 68                	b.jal      8679a <u8AHI_WakeTimerFiredStatus>
   80cc2:	cd 50 0c 09             	b.sw       -0x6fd0(r16),r10
   80cc6:	38 e0 28                	b.ori      r7,r0,0x14
   80cc9:	cc f0 28 09             	b.sw       -0x6fec(r16),r7
   80ccd:	00 e8                   	b.movi     r7,0x1
   80ccf:	cc f0 24 09             	b.sw       -0x6fdc(r16),r7
   80cd3:	cc f0 64 09             	b.lwz      r7,-0x6fdc(r16)
   80cd7:	3e 07 38                	b.extbz    r7,r7
   80cda:	41 07 9f                	b.bnei     r7,0x0,80cd3 <Device_vInit+0x11f>
   80cdd:	cc 90 54 09             	b.lwz      r4,-0x6fd8(r16)
   80ce1:	98 60 00 2b 0c 00       	b.ori      r3,r0,0x30d400
   80ce7:	4a 1a 1a                	b.jal      96e48 <__udivsi3>
   80cea:	d8 a0 1d d0             	b.addi     r5,r0,0xbb8
   80cee:	64 a3 2b                	b.mul      r5,r3,r5
   80cf1:	8c 00 06 00 00 20       	b.sw       0x4000060(r0),r0
   80cf7:	00 68                   	b.movi     r3,0x1
   80cf9:	8c a0 26 00 00 20       	b.sw       0x4000064(r0),r5
   80cff:	2c a1 20                	b.sw       0x4(r1),r5
   80d02:	4b 9d c8                	b.jal      85be9 <vAHI_WakeTimerEnable.part.0.25336.constprop.97>
   80d05:	2c a1 60                	b.lwz      r5,0x4(r1)
   80d08:	00 68                   	b.movi     r3,0x1
   80d0a:	00 80                   	b.movi     r4,0x0
   80d0c:	4a fd 68                	b.jal      86809 <vAHI_WakeTimerStartLarge.part.2.25345>
   80d0f:	38 e0 02                	b.ori      r7,r0,0x40
   80d12:	98 60 16 d0 10 00       	b.ori      r3,r0,0x80b68
   80d18:	8c e0 12 60 00 20       	b.sw       0x4000648(r0),r7
   80d1e:	38 e0 7c                	b.ori      r7,r0,0x3e
   80d21:	80 e0 22 60 00 20       	b.sb       0x4000644(r0),r7
   80d27:	80 e0 0c 80 00 20       	b.sb       0x4000130(r0),r7
   80d2d:	80 00 1a 00 00 20       	b.sb       0x4000058(r0),r0
   80d33:	8c 00 02 60 00 20       	b.sw       0x4000640(r0),r0
   80d39:	80 00 2f 10 00 20       	b.sb       0x40008f4(r0),r0
   80d3f:	4a 70 62                	b.jal      92578 <dbg_vPrintfImplNoneVerbose>
   80d42:	98 60 3f 00 10 00       	b.ori      r3,r0,0x800fc
   80d48:	48 30 62                	b.jal      92578 <dbg_vPrintfImplNoneVerbose>
   80d4b:	98 80 2f 10 00 20       	b.ori      r4,r0,0x40008f4
   80d51:	98 60 70 80 10 00       	b.ori      r3,r0,0x8010e
   80d57:	04 aa                   	b.mov      r5,r10
   80d59:	4b e0 62                	b.jal      92578 <dbg_vPrintfImplNoneVerbose>
   80d5c:	00 68                   	b.movi     r3,0x1
   80d5e:	4b bc bc                	b.jal      90255 <Node_vDebugIndent.part.3.1912>
   80d61:	98 60 44 80 10 00       	b.ori      r3,r0,0x80122
   80d67:	98 80 2f 10 00 20       	b.ori      r4,r0,0x40008f4
   80d6d:	04 aa                   	b.mov      r5,r10
   80d6f:	4a 40 62                	b.jal      92578 <dbg_vPrintfImplNoneVerbose>
   80d72:	a0 40 af 6d 00 00       	b.bnei     r10,0x0,818e1 <Device_vInit+0xd2d>
   80d78:	98 60 2c 80 10 00       	b.ori      r3,r0,0x80134
   80d7e:	98 80 2f 10 00 20       	b.ori      r4,r0,0x40008f4
   80d84:	48 bf a2                	b.jal      92578 <dbg_vPrintfImplNoneVerbose>
   80d87:	00 68                   	b.movi     r3,0x1
   80d89:	48 cc bc                	b.jal      90255 <Node_vDebugIndent.part.3.1912>
   80d8c:	85 40 0c 80 00 20       	b.lbz      r10,0x4000130(r0)
   80d92:	6d 6a 60                	b.slli     r11,r10,0x6
   80d95:	30 eb 30                	b.addi     r7,r11,0xc
   80d98:	9f 47 03 f0 00 00       	b.sfleui   r7,0xfc0
   80d9e:	47 22 80                	b.bf       80db2 <Device_vInit+0x1fe>
   80da1:	31 8b 30                	b.addi     r12,r11,0xc
   80da4:	31 6b 18                	b.addi     r11,r11,0x18
   80da7:	9e cb 03 f0 00 00       	b.sfgtui   r11,0xfc0
   80dad:	47 2c c0                	b.bf       80de0 <Device_vInit+0x22c>
   80db0:	0d f0                   	b.j        80dee <Device_vInit+0x23a>
   80db2:	00 68                   	b.movi     r3,0x1
   80db4:	48 ca 02                	b.jal      90f00 <bPDM_InitialiseEEPROM>
   80db7:	38 e0 10                	b.ori      r7,r0,0x8
   80dba:	8d 60 21 00 00 80       	b.sw       0x1000084(r0),r11
   80dc0:	8c e0 01 00 00 80       	b.sw       0x1000080(r0),r7
   80dc6:	00 e0                   	b.movi     r7,0x0
   80dc8:	8c a0 71 00 00 80       	b.lwz      r5,0x100008c(r0)
   80dce:	30 c1 1c                	b.addi     r6,r1,0x38
   80dd1:	08 c7                   	b.add      r6,r6,r7
   80dd3:	00 f8                   	b.addi     r7,r7,0x1
   80dd5:	3c 27 30                	b.sfnei    r7,0xc
   80dd8:	20 a6 00                	b.sb       0x0(r6),r5
   80ddb:	47 2b 7f                	b.bf       80dc8 <Device_vInit+0x214>
   80dde:	0f 0f                   	b.j        80da1 <Device_vInit+0x1ed>
   80de0:	2c c1 7c                	b.lwz      r6,0x3c(r1)
   80de3:	9d 86 d3 c8 7a 5f       	b.sfeqi    r6,-0x5a1ec35
   80de9:	47 30 e0                	b.bnf      80e59 <Device_vInit+0x2a5>
   80dec:	0c 30                   	b.j        80e1c <Device_vInit+0x268>
   80dee:	00 68                   	b.movi     r3,0x1
   80df0:	48 22 02                	b.jal      90f00 <bPDM_InitialiseEEPROM>
   80df3:	38 e0 10                	b.ori      r7,r0,0x8
   80df6:	8d 80 21 00 00 80       	b.sw       0x1000084(r0),r12
   80dfc:	8c e0 01 00 00 80       	b.sw       0x1000080(r0),r7
   80e02:	00 e0                   	b.movi     r7,0x0
   80e04:	8c a0 71 00 00 80       	b.lwz      r5,0x100008c(r0)
   80e0a:	30 c1 22                	b.addi     r6,r1,0x44
   80e0d:	08 c7                   	b.add      r6,r6,r7
   80e0f:	00 f8                   	b.addi     r7,r7,0x1
   80e11:	3c 27 30                	b.sfnei    r7,0xc
   80e14:	20 a6 00                	b.sb       0x0(r6),r5
   80e17:	47 2b 7f                	b.bf       80e04 <Device_vInit+0x250>
   80e1a:	0d 8f                   	b.j        80de0 <Device_vInit+0x22c>
   80e1c:	2c e1 42                	b.lwz      r7,0x40(r1)
   80e1f:	9d c7 2e 88 80 11       	b.sfnei    r7,-0x77feee8c
   80e25:	47 22 c0                	b.bf       80e59 <Device_vInit+0x2a5>
   80e28:	2c a1 5c                	b.lwz      r5,0x38(r1)
   80e2b:	2c c1 12                	b.sw       0x48(r1),r6
   80e2e:	6c a5 80                	b.slli     r5,r5,0x1
   80e31:	38 80 30                	b.ori      r4,r0,0xc
   80e34:	30 c1 22                	b.addi     r6,r1,0x44
   80e37:	04 6a                   	b.mov      r3,r10
   80e39:	2c a1 22                	b.sw       0x44(r1),r5
   80e3c:	38 a0 30                	b.ori      r5,r0,0xc
   80e3f:	01 68                   	b.movi     r11,0x1
   80e41:	2c e1 32                	b.sw       0x4c(r1),r7
   80e44:	2c 01 3c                	b.sw       0x3c(r1),r0
   80e47:	49 59 02                	b.jal      910b1 <bAHI_WriteEEPROM>
   80e4a:	38 a0 30                	b.ori      r5,r0,0xc
   80e4d:	30 c1 1c                	b.addi     r6,r1,0x38
   80e50:	04 6a                   	b.mov      r3,r10
   80e52:	00 80                   	b.movi     r4,0x0
   80e54:	4a e9 02                	b.jal      910b1 <bAHI_WriteEEPROM>
   80e57:	0d 24                   	b.j        80ee9 <Device_vInit+0x335>
   80e59:	2c c1 52                	b.lwz      r6,0x48(r1)
   80e5c:	9d c6 d3 c8 7a 5f       	b.sfnei    r6,-0x5a1ec35
   80e62:	47 2d c0                	b.bf       80e9d <Device_vInit+0x2e9>
   80e65:	2c e1 72                	b.lwz      r7,0x4c(r1)
   80e68:	9d c7 2e 88 80 11       	b.sfnei    r7,-0x77feee8c
   80e6e:	47 2f 40                	b.bf       80e9d <Device_vInit+0x2e9>
   80e71:	2c a1 62                	b.lwz      r5,0x44(r1)
   80e74:	2c c1 3c                	b.sw       0x3c(r1),r6
   80e77:	6c a5 80                	b.slli     r5,r5,0x1
   80e7a:	30 c1 1c                	b.addi     r6,r1,0x38
   80e7d:	00 80                   	b.movi     r4,0x0
   80e7f:	2c a1 1c                	b.sw       0x38(r1),r5
   80e82:	38 a0 30                	b.ori      r5,r0,0xc
   80e85:	04 6a                   	b.mov      r3,r10
   80e87:	2c e1 02                	b.sw       0x40(r1),r7
   80e8a:	2c 01 12                	b.sw       0x48(r1),r0
   80e8d:	48 91 02                	b.jal      910b1 <bAHI_WriteEEPROM>
   80e90:	04 6a                   	b.mov      r3,r10
   80e92:	38 80 30                	b.ori      r4,r0,0xc
   80e95:	38 a0 30                	b.ori      r5,r0,0xc
   80e98:	30 c1 22                	b.addi     r6,r1,0x44
   80e9b:	0e 48                   	b.j        80ee4 <Device_vInit+0x330>
   80e9d:	31 81 1e                	b.addi     r12,r1,0x78
   80ea0:	38 a0 02                	b.ori      r5,r0,0x40
   80ea3:	04 6c                   	b.mov      r3,r12
   80ea5:	00 80                   	b.movi     r4,0x0
   80ea7:	01 60                   	b.movi     r11,0x0
   80ea9:	4b 73 ea                	b.jal      96de4 <memset>
   80eac:	38 a0 02                	b.ori      r5,r0,0x40
   80eaf:	04 6b                   	b.mov      r3,r11
   80eb1:	00 80                   	b.movi     r4,0x0
   80eb3:	04 cc                   	b.mov      r6,r12
   80eb5:	01 78                   	b.addi     r11,r11,0x1
   80eb7:	49 7e 02                	b.jal      910b1 <bAHI_WriteEEPROM>
   80eba:	3e 0b 58                	b.extbz    r11,r11
   80ebd:	3c 2b fc                	b.sfnei    r11,0x3f
   80ec0:	47 23 7f                	b.bf       80eac <Device_vInit+0x2f8>
   80ec3:	00 e7                   	b.movi     r7,-0x2
   80ec5:	2c e1 1c                	b.sw       0x38(r1),r7
   80ec8:	98 e0 d3 c8 7a 5f       	b.ori      r7,r0,0xfa5e13cb
   80ece:	38 a0 30                	b.ori      r5,r0,0xc
   80ed1:	30 c1 1c                	b.addi     r6,r1,0x38
   80ed4:	04 6a                   	b.mov      r3,r10
   80ed6:	2c e1 3c                	b.sw       0x3c(r1),r7
   80ed9:	98 e0 2e 88 80 11       	b.ori      r7,r0,0x88011174
   80edf:	00 80                   	b.movi     r4,0x0
   80ee1:	2c e1 02                	b.sw       0x40(r1),r7
   80ee4:	4a ce 02                	b.jal      910b1 <bAHI_WriteEEPROM>
   80ee7:	01 60                   	b.movi     r11,0x0
   80ee9:	00 60                   	b.movi     r3,0x0
   80eeb:	49 5a d8                	b.jal      87c55 <vAHI_TickTimerConfigure>
   80eee:	00 e0                   	b.movi     r7,0x0
   80ef0:	a8 e0 80 0a 00 01       	b.mtspr    r0,r7,0x5001
   80ef6:	98 60 00 12 17 80       	b.ori      r3,r0,0x1e84800
   80efc:	48 1c d8                	b.jal      87bdc <vAHI_TickTimerInterval>
   80eff:	00 64                   	b.movi     r3,0x2
   80f01:	48 aa d8                	b.jal      87c55 <vAHI_TickTimerConfigure>
   80f04:	00 68                   	b.movi     r3,0x1
   80f06:	48 bc d8                	b.jal      87bfa <vAHI_TickTimerIntEnable>
   80f09:	0e 80                   	b.j        80f0e <Device_vInit+0x35a>
   80f0b:	4b 86 d8                	b.jal      87c92 <vAHI_CpuDoze>
   80f0e:	a8 e0 80 0a 00 00       	b.mfspr    r7,r0,0x5001
   80f14:	9f 47 ff e2 17 80       	b.sfleui   r7,0x1e847ff
   80f1a:	47 28 ff                	b.bf       80f0b <Device_vInit+0x357>
   80f1d:	00 60                   	b.movi     r3,0x0
   80f1f:	49 b2 d8                	b.jal      87c55 <vAHI_TickTimerConfigure>
   80f22:	41 0b dc                	b.bnei     r11,0x0,80f5d <Device_vInit+0x3a9>
   80f25:	2c e1 5c                	b.lwz      r7,0x38(r1)
   80f28:	38 80 30                	b.ori      r4,r0,0xc
   80f2b:	38 e7 80                	b.ori      r7,r7,0x1
   80f2e:	38 a0 30                	b.ori      r5,r0,0xc
   80f31:	30 c1 22                	b.addi     r6,r1,0x44
   80f34:	04 6a                   	b.mov      r3,r10
   80f36:	2c e1 22                	b.sw       0x44(r1),r7
   80f39:	2c e1 7c                	b.lwz      r7,0x3c(r1)
   80f3c:	2c 01 3c                	b.sw       0x3c(r1),r0
   80f3f:	2c e1 12                	b.sw       0x48(r1),r7
   80f42:	2c e1 42                	b.lwz      r7,0x40(r1)
   80f45:	2c e1 32                	b.sw       0x4c(r1),r7
   80f48:	4a 5a 02                	b.jal      910b1 <bAHI_WriteEEPROM>
   80f4b:	38 a0 30                	b.ori      r5,r0,0xc
   80f4e:	30 c1 1c                	b.addi     r6,r1,0x38
   80f51:	04 6a                   	b.mov      r3,r10
   80f53:	00 80                   	b.movi     r4,0x0
   80f55:	48 ea 02                	b.jal      910b1 <bAHI_WriteEEPROM>
   80f58:	2d 41 62                	b.lwz      r10,0x44(r1)
   80f5b:	0c 70                   	b.j        80f93 <Device_vInit+0x3df>
   80f5d:	2c e1 62                	b.lwz      r7,0x44(r1)
   80f60:	38 a0 30                	b.ori      r5,r0,0xc
   80f63:	38 e7 80                	b.ori      r7,r7,0x1
   80f66:	30 c1 1c                	b.addi     r6,r1,0x38
   80f69:	04 6a                   	b.mov      r3,r10
   80f6b:	2c e1 1c                	b.sw       0x38(r1),r7
   80f6e:	00 80                   	b.movi     r4,0x0
   80f70:	2c e1 52                	b.lwz      r7,0x48(r1)
   80f73:	2c 01 12                	b.sw       0x48(r1),r0
   80f76:	2c e1 3c                	b.sw       0x3c(r1),r7
   80f79:	2c e1 72                	b.lwz      r7,0x4c(r1)
   80f7c:	2c e1 02                	b.sw       0x40(r1),r7
   80f7f:	49 32 02                	b.jal      910b1 <bAHI_WriteEEPROM>
   80f82:	38 80 30                	b.ori      r4,r0,0xc
   80f85:	38 a0 30                	b.ori      r5,r0,0xc
   80f88:	30 c1 22                	b.addi     r6,r1,0x44
   80f8b:	04 6a                   	b.mov      r3,r10
   80f8d:	48 92 02                	b.jal      910b1 <bAHI_WriteEEPROM>
   80f90:	2d 41 5c                	b.lwz      r10,0x38(r1)
   80f93:	38 e0 88                	b.ori      r7,r0,0x11
   80f96:	35 4a f8                	b.andi     r10,r10,0x1f
   80f99:	61 4a 3a                	b.xor      r10,r10,r7
   80f9c:	3e 0a 54                	b.ff1      r10,r10
   80f9f:	01 5f                   	b.addi     r10,r10,-0x1
   80fa1:	6d 4a f9                	b.srli     r10,r10,0x1f
   80fa4:	00 68                   	b.movi     r3,0x1
   80fa6:	49 fd 3c                	b.jal      902a4 <Node_vDebugOutdent.part.4.1915>
   80fa9:	04 8a                   	b.mov      r4,r10
   80fab:	98 60 c2 50 10 00       	b.ori      r3,r0,0x80a43
   80fb1:	4b 8e a2                	b.jal      92578 <dbg_vPrintfImplNoneVerbose>
   80fb4:	48 5a e0                	b.jal      82d1c <Device_vPdmInit>
   80fb7:	98 60 6a 80 10 00       	b.ori      r3,r0,0x80156
   80fbd:	4b 76 a2                	b.jal      92578 <dbg_vPrintfImplNoneVerbose>
   80fc0:	00 60                   	b.movi     r3,0x0
   80fc2:	00 82                   	b.movi     r4,0x4
   80fc4:	49 82 d8                	b.jal      87cca <vAHI_DioSetDirection>
   80fc7:	00 62                   	b.movi     r3,0x4
   80fc9:	00 80                   	b.movi     r4,0x0
   80fcb:	4b 5c d8                	b.jal      87cb6 <vAHI_DioSetOutput>
   80fce:	cc f0 50 05             	b.lwz      r7,-0x5ff8(r16)
   80fd2:	94 e7 00 10 00 00       	b.andi     r7,r7,0x800
   80fd8:	41 07 28                	b.bnei     r7,0x0,80fec <Device_vInit+0x438>
   80fdb:	98 60 46 80 10 00       	b.ori      r3,r0,0x80162
   80fe1:	4b a6 a2                	b.jal      92578 <dbg_vPrintfImplNoneVerbose>
   80fe4:	00 e8                   	b.movi     r7,0x1
   80fe6:	80 e0 2a 90 00 20       	b.sb       0x4000954(r0),r7
   80fec:	40 0a 10                	b.beqi     r10,0x0,80ff4 <Device_vInit+0x440>
   80fef:	00 68                   	b.movi     r3,0x1
   80ff1:	48 90 0a                	b.jal      95015 <Device_vReset>
   80ff4:	98 80 2f 10 00 20       	b.ori      r4,r0,0x40008f4
   80ffa:	98 60 0e 80 10 00       	b.ori      r3,r0,0x80170
   81000:	48 7a a2                	b.jal      92578 <dbg_vPrintfImplNoneVerbose>
   81003:	00 68                   	b.movi     r3,0x1
   81005:	48 29 3c                	b.jal      90255 <Node_vDebugIndent.part.3.1912>
   81008:	98 60 a1 80 10 00       	b.ori      r3,r0,0x80185
   8100e:	98 80 2f 10 00 20       	b.ori      r4,r0,0x40008f4
   81014:	48 9a a2                	b.jal      92578 <dbg_vPrintfImplNoneVerbose>
   81017:	00 68                   	b.movi     r3,0x1
   81019:	48 f1 3c                	b.jal      90255 <Node_vDebugIndent.part.3.1912>
   8101c:	98 e0 40 00 17 01       	b.ori      r7,r0,0x80e80002
   81022:	98 c0 cb d0 20 bf       	b.ori      r6,r0,0xfd040bd3
   81028:	8c e0 39 10 00 20       	b.sw       0x400089c(r0),r7
   8102e:	98 e0 00 1f ff e0       	b.ori      r7,r0,0x7fff800
   81034:	8c e0 05 10 00 20       	b.sw       0x40008a0(r0),r7
   8103a:	00 ef                   	b.movi     r7,-0x1
   8103c:	88 e0 25 10 00 20       	b.sh       0x40008a4(r0),r7
   81042:	00 e2                   	b.movi     r7,0x4
   81044:	88 e0 15 10 00 20       	b.sh       0x40008a8(r0),r7
   8104a:	00 ec                   	b.movi     r7,0x3
   8104c:	80 e0 d5 10 00 20       	b.sb       0x40008ab(r0),r7
   81052:	38 e0 08                	b.ori      r7,r0,0x10
   81055:	80 e0 2d 10 00 20       	b.sb       0x40008b4(r0),r7
   8105b:	80 e0 ad 10 00 20       	b.sb       0x40008b5(r0),r7
   81061:	80 e0 6d 10 00 20       	b.sb       0x40008b6(r0),r7
   81067:	80 e0 ed 10 00 20       	b.sb       0x40008b7(r0),r7
   8106d:	d8 e0 8a e0             	b.addi     r7,r0,0x751
   81071:	8c c0 19 10 00 20       	b.sw       0x4000898(r0),r6
   81077:	98 c0 2e 88 80 11       	b.ori      r6,r0,0x88011174
   8107d:	88 e0 1d 10 00 20       	b.sh       0x40008b8(r0),r7
   81083:	98 e0 19 80 10 00       	b.ori      r7,r0,0x80198
   81089:	8c c0 0d 10 00 20       	b.sw       0x40008b0(r0),r6
   8108f:	8c e0 3d 10 00 20       	b.sw       0x40008bc(r0),r7
   81095:	d8 e0 ca e0             	b.addi     r7,r0,0x753
   81099:	84 c0 18 10 00 20       	b.lbz      r6,0x4000818(r0)
   8109f:	88 e0 03 10 00 20       	b.sh       0x40008c0(r0),r7
   810a5:	00 e4                   	b.movi     r7,0x2
   810a7:	88 00 65 10 00 20       	b.sh       0x40008a6(r0),r0
   810ad:	80 e0 55 10 00 20       	b.sb       0x40008aa(r0),r7
   810b3:	30 e6 af                	b.addi     r7,r6,-0xb
   810b6:	3c a7 f0                	b.sfgtui   r7,0xf
   810b9:	47 29 40                	b.bf       810e2 <Device_vInit+0x52e>
   810bc:	88 e0 d8 10 00 20       	b.lhz      r7,0x400081a(r0)
   810c2:	30 a7 ff                	b.addi     r5,r7,-0x1
   810c5:	3e 05 2a                	b.exthz    r5,r5
   810c8:	9e c5 bf ff 00 00       	b.sfgtui   r5,0xfffd
   810ce:	47 22 80                	b.bf       810e2 <Device_vInit+0x52e>
   810d1:	00 a8                   	b.movi     r5,0x1
   810d3:	60 c5 36                	b.sll      r6,r5,r6
   810d6:	8c c0 05 10 00 20       	b.sw       0x40008a0(r0),r6
   810dc:	88 e0 25 10 00 20       	b.sh       0x40008a4(r0),r7
   810e2:	8c 00 35 10 00 20       	b.sw       0x40008ac(r0),r0
   810e8:	cc f0 79 01             	b.lwz      r7,-0x7f64(r16)
   810ec:	94 e7 00 40 00 00       	b.andi     r7,r7,0x200
   810f2:	40 07 6f                	b.beqi     r7,0x0,810e8 <Device_vInit+0x534>
   810f5:	46 0e d8                	b.j        82c65 <Device_vInit+0x20b1>
   810f8:	2c e1 41                	b.lwz      r7,0x80(r1)
   810fb:	3c a7 f8                	b.sfgtui   r7,0x1f
   810fe:	47 2d 00                	b.bf       81109 <Device_vInit+0x555>
   81101:	00 c8                   	b.movi     r6,0x1
   81103:	60 e6 3e                	b.sll      r7,r6,r7
   81106:	2c e1 01                	b.sw       0x80(r1),r7
   81109:	2c e1 41                	b.lwz      r7,0x80(r1)
   8110c:	94 e7 00 1f ff e0       	b.andi     r7,r7,0x7fff800
   81112:	2c e1 01                	b.sw       0x80(r1),r7
   81115:	41 07 b0                	b.bnei     r7,0x0,81122 <Device_vInit+0x56e>
   81118:	d8 e0 80 04             	b.addi     r7,r0,0x2001
   8111c:	2c e3 32                	b.sw       0x4c(r3),r7
   8111f:	46 27 d8                	b.j        82d03 <Device_vInit+0x214f>
   81122:	98 e0 00 1a 90 00       	b.ori      r7,r0,0x95800
   81128:	00 a0                   	b.movi     r5,0x0
   8112a:	2c e3 00                	b.sw       0x0(r3),r7
   8112d:	98 e0 ea 9a 90 00       	b.ori      r7,r0,0x95957
   81133:	2c e3 20                	b.sw       0x4(r3),r7
   81136:	98 e0 da 3d 10 00       	b.ori      r7,r0,0x8bc5b
   8113c:	2c e3 10                	b.sw       0x8(r3),r7
   8113f:	98 e0 a2 dc 10 00       	b.ori      r7,r0,0x83b45
   81145:	2c e3 30                	b.sw       0xc(r3),r7
   81148:	98 e0 4f aa 90 00       	b.ori      r7,r0,0x955f2
   8114e:	2c e3 08                	b.sw       0x10(r3),r7
   81151:	98 e0 71 aa 90 00       	b.ori      r7,r0,0x9558e
   81157:	2c e3 28                	b.sw       0x14(r3),r7
   8115a:	98 e0 4f 1e 10 00       	b.ori      r7,r0,0x878f2
   81160:	2c e3 18                	b.sw       0x18(r3),r7
   81163:	98 e0 c0 5e 10 00       	b.ori      r7,r0,0x87a03
   81169:	2c e3 38                	b.sw       0x1c(r3),r7
   8116c:	98 e0 99 86 10 00       	b.ori      r7,r0,0x86199
   81172:	2c e3 14                	b.sw       0x28(r3),r7
   81175:	98 e0 bf 84 90 00       	b.ori      r7,r0,0x921fd
   8117b:	2c e3 34                	b.sw       0x2c(r3),r7
   8117e:	98 e0 a1 ee 10 00       	b.ori      r7,r0,0x87785
   81184:	2c e3 0c                	b.sw       0x30(r3),r7
   81187:	98 e0 1a 36 90 00       	b.ori      r7,r0,0x96c58
   8118d:	2c e3 24                	b.sw       0x24(r3),r7
   81190:	98 e0 7d 47 10 00       	b.ori      r7,r0,0x8e2be
   81196:	2c e3 2c                	b.sw       0x34(r3),r7
   81199:	98 e0 92 5c 10 00       	b.ori      r7,r0,0x83a49
   8119f:	2c e3 1c                	b.sw       0x38(r3),r7
   811a2:	98 e0 1f fc 90 00       	b.ori      r7,r0,0x93ff8
   811a8:	2c e3 3c                	b.sw       0x3c(r3),r7
   811ab:	98 e0 c5 db 10 00       	b.ori      r7,r0,0x8dba3
   811b1:	2c e3 02                	b.sw       0x40(r3),r7
   811b4:	98 e0 1b 9c 10 00       	b.ori      r7,r0,0x839d8
   811ba:	2c e3 22                	b.sw       0x44(r3),r7
   811bd:	00 e4                   	b.movi     r7,0x2
   811bf:	20 e3 92                	b.sb       0x49(r3),r7
   811c2:	24 e1 51                	b.lbz      r7,0x8a(r1)
   811c5:	84 80 9d 40 00 20       	b.lbz      r4,0x40002b9(r0)
   811cb:	00 f8                   	b.addi     r7,r7,0x1
   811cd:	6c 84 c0                	b.slli     r4,r4,0x3
   811d0:	20 e1 51                	b.sb       0x8a(r1),r7
   811d3:	24 e1 d1                	b.lbz      r7,0x8b(r1)
   811d6:	20 e3 12                	b.sb       0x48(r3),r7
   811d9:	8c 60 78 50 00 20       	b.lwz      r3,0x4000a1c(r0)
   811df:	4b 4e c8                	b.jal      85faa <pvHeap_Alloc>
   811e2:	84 80 1d 40 00 20       	b.lbz      r4,0x40002b8(r0)
   811e8:	38 e0 31                	b.ori      r7,r0,0x8c
   811eb:	00 a0                   	b.movi     r5,0x0
   811ed:	64 84 3b                	b.mul      r4,r4,r7
   811f0:	8c 60 38 50 00 20       	b.sw       0x4000a1c(r0),r3
   811f6:	8c 60 68 50 00 20       	b.lwz      r3,0x4000a14(r0)
   811fc:	49 d6 c8                	b.jal      85faa <pvHeap_Alloc>
   811ff:	84 80 dd 40 00 20       	b.lbz      r4,0x40002bb(r0)
   81205:	80 00 04 50 00 20       	b.sb       0x4000a20(r0),r0
   8120b:	38 e0 1d                	b.ori      r7,r0,0xb8
   8120e:	00 a0                   	b.movi     r5,0x0
   81210:	80 00 84 50 00 20       	b.sb       0x4000a21(r0),r0
   81216:	64 84 3b                	b.mul      r4,r4,r7
   81219:	8c 60 28 50 00 20       	b.sw       0x4000a14(r0),r3
   8121f:	8c 60 46 90 00 20       	b.lwz      r3,0x4000960(r0)
   81225:	80 00 18 50 00 20       	b.sb       0x4000a18(r0),r0
   8122b:	80 00 98 50 00 20       	b.sb       0x4000a19(r0),r0
   81231:	8c 00 0d 60 00 20       	b.sw       0x40006b0(r0),r0
   81237:	8c 00 35 60 00 20       	b.sw       0x40006ac(r0),r0
   8123d:	4a da c8                	b.jal      85faa <pvHeap_Alloc>
   81240:	84 a0 dd 40 00 20       	b.lbz      r5,0x40002bb(r0)
   81246:	8c 60 06 90 00 20       	b.sw       0x4000960(r0),r3
   8124c:	30 85 ff                	b.addi     r4,r5,-0x1
   8124f:	d8 e3 1d 00             	b.addi     r7,r3,0xb8
   81253:	00 c0                   	b.movi     r6,0x0
   81255:	0c c0                   	b.j        81261 <Device_vInit+0x6ad>
   81257:	cc e7 12 ff             	b.sw       -0xb8(r7),r7
   8125b:	00 d8                   	b.addi     r6,r6,0x1
   8125d:	d8 e7 1d 00             	b.addi     r7,r7,0xb8
   81261:	d3 48 66 ff             	b.bgts     r4,r6,81257 <Device_vInit+0x6a3>
   81265:	38 e0 1d                	b.ori      r7,r0,0xb8
   81268:	00 bf                   	b.addi     r5,r5,-0x1
   8126a:	64 a5 3b                	b.mul      r5,r5,r7
   8126d:	98 e0 26 90 00 20       	b.ori      r7,r0,0x4000964
   81273:	08 a3                   	b.add      r5,r5,r3
   81275:	2c 05 00                	b.sw       0x0(r5),r0
   81278:	8c 60 2f 60 00 20       	b.sw       0x40006f4(r0),r3
   8127e:	00 6e                   	b.movi     r3,0x7
   81280:	8c e0 0f 60 00 20       	b.sw       0x40006f0(r0),r7
   81286:	48 7e ec                	b.jal      8f07e <vMiniMac_Init>
   81289:	8d 40 65 08 00 20       	b.lwz      r10,0x40010a4(r0)
   8128f:	38 e0 3c                	b.ori      r7,r0,0x3c
   81292:	38 80 2a                	b.ori      r4,r0,0x54
   81295:	00 a0                   	b.movi     r5,0x0
   81297:	20 ea f9                	b.sb       0x9f(r10),r7
   8129a:	00 ef                   	b.movi     r7,-0x1
   8129c:	2c 0a 32                	b.sw       0x4c(r10),r0
   8129f:	20 ea 79                	b.sb       0x9e(r10),r7
   812a2:	2c 0a 15                	b.sw       0xa8(r10),r0
   812a5:	25 81 51                	b.lbz      r12,0x8a(r1)
   812a8:	2c 6a 4a                	b.lwz      r3,0x50(r10)
   812ab:	64 8c 23                	b.mul      r4,r12,r4
   812ae:	48 fc c8                	b.jal      85faa <pvHeap_Alloc>
   812b1:	84 e0 5d 40 00 20       	b.lbz      r7,0x40002ba(r0)
   812b7:	2c 6a 0a                	b.sw       0x50(r10),r3
   812ba:	3c e7 04                	b.sfleui   r7,0x20
   812bd:	47 23 00                	b.bf       812c9 <Device_vInit+0x715>
   812c0:	38 e0 04                	b.ori      r7,r0,0x20
   812c3:	80 e0 5d 40 00 20       	b.sb       0x40002ba(r0),r7
   812c9:	84 80 5d 40 00 20       	b.lbz      r4,0x40002ba(r0)
   812cf:	8c 60 64 50 00 20       	b.lwz      r3,0x4000a24(r0)
   812d5:	6c 84 20                	b.slli     r4,r4,0x4
   812d8:	00 a0                   	b.movi     r5,0x0
   812da:	48 2c c8                	b.jal      85faa <pvHeap_Alloc>
   812dd:	8c e0 65 08 00 20       	b.lwz      r7,0x40010a4(r0)
   812e3:	8c 60 24 50 00 20       	b.sw       0x4000a24(r0),r3
   812e9:	01 40                   	b.movi     r10,0x0
   812eb:	8c 00 23 60 00 20       	b.sw       0x40006c4(r0),r0
   812f1:	39 a0 2a                	b.ori      r13,r0,0x54
   812f4:	01 cf                   	b.movi     r14,-0x1
   812f6:	8c 00 03 60 00 20       	b.sw       0x40006c0(r0),r0
   812fc:	8c 00 3d 60 00 20       	b.sw       0x40006bc(r0),r0
   81302:	8c 00 1d 60 00 20       	b.sw       0x40006b8(r0),r0
   81308:	8c 00 2d 60 00 20       	b.sw       0x40006b4(r0),r0
   8130e:	2c 07 2a                	b.sw       0x54(r7),r0
   81311:	2c 07 1a                	b.sw       0x58(r7),r0
   81314:	2c 07 3a                	b.sw       0x5c(r7),r0
   81317:	2c 07 06                	b.sw       0x60(r7),r0
   8131a:	21 87 26                	b.sb       0x64(r7),r12
   8131d:	0c c8                   	b.j        81369 <Device_vInit+0x7b5>
   8131f:	8c 60 65 08 00 20       	b.lwz      r3,0x40010a4(r0)
   81325:	65 6a 6b                	b.mul      r11,r10,r13
   81328:	2c 83 4a                	b.lwz      r4,0x50(r3)
   8132b:	30 63 3a                	b.addi     r3,r3,0x5c
   8132e:	08 8b                   	b.add      r4,r4,r11
   81330:	49 9d 94                	b.jal      8ba16 <vDLISTaddToTail>
   81333:	8c c0 65 08 00 20       	b.lwz      r6,0x40010a4(r0)
   81339:	00 a8                   	b.movi     r5,0x1
   8133b:	2c e6 4a                	b.lwz      r7,0x50(r6)
   8133e:	08 eb                   	b.add      r7,r7,r11
   81340:	20 07 1c                	b.sb       0x38(r7),r0
   81343:	2d 47 10                	b.sw       0x8(r7),r10
   81346:	01 58                   	b.addi     r10,r10,0x1
   81348:	2c 07 30                	b.sw       0xc(r7),r0
   8134b:	2c 07 08                	b.sw       0x10(r7),r0
   8134e:	2c 07 28                	b.sw       0x14(r7),r0
   81351:	2c e6 4a                	b.lwz      r7,0x50(r6)
   81354:	08 eb                   	b.add      r7,r7,r11
   81356:	21 c7 5c                	b.sb       0x3a(r7),r14
   81359:	2c e6 4a                	b.lwz      r7,0x50(r6)
   8135c:	08 eb                   	b.add      r7,r7,r11
   8135e:	20 a7 9c                	b.sb       0x39(r7),r5
   81361:	2c e6 4a                	b.lwz      r7,0x50(r6)
   81364:	09 67                   	b.add      r11,r11,r7
   81366:	2c 0b 0a                	b.sw       0x50(r11),r0
   81369:	3e 0a 38                	b.extbz    r7,r10
   8136c:	d3 d8 7c df             	b.bgtu     r12,r7,8131f <Device_vInit+0x76b>
   81370:	01 40                   	b.movi     r10,0x0
   81372:	0d 60                   	b.j        8138c <Device_vInit+0x7d8>
   81374:	8c 60 64 50 00 20       	b.lwz      r3,0x4000a24(r0)
   8137a:	6c ea 20                	b.slli     r7,r10,0x4
   8137d:	08 67                   	b.add      r3,r3,r7
   8137f:	38 a0 08                	b.ori      r5,r0,0x10
   81382:	01 58                   	b.addi     r10,r10,0x1
   81384:	00 80                   	b.movi     r4,0x0
   81386:	3e 0a 50                	b.extbz    r10,r10
   81389:	4b 69 6a                	b.jal      96de4 <memset>
   8138c:	84 e0 5d 40 00 20       	b.lbz      r7,0x40002ba(r0)
   81392:	d3 ce a4 7f             	b.bgtu     r7,r10,81374 <Device_vInit+0x7c0>
   81396:	8c e0 73 60 00 20       	b.lwz      r7,0x40006cc(r0)
   8139c:	8c 60 65 08 00 20       	b.lwz      r3,0x40010a4(r0)
   813a2:	2c e1 2c                	b.sw       0x34(r1),r7
   813a5:	d8 63 31 00             	b.addi     r3,r3,0x8c
   813a9:	30 81 0c                	b.addi     r4,r1,0x30
   813ac:	8c e0 53 60 00 20       	b.lwz      r7,0x40006c8(r0)
   813b2:	2c e1 0c                	b.sw       0x30(r1),r7
   813b5:	49 72 d0                	b.jal      840ef <i6LP_DefCreateInterfaceIdFrom64>
   813b8:	8c e0 65 08 00 20       	b.lwz      r7,0x40010a4(r0)
   813be:	d8 a0 00 a0             	b.addi     r5,r0,0x500
   813c2:	2c c7 71                	b.lwz      r6,0x8c(r7)
   813c5:	28 07 19                	b.sh       0x98(r7),r0
   813c8:	2c c7 21                	b.sw       0x84(r7),r6
   813cb:	2c c7 49                	b.lwz      r6,0x90(r7)
   813ce:	20 07 05                	b.sb       0xa0(r7),r0
   813d1:	2c c7 11                	b.sw       0x88(r7),r6
   813d4:	38 c0 02                	b.ori      r6,r0,0x40
   813d7:	20 c7 69                	b.sb       0x96(r7),r6
   813da:	24 c7 12                	b.lbz      r6,0x48(r7)
   813dd:	28 07 25                	b.sh       0xa4(r7),r0
   813e0:	3c 06 80                	b.sfeqi    r6,0x1
   813e3:	64 c6 02                	b.cmov     r6,r6,r0
   813e6:	20 c7 33                	b.sb       0xcc(r7),r6
   813e9:	38 c0 0a                	b.ori      r6,r0,0x50
   813ec:	20 c7 65                	b.sb       0xa6(r7),r6
   813ef:	28 c1 e1                	b.lhz      r6,0x86(r1)
   813f2:	2c 07 23                	b.sw       0xc4(r7),r0
   813f5:	3c 26 00                	b.sfnei    r6,0x0
   813f8:	64 c6 2a                	b.cmov     r6,r6,r5
   813fb:	d8 a6 00 ff             	b.addi     r5,r6,-0x100
   813ff:	9e c5 00 20 00 00       	b.sfgtui   r5,0x400
   81405:	2c 07 13                	b.sw       0xc8(r7),r0
   81408:	d6 3d 18 00             	b.bf       82cc4 <Device_vInit+0x2110>
   8140c:	28 c7 39                	b.sh       0x9c(r7),r6
   8140f:	28 61 91                	b.lhz      r3,0x88(r1)
   81412:	2c e7 64                	b.lwz      r7,0x24(r7)
   81415:	47 d1 38                	b.jalr     r7
   81418:	42 03 88                	b.bgesi    r3,0x0,81429 <Device_vInit+0x875>
   8141b:	98 c0 80 81 00 00       	b.ori      r6,r0,0x8101
   81421:	8c e0 65 08 00 20       	b.lwz      r7,0x40010a4(r0)
   81427:	0f 32                   	b.j        8155a <Device_vInit+0x9a6>
   81429:	8c e0 65 08 00 20       	b.lwz      r7,0x40010a4(r0)
   8142f:	28 c1 a1                	b.lhz      r6,0x84(r1)
   81432:	2c a1 5e                	b.lwz      r5,0x78(r1)
   81435:	28 c7 19                	b.sh       0x98(r7),r6
   81438:	98 60 cb 60 00 20       	b.ori      r3,r0,0x40006d3
   8143e:	30 81 14                	b.addi     r4,r1,0x28
   81441:	2c c1 7e                	b.lwz      r6,0x7c(r1)
   81444:	2c a1 14                	b.sw       0x28(r1),r5
   81447:	2c a7 01                	b.sw       0x80(r7),r5
   8144a:	38 a0 10                	b.ori      r5,r0,0x8
   8144d:	2c c7 3e                	b.sw       0x7c(r7),r6
   81450:	2c c1 34                	b.sw       0x2c(r1),r6
   81453:	d4 90 37 ef             	b.jal      5c <memcpy>
   81457:	84 e0 4b 60 00 20       	b.lbz      r7,0x40006d2(r0)
   8145d:	d1 f8 7b 00             	b.bgtui    r7,0x7,8146a <Device_vInit+0x8b6>
   81461:	38 e0 10                	b.ori      r7,r0,0x8
   81464:	80 e0 4b 60 00 20       	b.sb       0x40006d2(r0),r7
   8146a:	8c e0 74 80 00 20       	b.lwz      r7,0x400012c(r0)
   81470:	d0 7e 7a 60             	b.bnei     r7,-0x1,814d5 <Device_vInit+0x921>
   81474:	48 a4 6a                	b.jal      96d08 <i6LP_DefSocket.constprop.104>
   81477:	29 61 99                	b.lhz      r11,0x98(r1)
   8147a:	8c 60 34 80 00 20       	b.sw       0x400012c(r0),r3
   81480:	05 43                   	b.mov      r10,r3
   81482:	89 60 37 60 00 20       	b.sh       0x40006ec(r0),r11
   81488:	d0 3e 3b 20             	b.beqi     r3,-0x1,814d5 <Device_vInit+0x921>
   8148c:	30 61 1a                	b.addi     r3,r1,0x58
   8148f:	00 80                   	b.movi     r4,0x0
   81491:	4b 35 5c                	b.jal      8ff44 <i6LP_DefGetOwnDeviceAddress>
   81494:	30 81 1a                	b.addi     r4,r1,0x58
   81497:	04 6a                   	b.mov      r3,r10
   81499:	29 61 3a                	b.sh       0x5c(r1),r11
   8149c:	48 48 68                	b.jal      86ce4 <i6LP_DefBind.constprop.105>
   8149f:	d0 7e 33 00             	b.bnei     r3,-0x1,814ab <Device_vInit+0x8f7>
   814a3:	8c 60 34 80 00 20       	b.sw       0x400012c(r0),r3
   814a9:	0c d0                   	b.j        814d5 <Device_vInit+0x921>
   814ab:	8c e0 65 08 00 20       	b.lwz      r7,0x40010a4(r0)
   814b1:	24 c7 26                	b.lbz      r6,0x64(r7)
   814b4:	d3 4c ab 00             	b.bgts     r6,r10,814c1 <Device_vInit+0x90d>
   814b8:	d8 c0 98 58             	b.addi     r6,r0,0x1a19
   814bc:	2c c7 32                	b.sw       0x4c(r7),r6
   814bf:	0d a0                   	b.j        814d5 <Device_vInit+0x921>
   814c1:	38 c0 2a                	b.ori      r6,r0,0x54
   814c4:	2c e7 4a                	b.lwz      r7,0x50(r7)
   814c7:	65 4a 33                	b.mul      r10,r10,r6
   814ca:	09 47                   	b.add      r10,r10,r7
   814cc:	98 e0 df cc 90 00       	b.ori      r7,r0,0x933fb
   814d2:	2c ea 3c                	b.sw       0x3c(r10),r7
   814d5:	8c e0 65 08 00 20       	b.lwz      r7,0x40010a4(r0)
   814db:	d8 c0 80 84             	b.addi     r6,r0,0x2101
   814df:	25 67 92                	b.lbz      r11,0x49(r7)
   814e2:	41 4b 1e                	b.bnei     r11,0x2,8155a <Device_vInit+0x9a6>
   814e5:	24 c1 d1                	b.lbz      r6,0x8b(r1)
   814e8:	40 06 36                	b.beqi     r6,0x0,81554 <Device_vInit+0x9a0>
   814eb:	d2 10 69 00             	b.bleui    r6,0x2,814f4 <Device_vInit+0x940>
   814ef:	41 c6 a6                	b.bnei     r6,0x3,81554 <Device_vInit+0x9a0>
   814f2:	0c d0                   	b.j        8151e <Device_vInit+0x96a>
   814f4:	30 61 1e                	b.addi     r3,r1,0x78
   814f7:	49 4f 72                	b.jal      950c1 <vJnc_JenNetInitVariablesVect>
   814fa:	00 62                   	b.movi     r3,0x4
   814fc:	00 80                   	b.movi     r4,0x0
   814fe:	00 a0                   	b.movi     r5,0x0
   81500:	4b 70 42                	b.jal      91d3b <vJIP_StackEvent>
   81503:	4b e7 1c                	b.jal      8f8a2 <vJnc_InitSystemVect.constprop.77>
   81506:	00 e8                   	b.movi     r7,0x1
   81508:	80 e0 14 50 00 20       	b.sb       0x4000a28(r0),r7
   8150e:	00 68                   	b.movi     r3,0x1
   81510:	24 e1 d1                	b.lbz      r7,0x8b(r1)
   81513:	40 87 a0                	b.beqi     r7,0x1,81518 <Device_vInit+0x964>
   81516:	00 60                   	b.movi     r3,0x0
   81518:	48 46 d4                	b.jal      8c2a0 <vApi_Start_CRVect>
   8151b:	46 cd e8                	b.j        82cce <Device_vInit+0x211a>
   8151e:	30 61 1e                	b.addi     r3,r1,0x78
   81521:	48 17 72                	b.jal      950c1 <vJnc_JenNetInitVariablesVect>
   81524:	00 62                   	b.movi     r3,0x4
   81526:	00 80                   	b.movi     r4,0x0
   81528:	00 a0                   	b.movi     r5,0x0
   8152a:	4a 20 42                	b.jal      91d3b <vJIP_StackEvent>
   8152d:	4a bb 1c                	b.jal      8f8a2 <vJnc_InitSystemVect.constprop.77>
   81530:	8d 40 77 10 00 20       	b.lwz      r10,0x40008ec(r0)
   81536:	c1 6a a6 80             	b.sb       0x165(r10),r11
   8153a:	48 65 88                	b.jal      85bd2 <vAHI_StartRandomNumberGenerator.constprop.99>
   8153d:	4b 33 98                	b.jal      87c70 <bAHI_RndNumPoll>
   81540:	40 03 bf                	b.beqi     r3,0x0,8153d <Device_vInit+0x989>
   81543:	cc f0 63 01             	b.lwz      r7,-0x7f3c(r16)
   81547:	c0 ea 01 80             	b.sb       0x180(r10),r7
   8154b:	00 ec                   	b.movi     r7,0x3
   8154d:	c0 ea 26 80             	b.sb       0x164(r10),r7
   81551:	46 be e8                	b.j        82cce <Device_vInit+0x211a>
   81554:	d8 c0 80 a0             	b.addi     r6,r0,0x501
   81558:	0d 00                   	b.j        8155a <Device_vInit+0x9a6>
   8155a:	2c c7 32                	b.sw       0x4c(r7),r6
   8155d:	46 65 e8                	b.j        82d03 <Device_vInit+0x214f>
   81560:	48 18 0c                	b.jal      8d5c0 <eCreateSocket.8110>
   81563:	05 63                   	b.mov      r11,r3
   81565:	d0 40 36 f8             	b.bnei     r3,0x0,8175b <Device_vInit+0xba7>
   81569:	85 80 2d 10 00 20       	b.lbz      r12,0x40008b4(r0)
   8156f:	38 80 28                	b.ori      r4,r0,0x14
   81572:	00 a8                   	b.movi     r5,0x1
   81574:	8c 60 7e 60 00 20       	b.lwz      r3,0x400067c(r0)
   8157a:	64 8c 23                	b.mul      r4,r12,r4
   8157d:	85 60 6d 10 00 20       	b.lbz      r11,0x40008b6(r0)
   81583:	85 40 ad 10 00 20       	b.lbz      r10,0x40008b5(r0)
   81589:	4a 11 48                	b.jal      85faa <pvHeap_Alloc>
   8158c:	8c 60 3e 60 00 20       	b.sw       0x400067c(r0),r3
   81592:	41 03 d0                	b.bnei     r3,0x0,8159d <Device_vInit+0x9e9>
   81595:	80 00 1e 60 00 20       	b.sb       0x4000678(r0),r0
   8159b:	0e f0                   	b.j        815d8 <Device_vInit+0xa24>
   8159d:	8c 60 6e 60 00 20       	b.lwz      r3,0x4000674(r0)
   815a3:	6c 8a c0                	b.slli     r4,r10,0x3
   815a6:	00 a8                   	b.movi     r5,0x1
   815a8:	49 01 48                	b.jal      85faa <pvHeap_Alloc>
   815ab:	8c 60 2e 60 00 20       	b.sw       0x4000674(r0),r3
   815b1:	41 03 d0                	b.bnei     r3,0x0,815bc <Device_vInit+0xa08>
   815b4:	81 80 1e 60 00 20       	b.sb       0x4000678(r0),r12
   815ba:	0d e0                   	b.j        815d8 <Device_vInit+0xa24>
   815bc:	81 40 0e 60 00 20       	b.sb       0x4000670(r0),r10
   815c2:	00 e0                   	b.movi     r7,0x0
   815c4:	00 cf                   	b.movi     r6,-0x1
   815c6:	0c c0                   	b.j        815d2 <Device_vInit+0xa1e>
   815c8:	6c a7 c0                	b.slli     r5,r7,0x3
   815cb:	08 a3                   	b.add      r5,r5,r3
   815cd:	00 f8                   	b.addi     r7,r7,0x1
   815cf:	20 c5 00                	b.sb       0x0(r5),r6
   815d2:	d3 54 76 ff             	b.bgts     r10,r7,815c8 <Device_vInit+0xa14>
   815d6:	0d ef                   	b.j        815b4 <Device_vInit+0xa00>
   815d8:	38 80 30                	b.ori      r4,r0,0xc
   815db:	00 a8                   	b.movi     r5,0x1
   815dd:	8c 60 5a 90 00 20       	b.lwz      r3,0x4000958(r0)
   815e3:	64 8b 23                	b.mul      r4,r11,r4
   815e6:	01 40                   	b.movi     r10,0x0
   815e8:	49 0e 48                	b.jal      85faa <pvHeap_Alloc>
   815eb:	39 a0 30                	b.ori      r13,r0,0xc
   815ee:	05 83                   	b.mov      r12,r3
   815f0:	8c 60 1a 90 00 20       	b.sw       0x4000958(r0),r3
   815f6:	8c 00 16 60 00 20       	b.sw       0x4000668(r0),r0
   815fc:	8c 00 36 60 00 20       	b.sw       0x400066c(r0),r0
   81602:	8c 00 06 60 00 20       	b.sw       0x4000660(r0),r0
   81608:	8c 00 26 60 00 20       	b.sw       0x4000664(r0),r0
   8160e:	0d 20                   	b.j        81620 <Device_vInit+0xa6c>
   81610:	64 8a 6b                	b.mul      r4,r10,r13
   81613:	98 60 06 60 00 20       	b.ori      r3,r0,0x4000660
   81619:	08 8c                   	b.add      r4,r4,r12
   8161b:	01 58                   	b.addi     r10,r10,0x1
   8161d:	4a 7f 14                	b.jal      8ba16 <vDLISTaddToTail>
   81620:	d3 56 a0 ff             	b.bgts     r11,r10,81610 <Device_vInit+0xa5c>
   81624:	8c e0 56 00 00 20       	b.lwz      r7,0x4000068(r0)
   8162a:	84 80 ed 10 00 20       	b.lbz      r4,0x40008b7(r0)
   81630:	98 c0 a7 b0 90 00       	b.ori      r6,r0,0x90de5
   81636:	8c e0 3a 60 00 20       	b.sw       0x400065c(r0),r7
   8163c:	98 e0 73 6a 90 00       	b.ori      r7,r0,0x956ce
   81642:	8c c0 16 00 00 20       	b.sw       0x4000068(r0),r6
   81648:	8c e0 2a 60 00 20       	b.sw       0x4000654(r0),r7
   8164e:	8c 00 1a 60 00 20       	b.sw       0x4000658(r0),r0
   81654:	80 80 3f 60 00 20       	b.sb       0x40006fc(r0),r4
   8165a:	8d 40 7d 10 00 20       	b.lwz      r10,0x40008bc(r0)
   81660:	40 04 68                	b.beqi     r4,0x0,81676 <Device_vInit+0xac2>
   81663:	8c 60 7a 80 00 20       	b.lwz      r3,0x400015c(r0)
   81669:	00 98                   	b.addi     r4,r4,0x1
   8166b:	00 a8                   	b.movi     r5,0x1
   8166d:	4a f2 48                	b.jal      85faa <pvHeap_Alloc>
   81670:	8c 60 3a 80 00 20       	b.sw       0x400015c(r0),r3
   81676:	98 60 2c 80 00 20       	b.ori      r3,r0,0x4000134
   8167c:	8d 40 36 80 00 20       	b.sw       0x400016c(r0),r10
   81682:	48 ff d0                	b.jal      8467e <eJIP_RegisterMib>
   81685:	8c e0 7a 80 00 20       	b.lwz      r7,0x400015c(r0)
   8168b:	41 07 08                	b.bnei     r7,0x0,8169b <Device_vInit+0xae7>
   8168e:	98 60 2c 80 00 20       	b.ori      r3,r0,0x4000134
   81694:	00 88                   	b.movi     r4,0x1
   81696:	00 a0                   	b.movi     r5,0x0
   81698:	4b 4d 62                	b.jal      93163 <vJIP_SetEnabled>
   8169b:	8c e0 76 80 00 20       	b.lwz      r7,0x400016c(r0)
   816a1:	41 07 08                	b.bnei     r7,0x0,816b1 <Device_vInit+0xafd>
   816a4:	98 60 2c 80 00 20       	b.ori      r3,r0,0x4000134
   816aa:	00 84                   	b.movi     r4,0x2
   816ac:	00 a0                   	b.movi     r5,0x0
   816ae:	4a b5 62                	b.jal      93163 <vJIP_SetEnabled>
   816b1:	8c e0 65 08 00 20       	b.lwz      r7,0x40010a4(r0)
   816b7:	98 60 01 60 00 20       	b.ori      r3,r0,0x4000680
   816bd:	38 a0 18                	b.ori      r5,r0,0x18
   816c0:	00 80                   	b.movi     r4,0x0
   816c2:	25 47 12                	b.lbz      r10,0x48(r7)
   816c5:	4b e3 aa                	b.jal      96de4 <memset>
   816c8:	40 0a 30                	b.beqi     r10,0x0,816d4 <Device_vInit+0xb20>
   816cb:	30 ea ff                	b.addi     r7,r10,-0x1
   816ce:	8c e0 01 60 00 20       	b.sw       0x4000680(r0),r7
   816d4:	98 60 36 00 00 20       	b.ori      r3,r0,0x400006c
   816da:	48 97 d0                	b.jal      8467e <eJIP_RegisterMib>
   816dd:	00 e8                   	b.movi     r7,0x1
   816df:	61 4a 3a                	b.xor      r10,r10,r7
   816e2:	3e 0a 50                	b.extbz    r10,r10
   816e5:	60 a0 55                	b.sub      r5,r0,r10
   816e8:	98 60 36 00 00 20       	b.ori      r3,r0,0x400006c
   816ee:	6c a5 f9                	b.srli     r5,r5,0x1f
   816f1:	00 88                   	b.movi     r4,0x1
   816f3:	48 39 62                	b.jal      93163 <vJIP_SetEnabled>
   816f6:	30 aa ff                	b.addi     r5,r10,-0x1
   816f9:	6c a5 f9                	b.srli     r5,r5,0x1f
   816fc:	98 60 36 00 00 20       	b.ori      r3,r0,0x400006c
   81702:	00 82                   	b.movi     r4,0x4
   81704:	4b e9 62                	b.jal      93163 <vJIP_SetEnabled>
   81707:	88 e0 9d 10 00 20       	b.lhz      r7,0x40008b8(r0)
   8170d:	00 80                   	b.movi     r4,0x0
   8170f:	88 e0 3a 90 00 20       	b.sh       0x400095c(r0),r7
   81715:	00 60                   	b.movi     r3,0x0
   81717:	48 e5 62                	b.jal      931b3 <vNetworkModule_Update>
   8171a:	98 60 21 80 00 20       	b.ori      r3,r0,0x4000184
   81720:	49 eb d0                	b.jal      8467e <eJIP_RegisterMib>
   81723:	98 60 2b 80 00 20       	b.ori      r3,r0,0x40001d4
   81729:	4a ab d0                	b.jal      8467e <eJIP_RegisterMib>
   8172c:	00 ef                   	b.movi     r7,-0x1
   8172e:	98 60 3f 00 00 20       	b.ori      r3,r0,0x40000fc
   81734:	01 60                   	b.movi     r11,0x0
   81736:	80 e0 85 60 00 20       	b.sb       0x40006a1(r0),r7
   8173c:	8d 40 4d 10 00 20       	b.lwz      r10,0x40008b0(r0)
   81742:	48 f3 d0                	b.jal      8467e <eJIP_RegisterMib>
   81745:	8c c0 4d 10 00 20       	b.lwz      r6,0x40008b0(r0)
   8174b:	8c e0 77 10 00 20       	b.lwz      r7,0x40008ec(r0)
   81751:	8d 40 25 60 00 20       	b.sw       0x40006a4(r0),r10
   81757:	cc c7 21 80             	b.sw       0x184(r7),r6
   8175b:	8c e0 65 08 00 20       	b.lwz      r7,0x40010a4(r0)
   81761:	00 c8                   	b.movi     r6,0x1
   81763:	8d 80 60 e0 00 20       	b.lwz      r12,0x4000704(r0)
   81769:	20 c7 f9                	b.sb       0x9f(r7),r6
   8176c:	00 e4                   	b.movi     r7,0x2
   8176e:	8c e0 0f 10 00 20       	b.sw       0x40008f0(r0),r7
   81774:	98 e0 cd 11 10 00       	b.ori      r7,r0,0x888b3
   8177a:	8c e0 1f 60 00 20       	b.sw       0x40006f8(r0),r7
   81780:	24 ec 18                	b.lbz      r7,0x18(r12)
   81783:	d0 40 77 50             	b.bnei     r7,0x0,81831 <Device_vInit+0xc7d>
   81787:	98 80 ae c0 10 00       	b.ori      r4,r0,0x80375
   8178d:	38 a0 88                	b.ori      r5,r0,0x11
   81790:	30 61 22                	b.addi     r3,r1,0x44
   81793:	d4 93 17 ef             	b.jal      5c <memcpy>
   81797:	4a a0 58                	b.jal      87fac <pvAppApiDefGetMacAddrLocation>
   8179a:	38 a0 10                	b.ori      r5,r0,0x8
   8179d:	31 ac 18                	b.addi     r13,r12,0x18
   817a0:	98 80 79 80 10 00       	b.ori      r4,r0,0x8019e
   817a6:	05 43                   	b.mov      r10,r3
   817a8:	04 6d                   	b.mov      r3,r13
   817aa:	d4 4d 17 ef             	b.jal      5c <memcpy>
   817ae:	20 0c 04                	b.sb       0x20(r12),r0
   817b1:	04 6d                   	b.mov      r3,r13
   817b3:	48 69 aa                	b.jal      96e0b <strlen>
   817b6:	38 c0 04                	b.ori      r6,r0,0x20
   817b9:	3e 03 18                	b.extbz    r3,r3
   817bc:	60 ec 1c                	b.add      r7,r12,r3
   817bf:	d8 a1 1d 00             	b.addi     r5,r1,0xb8
   817c3:	04 6c                   	b.mov      r3,r12
   817c5:	20 c7 18                	b.sb       0x18(r7),r6
   817c8:	2c ca 60                	b.lwz      r6,0x4(r10)
   817cb:	6c c6 29                	b.srli     r6,r6,0x14
   817ce:	34 c6 f0                	b.andi     r6,r6,0xf
   817d1:	08 c5                   	b.add      r6,r6,r5
   817d3:	c4 c6 31 ff             	b.lbz      r6,-0x74(r6)
   817d7:	20 c7 98                	b.sb       0x19(r7),r6
   817da:	28 ca a0                	b.lhz      r6,0x4(r10)
   817dd:	34 c6 f0                	b.andi     r6,r6,0xf
   817e0:	08 c5                   	b.add      r6,r6,r5
   817e2:	c4 c6 31 ff             	b.lbz      r6,-0x74(r6)
   817e6:	20 c7 58                	b.sb       0x1a(r7),r6
   817e9:	2c ca 60                	b.lwz      r6,0x4(r10)
   817ec:	6c c6 31                	b.srli     r6,r6,0xc
   817ef:	34 c6 f0                	b.andi     r6,r6,0xf
   817f2:	08 c5                   	b.add      r6,r6,r5
   817f4:	c4 c6 31 ff             	b.lbz      r6,-0x74(r6)
   817f8:	20 c7 d8                	b.sb       0x1b(r7),r6
   817fb:	2c ca 60                	b.lwz      r6,0x4(r10)
   817fe:	6c c6 11                	b.srli     r6,r6,0x8
   81801:	34 c6 f0                	b.andi     r6,r6,0xf
   81804:	08 c5                   	b.add      r6,r6,r5
   81806:	c4 c6 31 ff             	b.lbz      r6,-0x74(r6)
   8180a:	20 c7 38                	b.sb       0x1c(r7),r6
   8180d:	2c ca 60                	b.lwz      r6,0x4(r10)
   81810:	6c c6 21                	b.srli     r6,r6,0x4
   81813:	34 c6 f0                	b.andi     r6,r6,0xf
   81816:	08 c5                   	b.add      r6,r6,r5
   81818:	c4 c6 31 ff             	b.lbz      r6,-0x74(r6)
   8181c:	20 c7 b8                	b.sb       0x1d(r7),r6
   8181f:	2c ca 60                	b.lwz      r6,0x4(r10)
   81822:	34 c6 f0                	b.andi     r6,r6,0xf
   81825:	08 c5                   	b.add      r6,r6,r5
   81827:	c4 c6 31 ff             	b.lbz      r6,-0x74(r6)
   8182b:	20 c7 78                	b.sb       0x1e(r7),r6
   8182e:	4b 52 7c                	b.jal      91159 <PDM_vSaveRecord>
   81831:	8c 80 60 e0 00 20       	b.lwz      r4,0x4000704(r0)
   81837:	8d 40 7a 80 00 20       	b.lwz      r10,0x400015c(r0)
   8183d:	30 84 18                	b.addi     r4,r4,0x18
   81840:	40 0a 84                	b.beqi     r10,0x0,81861 <Device_vInit+0xcad>
   81843:	85 80 3f 60 00 20       	b.lbz      r12,0x40006fc(r0)
   81849:	04 6a                   	b.mov      r3,r10
   8184b:	04 ac                   	b.mov      r5,r12
   8184d:	09 4c                   	b.add      r10,r10,r12
   8184f:	49 ce aa                	b.jal      96e1d <strncpy>
   81852:	98 60 2c 80 00 20       	b.ori      r3,r0,0x4000134
   81858:	00 88                   	b.movi     r4,0x1
   8185a:	c0 0a ff ff             	b.sb       -0x1(r10),r0
   8185e:	49 32 62                	b.jal      93190 <vJIP_NotifyChanged>
   81861:	98 e0 87 b2 90 00       	b.ori      r7,r0,0x94de1
   81867:	8c e0 00 e0 00 20       	b.sw       0x4000700(r0),r7
   8186d:	8c e0 46 e0 00 20       	b.lwz      r7,0x4000760(r0)
   81873:	2c 67 40                	b.lwz      r3,0x0(r7)
   81876:	48 41 d0                	b.jal      8467e <eJIP_RegisterMib>
   81879:	8d 40 47 10 00 20       	b.lwz      r10,0x40008e0(r0)
   8187f:	2c 6a 40                	b.lwz      r3,0x0(r10)
   81882:	48 fe d0                	b.jal      8467e <eJIP_RegisterMib>
   81885:	00 e8                   	b.movi     r7,0x1
   81887:	98 60 22 40 00 20       	b.ori      r3,r0,0x4000244
   8188d:	20 ea 0c                	b.sb       0x30(r10),r7
   81890:	49 de d0                	b.jal      8467e <eJIP_RegisterMib>
   81893:	98 60 00 10 00 20       	b.ori      r3,r0,0x4000800
   81899:	48 0c 7c                	b.jal      91159 <PDM_vSaveRecord>
   8189c:	00 68                   	b.movi     r3,0x1
   8189e:	49 81 5c                	b.jal      902a4 <Node_vDebugOutdent.part.4.1915>
   818a1:	8c e0 4a e0 00 20       	b.lwz      r7,0x4000750(r0)
   818a7:	2c 67 40                	b.lwz      r3,0x0(r7)
   818aa:	48 ae d0                	b.jal      8467e <eJIP_RegisterMib>
   818ad:	8c e0 5a e0 00 20       	b.lwz      r7,0x4000758(r0)
   818b3:	2c 67 40                	b.lwz      r3,0x0(r7)
   818b6:	48 4e d0                	b.jal      8467e <eJIP_RegisterMib>
   818b9:	8c e0 6a e0 00 20       	b.lwz      r7,0x4000754(r0)
   818bf:	2c 67 40                	b.lwz      r3,0x0(r7)
   818c2:	48 f6 d0                	b.jal      8467e <eJIP_RegisterMib>
   818c5:	8c e0 7a e0 00 20       	b.lwz      r7,0x400075c(r0)
   818cb:	2c 67 40                	b.lwz      r3,0x0(r7)
   818ce:	48 36 d0                	b.jal      8467e <eJIP_RegisterMib>
   818d1:	00 68                   	b.movi     r3,0x1
   818d3:	4a 2e 5c                	b.jal      902a4 <Node_vDebugOutdent.part.4.1915>
   818d6:	98 60 81 40 10 00       	b.ori      r3,r0,0x80281
   818dc:	04 8b                   	b.mov      r4,r11
   818de:	49 64 c2                	b.jal      92578 <dbg_vPrintfImplNoneVerbose>
   818e1:	98 60 e5 80 10 00       	b.ori      r3,r0,0x801a7
   818e7:	98 80 2f 10 00 20       	b.ori      r4,r0,0x40008f4
   818ed:	4b 44 c2                	b.jal      92578 <dbg_vPrintfImplNoneVerbose>
   818f0:	00 68                   	b.movi     r3,0x1
   818f2:	4b 1a 5c                	b.jal      90255 <Node_vDebugIndent.part.3.1912>
   818f5:	80 00 67 10 00 20       	b.sb       0x40008e6(r0),r0
   818fb:	46 a7 88                	b.j        82ae0 <Device_vInit+0x1f2c>
   818fe:	98 c0 1f ed 00 00       	b.ori      r6,r0,0xb7f8
   81904:	cc d0 2d 01             	b.sw       -0x7f4c(r16),r6
   81908:	84 e0 33 10 00 20       	b.lbz      r7,0x40008cc(r0)
   8190e:	41 87 38                	b.bnei     r7,0x1,8192a <Device_vInit+0xd76>
   81911:	00 ef                   	b.movi     r7,-0x1
   81913:	98 80 3c 10 00 20       	b.ori      r4,r0,0x400083c
   81919:	00 68                   	b.movi     r3,0x1
   8191b:	80 00 33 10 00 20       	b.sb       0x40008cc(r0),r0
   81921:	88 e0 18 e0 00 20       	b.sh       0x4000718(r0),r7
   81927:	4b 50 d0                	b.jal      84552 <vApi_SetNwkKey>
   8192a:	8c e0 4f 10 00 20       	b.lwz      r7,0x40008f0(r0)
   81930:	d0 60 77 10             	b.bnei     r7,0x1,819be <Device_vInit+0xe0a>
   81934:	00 e4                   	b.movi     r7,0x2
   81936:	98 60 9d 80 10 00       	b.ori      r3,r0,0x801b9
   8193c:	98 80 2f 10 00 20       	b.ori      r4,r0,0x40008f4
   81942:	8c e0 0f 10 00 20       	b.sw       0x40008f0(r0),r7
   81948:	48 30 c2                	b.jal      92578 <dbg_vPrintfImplNoneVerbose>
   8194b:	8c e0 65 08 00 20       	b.lwz      r7,0x40010a4(r0)
   81951:	00 60                   	b.movi     r3,0x0
   81953:	24 e7 12                	b.lbz      r7,0x48(r7)
   81956:	41 c7 6c                	b.bnei     r7,0x3,8198c <Device_vInit+0xdd8>
   81959:	49 45 c8                	b.jal      867e3 <vAHI_WakeTimerStop.part.3.25350>
   8195c:	49 f1 c8                	b.jal      8679a <u8AHI_WakeTimerFiredStatus>
   8195f:	4a 6d 88                	b.jal      86038 <u32AHI_Init>
   81962:	8d 40 77 10 00 20       	b.lwz      r10,0x40008ec(r0)
   81968:	c4 6a e6 80             	b.lbz      r3,0x167(r10)
   8196c:	4a 61 9c                	b.jal      8ff85 <vHWTimerInitVect>
   8196f:	28 ea b8                	b.lhz      r7,0x1c(r10)
   81972:	00 f8                   	b.addi     r7,r7,0x1
   81974:	28 ea 38                	b.sh       0x1c(r10),r7
   81977:	48 41 ec                	b.jal      8f77f <vApi_Resume>
   8197a:	8c e0 77 10 00 20       	b.lwz      r7,0x40008ec(r0)
   81980:	c4 e7 26 80             	b.lbz      r7,0x164(r7)
   81984:	3c 27 b0                	b.sfnei    r7,0xd
   81987:	47 29 40                	b.bf       819b0 <Device_vInit+0xdfc>
   8198a:	0f 60                   	b.j        819a5 <Device_vInit+0xdf1>
   8198c:	4b a9 c8                	b.jal      867e3 <vAHI_WakeTimerStop.part.3.25350>
   8198f:	4b 41 c8                	b.jal      8679a <u8AHI_WakeTimerFiredStatus>
   81992:	49 95 88                	b.jal      86038 <u32AHI_Init>
   81995:	8c e0 77 10 00 20       	b.lwz      r7,0x40008ec(r0)
   8199b:	c4 67 e6 80             	b.lbz      r3,0x167(r7)
   8199f:	49 9e 9c                	b.jal      8ff85 <vHWTimerInitVect>
   819a2:	4a ee ec                	b.jal      8f77f <vApi_Resume>
   819a5:	98 80 00 00 00 20       	b.ori      r4,r0,0x4000000
   819ab:	00 64                   	b.movi     r3,0x2
   819ad:	4a 8e 5c                	b.jal      90372 <Node_vSysCtrlEvent>
   819b0:	00 e8                   	b.movi     r7,0x1
   819b2:	80 e0 a7 10 00 20       	b.sb       0x40008e5(r0),r7
   819b8:	80 e0 ac 90 00 20       	b.sb       0x4000935(r0),r7
   819be:	84 e0 ac 90 00 20       	b.lbz      r7,0x4000935(r0)
   819c4:	3e 07 38                	b.extbz    r7,r7
   819c7:	a0 00 7a 20 80 00       	b.beqi     r7,0x0,82a0c <Device_vInit+0x1e58>
   819cd:	84 e0 27 10 00 20       	b.lbz      r7,0x40008e4(r0)
   819d3:	3e 07 38                	b.extbz    r7,r7
   819d6:	a0 00 76 c0 80 00       	b.beqi     r7,0x0,82a0c <Device_vInit+0x1e58>
   819dc:	8c e0 5b 10 00 20       	b.lwz      r7,0x40008d8(r0)
   819e2:	80 00 ac 90 00 20       	b.sb       0x4000935(r0),r0
   819e8:	41 87 44                	b.bnei     r7,0x1,81a0a <Device_vInit+0xe56>
   819eb:	98 80 00 01 00 00       	b.ori      r4,r0,0x8000
   819f1:	00 60                   	b.movi     r3,0x0
   819f3:	4b 0d 18                	b.jal      87cb6 <vAHI_DioSetOutput>
   819f6:	98 80 00 00 40 00       	b.ori      r4,r0,0x20000
   819fc:	00 60                   	b.movi     r3,0x0
   819fe:	48 75 18                	b.jal      87cb6 <vAHI_DioSetOutput>
   81a01:	98 60 7b 80 10 00       	b.ori      r3,r0,0x801de
   81a07:	4a 3b 42                	b.jal      92578 <dbg_vPrintfImplNoneVerbose>
   81a0a:	84 80 3c 90 00 20       	b.lbz      r4,0x400093c(r0)
   81a10:	00 98                   	b.addi     r4,r4,0x1
   81a12:	3e 04 20                	b.extbz    r4,r4
   81a15:	80 80 3c 90 00 20       	b.sb       0x400093c(r0),r4
   81a1b:	9d c4 03 00 00 00       	b.sfnei    r4,0xc0
   81a21:	47 2b 80                	b.bf       81a3e <Device_vInit+0xe8a>
   81a24:	00 60                   	b.movi     r3,0x0
   81a26:	00 82                   	b.movi     r4,0x4
   81a28:	49 c5 18                	b.jal      87cb6 <vAHI_DioSetOutput>
   81a2b:	00 e8                   	b.movi     r7,0x1
   81a2d:	98 60 9f 80 10 00       	b.ori      r3,r0,0x801f9
   81a33:	80 e0 2a 90 00 20       	b.sb       0x4000954(r0),r7
   81a39:	4b f3 42                	b.jal      92578 <dbg_vPrintfImplNoneVerbose>
   81a3c:	0f 40                   	b.j        81a47 <Device_vInit+0xe93>
   81a3e:	98 60 28 40 10 00       	b.ori      r3,r0,0x80214
   81a44:	48 b3 42                	b.jal      92578 <dbg_vPrintfImplNoneVerbose>
   81a47:	8c e0 52 e0 00 20       	b.lwz      r7,0x4000748(r0)
   81a4d:	00 cf                   	b.movi     r6,-0x1
   81a4f:	20 c7 74                	b.sb       0x2e(r7),r6
   81a52:	24 c7 08                	b.lbz      r6,0x10(r7)
   81a55:	3c e6 fc                	b.sfleui   r6,0x3f
   81a58:	47 34 60                	b.bnf      81aba <Device_vInit+0xf06>
   81a5b:	00 aa                   	b.movi     r5,0x5
   81a5d:	20 c7 f4                	b.sb       0x2f(r7),r6
   81a60:	20 a7 74                	b.sb       0x2e(r7),r5
   81a63:	0f 80                   	b.j        81a6a <Device_vInit+0xeb6>
   81a65:	00 7f                   	b.addi     r3,r3,-0x1
   81a67:	20 67 74                	b.sb       0x2e(r7),r3
   81a6a:	24 67 74                	b.lbz      r3,0x2e(r7)
   81a6d:	d1 e8 3b 20             	b.bgtui    r3,0x5,81aba <Device_vInit+0xf06>
   81a71:	64 a6 18                	b.sra      r5,r6,r3
   81a74:	34 a5 80                	b.andi     r5,r5,0x1
   81a77:	40 05 77                	b.beqi     r5,0x0,81a65 <Device_vInit+0xeb1>
   81a7a:	46 f1 48                	b.j        82d09 <Device_vInit+0x2155>
   81a7d:	00 e8                   	b.movi     r7,0x1
   81a7f:	80 e0 22 e0 00 20       	b.sb       0x4000744(r0),r7
   81a85:	cc f0 40 09             	b.lwz      r7,-0x7000(r16)
   81a89:	98 e7 00 00 02 00       	b.ori      r7,r7,0x400000
   81a8f:	cc f0 00 09             	b.sw       -0x7000(r16),r7
   81a93:	cc f0 60 09             	b.lwz      r7,-0x6ffc(r16)
   81a97:	6c e7 41                	b.srli     r7,r7,0x2
   81a9a:	34 e7 80                	b.andi     r7,r7,0x1
   81a9d:	40 07 6f                	b.beqi     r7,0x0,81a93 <Device_vInit+0xedf>
   81aa0:	cc f0 40 f9             	b.lwz      r7,-0x6100(r16)
   81aa4:	94 e7 7f ff c3 ff       	b.andi     r7,r7,0xffc3fffe
   81aaa:	98 e7 00 00 1c 00       	b.ori      r7,r7,0x380000
   81ab0:	cc f0 00 f9             	b.sw       -0x6100(r16),r7
   81ab4:	48 f4 88                	b.jal      85f70 <vAHI_AdcEnable.constprop.29>
   81ab7:	4b 91 18                	b.jal      87cde <vAHI_AdcStartSample>
   81aba:	8c c0 72 e0 00 20       	b.lwz      r6,0x400074c(r0)
   81ac0:	8c e0 4a 90 00 20       	b.lwz      r7,0x4000950(r0)
   81ac6:	0c 80                   	b.j        81aca <Device_vInit+0xf16>
   81ac8:	00 f3                   	b.addi     r7,r7,-0x4
   81aca:	2c a7 40                	b.lwz      r5,0x0(r7)
   81acd:	9d c5 86 e9 40 00       	b.sfnei    r5,0x29761
   81ad3:	47 2c 40                	b.bf       81af6 <Device_vInit+0xf42>
   81ad6:	8c e0 0a 90 00 20       	b.sw       0x4000950(r0),r7
   81adc:	8c e0 5b 10 00 20       	b.lwz      r7,0x40008d8(r0)
   81ae2:	84 c0 2a 90 00 20       	b.lbz      r6,0x4000954(r0)
   81ae8:	2c e1 10                	b.sw       0x8(r1),r7
   81aeb:	8c e0 4a e0 00 20       	b.lwz      r7,0x4000750(r0)
   81af1:	41 86 96                	b.bnei     r6,0x1,81b5a <Device_vInit+0xfa6>
   81af4:	0c 40                   	b.j        81afc <Device_vInit+0xf48>
   81af6:	d3 ce 64 bf             	b.bgtu     r7,r6,81ac8 <Device_vInit+0xf14>
   81afa:	0c ef                   	b.j        81ad6 <Device_vInit+0xf22>
   81afc:	2c a1 50                	b.lwz      r5,0x8(r1)
   81aff:	41 85 da                	b.bnei     r5,0x1,81b5a <Device_vInit+0xfa6>
   81b02:	28 67 94                	b.lhz      r3,0x28(r7)
   81b05:	3e 03 1b                	b.exths    r3,r3
   81b08:	4a bc 9a                	b.jal      97ffd <__floatsisf>
   81b0b:	04 83                   	b.mov      r4,r3
   81b0d:	98 60 3e 1e d4 32       	b.ori      r3,r0,0x4c2b787c
   81b13:	4a 33 6a                	b.jal      97644 <__divsf3>
   81b16:	98 80 00 00 d2 22       	b.ori      r4,r0,0x444b0000
   81b1c:	48 dc 1a                	b.jal      97c08 <__subsf3>
   81b1f:	98 80 00 1e 30 62       	b.ori      r4,r0,0x460c7800
   81b25:	4b 1c 1a                	b.jal      97c08 <__subsf3>
   81b28:	05 43                   	b.mov      r10,r3
   81b2a:	4b e7 aa                	b.jal      972c9 <__fixunssfsi>
   81b2d:	04 83                   	b.mov      r4,r3
   81b2f:	98 60 f8 40 10 00       	b.ori      r3,r0,0x8021f
   81b35:	4b 09 42                	b.jal      92578 <dbg_vPrintfImplNoneVerbose>
   81b38:	98 80 cc cc cc fc       	b.ori      r4,r0,0x3f333333
   81b3e:	04 6a                   	b.mov      r3,r10
   81b40:	48 83 6a                	b.jal      97644 <__divsf3>
   81b43:	8c e0 4a e0 00 20       	b.lwz      r7,0x4000750(r0)
   81b49:	2c 67 24                	b.sw       0x24(r7),r3
   81b4c:	4a fb aa                	b.jal      972c9 <__fixunssfsi>
   81b4f:	04 83                   	b.mov      r4,r3
   81b51:	98 60 f4 40 10 00       	b.ori      r3,r0,0x8022f
   81b57:	46 3f 40                	b.j        81e53 <Device_vInit+0x129f>
   81b5a:	28 67 94                	b.lhz      r3,0x28(r7)
   81b5d:	3e 03 1b                	b.exths    r3,r3
   81b60:	4a e4 9a                	b.jal      97ffd <__floatsisf>
   81b63:	04 83                   	b.mov      r4,r3
   81b65:	98 60 3e 1e d4 32       	b.ori      r3,r0,0x4c2b787c
   81b6b:	4a 6d 6a                	b.jal      97644 <__divsf3>
   81b6e:	98 80 00 00 d2 22       	b.ori      r4,r0,0x444b0000
   81b74:	48 a4 1a                	b.jal      97c08 <__subsf3>
   81b77:	98 80 00 1e 30 62       	b.ori      r4,r0,0x460c7800
   81b7d:	4b 44 1a                	b.jal      97c08 <__subsf3>
   81b80:	05 43                   	b.mov      r10,r3
   81b82:	4b 8b aa                	b.jal      972c9 <__fixunssfsi>
   81b85:	04 83                   	b.mov      r4,r3
   81b87:	98 60 f8 40 10 00       	b.ori      r3,r0,0x8021f
   81b8d:	4b 5e 42                	b.jal      92578 <dbg_vPrintfImplNoneVerbose>
   81b90:	8c e0 4a e0 00 20       	b.lwz      r7,0x4000750(r0)
   81b96:	04 6a                   	b.mov      r3,r10
   81b98:	2c 87 64                	b.lwz      r4,0x24(r7)
   81b9b:	2c e1 28                	b.sw       0x14(r1),r7
   81b9e:	49 95 6a                	b.jal      97644 <__divsf3>
   81ba1:	05 43                   	b.mov      r10,r3
   81ba3:	04 83                   	b.mov      r4,r3
   81ba5:	4b a1 ea                	b.jal      979bc <__mulsf3>
   81ba8:	04 8a                   	b.mov      r4,r10
   81baa:	05 c3                   	b.mov      r14,r3
   81bac:	48 21 ea                	b.jal      979bc <__mulsf3>
   81baf:	04 8a                   	b.mov      r4,r10
   81bb1:	05 e3                   	b.mov      r15,r3
   81bb3:	4a 41 ea                	b.jal      979bc <__mulsf3>
   81bb6:	05 83                   	b.mov      r12,r3
   81bb8:	04 6a                   	b.mov      r3,r10
   81bba:	4a f0 7a                	b.jal      993f7 <__extendsfdf2>
   81bbd:	98 a0 f1 43 ad fc       	b.ori      r5,r0,0x3fb5c28f
   81bc3:	98 c0 c3 af 14 3a       	b.ori      r6,r0,0x5c28f5c3
   81bc9:	05 43                   	b.mov      r10,r3
   81bcb:	05 64                   	b.mov      r11,r4
   81bcd:	4b f0 da                	b.jal      9880c <__ledf2>
   81bd0:	d0 c0 3a 50             	b.bgtsi    r3,0x0,81c75 <Device_vInit+0x10c1>
   81bd4:	98 a0 c7 a5 d9 fc       	b.ori      r5,r0,0x3f9ba5e3
   81bda:	98 c0 9b 73 ef ca       	b.ori      r6,r0,0x53f7ced9
   81be0:	04 6a                   	b.mov      r3,r10
   81be2:	04 8b                   	b.mov      r4,r11
   81be4:	4b 6b 5a                	b.jal      9873f <__gedf2>
   81be7:	d1 40 37 10             	b.bltsi    r3,0x0,81c75 <Device_vInit+0x10c1>
   81beb:	04 6c                   	b.mov      r3,r12
   81bed:	49 40 7a                	b.jal      993f7 <__extendsfdf2>
   81bf0:	98 a0 83 78 e8 83       	b.ori      r5,r0,0xc1171ec1
   81bf6:	98 c0 f5 a4 27 c1       	b.ori      r6,r0,0x83e425af
   81bfc:	48 1c da                	b.jal      988dc <__muldf3>
   81bff:	05 83                   	b.mov      r12,r3
   81c01:	05 a4                   	b.mov      r13,r4
   81c03:	04 6f                   	b.mov      r3,r15
   81c05:	49 3f ba                	b.jal      993f7 <__extendsfdf2>
   81c08:	98 a0 8b 16 08 82       	b.ori      r5,r0,0x411068d1
   81c0e:	98 c0 a5 72 02 c8       	b.ori      r6,r0,0x13404ea5
   81c14:	48 4c da                	b.jal      988dc <__muldf3>
   81c17:	04 a3                   	b.mov      r5,r3
   81c19:	04 c4                   	b.mov      r6,r4
   81c1b:	04 6c                   	b.mov      r3,r12
   81c1d:	04 8d                   	b.mov      r4,r13
   81c1f:	49 e4 9a                	b.jal      980bd <__adddf3>
   81c22:	05 83                   	b.mov      r12,r3
   81c24:	05 a4                   	b.mov      r13,r4
   81c26:	04 6e                   	b.mov      r3,r14
   81c28:	4b cf ba                	b.jal      993f7 <__extendsfdf2>
   81c2b:	98 a0 bf 67 37 03       	b.ori      r5,r0,0xc0ece6fd
   81c31:	98 c0 de 05 a8 18       	b.ori      r6,r0,0x1815a07b
   81c37:	4a 94 da                	b.jal      988dc <__muldf3>
   81c3a:	04 a3                   	b.mov      r5,r3
   81c3c:	04 c4                   	b.mov      r6,r4
   81c3e:	04 6c                   	b.mov      r3,r12
   81c40:	04 8d                   	b.mov      r4,r13
   81c42:	4b 78 9a                	b.jal      980bd <__adddf3>
   81c45:	98 a0 be 03 45 02       	b.ori      r5,r0,0x40a2c07d
   81c4b:	98 c0 f3 88 9f 74       	b.ori      r6,r0,0x2ef911cf
   81c51:	05 83                   	b.mov      r12,r3
   81c53:	05 a4                   	b.mov      r13,r4
   81c55:	04 6a                   	b.mov      r3,r10
   81c57:	04 8b                   	b.mov      r4,r11
   81c59:	4b 04 da                	b.jal      988dc <__muldf3>
   81c5c:	04 a3                   	b.mov      r5,r3
   81c5e:	04 c4                   	b.mov      r6,r4
   81c60:	04 6c                   	b.mov      r3,r12
   81c62:	04 8d                   	b.mov      r4,r13
   81c64:	4a 68 9a                	b.jal      980bd <__adddf3>
   81c67:	98 a0 c7 27 be 02       	b.ori      r5,r0,0x407de4e3
   81c6d:	98 c0 e4 59 8a bc       	b.ori      r6,r0,0x3d519a27
   81c73:	0c f6                   	b.j        81e2f <Device_vInit+0x127b>
   81c75:	98 a0 66 66 6b fc       	b.ori      r5,r0,0x3fd66666
   81c7b:	98 c0 66 66 66 66       	b.ori      r6,r0,0x66666666
   81c81:	04 6a                   	b.mov      r3,r10
   81c83:	04 8b                   	b.mov      r4,r11
   81c85:	4b 87 5a                	b.jal      9880c <__ledf2>
   81c88:	d0 c0 38 10             	b.bgtsi    r3,0x0,81d09 <Device_vInit+0x1155>
   81c8c:	98 a0 f1 43 ad fc       	b.ori      r5,r0,0x3fb5c28f
   81c92:	98 c0 c3 af 14 3a       	b.ori      r6,r0,0x5c28f5c3
   81c98:	04 6a                   	b.mov      r3,r10
   81c9a:	04 8b                   	b.mov      r4,r11
   81c9c:	4b 15 5a                	b.jal      9873f <__gedf2>
   81c9f:	44 03 56                	b.blesi    r3,0x0,81d09 <Device_vInit+0x1155>
   81ca2:	04 6f                   	b.mov      r3,r15
   81ca4:	4b 2b ba                	b.jal      993f7 <__extendsfdf2>
   81ca7:	98 a0 f2 27 40 83       	b.ori      r5,r0,0xc102e44f
   81cad:	98 c0 39 23 04 0c       	b.ori      r6,r0,0x3020c49c
   81cb3:	4a 50 da                	b.jal      988dc <__muldf3>
   81cb6:	05 83                   	b.mov      r12,r3
   81cb8:	05 a4                   	b.mov      r13,r4
   81cba:	04 6e                   	b.mov      r3,r14
   81cbc:	4b 73 ba                	b.jal      993f7 <__extendsfdf2>
   81cbf:	98 a0 4d e8 40 82       	b.ori      r5,r0,0x410217b2
   81cc5:	98 c0 eb c5 0e bc       	b.ori      r6,r0,0x3d70a3d7
   81ccb:	4a 20 da                	b.jal      988dc <__muldf3>
   81cce:	04 a3                   	b.mov      r5,r3
   81cd0:	04 c4                   	b.mov      r6,r4
   81cd2:	04 6c                   	b.mov      r3,r12
   81cd4:	04 8d                   	b.mov      r4,r13
   81cd6:	4b 9f 1a                	b.jal      980bd <__adddf3>
   81cd9:	98 a0 32 a4 e7 03       	b.ori      r5,r0,0xc0e7254c
   81cdf:	98 c0 af cf 65 44       	b.ori      r6,r0,0x22a6f3f5
   81ce5:	05 83                   	b.mov      r12,r3
   81ce7:	05 a4                   	b.mov      r13,r4
   81ce9:	04 6a                   	b.mov      r3,r10
   81ceb:	04 8b                   	b.mov      r4,r11
   81ced:	4b df 5a                	b.jal      988dc <__muldf3>
   81cf0:	04 a3                   	b.mov      r5,r3
   81cf2:	04 c4                   	b.mov      r6,r4
   81cf4:	04 6c                   	b.mov      r3,r12
   81cf6:	04 8d                   	b.mov      r4,r13
   81cf8:	4a 8f 1a                	b.jal      980bd <__adddf3>
   81cfb:	98 a0 ff 90 2d 02       	b.ori      r5,r0,0x40b409ff
   81d01:	98 c0 15 51 95 2f       	b.ori      r6,r0,0xf4a98aa8
   81d07:	0c 52                   	b.j        81e2f <Device_vInit+0x127b>
   81d09:	98 a0 0e bc 47 fc       	b.ori      r5,r0,0x3fe23d70
   81d0f:	98 c0 bc 50 eb c5       	b.ori      r6,r0,0xa3d70a3d
   81d15:	04 6a                   	b.mov      r3,r10
   81d17:	04 8b                   	b.mov      r4,r11
   81d19:	4b 3d 5a                	b.jal      9880c <__ledf2>
   81d1c:	d0 c0 3a 50             	b.bgtsi    r3,0x0,81dc1 <Device_vInit+0x120d>
   81d20:	98 a0 66 66 6b fc       	b.ori      r5,r0,0x3fd66666
   81d26:	98 c0 66 66 66 66       	b.ori      r6,r0,0x66666666
   81d2c:	04 6a                   	b.mov      r3,r10
   81d2e:	04 8b                   	b.mov      r4,r11
   81d30:	4b c1 5a                	b.jal      9873f <__gedf2>
   81d33:	d1 00 37 10             	b.blesi    r3,0x0,81dc1 <Device_vInit+0x120d>
   81d37:	04 6c                   	b.mov      r3,r12
   81d39:	49 f5 ba                	b.jal      993f7 <__extendsfdf2>
   81d3c:	98 a0 f4 e4 3f 02       	b.ori      r5,r0,0x40fc272f
   81d42:	98 c0 51 0d 87 97       	b.ori      r6,r0,0xe9e1b08a
   81d48:	48 a7 5a                	b.jal      988dc <__muldf3>
   81d4b:	05 83                   	b.mov      r12,r3
   81d4d:	05 a4                   	b.mov      r13,r4
   81d4f:	04 6f                   	b.mov      r3,r15
   81d51:	49 95 ba                	b.jal      993f7 <__extendsfdf2>
   81d54:	98 a0 b7 84 50 83       	b.ori      r5,r0,0xc10a21ed
   81d5a:	98 c0 cb 3d c7 28       	b.ori      r6,r0,0x14e3bcd3
   81d60:	48 fb 5a                	b.jal      988dc <__muldf3>
   81d63:	04 a3                   	b.mov      r5,r3
   81d65:	04 c4                   	b.mov      r6,r4
   81d67:	04 6c                   	b.mov      r3,r12
   81d69:	04 8d                   	b.mov      r4,r13
   81d6b:	49 2b 1a                	b.jal      980bd <__adddf3>
   81d6e:	05 83                   	b.mov      r12,r3
   81d70:	05 a4                   	b.mov      r13,r4
   81d72:	04 6e                   	b.mov      r3,r14
   81d74:	4b 05 ba                	b.jal      993f7 <__extendsfdf2>
   81d77:	98 a0 0a c8 40 82       	b.ori      r5,r0,0x41021350
   81d7d:	98 c0 74 09 05 1f       	b.ori      r6,r0,0xf8a0902e
   81d83:	4a 6b 5a                	b.jal      988dc <__muldf3>
   81d86:	04 a3                   	b.mov      r5,r3
   81d88:	04 c4                   	b.mov      r6,r4
   81d8a:	04 6c                   	b.mov      r3,r12
   81d8c:	04 8d                   	b.mov      r4,r13
   81d8e:	4b d3 1a                	b.jal      980bd <__adddf3>
   81d91:	98 a0 12 f4 67 03       	b.ori      r5,r0,0xc0e62f48
   81d97:	98 c0 f6 1b 6d 14       	b.ori      r6,r0,0x28b6d86f
   81d9d:	05 83                   	b.mov      r12,r3
   81d9f:	05 a4                   	b.mov      r13,r4
   81da1:	04 6a                   	b.mov      r3,r10
   81da3:	04 8b                   	b.mov      r4,r11
   81da5:	4b b3 5a                	b.jal      988dc <__muldf3>
   81da8:	04 a3                   	b.mov      r5,r3
   81daa:	04 c4                   	b.mov      r6,r4
   81dac:	04 6c                   	b.mov      r3,r12
   81dae:	04 8d                   	b.mov      r4,r13
   81db0:	4a c3 1a                	b.jal      980bd <__adddf3>
   81db3:	98 a0 82 e9 2d 02       	b.ori      r5,r0,0x40b49741
   81db9:	98 c0 3d cd 6e db       	b.ori      r6,r0,0xdb76b3bc
   81dbf:	0c 38                   	b.j        81e2f <Device_vInit+0x127b>
   81dc1:	98 a0 66 66 67 fc       	b.ori      r5,r0,0x3fe66666
   81dc7:	98 c0 66 66 66 66       	b.ori      r6,r0,0x66666666
   81dcd:	04 6a                   	b.mov      r3,r10
   81dcf:	04 8b                   	b.mov      r4,r11
   81dd1:	4b 71 5a                	b.jal      9880c <__ledf2>
   81dd4:	43 03 c6                	b.bgtsi    r3,0x0,81e37 <Device_vInit+0x1283>
   81dd7:	98 a0 0e bc 47 fc       	b.ori      r5,r0,0x3fe23d70
   81ddd:	98 c0 bc 50 eb c5       	b.ori      r6,r0,0xa3d70a3d
   81de3:	04 6a                   	b.mov      r3,r10
   81de5:	04 8b                   	b.mov      r4,r11
   81de7:	48 6a 5a                	b.jal      9873f <__gedf2>
   81dea:	44 03 b2                	b.blesi    r3,0x0,81e37 <Device_vInit+0x1283>
   81ded:	04 6e                   	b.mov      r3,r14
   81def:	48 41 ba                	b.jal      993f7 <__extendsfdf2>
   81df2:	98 a0 03 cf 1e 02       	b.ori      r5,r0,0x4078f3c0
   81df8:	98 c0 e1 29 aa e3       	b.ori      r6,r0,0xc7559487
   81dfe:	49 ed 5a                	b.jal      988dc <__muldf3>
   81e01:	98 a0 8e ff 81 03       	b.ori      r5,r0,0xc081ff71
   81e07:	98 c0 3c 52 a4 3c       	b.ori      r6,r0,0x3c254a3c
   81e0d:	05 83                   	b.mov      r12,r3
   81e0f:	05 a4                   	b.mov      r13,r4
   81e11:	04 6a                   	b.mov      r3,r10
   81e13:	04 8b                   	b.mov      r4,r11
   81e15:	4b 8d 5a                	b.jal      988dc <__muldf3>
   81e18:	04 a3                   	b.mov      r5,r3
   81e1a:	04 c4                   	b.mov      r6,r4
   81e1c:	04 6c                   	b.mov      r3,r12
   81e1e:	04 8d                   	b.mov      r4,r13
   81e20:	4a e5 1a                	b.jal      980bd <__adddf3>
   81e23:	98 a0 3c 68 56 02       	b.ori      r5,r0,0x406a163c
   81e29:	98 c0 56 08 d1 bd       	b.ori      r6,r0,0xbd8b106a
   81e2f:	49 c5 1a                	b.jal      980bd <__adddf3>
   81e32:	48 a9 ba                	b.jal      99486 <__truncdfsf2>
   81e35:	0c 80                   	b.j        81e39 <Device_vInit+0x1285>
   81e37:	00 60                   	b.movi     r3,0x0
   81e39:	2c e1 68                	b.lwz      r7,0x14(r1)
   81e3c:	98 80 00 00 5e 22       	b.ori      r4,r0,0x447a0000
   81e42:	2c 67 38                	b.sw       0x1c(r7),r3
   81e45:	4b bb 6a                	b.jal      979bc <__mulsf3>
   81e48:	4a 04 aa                	b.jal      972c9 <__fixunssfsi>
   81e4b:	04 83                   	b.mov      r4,r3
   81e4d:	98 60 9c 40 10 00       	b.ori      r3,r0,0x80239
   81e53:	4a 93 82                	b.jal      92578 <dbg_vPrintfImplNoneVerbose>
   81e56:	8c 60 4a e0 00 20       	b.lwz      r3,0x4000750(r0)
   81e5c:	00 72                   	b.addi     r3,r3,0x4
   81e5e:	4b 7d 3c                	b.jal      91159 <PDM_vSaveRecord>
   81e61:	84 c0 2a 90 00 20       	b.lbz      r6,0x4000954(r0)
   81e67:	8c e0 6a e0 00 20       	b.lwz      r7,0x4000754(r0)
   81e6d:	41 86 3a                	b.bnei     r6,0x1,81ec9 <Device_vInit+0x1315>
   81e70:	2c a1 50                	b.lwz      r5,0x8(r1)
   81e73:	41 85 6a                	b.bnei     r5,0x1,81ec9 <Device_vInit+0x1315>
   81e76:	29 47 94                	b.lhz      r10,0x28(r7)
   81e79:	98 60 c2 40 10 00       	b.ori      r3,r0,0x80243
   81e7f:	3e 0a 53                	b.exths    r10,r10
   81e82:	04 8a                   	b.mov      r4,r10
   81e84:	48 bd 82                	b.jal      92578 <dbg_vPrintfImplNoneVerbose>
   81e87:	04 6a                   	b.mov      r3,r10
   81e89:	48 ba 1a                	b.jal      97ffd <__floatsisf>
   81e8c:	04 83                   	b.mov      r4,r3
   81e8e:	98 60 02 a3 d1 52       	b.ori      r3,r0,0x4a8bc540
   81e94:	48 37 aa                	b.jal      97644 <__divsf3>
   81e97:	98 80 00 00 d2 22       	b.ori      r4,r0,0x444b0000
   81e9d:	4b 5a ea                	b.jal      97c08 <__subsf3>
   81ea0:	98 80 00 00 a6 22       	b.ori      r4,r0,0x44650000
   81ea6:	49 1a ea                	b.jal      97c08 <__subsf3>
   81ea9:	98 80 1d 78 a1 bc       	b.ori      r4,r0,0x3d851eb8
   81eaf:	4a a7 aa                	b.jal      97644 <__divsf3>
   81eb2:	8c e0 6a e0 00 20       	b.lwz      r7,0x4000754(r0)
   81eb8:	2c 67 24                	b.sw       0x24(r7),r3
   81ebb:	49 c0 aa                	b.jal      972c9 <__fixunssfsi>
   81ebe:	04 83                   	b.mov      r4,r3
   81ec0:	98 60 0a 40 10 00       	b.ori      r3,r0,0x80250
   81ec6:	46 a1 40                	b.j        8214b <Device_vInit+0x1597>
   81ec9:	28 67 94                	b.lhz      r3,0x28(r7)
   81ecc:	3e 03 1b                	b.exths    r3,r3
   81ecf:	49 d2 1a                	b.jal      97ffd <__floatsisf>
   81ed2:	04 83                   	b.mov      r4,r3
   81ed4:	98 60 02 a3 d1 52       	b.ori      r3,r0,0x4a8bc540
   81eda:	49 5b aa                	b.jal      97644 <__divsf3>
   81edd:	98 80 00 00 d2 22       	b.ori      r4,r0,0x444b0000
   81ee3:	4a 92 ea                	b.jal      97c08 <__subsf3>
   81ee6:	98 80 00 00 a6 22       	b.ori      r4,r0,0x44650000
   81eec:	48 e2 ea                	b.jal      97c08 <__subsf3>
   81eef:	05 43                   	b.mov      r10,r3
   81ef1:	48 6f 2a                	b.jal      972c9 <__fixunssfsi>
   81ef4:	04 83                   	b.mov      r4,r3
   81ef6:	98 60 5a 40 10 00       	b.ori      r3,r0,0x8025a
   81efc:	48 f9 82                	b.jal      92578 <dbg_vPrintfImplNoneVerbose>
   81eff:	8c e0 6a e0 00 20       	b.lwz      r7,0x4000754(r0)
   81f05:	04 6a                   	b.mov      r3,r10
   81f07:	2c 87 64                	b.lwz      r4,0x24(r7)
   81f0a:	2c e1 28                	b.sw       0x14(r1),r7
   81f0d:	4b b3 aa                	b.jal      97644 <__divsf3>
   81f10:	05 83                   	b.mov      r12,r3
   81f12:	04 83                   	b.mov      r4,r3
   81f14:	48 55 6a                	b.jal      979bc <__mulsf3>
   81f17:	04 8c                   	b.mov      r4,r12
   81f19:	05 c3                   	b.mov      r14,r3
   81f1b:	4a 15 6a                	b.jal      979bc <__mulsf3>
   81f1e:	05 e3                   	b.mov      r15,r3
   81f20:	04 6c                   	b.mov      r3,r12
   81f22:	4a ac ba                	b.jal      993f7 <__extendsfdf2>
   81f25:	98 a0 cc cc c7 fc       	b.ori      r5,r0,0x3fe33333
   81f2b:	98 c0 cc cc cc cc       	b.ori      r6,r0,0x33333333
   81f31:	05 43                   	b.mov      r10,r3
   81f33:	05 64                   	b.mov      r11,r4
   81f35:	4b ac 5a                	b.jal      9880c <__ledf2>
   81f38:	d0 c0 37 30             	b.bgtsi    r3,0x0,82006 <Device_vInit+0x1452>
   81f3c:	98 a0 eb c5 0d fc       	b.ori      r5,r0,0x3fb0a3d7
   81f42:	98 c0 25 0e bc 50       	b.ori      r6,r0,0xa3d70a4
   81f48:	04 6a                   	b.mov      r3,r10
   81f4a:	04 8b                   	b.mov      r4,r11
   81f4c:	4b 3f 9a                	b.jal      9873f <__gedf2>
   81f4f:	d1 40 3e d0             	b.bltsi    r3,0x0,82006 <Device_vInit+0x1452>
   81f53:	04 8c                   	b.mov      r4,r12
   81f55:	04 6f                   	b.mov      r3,r15
   81f57:	4a 99 6a                	b.jal      979bc <__mulsf3>
   81f5a:	4a e4 ba                	b.jal      993f7 <__extendsfdf2>
   81f5d:	98 a0 46 4e db 02       	b.ori      r5,r0,0x40db7262
   81f63:	98 c0 36 da 29 9b       	b.ori      r6,r0,0xd9945b6c
   81f69:	54 61 18                	b.msw      0x18(r1),r3,0x0
   81f6c:	48 3a 5a                	b.jal      988dc <__muldf3>
   81f6f:	05 83                   	b.mov      r12,r3
   81f71:	05 a4                   	b.mov      r13,r4
   81f73:	50 61 18                	b.mlwz     r3,0x18(r1),0x0
   81f76:	98 a0 03 46 e7 03       	b.ori      r5,r0,0xc0e762c0
   81f7c:	98 c0 d3 85 a2 6d       	b.ori      r6,r0,0xb645a1cb
   81f82:	49 6a 5a                	b.jal      988dc <__muldf3>
   81f85:	04 a3                   	b.mov      r5,r3
   81f87:	04 c4                   	b.mov      r6,r4
   81f89:	04 6c                   	b.mov      r3,r12
   81f8b:	04 8d                   	b.mov      r4,r13
   81f8d:	48 32 1a                	b.jal      980bd <__adddf3>
   81f90:	05 83                   	b.mov      r12,r3
   81f92:	05 a4                   	b.mov      r13,r4
   81f94:	04 6f                   	b.mov      r3,r15
   81f96:	4a 18 ba                	b.jal      993f7 <__extendsfdf2>
   81f99:	98 a0 ad 57 3b 02       	b.ori      r5,r0,0x40dceab5
   81f9f:	98 c0 10 67 17 8f       	b.ori      r6,r0,0xf1e8e608
   81fa5:	4b b2 5a                	b.jal      988dc <__muldf3>
   81fa8:	04 a3                   	b.mov      r5,r3
   81faa:	04 c4                   	b.mov      r6,r4
   81fac:	04 6c                   	b.mov      r3,r12
   81fae:	04 8d                   	b.mov      r4,r13
   81fb0:	4a c2 1a                	b.jal      980bd <__adddf3>
   81fb3:	05 83                   	b.mov      r12,r3
   81fb5:	05 a4                   	b.mov      r13,r4
   81fb7:	04 6e                   	b.mov      r3,r14
   81fb9:	49 f0 ba                	b.jal      993f7 <__extendsfdf2>
   81fbc:	98 a0 3b 5f 7d 03       	b.ori      r5,r0,0xc0befadc
   81fc2:	98 c0 6d ef 95 54       	b.ori      r6,r0,0x2aa9f7b6
   81fc8:	48 a2 5a                	b.jal      988dc <__muldf3>
   81fcb:	04 a3                   	b.mov      r5,r3
   81fcd:	04 c4                   	b.mov      r6,r4
   81fcf:	04 6c                   	b.mov      r3,r12
   81fd1:	04 8d                   	b.mov      r4,r13
   81fd3:	49 5c 1a                	b.jal      980bd <__adddf3>
   81fd6:	98 a0 45 1e b1 02       	b.ori      r5,r0,0x408d78a2
   81fdc:	98 c0 00 9d 70 f8       	b.ori      r6,r0,0x1f0eb900
   81fe2:	05 83                   	b.mov      r12,r3
   81fe4:	05 a4                   	b.mov      r13,r4
   81fe6:	04 6a                   	b.mov      r3,r10
   81fe8:	04 8b                   	b.mov      r4,r11
   81fea:	49 3c 5a                	b.jal      988dc <__muldf3>
   81fed:	04 a3                   	b.mov      r5,r3
   81fef:	04 c4                   	b.mov      r6,r4
   81ff1:	04 6c                   	b.mov      r3,r12
   81ff3:	04 8d                   	b.mov      r4,r13
   81ff5:	48 4c 1a                	b.jal      980bd <__adddf3>
   81ff8:	98 a0 08 58 9c 02       	b.ori      r5,r0,0x40391a10
   81ffe:	98 c0 8a 8d bd 1a       	b.ori      r6,r0,0x58bdb151
   82004:	0c a4                   	b.j        82098 <Device_vInit+0x14e4>
   82006:	98 a0 66 66 08 02       	b.ori      r5,r0,0x40106666
   8200c:	98 c0 66 66 66 66       	b.ori      r6,r0,0x66666666
   82012:	04 6a                   	b.mov      r3,r10
   82014:	04 8b                   	b.mov      r4,r11
   82016:	49 bf 9a                	b.jal      9880c <__ledf2>
   82019:	d0 c0 32 10             	b.bgtsi    r3,0x0,8209d <Device_vInit+0x14e9>
   8201d:	98 a0 cc cc c7 fc       	b.ori      r5,r0,0x3fe33333
   82023:	98 c0 cc cc cc cc       	b.ori      r6,r0,0x33333333
   82029:	04 6a                   	b.mov      r3,r10
   8202b:	04 8b                   	b.mov      r4,r11
   8202d:	49 23 9a                	b.jal      9873f <__gedf2>
   82030:	44 03 b6                	b.blesi    r3,0x0,8209d <Device_vInit+0x14e9>
   82033:	04 6f                   	b.mov      r3,r15
   82035:	49 0f 3a                	b.jal      993f7 <__extendsfdf2>
   82038:	98 a0 ef 1e dc 02       	b.ori      r5,r0,0x403b78f7
   8203e:	98 c0 c9 38 76 f1       	b.ori      r6,r0,0x8f6e1c93
   82044:	48 64 5a                	b.jal      988dc <__muldf3>
   82047:	05 83                   	b.mov      r12,r3
   82049:	05 a4                   	b.mov      r13,r4
   8204b:	04 6e                   	b.mov      r3,r14
   8204d:	49 57 3a                	b.jal      993f7 <__extendsfdf2>
   82050:	98 a0 b9 1b 36 03       	b.ori      r5,r0,0xc06cd89d
   82056:	98 c0 76 44 97 91       	b.ori      r6,r0,0x89e9226e
   8205c:	48 04 5a                	b.jal      988dc <__muldf3>
   8205f:	04 a3                   	b.mov      r5,r3
   82061:	04 c4                   	b.mov      r6,r4
   82063:	04 6c                   	b.mov      r3,r12
   82065:	04 8d                   	b.mov      r4,r13
   82067:	49 a8 1a                	b.jal      980bd <__adddf3>
   8206a:	98 a0 49 31 e1 02       	b.ori      r5,r0,0x40878c92
   82070:	98 c0 7f e6 14 92       	b.ori      r6,r0,0x492867fe
   82076:	05 83                   	b.mov      r12,r3
   82078:	05 a4                   	b.mov      r13,r4
   8207a:	04 6a                   	b.mov      r3,r10
   8207c:	04 8b                   	b.mov      r4,r11
   8207e:	49 e8 5a                	b.jal      988dc <__muldf3>
   82081:	04 a3                   	b.mov      r5,r3
   82083:	04 c4                   	b.mov      r6,r4
   82085:	04 6c                   	b.mov      r3,r12
   82087:	04 8d                   	b.mov      r4,r13
   82089:	48 b0 1a                	b.jal      980bd <__adddf3>
   8208c:	98 a0 23 7b 41 02       	b.ori      r5,r0,0x4082dec4
   82092:	98 c0 08 ff aa 37       	b.ori      r6,r0,0xec55ff10
   82098:	48 cc da                	b.jal      98d64 <__subdf3>
   8209b:	0f c4                   	b.j        8212a <Device_vInit+0x1576>
   8209d:	98 80 00 00 03 02       	b.ori      r4,r0,0x40c00000
   820a3:	04 6c                   	b.mov      r3,r12
   820a5:	4b 98 6a                	b.jal      9790c <__lesf2>
   820a8:	d0 c0 3e 10             	b.bgtsi    r3,0x0,8212f <Device_vInit+0x157b>
   820ac:	98 a0 66 66 08 02       	b.ori      r5,r0,0x40106666
   820b2:	98 c0 66 66 66 66       	b.ori      r6,r0,0x66666666
   820b8:	04 6a                   	b.mov      r3,r10
   820ba:	04 8b                   	b.mov      r4,r11
   820bc:	4b 05 9a                	b.jal      9873f <__gedf2>
   820bf:	44 03 0e                	b.blesi    r3,0x0,8212f <Device_vInit+0x157b>
   820c2:	04 6f                   	b.mov      r3,r15
   820c4:	4b 33 3a                	b.jal      993f7 <__extendsfdf2>
   820c7:	98 a0 24 72 b8 03       	b.ori      r5,r0,0xc01d4e24
   820cd:	98 c0 e2 ec 04 28       	b.ori      r6,r0,0x14203747
   820d3:	4a 40 5a                	b.jal      988dc <__muldf3>
   820d6:	05 83                   	b.mov      r12,r3
   820d8:	05 a4                   	b.mov      r13,r4
   820da:	04 6e                   	b.mov      r3,r14
   820dc:	4b 63 3a                	b.jal      993f7 <__extendsfdf2>
   820df:	98 a0 09 9e 86 02       	b.ori      r5,r0,0x40617990
   820e5:	98 c0 6d a7 48 bf       	b.ori      r6,r0,0xfd12e5b6
   820eb:	4a 3f 9a                	b.jal      988dc <__muldf3>
   820ee:	04 a3                   	b.mov      r5,r3
   820f0:	04 c4                   	b.mov      r6,r4
   820f2:	04 6c                   	b.mov      r3,r12
   820f4:	04 8d                   	b.mov      r4,r13
   820f6:	4b 8f ea                	b.jal      980bd <__adddf3>
   820f9:	98 a0 f1 ee a1 03       	b.ori      r5,r0,0xc085778f
   820ff:	98 c0 a5 75 d6 56       	b.ori      r6,r0,0x6a6baea5
   82105:	05 83                   	b.mov      r12,r3
   82107:	05 a4                   	b.mov      r13,r4
   82109:	04 6a                   	b.mov      r3,r10
   8210b:	04 8b                   	b.mov      r4,r11
   8210d:	4b cf 9a                	b.jal      988dc <__muldf3>
   82110:	04 a3                   	b.mov      r5,r3
   82112:	04 c4                   	b.mov      r6,r4
   82114:	04 6c                   	b.mov      r3,r12
   82116:	04 8d                   	b.mov      r4,r13
   82118:	4a 97 ea                	b.jal      980bd <__adddf3>
   8211b:	98 a0 09 bf 69 02       	b.ori      r5,r0,0x4096fd90
   82121:	98 c0 42 a9 59 bc       	b.ori      r6,r0,0x3d9a9542
   82127:	49 a7 ea                	b.jal      980bd <__adddf3>
   8212a:	48 eb 3a                	b.jal      99486 <__truncdfsf2>
   8212d:	0c 80                   	b.j        82131 <Device_vInit+0x157d>
   8212f:	00 60                   	b.movi     r3,0x0
   82131:	2c e1 68                	b.lwz      r7,0x14(r1)
   82134:	98 80 00 00 5e 22       	b.ori      r4,r0,0x447a0000
   8213a:	2c 67 38                	b.sw       0x1c(r7),r3
   8213d:	4b f8 6a                	b.jal      979bc <__mulsf3>
   82140:	4a 46 2a                	b.jal      972c9 <__fixunssfsi>
   82143:	04 83                   	b.mov      r4,r3
   82145:	98 60 56 40 10 00       	b.ori      r3,r0,0x8026a
   8214b:	4a d0 82                	b.jal      92578 <dbg_vPrintfImplNoneVerbose>
   8214e:	8c 60 6a e0 00 20       	b.lwz      r3,0x4000754(r0)
   82154:	00 72                   	b.addi     r3,r3,0x4
   82156:	4b 00 3c                	b.jal      91159 <PDM_vSaveRecord>
   82159:	8c e0 5a e0 00 20       	b.lwz      r7,0x4000758(r0)
   8215f:	84 c0 2a 90 00 20       	b.lbz      r6,0x4000954(r0)
   82165:	28 67 94                	b.lhz      r3,0x28(r7)
   82168:	3e 03 1b                	b.exths    r3,r3
   8216b:	41 86 da                	b.bnei     r6,0x1,821c6 <Device_vInit+0x1612>
   8216e:	2c a1 50                	b.lwz      r5,0x8(r1)
   82171:	41 85 aa                	b.bnei     r5,0x1,821c6 <Device_vInit+0x1612>
   82174:	4a 45 ea                	b.jal      97ffd <__floatsisf>
   82177:	04 83                   	b.mov      r4,r3
   82179:	98 60 03 1b e4 d2       	b.ori      r3,r0,0x4b27d8c0
   8217f:	4a 8c aa                	b.jal      97644 <__divsf3>
   82182:	98 80 00 00 d2 22       	b.ori      r4,r0,0x444b0000
   82188:	48 05 6a                	b.jal      97c08 <__subsf3>
   8218b:	98 80 00 01 90 a2       	b.ori      r4,r0,0x45098000
   82191:	4b b9 6a                	b.jal      97c08 <__subsf3>
   82194:	05 43                   	b.mov      r10,r3
   82196:	4b 32 2a                	b.jal      972c9 <__fixunssfsi>
   82199:	04 83                   	b.mov      r4,r3
   8219b:	98 60 2e 40 10 00       	b.ori      r3,r0,0x80274
   821a1:	4b af 02                	b.jal      92578 <dbg_vPrintfImplNoneVerbose>
   821a4:	98 80 00 00 02 02       	b.ori      r4,r0,0x40400000
   821aa:	04 6a                   	b.mov      r3,r10
   821ac:	48 64 aa                	b.jal      97644 <__divsf3>
   821af:	8c e0 5a e0 00 20       	b.lwz      r7,0x4000758(r0)
   821b5:	2c 67 24                	b.sw       0x24(r7),r3
   821b8:	4a 22 2a                	b.jal      972c9 <__fixunssfsi>
   821bb:	04 83                   	b.mov      r4,r3
   821bd:	98 60 a1 40 10 00       	b.ori      r3,r0,0x80285
   821c3:	46 82 c0                	b.j        82504 <Device_vInit+0x1950>
   821c6:	4b b1 ea                	b.jal      97ffd <__floatsisf>
   821c9:	04 83                   	b.mov      r4,r3
   821cb:	98 60 03 1b e4 d2       	b.ori      r3,r0,0x4b27d8c0
   821d1:	4b 38 aa                	b.jal      97644 <__divsf3>
   821d4:	98 80 00 00 d2 22       	b.ori      r4,r0,0x444b0000
   821da:	49 d1 6a                	b.jal      97c08 <__subsf3>
   821dd:	98 80 00 01 90 a2       	b.ori      r4,r0,0x45098000
   821e3:	4a 91 6a                	b.jal      97c08 <__subsf3>
   821e6:	05 43                   	b.mov      r10,r3
   821e8:	4a 1c 2a                	b.jal      972c9 <__fixunssfsi>
   821eb:	04 83                   	b.mov      r4,r3
   821ed:	98 60 2e 40 10 00       	b.ori      r3,r0,0x80274
   821f3:	4a 87 02                	b.jal      92578 <dbg_vPrintfImplNoneVerbose>
   821f6:	8d e0 5a e0 00 20       	b.lwz      r15,0x4000758(r0)
   821fc:	04 6a                   	b.mov      r3,r10
   821fe:	2c 8f 64                	b.lwz      r4,0x24(r15)
   82201:	4b 08 aa                	b.jal      97644 <__divsf3>
   82204:	05 83                   	b.mov      r12,r3
   82206:	04 83                   	b.mov      r4,r3
   82208:	48 b7 aa                	b.jal      979bc <__mulsf3>
   8220b:	04 8c                   	b.mov      r4,r12
   8220d:	05 a3                   	b.mov      r13,r3
   8220f:	4a d7 aa                	b.jal      979bc <__mulsf3>
   82212:	04 8c                   	b.mov      r4,r12
   82214:	05 c3                   	b.mov      r14,r3
   82216:	49 97 aa                	b.jal      979bc <__mulsf3>
   82219:	98 80 00 00 07 02       	b.ori      r4,r0,0x40e00000
   8221f:	05 43                   	b.mov      r10,r3
   82221:	04 6c                   	b.mov      r3,r12
   82223:	4a 5d aa                	b.jal      9790c <__lesf2>
   82226:	43 03 9e                	b.bgtsi    r3,0x0,8229f <Device_vInit+0x16eb>
   82229:	98 80 00 00 02 02       	b.ori      r4,r0,0x40400000
   8222f:	04 6c                   	b.mov      r3,r12
   82231:	4b 51 aa                	b.jal      9785c <__gesf2>
   82234:	45 03 d6                	b.bltsi    r3,0x0,8229f <Device_vInit+0x16eb>
   82237:	04 6e                   	b.mov      r3,r14
   82239:	49 f6 3a                	b.jal      993f7 <__extendsfdf2>
   8223c:	98 a0 21 4d 8d fc       	b.ori      r5,r0,0x3fb1b284
   82242:	98 c0 7b 49 cd 89       	b.ori      r6,r0,0x91b392de
   82248:	48 a5 9a                	b.jal      988dc <__muldf3>
   8224b:	05 43                   	b.mov      r10,r3
   8224d:	05 64                   	b.mov      r11,r4
   8224f:	04 6d                   	b.mov      r3,r13
   82251:	49 96 3a                	b.jal      993f7 <__extendsfdf2>
   82254:	98 a0 f4 ba 1f fd       	b.ori      r5,r0,0xbff85d2f
   8225a:	98 c0 17 a6 4e 3c       	b.ori      r6,r0,0x3c7265e8
   82260:	48 f9 9a                	b.jal      988dc <__muldf3>
   82263:	04 a3                   	b.mov      r5,r3
   82265:	04 c4                   	b.mov      r6,r4
   82267:	04 6a                   	b.mov      r3,r10
   82269:	04 8b                   	b.mov      r4,r11
   8226b:	49 29 ea                	b.jal      980bd <__adddf3>
   8226e:	05 43                   	b.mov      r10,r3
   82270:	05 64                   	b.mov      r11,r4
   82272:	04 6c                   	b.mov      r3,r12
   82274:	4b 06 3a                	b.jal      993f7 <__extendsfdf2>
   82277:	98 a0 64 20 0c 02       	b.ori      r5,r0,0x40300426
   8227d:	98 c0 5b 2b 33 39       	b.ori      r6,r0,0x9cccd4da
   82283:	4a 69 9a                	b.jal      988dc <__muldf3>
   82286:	04 a3                   	b.mov      r5,r3
   82288:	04 c4                   	b.mov      r6,r4
   8228a:	04 6a                   	b.mov      r3,r10
   8228c:	04 8b                   	b.mov      r4,r11
   8228e:	4b d1 ea                	b.jal      980bd <__adddf3>
   82291:	98 a0 bb ac 5c 02       	b.ori      r5,r0,0x403a35dd
   82297:	98 c0 82 25 6d fc       	b.ori      r6,r0,0x3fb6a441
   8229d:	0e cc                   	b.j        8236a <Device_vInit+0x17b6>
   8229f:	98 80 00 00 0f 82       	b.ori      r4,r0,0x41f00000
   822a5:	04 6c                   	b.mov      r3,r12
   822a7:	4a 99 aa                	b.jal      9790c <__lesf2>
   822aa:	d0 c0 3a 30             	b.bgtsi    r3,0x0,8236f <Device_vInit+0x17bb>
   822ae:	98 80 00 00 07 02       	b.ori      r4,r0,0x40e00000
   822b4:	04 6c                   	b.mov      r3,r12
   822b6:	49 96 aa                	b.jal      9785c <__gesf2>
   822b9:	d1 00 36 d0             	b.blesi    r3,0x0,8236f <Device_vInit+0x17bb>
   822bd:	04 6a                   	b.mov      r3,r10
   822bf:	48 72 3a                	b.jal      993f7 <__extendsfdf2>
   822c2:	98 a0 13 16 24 fc       	b.ori      r5,r0,0x3f2468c8
   822c8:	98 c0 3b f3 bc 9a       	b.ori      r6,r0,0x593dcfdc
   822ce:	54 61 10                	b.msw      0x8(r1),r3,0x0
   822d1:	4b 41 9a                	b.jal      988dc <__muldf3>
   822d4:	05 43                   	b.mov      r10,r3
   822d6:	05 64                   	b.mov      r11,r4
   822d8:	50 61 10                	b.mlwz     r3,0x8(r1),0x0
   822db:	98 a0 37 9d b1 fd       	b.ori      r5,r0,0xbf8db9ec
   822e1:	98 c0 76 a2 c6 60       	b.ori      r6,r0,0x663456e
   822e7:	4a be 9a                	b.jal      988dc <__muldf3>
   822ea:	04 a3                   	b.mov      r5,r3
   822ec:	04 c4                   	b.mov      r6,r4
   822ee:	04 6a                   	b.mov      r3,r10
   822f0:	04 8b                   	b.mov      r4,r11
   822f2:	4b 4e ea                	b.jal      980bd <__adddf3>
   822f5:	05 43                   	b.mov      r10,r3
   822f7:	05 64                   	b.mov      r11,r4
   822f9:	04 6e                   	b.mov      r3,r14
   822fb:	48 fc 3a                	b.jal      993f7 <__extendsfdf2>
   822fe:	98 a0 3a 86 07 fc       	b.ori      r5,r0,0x3fe0615c
   82304:	98 c0 f6 d4 40 43       	b.ori      r6,r0,0xc2022b6f
   8230a:	49 2e 9a                	b.jal      988dc <__muldf3>
   8230d:	04 a3                   	b.mov      r5,r3
   8230f:	04 c4                   	b.mov      r6,r4
   82311:	04 6a                   	b.mov      r3,r10
   82313:	04 8b                   	b.mov      r4,r11
   82315:	48 56 ea                	b.jal      980bd <__adddf3>
   82318:	05 43                   	b.mov      r10,r3
   8231a:	05 64                   	b.mov      r11,r4
   8231c:	04 6d                   	b.mov      r3,r13
   8231e:	4a 6c 3a                	b.jal      993f7 <__extendsfdf2>
   82321:	98 a0 a4 77 04 03       	b.ori      r5,r0,0xc020ee25
   82327:	98 c0 29 35 92 d0       	b.ori      r6,r0,0xb49ac94
   8232d:	4b d6 9a                	b.jal      988dc <__muldf3>
   82330:	04 a3                   	b.mov      r5,r3
   82332:	04 c4                   	b.mov      r6,r4
   82334:	04 6a                   	b.mov      r3,r10
   82336:	04 8b                   	b.mov      r4,r11
   82338:	4a 86 ea                	b.jal      980bd <__adddf3>
   8233b:	05 43                   	b.mov      r10,r3
   8233d:	05 64                   	b.mov      r11,r4
   8233f:	04 6c                   	b.mov      r3,r12
   82341:	49 b4 3a                	b.jal      993f7 <__extendsfdf2>
   82344:	98 a0 9e a7 0a 02       	b.ori      r5,r0,0x4050e579
   8234a:	98 c0 cc ac 54 37       	b.ori      r6,r0,0xec2a3533
   82350:	48 c6 9a                	b.jal      988dc <__muldf3>
   82353:	04 a3                   	b.mov      r5,r3
   82355:	04 c4                   	b.mov      r6,r4
   82357:	04 6a                   	b.mov      r3,r10
   82359:	04 8b                   	b.mov      r4,r11
   8235b:	49 1a ea                	b.jal      980bd <__adddf3>
   8235e:	98 a0 1b 2b 26 02       	b.ori      r5,r0,0x4064d4d8
   82364:	98 c0 16 4a 2a e2       	b.ori      r6,r0,0x47545268
   8236a:	49 7e 5a                	b.jal      98d64 <__subdf3>
   8236d:	0e 7a                   	b.j        824e6 <Device_vInit+0x1932>
   8236f:	98 80 00 00 13 c2       	b.ori      r4,r0,0x43c80000
   82375:	04 6c                   	b.mov      r3,r12
   82377:	4a a6 aa                	b.jal      9790c <__lesf2>
   8237a:	d0 c0 34 30             	b.bgtsi    r3,0x0,8243c <Device_vInit+0x1888>
   8237e:	98 80 00 00 0f 82       	b.ori      r4,r0,0x41f00000
   82384:	04 6c                   	b.mov      r3,r12
   82386:	49 ac aa                	b.jal      9785c <__gesf2>
   82389:	d1 00 3c d0             	b.blesi    r3,0x0,8243c <Device_vInit+0x1888>
   8238d:	04 6a                   	b.mov      r3,r10
   8238f:	48 58 3a                	b.jal      993f7 <__extendsfdf2>
   82392:	98 a0 39 a7 92 7d       	b.ori      r5,r0,0xbe49e59c
   82398:	98 c0 b0 ee 97 25       	b.ori      r6,r0,0xa4e9770d
   8239e:	54 61 10                	b.msw      0x8(r1),r3,0x0
   823a1:	4b 72 9a                	b.jal      988dc <__muldf3>
   823a4:	05 43                   	b.mov      r10,r3
   823a6:	05 64                   	b.mov      r11,r4
   823a8:	50 61 10                	b.mlwz     r3,0x8(r1),0x0
   823ab:	98 a0 54 0f 07 7c       	b.ori      r5,r0,0x3ee0f02a
   823b1:	98 c0 7e d5 77 50       	b.ori      r6,r0,0xaeeab7e
   823b7:	4a 92 9a                	b.jal      988dc <__muldf3>
   823ba:	04 a3                   	b.mov      r5,r3
   823bc:	04 c4                   	b.mov      r6,r4
   823be:	04 6a                   	b.mov      r3,r10
   823c0:	04 8b                   	b.mov      r4,r11
   823c2:	4b 7c ea                	b.jal      980bd <__adddf3>
   823c5:	05 43                   	b.mov      r10,r3
   823c7:	05 64                   	b.mov      r11,r4
   823c9:	04 6e                   	b.mov      r3,r14
   823cb:	48 d0 3a                	b.jal      993f7 <__extendsfdf2>
   823ce:	98 a0 82 d6 9a fd       	b.ori      r5,r0,0xbf596b41
   823d4:	98 c0 c9 54 20 28       	b.ori      r6,r0,0x14042a93
   823da:	49 02 9a                	b.jal      988dc <__muldf3>
   823dd:	04 a3                   	b.mov      r5,r3
   823df:	04 c4                   	b.mov      r6,r4
   823e1:	04 6a                   	b.mov      r3,r10
   823e3:	04 8b                   	b.mov      r4,r11
   823e5:	48 6c ea                	b.jal      980bd <__adddf3>
   823e8:	05 43                   	b.mov      r10,r3
   823ea:	05 64                   	b.mov      r11,r4
   823ec:	04 6d                   	b.mov      r3,r13
   823ee:	4a 40 3a                	b.jal      993f7 <__extendsfdf2>
   823f1:	98 a0 09 09 5d fc       	b.ori      r5,r0,0x3fba9090
   823f7:	98 c0 ec 36 ed dd       	b.ori      r6,r0,0xbbb76c37
   823fd:	4b ec 9a                	b.jal      988dc <__muldf3>
   82400:	04 a3                   	b.mov      r5,r3
   82402:	04 c4                   	b.mov      r6,r4
   82404:	04 6a                   	b.mov      r3,r10
   82406:	04 8b                   	b.mov      r4,r11
   82408:	4a b4 ea                	b.jal      980bd <__adddf3>
   8240b:	05 43                   	b.mov      r10,r3
   8240d:	05 64                   	b.mov      r11,r4
   8240f:	04 6c                   	b.mov      r3,r12
   82411:	49 9f da                	b.jal      993f7 <__extendsfdf2>
   82414:	98 a0 86 dd d7 fd       	b.ori      r5,r0,0xbfebbb61
   8241a:	98 c0 a6 88 4a 32       	b.ori      r6,r0,0x4c521165
   82420:	48 f4 9a                	b.jal      988dc <__muldf3>
   82423:	04 a3                   	b.mov      r5,r3
   82425:	04 c4                   	b.mov      r6,r4
   82427:	04 6a                   	b.mov      r3,r10
   82429:	04 8b                   	b.mov      r4,r11
   8242b:	49 24 ea                	b.jal      980bd <__adddf3>
   8242e:	98 a0 a5 f8 b2 02       	b.ori      r5,r0,0x404d1fa5
   82434:	98 c0 ff 54 5f 44       	b.ori      r6,r0,0x22fa2aff
   8243a:	0e 54                   	b.j        824e3 <Device_vInit+0x192f>
   8243c:	98 80 00 00 5e a2       	b.ori      r4,r0,0x457a0000
   82442:	04 6c                   	b.mov      r3,r12
   82444:	48 4c aa                	b.jal      9790c <__lesf2>
   82447:	d0 c0 32 50             	b.bgtsi    r3,0x0,824eb <Device_vInit+0x1937>
   8244b:	98 80 00 00 13 c2       	b.ori      r4,r0,0x43c80000
   82451:	04 6c                   	b.mov      r3,r12
   82453:	4a 40 aa                	b.jal      9785c <__gesf2>
   82456:	d1 00 3a 90             	b.blesi    r3,0x0,824eb <Device_vInit+0x1937>
   8245a:	04 6a                   	b.mov      r3,r10
   8245c:	4b 67 da                	b.jal      993f7 <__extendsfdf2>
   8245f:	98 a0 69 50 ed bd       	b.ori      r5,r0,0xbdb70a96
   82465:	98 c0 06 39 86 9b       	b.ori      r6,r0,0xd9619c60
   8246b:	4a 38 9a                	b.jal      988dc <__muldf3>
   8246e:	05 43                   	b.mov      r10,r3
   82470:	05 64                   	b.mov      r11,r4
   82472:	04 6e                   	b.mov      r3,r14
   82474:	4b 07 da                	b.jal      993f7 <__extendsfdf2>
   82477:	98 a0 92 45 91 7c       	b.ori      r5,r0,0x3e89a249
   8247d:	98 c0 ad 8e 7a 34       	b.ori      r6,r0,0x2c5e71b5
   82483:	4a 68 9a                	b.jal      988dc <__muldf3>
   82486:	04 a3                   	b.mov      r5,r3
   82488:	04 c4                   	b.mov      r6,r4
   8248a:	04 6a                   	b.mov      r3,r10
   8248c:	04 8b                   	b.mov      r4,r11
   8248e:	4b d0 ea                	b.jal      980bd <__adddf3>
   82491:	05 43                   	b.mov      r10,r3
   82493:	05 64                   	b.mov      r11,r4
   82495:	04 6d                   	b.mov      r3,r13
   82497:	48 1b da                	b.jal      993f7 <__extendsfdf2>
   8249a:	98 a0 64 6d c2 fd       	b.ori      r5,r0,0xbf43b626
   824a0:	98 c0 60 1a 5a e6       	b.ori      r6,r0,0x675a5806
   824a6:	49 b0 9a                	b.jal      988dc <__muldf3>
   824a9:	04 a3                   	b.mov      r5,r3
   824ab:	04 c4                   	b.mov      r6,r4
   824ad:	04 6a                   	b.mov      r3,r10
   824af:	04 8b                   	b.mov      r4,r11
   824b1:	48 c0 ea                	b.jal      980bd <__adddf3>
   824b4:	05 43                   	b.mov      r10,r3
   824b6:	05 64                   	b.mov      r11,r4
   824b8:	04 6c                   	b.mov      r3,r12
   824ba:	4a f3 da                	b.jal      993f7 <__extendsfdf2>
   824bd:	98 a0 c3 d4 b7 fc       	b.ori      r5,r0,0x3fed2bc3
   824c3:	98 c0 bc 99 69 09       	b.ori      r6,r0,0x9096993d
   824c9:	4b 20 9a                	b.jal      988dc <__muldf3>
   824cc:	04 a3                   	b.mov      r5,r3
   824ce:	04 c4                   	b.mov      r6,r4
   824d0:	04 6a                   	b.mov      r3,r10
   824d2:	04 8b                   	b.mov      r4,r11
   824d4:	4a 5f 6a                	b.jal      980bd <__adddf3>
   824d7:	98 a0 b1 37 cc 02       	b.ori      r5,r0,0x4033ec8d
   824dd:	98 c0 ac f5 0d 80       	b.ori      r6,r0,0x1b0af35
   824e3:	49 6f 6a                	b.jal      980bd <__adddf3>
   824e6:	48 17 da                	b.jal      99486 <__truncdfsf2>
   824e9:	0c 80                   	b.j        824ed <Device_vInit+0x1939>
   824eb:	00 60                   	b.movi     r3,0x0
   824ed:	98 80 00 00 5e 22       	b.ori      r4,r0,0x447a0000
   824f3:	2c 6f 38                	b.sw       0x1c(r15),r3
   824f6:	49 8c aa                	b.jal      979bc <__mulsf3>
   824f9:	48 2e ca                	b.jal      972c9 <__fixunssfsi>
   824fc:	04 83                   	b.mov      r4,r3
   824fe:	98 60 09 40 10 00       	b.ori      r3,r0,0x80290
   82504:	48 b8 02                	b.jal      92578 <dbg_vPrintfImplNoneVerbose>
   82507:	8c 60 5a e0 00 20       	b.lwz      r3,0x4000758(r0)
   8250d:	00 72                   	b.addi     r3,r3,0x4
   8250f:	49 48 dc                	b.jal      91159 <PDM_vSaveRecord>
   82512:	84 e0 3c 90 00 20       	b.lbz      r7,0x400093c(r0)
   82518:	9d c7 03 00 00 00       	b.sfnei    r7,0xc0
   8251e:	47 2a 60                	b.bf       82583 <Device_vInit+0x19cf>
   82521:	84 e0 2a 90 00 20       	b.lbz      r7,0x4000954(r0)
   82527:	d0 60 77 6c             	b.bnei     r7,0x1,82895 <Device_vInit+0x1ce1>
   8252b:	8c e0 7a e0 00 20       	b.lwz      r7,0x400075c(r0)
   82531:	28 67 94                	b.lhz      r3,0x28(r7)
   82534:	3e 03 1b                	b.exths    r3,r3
   82537:	49 8d 6a                	b.jal      97ffd <__floatsisf>
   8253a:	04 83                   	b.mov      r4,r3
   8253c:	98 60 04 a3 de d2       	b.ori      r3,r0,0x4b7bc520
   82542:	49 02 2a                	b.jal      97644 <__divsf3>
   82545:	98 80 00 02 72 a2       	b.ori      r4,r0,0x454e4000
   8254b:	4a f5 aa                	b.jal      97c08 <__subsf3>
   8254e:	05 63                   	b.mov      r11,r3
   82550:	4a 7a ca                	b.jal      972c9 <__fixunssfsi>
   82553:	04 83                   	b.mov      r4,r3
   82555:	98 60 d9 40 10 00       	b.ori      r3,r0,0x8029b
   8255b:	4a e0 02                	b.jal      92578 <dbg_vPrintfImplNoneVerbose>
   8255e:	98 80 59 99 98 fc       	b.ori      r4,r0,0x3f19999a
   82564:	04 6b                   	b.mov      r3,r11
   82566:	8d 40 7a e0 00 20       	b.lwz      r10,0x400075c(r0)
   8256c:	48 6c 2a                	b.jal      97644 <__divsf3>
   8256f:	2c 6a 24                	b.sw       0x24(r10),r3
   82572:	2c 6a 78                	b.lwz      r3,0x1c(r10)
   82575:	48 aa ca                	b.jal      972c9 <__fixunssfsi>
   82578:	04 83                   	b.mov      r4,r3
   8257a:	98 60 35 40 10 00       	b.ori      r3,r0,0x802ac
   82580:	46 e0 c0                	b.j        82887 <Device_vInit+0x1cd3>
   82583:	9f 47 03 00 00 00       	b.sfleui   r7,0xc0
   82589:	47 23 0c                	b.bf       82895 <Device_vInit+0x1ce1>
   8258c:	8c e0 7a e0 00 20       	b.lwz      r7,0x400075c(r0)
   82592:	28 67 94                	b.lhz      r3,0x28(r7)
   82595:	3e 03 1b                	b.exths    r3,r3
   82598:	4a 99 6a                	b.jal      97ffd <__floatsisf>
   8259b:	04 83                   	b.mov      r4,r3
   8259d:	98 60 04 a3 de d2       	b.ori      r3,r0,0x4b7bc520
   825a3:	4a 14 2a                	b.jal      97644 <__divsf3>
   825a6:	98 80 00 02 72 a2       	b.ori      r4,r0,0x454e4000
   825ac:	48 e9 aa                	b.jal      97c08 <__subsf3>
   825af:	05 43                   	b.mov      r10,r3
   825b1:	48 62 ca                	b.jal      972c9 <__fixunssfsi>
   825b4:	04 83                   	b.mov      r4,r3
   825b6:	98 60 d9 40 10 00       	b.ori      r3,r0,0x8029b
   825bc:	48 f7 fc                	b.jal      92578 <dbg_vPrintfImplNoneVerbose>
   825bf:	8c e0 7a e0 00 20       	b.lwz      r7,0x400075c(r0)
   825c5:	04 6a                   	b.mov      r3,r10
   825c7:	2c 87 64                	b.lwz      r4,0x24(r7)
   825ca:	2c e1 10                	b.sw       0x8(r1),r7
   825cd:	4b b8 2a                	b.jal      97644 <__divsf3>
   825d0:	05 83                   	b.mov      r12,r3
   825d2:	04 83                   	b.mov      r4,r3
   825d4:	48 5f 2a                	b.jal      979bc <__mulsf3>
   825d7:	04 8c                   	b.mov      r4,r12
   825d9:	05 c3                   	b.mov      r14,r3
   825db:	4a 1f 2a                	b.jal      979bc <__mulsf3>
   825de:	05 e3                   	b.mov      r15,r3
   825e0:	04 6c                   	b.mov      r3,r12
   825e2:	4a a1 da                	b.jal      993f7 <__extendsfdf2>
   825e5:	98 a0 bc 50 e3 fc       	b.ori      r5,r0,0x3fc70a3d
   825eb:	98 c0 50 eb c5 0e       	b.ori      r6,r0,0x70a3d70a
   825f1:	05 43                   	b.mov      r10,r3
   825f3:	05 64                   	b.mov      r11,r4
   825f5:	4b a1 1a                	b.jal      9880c <__ledf2>
   825f8:	d0 c0 32 10             	b.bgtsi    r3,0x0,8267c <Device_vInit+0x1ac8>
   825fc:	98 a0 cc cc c3 fc       	b.ori      r5,r0,0x3fc33333
   82602:	98 c0 cc cc cc cc       	b.ori      r6,r0,0x33333333
   82608:	04 6a                   	b.mov      r3,r10
   8260a:	04 8b                   	b.mov      r4,r11
   8260c:	4b 32 1a                	b.jal      9873f <__gedf2>
   8260f:	45 03 b6                	b.bltsi    r3,0x0,8267c <Device_vInit+0x1ac8>
   82612:	04 6f                   	b.mov      r3,r15
   82614:	4b 1e da                	b.jal      993f7 <__extendsfdf2>
   82617:	98 a0 a2 9a 0e 82       	b.ori      r5,r0,0x41705945
   8261d:	98 c0 12 87 5e 25       	b.ori      r6,r0,0xa47ae148
   82623:	4a 75 1a                	b.jal      988dc <__muldf3>
   82626:	05 83                   	b.mov      r12,r3
   82628:	05 a4                   	b.mov      r13,r4
   8262a:	04 6e                   	b.mov      r3,r14
   8262c:	4b 4e da                	b.jal      993f7 <__extendsfdf2>
   8262f:	98 a0 f8 c1 06 83       	b.ori      r5,r0,0xc160831f
   82635:	98 c0 fb f2 b1 cf       	b.ori      r6,r0,0xf38d4fdf
   8263b:	4a 15 1a                	b.jal      988dc <__muldf3>
   8263e:	04 a3                   	b.mov      r5,r3
   82640:	04 c4                   	b.mov      r6,r4
   82642:	04 6c                   	b.mov      r3,r12
   82644:	04 8d                   	b.mov      r4,r13
   82646:	4b b9 6a                	b.jal      980bd <__adddf3>
   82649:	98 a0 59 d8 6c 82       	b.ori      r5,r0,0x41361b9a
   8264f:	98 c0 ec 91 82 05       	b.ori      r6,r0,0xa0418937
   82655:	05 83                   	b.mov      r12,r3
   82657:	05 a4                   	b.mov      r13,r4
   82659:	04 6a                   	b.mov      r3,r10
   8265b:	04 8b                   	b.mov      r4,r11
   8265d:	4b f9 1a                	b.jal      988dc <__muldf3>
   82660:	04 a3                   	b.mov      r5,r3
   82662:	04 c4                   	b.mov      r6,r4
   82664:	04 6c                   	b.mov      r3,r12
   82666:	04 8d                   	b.mov      r4,r13
   82668:	4a a9 6a                	b.jal      980bd <__adddf3>
   8266b:	98 a0 81 29 cf 02       	b.ori      r5,r0,0x40f39481
   82671:	98 c0 73 55 f3 aa       	b.ori      r6,r0,0x55cfaace
   82677:	4a dd 9a                	b.jal      98d64 <__subdf3>
   8267a:	0c de                   	b.j        82866 <Device_vInit+0x1cb2>
   8267c:	98 a0 99 99 93 fc       	b.ori      r5,r0,0x3fc99999
   82682:	98 c0 59 99 99 99       	b.ori      r6,r0,0x9999999a
   82688:	04 6a                   	b.mov      r3,r10
   8268a:	04 8b                   	b.mov      r4,r11
   8268c:	48 06 1a                	b.jal      9880c <__ledf2>
   8268f:	43 03 ba                	b.bgtsi    r3,0x0,826ec <Device_vInit+0x1b38>
   82692:	98 a0 bc 50 e3 fc       	b.ori      r5,r0,0x3fc70a3d
   82698:	98 c0 50 eb c5 0e       	b.ori      r6,r0,0x70a3d70a
   8269e:	04 6a                   	b.mov      r3,r10
   826a0:	04 8b                   	b.mov      r4,r11
   826a2:	4a e4 1a                	b.jal      9873f <__gedf2>
   826a5:	44 03 e2                	b.blesi    r3,0x0,826ec <Device_vInit+0x1b38>
   826a8:	04 6e                   	b.mov      r3,r14
   826aa:	4a ca da                	b.jal      993f7 <__extendsfdf2>
   826ad:	98 a0 ce ca 69 02       	b.ori      r5,r0,0x40965373
   826b3:	98 c0 5e 9c 37 7d       	b.ori      r6,r0,0xbeec397a
   826b9:	4b 11 1a                	b.jal      988dc <__muldf3>
   826bc:	98 a0 fb d8 19 03       	b.ori      r5,r0,0xc0981bdf
   826c2:	98 c0 c2 3c 48 f4       	b.ori      r6,r0,0x2f123c43
   826c8:	05 83                   	b.mov      r12,r3
   826ca:	05 a4                   	b.mov      r13,r4
   826cc:	04 6a                   	b.mov      r3,r10
   826ce:	04 8b                   	b.mov      r4,r11
   826d0:	48 c1 1a                	b.jal      988dc <__muldf3>
   826d3:	04 a3                   	b.mov      r5,r3
   826d5:	04 c4                   	b.mov      r6,r4
   826d7:	04 6c                   	b.mov      r3,r12
   826d9:	04 8d                   	b.mov      r4,r13
   826db:	49 1e 6a                	b.jal      980bd <__adddf3>
   826de:	98 a0 60 ee ce 02       	b.ori      r5,r0,0x40737706
   826e4:	98 c0 a7 57 36 b6       	b.ori      r6,r0,0x6d6ceae5
   826ea:	0e 7a                   	b.j        82863 <Device_vInit+0x1caf>
   826ec:	04 8c                   	b.mov      r4,r12
   826ee:	04 6f                   	b.mov      r3,r15
   826f0:	48 cd 2a                	b.jal      979bc <__mulsf3>
   826f3:	98 a0 33 33 2b fc       	b.ori      r5,r0,0x3fd4cccc
   826f9:	98 c0 b3 33 33 33       	b.ori      r6,r0,0xcccccccd
   826ff:	05 83                   	b.mov      r12,r3
   82701:	04 8b                   	b.mov      r4,r11
   82703:	04 6a                   	b.mov      r3,r10
   82705:	4b 82 1a                	b.jal      9880c <__ledf2>
   82708:	d0 c0 3a 50             	b.bgtsi    r3,0x0,827ad <Device_vInit+0x1bf9>
   8270c:	98 a0 99 99 93 fc       	b.ori      r5,r0,0x3fc99999
   82712:	98 c0 59 99 99 99       	b.ori      r6,r0,0x9999999a
   82718:	04 6a                   	b.mov      r3,r10
   8271a:	04 8b                   	b.mov      r4,r11
   8271c:	4b 10 1a                	b.jal      9873f <__gedf2>
   8271f:	d1 00 37 10             	b.blesi    r3,0x0,827ad <Device_vInit+0x1bf9>
   82723:	04 6c                   	b.mov      r3,r12
   82725:	49 2c da                	b.jal      993f7 <__extendsfdf2>
   82728:	98 a0 29 97 20 83       	b.ori      r5,r0,0xc104e994
   8272e:	98 c0 04 4b f6 fb       	b.ori      r6,r0,0xdf6fd220
   82734:	48 56 1a                	b.jal      988dc <__muldf3>
   82737:	05 83                   	b.mov      r12,r3
   82739:	05 a4                   	b.mov      r13,r4
   8273b:	04 6f                   	b.mov      r3,r15
   8273d:	49 74 da                	b.jal      993f7 <__extendsfdf2>
   82740:	98 a0 88 fc 40 82       	b.ori      r5,r0,0x41023f11
   82746:	98 c0 f2 02 c8 87       	b.ori      r6,r0,0xe113404f
   8274c:	48 26 1a                	b.jal      988dc <__muldf3>
   8274f:	04 a3                   	b.mov      r5,r3
   82751:	04 c4                   	b.mov      r6,r4
   82753:	04 6c                   	b.mov      r3,r12
   82755:	04 8d                   	b.mov      r4,r13
   82757:	49 9a 6a                	b.jal      980bd <__adddf3>
   8275a:	05 83                   	b.mov      r12,r3
   8275c:	05 a4                   	b.mov      r13,r4
   8275e:	04 6e                   	b.mov      r3,r14
   82760:	4b a4 da                	b.jal      993f7 <__extendsfdf2>
   82763:	98 a0 31 77 27 03       	b.ori      r5,r0,0xc0e4ee8c
   82769:	98 c0 4f de d9 7f       	b.ori      r6,r0,0xfe9b7bf2
   8276f:	4a da 1a                	b.jal      988dc <__muldf3>
   82772:	04 a3                   	b.mov      r5,r3
   82774:	04 c4                   	b.mov      r6,r4
   82776:	04 6c                   	b.mov      r3,r12
   82778:	04 8d                   	b.mov      r4,r13
   8277a:	4b 0a 6a                	b.jal      980bd <__adddf3>
   8277d:	98 a0 d9 28 b5 02       	b.ori      r5,r0,0x40ad149b
   82783:	98 c0 7d b2 fe 6f       	b.ori      r6,r0,0xf67f4dbe
   82789:	05 83                   	b.mov      r12,r3
   8278b:	05 a4                   	b.mov      r13,r4
   8278d:	04 6a                   	b.mov      r3,r10
   8278f:	04 8b                   	b.mov      r4,r11
   82791:	4b 4a 1a                	b.jal      988dc <__muldf3>
   82794:	04 a3                   	b.mov      r5,r3
   82796:	04 c4                   	b.mov      r6,r4
   82798:	04 6c                   	b.mov      r3,r12
   8279a:	04 8d                   	b.mov      r4,r13
   8279c:	4a 12 6a                	b.jal      980bd <__adddf3>
   8279f:	98 a0 cd 68 da 02       	b.ori      r5,r0,0x405b16b3
   827a5:	98 c0 4f 6d 4b d6       	b.ori      r6,r0,0x6bd2b6f2
   827ab:	0c 74                   	b.j        82863 <Device_vInit+0x1caf>
   827ad:	98 a0 cc cc c7 fc       	b.ori      r5,r0,0x3fe33333
   827b3:	98 c0 cc cc cc cc       	b.ori      r6,r0,0x33333333
   827b9:	04 6a                   	b.mov      r3,r10
   827bb:	04 8b                   	b.mov      r4,r11
   827bd:	4b c8 1a                	b.jal      9880c <__ledf2>
   827c0:	d0 c0 3d 50             	b.bgtsi    r3,0x0,8286b <Device_vInit+0x1cb7>
   827c4:	98 a0 33 33 2b fc       	b.ori      r5,r0,0x3fd4cccc
   827ca:	98 c0 b3 33 33 33       	b.ori      r6,r0,0xcccccccd
   827d0:	04 6a                   	b.mov      r3,r10
   827d2:	04 8b                   	b.mov      r4,r11
   827d4:	4b 5b ea                	b.jal      9873f <__gedf2>
   827d7:	d1 00 32 90             	b.blesi    r3,0x0,8286b <Device_vInit+0x1cb7>
   827db:	04 6c                   	b.mov      r3,r12
   827dd:	49 60 da                	b.jal      993f7 <__extendsfdf2>
   827e0:	98 a0 ab 0a 59 02       	b.ori      r5,r0,0x409a50d5
   827e6:	98 c0 d1 0e c9 8a       	b.ori      r6,r0,0x5193708b
   827ec:	48 3c 1a                	b.jal      988dc <__muldf3>
   827ef:	05 83                   	b.mov      r12,r3
   827f1:	05 a4                   	b.mov      r13,r4
   827f3:	04 6f                   	b.mov      r3,r15
   827f5:	49 00 da                	b.jal      993f7 <__extendsfdf2>
   827f8:	98 a0 0a ba 75 03       	b.ori      r5,r0,0xc0ae5d50
   827fe:	98 c0 3a c0 da a4       	b.ori      r6,r0,0x255b035c
   82804:	48 6c 1a                	b.jal      988dc <__muldf3>
   82807:	04 a3                   	b.mov      r5,r3
   82809:	04 c4                   	b.mov      r6,r4
   8280b:	04 6c                   	b.mov      r3,r12
   8280d:	04 8d                   	b.mov      r4,r13
   8280f:	49 d4 6a                	b.jal      980bd <__adddf3>
   82812:	05 83                   	b.mov      r12,r3
   82814:	05 a4                   	b.mov      r13,r4
   82816:	04 6e                   	b.mov      r3,r14
   82818:	4b ef 5a                	b.jal      993f7 <__extendsfdf2>
   8281b:	98 a0 ca e4 55 02       	b.ori      r5,r0,0x40aa2753
   82821:	98 c0 69 9a 21 46       	b.ori      r6,r0,0x62845996
   82827:	4a b4 1a                	b.jal      988dc <__muldf3>
   8282a:	04 a3                   	b.mov      r5,r3
   8282c:	04 c4                   	b.mov      r6,r4
   8282e:	04 6c                   	b.mov      r3,r12
   82830:	04 8d                   	b.mov      r4,r13
   82832:	4b 44 6a                	b.jal      980bd <__adddf3>
   82835:	98 a0 70 98 29 03       	b.ori      r5,r0,0xc094190e
   8283b:	98 c0 5d 05 7d a6       	b.ori      r6,r0,0x65bea0ba
   82841:	05 83                   	b.mov      r12,r3
   82843:	05 a4                   	b.mov      r13,r4
   82845:	04 6a                   	b.mov      r3,r10
   82847:	04 8b                   	b.mov      r4,r11
   82849:	4b 24 1a                	b.jal      988dc <__muldf3>
   8284c:	04 a3                   	b.mov      r5,r3
   8284e:	04 c4                   	b.mov      r6,r4
   82850:	04 6c                   	b.mov      r3,r12
   82852:	04 8d                   	b.mov      r4,r13
   82854:	4a 58 6a                	b.jal      980bd <__adddf3>
   82857:	98 a0 57 59 e6 02       	b.ori      r5,r0,0x40679aea
   8285d:	98 c0 da c8 83 77       	b.ori      r6,r0,0xeec1135b
   82863:	49 68 6a                	b.jal      980bd <__adddf3>
   82866:	48 10 da                	b.jal      99486 <__truncdfsf2>
   82869:	0c 80                   	b.j        8286d <Device_vInit+0x1cb9>
   8286b:	00 60                   	b.movi     r3,0x0
   8286d:	2c e1 50                	b.lwz      r7,0x8(r1)
   82870:	98 80 00 00 5e 22       	b.ori      r4,r0,0x447a0000
   82876:	2c 67 38                	b.sw       0x1c(r7),r3
   82879:	4b 0a 2a                	b.jal      979bc <__mulsf3>
   8287c:	4a c9 4a                	b.jal      972c9 <__fixunssfsi>
   8287f:	04 83                   	b.mov      r4,r3
   82881:	98 60 ed 40 10 00       	b.ori      r3,r0,0x802b7
   82887:	4a 3c fc                	b.jal      92578 <dbg_vPrintfImplNoneVerbose>
   8288a:	8c 60 7a e0 00 20       	b.lwz      r3,0x400075c(r0)
   82890:	00 72                   	b.addi     r3,r3,0x4
   82892:	4b 8c 5c                	b.jal      91159 <PDM_vSaveRecord>
   82895:	85 40 3c 90 00 20       	b.lbz      r10,0x400093c(r0)
   8289b:	38 e0 3c                	b.ori      r7,r0,0x3c
   8289e:	65 4a 3b                	b.mul      r10,r10,r7
   828a1:	8c e0 46 e0 00 20       	b.lwz      r7,0x4000760(r0)
   828a7:	80 00 2a 90 00 20       	b.sb       0x4000954(r0),r0
   828ad:	2c c7 70                	b.lwz      r6,0xc(r7)
   828b0:	8c 00 1b 10 00 20       	b.sw       0x40008d8(r0),r0
   828b6:	40 06 58                	b.beqi     r6,0x0,828d0 <Device_vInit+0x1d1c>
   828b9:	d3 cc a8 80             	b.bgtu     r6,r10,828ca <Device_vInit+0x1d16>
   828bd:	2c 07 30                	b.sw       0xc(r7),r0
   828c0:	00 68                   	b.movi     r3,0x1
   828c2:	28 07 60                	b.sh       0x6(r7),r0
   828c5:	48 2b 92                	b.jal      95015 <Device_vReset>
   828c8:	0c 40                   	b.j        828d0 <Device_vInit+0x1d1c>
   828ca:	60 c6 55                	b.sub      r6,r6,r10
   828cd:	28 c7 60                	b.sh       0x6(r7),r6
   828d0:	8c e0 46 e0 00 20       	b.lwz      r7,0x4000760(r0)
   828d6:	2c c7 50                	b.lwz      r6,0x8(r7)
   828d9:	40 06 58                	b.beqi     r6,0x0,828f3 <Device_vInit+0x1d3f>
   828dc:	d3 cc a8 80             	b.bgtu     r6,r10,828ed <Device_vInit+0x1d39>
   828e0:	2c 07 10                	b.sw       0x8(r7),r0
   828e3:	00 60                   	b.movi     r3,0x0
   828e5:	28 07 20                	b.sh       0x4(r7),r0
   828e8:	4a d3 92                	b.jal      95015 <Device_vReset>
   828eb:	0c 40                   	b.j        828f3 <Device_vInit+0x1d3f>
   828ed:	61 46 55                	b.sub      r10,r6,r10
   828f0:	29 47 20                	b.sh       0x4(r7),r10
   828f3:	8d 40 47 10 00 20       	b.lwz      r10,0x40008e0(r0)
   828f9:	84 c0 3c 90 00 20       	b.lbz      r6,0x400093c(r0)
   828ff:	38 e0 3c                	b.ori      r7,r0,0x3c
   82902:	64 c6 3b                	b.mul      r6,r6,r7
   82905:	2c ea 7c                	b.lwz      r7,0x3c(r10)
   82908:	2c ca 3c                	b.sw       0x3c(r10),r6
   8290b:	60 e6 3d                	b.sub      r7,r6,r7
   8290e:	24 ca 4c                	b.lbz      r6,0x32(r10)
   82911:	40 06 84                	b.beqi     r6,0x0,82932 <Device_vInit+0x1d7e>
   82914:	8c a0 7e e0 00 20       	b.lwz      r5,0x400077c(r0)
   8291a:	2c ca 6c                	b.lwz      r6,0x34(r10)
   8291d:	d3 8c 5a 80             	b.bgeu     r6,r5,82932 <Device_vInit+0x1d7e>
   82921:	60 c5 35                	b.sub      r6,r5,r6
   82924:	9f 46 ff f0 00 00       	b.sfleui   r6,0xfff
   8292a:	47 21 00                	b.bf       82932 <Device_vInit+0x1d7e>
   8292d:	00 c8                   	b.movi     r6,0x1
   8292f:	20 ca 0c                	b.sb       0x30(r10),r6
   82932:	2c ca 74                	b.lwz      r6,0x2c(r10)
   82935:	2c aa 5c                	b.lwz      r5,0x38(r10)
   82938:	08 c7                   	b.add      r6,r6,r7
   8293a:	2c ca 34                	b.sw       0x2c(r10),r6
   8293d:	60 c6 2d                	b.sub      r6,r6,r5
   82940:	9f 46 08 70 00 00       	b.sfleui   r6,0xe10
   82946:	47 28 80                	b.bf       82957 <Device_vInit+0x1da3>
   82949:	00 c8                   	b.movi     r6,0x1
   8294b:	20 ca 0c                	b.sb       0x30(r10),r6
   8294e:	2c ca 42                	b.lwz      r6,0x40(r10)
   82951:	38 c6 80                	b.ori      r6,r6,0x1
   82954:	2c ca 02                	b.sw       0x40(r10),r6
   82957:	24 ca 8c                	b.lbz      r6,0x31(r10)
   8295a:	40 06 b8                	b.beqi     r6,0x0,82977 <Device_vInit+0x1dc3>
   8295d:	2c 6a 44                	b.lwz      r3,0x20(r10)
   82960:	d8 80 08 70             	b.addi     r4,r0,0xe10
   82964:	08 67                   	b.add      r3,r3,r7
   82966:	2c 6a 04                	b.sw       0x20(r10),r3
   82969:	4b 23 8a                	b.jal      9707c <__umodsi3>
   8296c:	41 03 64                	b.bnei     r3,0x0,82992 <Device_vInit+0x1dde>
   8296f:	2c ea 42                	b.lwz      r7,0x40(r10)
   82972:	38 e7 20                	b.ori      r7,r7,0x4
   82975:	0d 60                   	b.j        8298f <Device_vInit+0x1ddb>
   82977:	2c 6a 64                	b.lwz      r3,0x24(r10)
   8297a:	d8 80 08 70             	b.addi     r4,r0,0xe10
   8297e:	08 67                   	b.add      r3,r3,r7
   82980:	2c 6a 24                	b.sw       0x24(r10),r3
   82983:	4a 7d 8a                	b.jal      9707c <__umodsi3>
   82986:	41 03 30                	b.bnei     r3,0x0,82992 <Device_vInit+0x1dde>
   82989:	2c ea 42                	b.lwz      r7,0x40(r10)
   8298c:	38 e7 10                	b.ori      r7,r7,0x8
   8298f:	2c ea 02                	b.sw       0x40(r10),r7
   82992:	24 ea 0c                	b.lbz      r7,0x30(r10)
   82995:	40 07 78                	b.beqi     r7,0x0,829b3 <Device_vInit+0x1dff>
   82998:	8c e0 7e e0 00 20       	b.lwz      r7,0x400077c(r0)
   8299e:	20 0a 0c                	b.sb       0x30(r10),r0
   829a1:	30 6a 20                	b.addi     r3,r10,0x4
   829a4:	2c ea 14                	b.sw       0x28(r10),r7
   829a7:	2c ea 2c                	b.sw       0x34(r10),r7
   829aa:	2c ea 74                	b.lwz      r7,0x2c(r10)
   829ad:	2c ea 1c                	b.sw       0x38(r10),r7
   829b0:	4a 57 9c                	b.jal      91159 <PDM_vSaveRecord>
   829b3:	8c e0 4b 10 00 20       	b.lwz      r7,0x40008d0(r0)
   829b9:	84 a0 3c 90 00 20       	b.lbz      r5,0x400093c(r0)
   829bf:	40 07 b2                	b.beqi     r7,0x0,82a0c <Device_vInit+0x1e58>
   829c2:	38 c0 3c                	b.ori      r6,r0,0x3c
   829c5:	64 c5 33                	b.mul      r6,r5,r6
   829c8:	d3 ce 6d c0             	b.bgtu     r7,r6,82a03 <Device_vInit+0x1e4f>
   829cc:	00 60                   	b.movi     r3,0x0
   829ce:	8c 00 0b 10 00 20       	b.sw       0x40008d0(r0),r0
   829d4:	88 00 31 10 00 20       	b.sh       0x400088c(r0),r0
   829da:	8c 00 38 10 00 20       	b.sw       0x400081c(r0),r0
   829e0:	8c 00 04 10 00 20       	b.sw       0x4000820(r0),r0
   829e6:	8c 00 24 10 00 20       	b.sw       0x4000824(r0),r0
   829ec:	8c 00 14 10 00 20       	b.sw       0x4000828(r0),r0
   829f2:	80 00 18 10 00 20       	b.sb       0x4000818(r0),r0
   829f8:	88 00 58 10 00 20       	b.sh       0x400081a(r0),r0
   829fe:	4b a1 92                	b.jal      95015 <Device_vReset>
   82a01:	0f 40                   	b.j        82a0c <Device_vInit+0x1e58>
   82a03:	60 e7 35                	b.sub      r7,r7,r6
   82a06:	88 e0 31 10 00 20       	b.sh       0x400088c(r0),r7
   82a0c:	84 e0 a7 10 00 20       	b.lbz      r7,0x40008e5(r0)
   82a12:	3e 07 38                	b.extbz    r7,r7
   82a15:	d0 00 77 50             	b.beqi     r7,0x0,82ac3 <Device_vInit+0x1f0f>
   82a19:	8d 40 47 10 00 20       	b.lwz      r10,0x40008e0(r0)
   82a1f:	80 00 a7 10 00 20       	b.sb       0x40008e5(r0),r0
   82a25:	2c ca 42                	b.lwz      r6,0x40(r10)
   82a28:	34 e6 f0                	b.andi     r7,r6,0xf
   82a2b:	d0 00 71 90             	b.beqi     r7,0x0,82ac3 <Device_vInit+0x1f0f>
   82a2f:	8c e0 4f 10 00 20       	b.lwz      r7,0x40008f0(r0)
   82a35:	2d 8a 40                	b.lwz      r12,0x0(r10)
   82a38:	d0 50 7d 10             	b.bnei     r7,0x2,82ac3 <Device_vInit+0x1f0f>
   82a3c:	84 e0 3b 10 00 20       	b.lbz      r7,0x40008dc(r0)
   82a42:	d0 00 78 10             	b.beqi     r7,0x0,82ac3 <Device_vInit+0x1f0f>
   82a46:	2c ac 60                	b.lwz      r5,0x4(r12)
   82a49:	38 e0 f0                	b.ori      r7,r0,0xf
   82a4c:	98 60 43 40 10 00       	b.ori      r3,r0,0x802c2
   82a52:	98 80 2f 10 00 20       	b.ori      r4,r0,0x40008f4
   82a58:	01 02                   	b.movi     r8,0x4
   82a5a:	49 e3 7c                	b.jal      92578 <dbg_vPrintfImplNoneVerbose>
   82a5d:	00 68                   	b.movi     r3,0x1
   82a5f:	49 bf ac                	b.jal      90255 <Node_vDebugIndent.part.3.1912>
   82a62:	2c ea 42                	b.lwz      r7,0x40(r10)
   82a65:	34 c7 80                	b.andi     r6,r7,0x1
   82a68:	41 06 78                	b.bnei     r6,0x0,82a86 <Device_vInit+0x1ed2>
   82a6b:	34 c7 40                	b.andi     r6,r7,0x2
   82a6e:	41 06 04                	b.bnei     r6,0x0,82a8e <Device_vInit+0x1eda>
   82a71:	34 c7 20                	b.andi     r6,r7,0x4
   82a74:	41 06 44                	b.bnei     r6,0x0,82a96 <Device_vInit+0x1ee2>
   82a77:	34 c7 10                	b.andi     r6,r7,0x8
   82a7a:	40 06 22                	b.beqi     r6,0x0,82abe <Device_vInit+0x1f0a>
   82a7d:	01 6c                   	b.movi     r11,0x3
   82a7f:	38 a0 10                	b.ori      r5,r0,0x8
   82a82:	00 cc                   	b.movi     r6,0x3
   82a84:	0c 60                   	b.j        82a9c <Device_vInit+0x1ee8>
   82a86:	01 60                   	b.movi     r11,0x0
   82a88:	00 a8                   	b.movi     r5,0x1
   82a8a:	00 c0                   	b.movi     r6,0x0
   82a8c:	0c 20                   	b.j        82a9c <Device_vInit+0x1ee8>
   82a8e:	01 68                   	b.movi     r11,0x1
   82a90:	00 a4                   	b.movi     r5,0x2
   82a92:	00 c8                   	b.movi     r6,0x1
   82a94:	0c 40                   	b.j        82a9c <Device_vInit+0x1ee8>
   82a96:	01 64                   	b.movi     r11,0x2
   82a98:	00 a2                   	b.movi     r5,0x4
   82a9a:	00 c4                   	b.movi     r6,0x2
   82a9c:	60 a5 2b                	b.nand     r5,r5,r5
   82a9f:	60 e5 38                	b.and      r7,r5,r7
   82aa2:	98 60 0f 40 10 00       	b.ori      r3,r0,0x802f0
   82aa8:	98 80 2f 10 00 20       	b.ori      r4,r0,0x40008f4
   82aae:	2c ac 60                	b.lwz      r5,0x4(r12)
   82ab1:	2c ea 02                	b.sw       0x40(r10),r7
   82ab4:	48 8d 7c                	b.jal      92578 <dbg_vPrintfImplNoneVerbose>
   82ab7:	04 6c                   	b.mov      r3,r12
   82ab9:	04 8b                   	b.mov      r4,r11
   82abb:	4a ad 82                	b.jal      93190 <vJIP_NotifyChanged>
   82abe:	00 68                   	b.movi     r3,0x1
   82ac0:	48 9f ac                	b.jal      902a4 <Node_vDebugOutdent.part.4.1915>
   82ac3:	8c e0 4f 10 00 20       	b.lwz      r7,0x40008f0(r0)
   82ac9:	41 47 60                	b.bnei     r7,0x2,82acf <Device_vInit+0x1f1b>
   82acc:	48 26 10                	b.jal      84c5c <v6LP_Tick>
   82acf:	8c e0 4f 10 00 20       	b.lwz      r7,0x40008f0(r0)
   82ad5:	41 07 28                	b.bnei     r7,0x0,82ae9 <Device_vInit+0x1f35>
   82ad8:	00 e8                   	b.movi     r7,0x1
   82ada:	80 e0 67 10 00 20       	b.sb       0x40008e6(r0),r7
   82ae0:	00 60                   	b.movi     r3,0x0
   82ae2:	00 80                   	b.movi     r4,0x0
   82ae4:	49 2e 28                	b.jal      87cb6 <vAHI_DioSetOutput>
   82ae7:	0d c0                   	b.j        82af5 <Device_vInit+0x1f41>
   82ae9:	84 e0 67 10 00 20       	b.lbz      r7,0x40008e6(r0)
   82aef:	41 07 60                	b.bnei     r7,0x0,82af5 <Device_vInit+0x1f41>
   82af2:	48 16 28                	b.jal      87c92 <vAHI_CpuDoze>
   82af5:	84 e0 67 10 00 20       	b.lbz      r7,0x40008e6(r0)
   82afb:	a0 00 7c 07 7f ff       	b.beqi     r7,0x0,818fe <Device_vInit+0xd4a>
   82b01:	00 68                   	b.movi     r3,0x1
   82b03:	4a 17 ac                	b.jal      902a4 <Node_vDebugOutdent.part.4.1915>
   82b06:	98 80 2f 10 00 20       	b.ori      r4,r0,0x40008f4
   82b0c:	98 60 70 c0 10 00       	b.ori      r3,r0,0x8030e
   82b12:	49 99 7c                	b.jal      92578 <dbg_vPrintfImplNoneVerbose>
   82b15:	00 68                   	b.movi     r3,0x1
   82b17:	49 f3 ac                	b.jal      90255 <Node_vDebugIndent.part.3.1912>
   82b1a:	98 60 84 c0 10 00       	b.ori      r3,r0,0x80321
   82b20:	98 80 2f 10 00 20       	b.ori      r4,r0,0x40008f4
   82b26:	49 29 7c                	b.jal      92578 <dbg_vPrintfImplNoneVerbose>
   82b29:	00 68                   	b.movi     r3,0x1
   82b2b:	49 53 ac                	b.jal      90255 <Node_vDebugIndent.part.3.1912>
   82b2e:	8c e0 4f 10 00 20       	b.lwz      r7,0x40008f0(r0)
   82b34:	41 47 72                	b.bnei     r7,0x2,82b82 <Device_vInit+0x1fce>
   82b37:	98 60 4c c0 10 00       	b.ori      r3,r0,0x80332
   82b3d:	98 80 2f 10 00 20       	b.ori      r4,r0,0x40008f4
   82b43:	98 a0 05 dd b0 00       	b.ori      r5,r0,0xdbba0
   82b49:	99 40 00 2e ed 80       	b.ori      r10,r0,0x1b77400
   82b4f:	4a 51 7c                	b.jal      92578 <dbg_vPrintfImplNoneVerbose>
   82b52:	30 61 24                	b.addi     r3,r1,0x24
   82b55:	4a 28 30                	b.jal      85ba6 <vMicroIntEnableOnly.constprop.108>
   82b58:	8c e0 77 10 00 20       	b.lwz      r7,0x40008ec(r0)
   82b5e:	c4 e7 26 80             	b.lbz      r7,0x164(r7)
   82b62:	3c 07 f0                	b.sfeqi    r7,0xf
   82b65:	47 24 80                	b.bf       82b77 <Device_vInit+0x1fc3>
   82b68:	8c e0 57 10 00 20       	b.lwz      r7,0x40008e8(r0)
   82b6e:	00 60                   	b.movi     r3,0x0
   82b70:	cd 47 04 80             	b.sw       0x120(r7),r10
   82b74:	49 dd 6c                	b.jal      90662 <vApi_Sleep>
   82b77:	4a 9c 10                	b.jal      84c5c <v6LP_Tick>
   82b7a:	30 61 24                	b.addi     r3,r1,0x24
   82b7d:	4a fa b0                	b.jal      860fa <vMicroIntRestoreState>
   82b80:	0d 2f                   	b.j        82b52 <Device_vInit+0x1f9e>
   82b82:	cc f0 44 09             	b.lwz      r7,-0x6fe0(r16)
   82b86:	34 e7 80                	b.andi     r7,r7,0x1
   82b89:	40 07 7c                	b.beqi     r7,0x0,82bc7 <Device_vInit+0x2013>
   82b8c:	00 60                   	b.movi     r3,0x0
   82b8e:	48 10 f0                	b.jal      867ae <u64AHI_WakeTimerReadLarge.part.5.25356>
   82b91:	9e c3 ff 80 00 00       	b.sfgtui   r3,0x1ff
   82b97:	47 2a 80                	b.bf       82bac <Device_vInit+0x1ff8>
   82b9a:	9d c3 ff 80 00 00       	b.sfnei    r3,0x1ff
   82ba0:	47 2e 40                	b.bf       82bc7 <Device_vInit+0x2013>
   82ba3:	9e c4 7f f4 44 9f       	b.sfgtui   r4,-0x6ddd002
   82ba9:	47 37 80                	b.bnf      82bc7 <Device_vInit+0x2013>
   82bac:	98 a0 00 17 76 c0       	b.ori      r5,r0,0x36ee800
   82bb2:	00 60                   	b.movi     r3,0x0
   82bb4:	00 80                   	b.movi     r4,0x0
   82bb6:	4b 28 f0                	b.jal      86809 <vAHI_WakeTimerStartLarge.part.2.25345>
   82bb9:	8c e0 70 50 00 20       	b.lwz      r7,0x4000a0c(r0)
   82bbf:	00 f8                   	b.addi     r7,r7,0x1
   82bc1:	8c e0 30 50 00 20       	b.sw       0x4000a0c(r0),r7
   82bc7:	98 60 4a c0 10 00       	b.ori      r3,r0,0x80352
   82bcd:	98 80 2f 10 00 20       	b.ori      r4,r0,0x40008f4
   82bd3:	4a 96 7c                	b.jal      92578 <dbg_vPrintfImplNoneVerbose>
   82bd6:	00 60                   	b.movi     r3,0x0
   82bd8:	49 f0 62                	b.jal      94416 <vAHI_Sleep>
   82bdb:	00 ea                   	b.movi     r7,0x5
   82bdd:	80 e0 0a 00 00 20       	b.sb       0x4000050(r0),r7
   82be3:	98 e0 e8 21 10 00       	b.ori      r7,r0,0x88417
   82be9:	8c e0 02 90 00 20       	b.sw       0x4000940(r0),r7
   82bef:	98 e0 fe c1 10 00       	b.ori      r7,r0,0x8837f
   82bf5:	8c e0 30 60 00 20       	b.sw       0x400060c(r0),r7
   82bfb:	98 e0 f2 c1 10 00       	b.ori      r7,r0,0x8834f
   82c01:	8c e0 10 60 00 20       	b.sw       0x4000608(r0),r7
   82c07:	98 e0 28 a0 90 00       	b.ori      r7,r0,0x90514
   82c0d:	8c e0 22 90 00 20       	b.sw       0x4000944(r0),r7
   82c13:	98 e0 9f 41 10 00       	b.ori      r7,r0,0x882f9
   82c19:	8c e0 12 90 00 20       	b.sw       0x4000948(r0),r7
   82c1f:	80 00 08 60 00 20       	b.sb       0x4000610(r0),r0
   82c25:	49 3f a8                	b.jal      88417 <DBG_vUartInitHardware>
   82c28:	cc f0 40 09             	b.lwz      r7,-0x7000(r16)
   82c2c:	98 e7 00 00 00 10       	b.ori      r7,r7,0x8000000
   82c32:	cc f0 00 09             	b.sw       -0x7000(r16),r7
   82c36:	00 60                   	b.movi     r3,0x0
   82c38:	00 84                   	b.movi     r4,0x2
   82c3a:	49 2b c8                	b.jal      87b8c <vAHI_UartSetBaudDivisor.part.1.25085>
   82c3d:	d8 c0 04 0d             	b.addi     r6,r0,-0x4fe0
   82c41:	04 e6                   	b.mov      r7,r6
   82c43:	08 f0                   	b.add      r7,r7,r16
   82c45:	08 d0                   	b.add      r6,r6,r16
   82c47:	2c c6 40                	b.lwz      r6,0x0(r6)
   82c4a:	94 c6 0f ff ff ff       	b.andi     r6,r6,0xfffffff0
   82c50:	38 c6 10                	b.ori      r6,r6,0x8
   82c53:	2c c7 00                	b.sw       0x0(r7),r6
   82c56:	8c e0 65 08 00 20       	b.lwz      r7,0x40010a4(r0)
   82c5c:	a0 40 71 9f bf ff       	b.bnei     r7,0x0,80bf4 <Device_vInit+0x40>
   82c62:	46 9e fb                	b.j        80bdb <Device_vInit+0x27>
   82c65:	98 e0 40 00 17 01       	b.ori      r7,r0,0x80e80002
   82c6b:	98 c0 cb d0 20 bf       	b.ori      r6,r0,0xfd040bd3
   82c71:	38 80 0b                	b.ori      r4,r0,0xd0
   82c74:	00 a8                   	b.movi     r5,0x1
   82c76:	2c e1 3e                	b.sw       0x7c(r1),r7
   82c79:	8c e0 45 10 00 20       	b.lwz      r7,0x40008a0(r0)
   82c7f:	8c 60 65 08 00 20       	b.lwz      r3,0x40010a4(r0)
   82c85:	2c e1 01                	b.sw       0x80(r1),r7
   82c88:	88 e0 a5 10 00 20       	b.lhz      r7,0x40008a4(r0)
   82c8e:	2c c1 1e                	b.sw       0x78(r1),r6
   82c91:	00 cc                   	b.movi     r6,0x3
   82c93:	28 e1 21                	b.sh       0x84(r1),r7
   82c96:	00 e2                   	b.movi     r7,0x4
   82c98:	28 e1 11                	b.sh       0x88(r1),r7
   82c9b:	00 e4                   	b.movi     r7,0x2
   82c9d:	20 e1 51                	b.sb       0x8a(r1),r7
   82ca0:	20 e1 31                	b.sb       0x8c(r1),r7
   82ca3:	d8 e0 ca e0             	b.addi     r7,r0,0x753
   82ca7:	28 01 61                	b.sh       0x86(r1),r0
   82caa:	20 c1 d1                	b.sb       0x8b(r1),r6
   82cad:	2c 01 09                	b.sw       0x90(r1),r0
   82cb0:	28 e1 19                	b.sh       0x98(r1),r7
   82cb3:	4b bd 30                	b.jal      85faa <pvHeap_Alloc>
   82cb6:	8c 60 25 08 00 20       	b.sw       0x40010a4(r0),r3
   82cbc:	a0 40 33 c2 7f ff       	b.bnei     r3,0x0,810f8 <Device_vInit+0x544>
   82cc2:	0e 08                   	b.j        82d03 <Device_vInit+0x214f>
   82cc4:	d8 c0 40 c0             	b.addi     r6,r0,0x302
   82cc8:	2c c7 32                	b.sw       0x4c(r7),r6
   82ccb:	46 0a e7                	b.j        8141b <Device_vInit+0x867>
   82cce:	8c e0 57 10 00 20       	b.lwz      r7,0x40008e8(r0)
   82cd4:	98 c0 4b 60 00 20       	b.ori      r6,r0,0x40006d2
   82cda:	cc c7 12 80             	b.sw       0x148(r7),r6
   82cde:	98 c0 3a bc 10 00       	b.ori      r6,r0,0x83d5c
   82ce4:	88 60 9d 10 00 20       	b.lhz      r3,0x40008b8(r0)
   82cea:	cc c7 02 80             	b.sw       0x140(r7),r6
   82cee:	84 e0 d5 10 00 20       	b.lbz      r7,0x40008ab(r0)
   82cf4:	88 60 0b 60 00 20       	b.sh       0x40006d0(r0),r3
   82cfa:	a0 60 7f 61 7f ff       	b.bnei     r7,0x1,81569 <Device_vInit+0x9b5>
   82d00:	46 06 17                	b.j        81560 <Device_vInit+0x9ac>
   82d03:	39 60 ff                	b.ori      r11,r0,0xff
   82d06:	46 aa 57                	b.j        8175b <Device_vInit+0xba7>
   82d09:	cc f0 60 09             	b.lwz      r7,-0x6ffc(r16)
   82d0d:	6c e7 41                	b.srli     r7,r7,0x2
   82d10:	34 e7 80                	b.andi     r7,r7,0x1
   82d13:	a0 40 78 5b 7f ff       	b.bnei     r7,0x0,81ab4 <Device_vInit+0xf00>
   82d19:	46 26 b7                	b.j        81a7d <Device_vInit+0xec9>

00082d1c <Device_vPdmInit>:
   82d1c:	98 80 2f 10 00 20       	b.ori      r4,r0,0x40008f4
   82d22:	98 60 06 60 10 00       	b.ori      r3,r0,0x80660
   82d28:	47 ae b8                	b.entri    0x7,0x1d
   82d2b:	4a c8 7c                	b.jal      92578 <dbg_vPrintfImplNoneVerbose>
   82d2e:	00 68                   	b.movi     r3,0x1
   82d30:	4a 92 ac                	b.jal      90255 <Node_vDebugIndent.part.3.1912>
   82d33:	98 80 2f 10 00 20       	b.ori      r4,r0,0x40008f4
   82d39:	38 a0 f0                	b.ori      r5,r0,0xf
   82d3c:	38 c0 98                	b.ori      r6,r0,0x19
   82d3f:	98 60 ae 60 10 00       	b.ori      r3,r0,0x80675
   82d45:	4b 30 7c                	b.jal      92578 <dbg_vPrintfImplNoneVerbose>
   82d48:	00 68                   	b.movi     r3,0x1
   82d4a:	4b 42 ac                	b.jal      90255 <Node_vDebugIndent.part.3.1912>
   82d4d:	8c e0 52 60 00 20       	b.lwz      r7,0x4000648(r0)
   82d53:	85 60 22 60 00 20       	b.lbz      r11,0x4000644(r0)
   82d59:	cc d0 60 01             	b.lwz      r6,-0x7ffc(r16)
   82d5d:	34 c6 40                	b.andi     r6,r6,0x2
   82d60:	a0 40 63 e1 00 00       	b.bnei     r6,0x0,835dc <Device_vPdmInit+0x8c0>
   82d66:	3e 07 38                	b.extbz    r7,r7
   82d69:	30 cb ff                	b.addi     r6,r11,-0x1
   82d6c:	30 a7 ff                	b.addi     r5,r7,-0x1
   82d6f:	60 c5 31                	b.or       r6,r5,r6
   82d72:	a1 40 6d c1 00 00       	b.bltsi    r6,0x0,835ad <Device_vPdmInit+0x891>
   82d78:	38 80 38                	b.ori      r4,r0,0x1c
   82d7b:	98 c0 3d d0 00 20       	b.ori      r6,r0,0x4000bbc
   82d81:	00 a8                   	b.movi     r5,0x1
   82d83:	8c 60 43 d0 00 20       	b.lwz      r3,0x4000bc0(r0)
   82d89:	64 8b 23                	b.mul      r4,r11,r4
   82d8c:	80 e0 3d d0 00 20       	b.sb       0x4000bbc(r0),r7
   82d92:	8c c0 1c 08 00 20       	b.sw       0x4001038(r0),r6
   82d98:	81 60 bd d0 00 20       	b.sb       0x4000bbd(r0),r11
   82d9e:	81 60 23 d0 00 20       	b.sb       0x4000bc4(r0),r11
   82da4:	49 81 30                	b.jal      85faa <pvHeap_Alloc>
   82da7:	8d 40 5c 08 00 20       	b.lwz      r10,0x4001038(r0)
   82dad:	8c 60 03 d0 00 20       	b.sw       0x4000bc0(r0),r3
   82db3:	2c ea 60                	b.lwz      r7,0x4(r10)
   82db6:	d0 00 7e fe             	b.beqi     r7,0x0,835ad <Device_vPdmInit+0x891>
   82dba:	24 8a 00                	b.lbz      r4,0x0(r10)
   82dbd:	2c 6a 78                	b.lwz      r3,0x1c(r10)
   82dc0:	30 84 0f                	b.addi     r4,r4,-0x10
   82dc3:	00 a8                   	b.movi     r5,0x1
   82dc5:	4a 9e 30                	b.jal      85faa <pvHeap_Alloc>
   82dc8:	2c 6a 38                	b.sw       0x1c(r10),r3
   82dcb:	8d 40 5c 08 00 20       	b.lwz      r10,0x4001038(r0)
   82dd1:	2c ea 78                	b.lwz      r7,0x1c(r10)
   82dd4:	d0 00 79 be             	b.beqi     r7,0x0,835ad <Device_vPdmInit+0x891>
   82dd8:	2c 6a 44                	b.lwz      r3,0x20(r10)
   82ddb:	38 80 08                	b.ori      r4,r0,0x10
   82dde:	00 a8                   	b.movi     r5,0x1
   82de0:	49 4e 30                	b.jal      85faa <pvHeap_Alloc>
   82de3:	8c e0 5c 08 00 20       	b.lwz      r7,0x4001038(r0)
   82de9:	2c 6a 04                	b.sw       0x20(r10),r3
   82dec:	2c c7 44                	b.lwz      r6,0x20(r7)
   82def:	d0 00 67 de             	b.beqi     r6,0x0,835ad <Device_vPdmInit+0x891>
   82df3:	2c 07 30                	b.sw       0xc(r7),r0
   82df6:	99 80 00 64 9a 82       	b.ori      r12,r0,0x41592600
   82dfc:	01 40                   	b.movi     r10,0x0
   82dfe:	2c 07 08                	b.sw       0x10(r7),r0
   82e01:	2c 07 28                	b.sw       0x14(r7),r0
   82e04:	2c 07 18                	b.sw       0x18(r7),r0
   82e07:	20 07 21                	b.sb       0x84(r7),r0
   82e0a:	30 81 06                	b.addi     r4,r1,0x60
   82e0d:	3e 0a 18                	b.extbz    r3,r10
   82e10:	20 61 3a                	b.sb       0x5c(r1),r3
   82e13:	4a ee 1c                	b.jal      90ff0 <iPDM_ReadSegmentHeaderFromEEPROM>
   82e16:	24 e1 d6                	b.lbz      r7,0x6b(r1)
   82e19:	3c 27 8c                	b.sfnei    r7,0x31
   82e1c:	47 29 80                	b.bf       82e35 <Device_vPdmInit+0x119>
   82e1f:	2c c1 76                	b.lwz      r6,0x6c(r1)
   82e22:	94 c6 00 ff ff ff       	b.andi     r6,r6,0xffffff00
   82e28:	60 c6 62                	b.xor      r6,r6,r12
   82e2b:	3e 06 34                	b.ff1      r6,r6
   82e2e:	00 df                   	b.addi     r6,r6,-0x1
   82e30:	6c c6 f9                	b.srli     r6,r6,0x1f
   82e33:	0c 80                   	b.j        82e37 <Device_vPdmInit+0x11b>
   82e35:	00 c0                   	b.movi     r6,0x0
   82e37:	01 58                   	b.addi     r10,r10,0x1
   82e39:	8c e0 5c 08 00 20       	b.lwz      r7,0x4001038(r0)
   82e3f:	a0 20 6a d5 00 00       	b.beqi     r6,0x1,838f4 <Device_vPdmInit+0xbd8>
   82e45:	24 e7 80                	b.lbz      r7,0x1(r7)
   82e48:	d3 4e a4 3f             	b.bgts     r7,r10,82e0a <Device_vPdmInit+0xee>
   82e4c:	01 40                   	b.movi     r10,0x0
   82e4e:	01 aa                   	b.movi     r13,0x5
   82e50:	0d f0                   	b.j        82e8e <Device_vPdmInit+0x172>
   82e52:	3e 0a 60                	b.extbz    r12,r10
   82e55:	04 6c                   	b.mov      r3,r12
   82e57:	48 23 68                	b.jal      88967 <bPDM_IsEEPROMsegmentErased>
   82e5a:	41 03 4c                	b.bnei     r3,0x0,82e8c <Device_vPdmInit+0x170>
   82e5d:	4b 14 1c                	b.jal      90f00 <bPDM_InitialiseEEPROM>
   82e60:	6c ea 60                	b.slli     r7,r10,0x6
   82e63:	04 6c                   	b.mov      r3,r12
   82e65:	8c e0 21 00 00 80       	b.sw       0x1000084(r0),r7
   82e6b:	8d a0 01 00 00 80       	b.sw       0x1000080(r0),r13
   82e71:	8c 00 11 00 00 80       	b.sw       0x1000088(r0),r0
   82e77:	8c 00 11 00 00 80       	b.sw       0x1000088(r0),r0
   82e7d:	8c 00 11 00 00 80       	b.sw       0x1000088(r0),r0
   82e83:	8c 00 11 00 00 80       	b.sw       0x1000088(r0),r0
   82e89:	4a 70 1c                	b.jal      90ec2 <vPDM_WriteEEPROMfixSegmentData>
   82e8c:	01 58                   	b.addi     r10,r10,0x1
   82e8e:	8c e0 5c 08 00 20       	b.lwz      r7,0x4001038(r0)
   82e94:	24 c7 80                	b.lbz      r6,0x1(r7)
   82e97:	d3 4c ad df             	b.bgts     r6,r10,82e52 <Device_vPdmInit+0x136>
   82e9b:	2c 07 30                	b.sw       0xc(r7),r0
   82e9e:	01 40                   	b.movi     r10,0x0
   82ea0:	2c 07 08                	b.sw       0x10(r7),r0
   82ea3:	39 a0 38                	b.ori      r13,r0,0x1c
   82ea6:	2c 07 28                	b.sw       0x14(r7),r0
   82ea9:	2c 07 18                	b.sw       0x18(r7),r0
   82eac:	0c 30                   	b.j        82edc <Device_vPdmInit+0x1c0>
   82eae:	65 8a 6b                	b.mul      r12,r10,r13
   82eb1:	2c c7 60                	b.lwz      r6,0x4(r7)
   82eb4:	38 a0 08                	b.ori      r5,r0,0x10
   82eb7:	08 cc                   	b.add      r6,r6,r12
   82eb9:	00 80                   	b.movi     r4,0x0
   82ebb:	21 46 10                	b.sb       0x8(r6),r10
   82ebe:	01 58                   	b.addi     r10,r10,0x1
   82ec0:	2c 67 60                	b.lwz      r3,0x4(r7)
   82ec3:	08 6c                   	b.add      r3,r3,r12
   82ec5:	30 63 30                	b.addi     r3,r3,0xc
   82ec8:	48 e3 f2                	b.jal      96de4 <memset>
   82ecb:	8c 60 5c 08 00 20       	b.lwz      r3,0x4001038(r0)
   82ed1:	2c 83 60                	b.lwz      r4,0x4(r3)
   82ed4:	30 63 28                	b.addi     r3,r3,0x14
   82ed7:	08 8c                   	b.add      r4,r4,r12
   82ed9:	4a f3 44                	b.jal      8ba16 <vDLISTaddToTail>
   82edc:	8c e0 5c 08 00 20       	b.lwz      r7,0x4001038(r0)
   82ee2:	24 c7 80                	b.lbz      r6,0x1(r7)
   82ee5:	d3 4c a9 3f             	b.bgts     r6,r10,82eae <Device_vPdmInit+0x192>
   82ee9:	20 c7 10                	b.sb       0x8(r7),r6
   82eec:	46 83 60                	b.j        835ad <Device_vPdmInit+0x891>
   82eef:	65 ac 73                	b.mul      r13,r12,r14
   82ef2:	2c c7 60                	b.lwz      r6,0x4(r7)
   82ef5:	3e 0c 18                	b.extbz    r3,r12
   82ef8:	08 cd                   	b.add      r6,r6,r13
   82efa:	20 66 10                	b.sb       0x8(r6),r3
   82efd:	2c 87 60                	b.lwz      r4,0x4(r7)
   82f00:	08 8d                   	b.add      r4,r4,r13
   82f02:	30 84 30                	b.addi     r4,r4,0xc
   82f05:	4b 5c 1c                	b.jal      90ff0 <iPDM_ReadSegmentHeaderFromEEPROM>
   82f08:	8c a0 5c 08 00 20       	b.lwz      r5,0x4001038(r0)
   82f0e:	2c 85 60                	b.lwz      r4,0x4(r5)
   82f11:	61 44 6c                	b.add      r10,r4,r13
   82f14:	d0 00 a3 90             	b.beqi     r10,0x0,82fb0 <Device_vPdmInit+0x294>
   82f18:	24 ea e8                	b.lbz      r7,0x17(r10)
   82f1b:	41 07 28                	b.bnei     r7,0x0,82f2f <Device_vPdmInit+0x213>
   82f1e:	2c ea 58                	b.lwz      r7,0x18(r10)
   82f21:	94 e7 00 ff ff ff       	b.andi     r7,r7,0xffffff00
   82f27:	a0 40 77 95 00 00       	b.bnei     r7,0x0,839c5 <Device_vPdmInit+0xca9>
   82f2d:	0e a4                   	b.j        82fc2 <Device_vPdmInit+0x2a6>
   82f2f:	3c 27 8c                	b.sfnei    r7,0x31
   82f32:	d6 c9 50 00             	b.bf       839c5 <Device_vPdmInit+0xca9>
   82f36:	2c ea 58                	b.lwz      r7,0x18(r10)
   82f39:	94 e7 00 ff ff ff       	b.andi     r7,r7,0xffffff00
   82f3f:	9d 87 00 64 9a 82       	b.sfeqi    r7,0x41592600
   82f45:	47 2b e0                	b.bf       82fc2 <Device_vPdmInit+0x2a6>
   82f48:	46 be 50                	b.j        839c5 <Device_vPdmInit+0xca9>
   82f4b:	d2 8e 84 80             	b.beq      r7,r8,82f5d <Device_vPdmInit+0x241>
   82f4f:	64 a7 73                	b.mul      r5,r7,r14
   82f52:	08 a4                   	b.add      r5,r5,r4
   82f54:	2c a5 70                	b.lwz      r5,0xc(r5)
   82f57:	3d a6 28                	b.sfgeu    r6,r5
   82f5a:	64 c6 2a                	b.cmov     r6,r6,r5
   82f5d:	00 f8                   	b.addi     r7,r7,0x1
   82f5f:	d3 46 73 7f             	b.bgts     r3,r7,82f4b <Device_vPdmInit+0x22f>
   82f63:	2c aa 70                	b.lwz      r5,0xc(r10)
   82f66:	d8 e6 13 00             	b.addi     r7,r6,0xc8
   82f6a:	d3 8e 56 20             	b.bgeu     r7,r5,82fb0 <Device_vPdmInit+0x294>
   82f6e:	00 d8                   	b.addi     r6,r6,0x1
   82f70:	00 88                   	b.movi     r4,0x1
   82f72:	2c ca 30                	b.sw       0xc(r10),r6
   82f75:	04 6a                   	b.mov      r3,r10
   82f77:	4a 6c 1c                	b.jal      91050 <iPDM_SetVerifyBytesInFileSystemRecord>
   82f7a:	24 ca 10                	b.lbz      r6,0x8(r10)
   82f7d:	2c ea 70                	b.lwz      r7,0xc(r10)
   82f80:	6c c6 60                	b.slli     r6,r6,0x6
   82f83:	04 6a                   	b.mov      r3,r10
   82f85:	8c c0 21 00 00 80       	b.sw       0x1000084(r0),r6
   82f8b:	00 80                   	b.movi     r4,0x0
   82f8d:	8d e0 01 00 00 80       	b.sw       0x1000080(r0),r15
   82f93:	8c e0 11 00 00 80       	b.sw       0x1000088(r0),r7
   82f99:	4b b4 1c                	b.jal      91050 <iPDM_SetVerifyBytesInFileSystemRecord>
   82f9c:	8c e0 5c 08 00 20       	b.lwz      r7,0x4001038(r0)
   82fa2:	2c e7 7a                	b.lwz      r7,0x5c(r7)
   82fa5:	40 07 d0                	b.beqi     r7,0x0,82fb0 <Device_vPdmInit+0x294>
   82fa8:	24 6a 10                	b.lbz      r3,0x8(r10)
   82fab:	00 8c                   	b.movi     r4,0x3
   82fad:	47 d1 38                	b.jalr     r7
   82fb0:	8c a0 5c 08 00 20       	b.lwz      r5,0x4001038(r0)
   82fb6:	00 80                   	b.movi     r4,0x0
   82fb8:	2c 65 60                	b.lwz      r3,0x4(r5)
   82fbb:	30 a5 28                	b.addi     r5,r5,0x14
   82fbe:	08 6d                   	b.add      r3,r3,r13
   82fc0:	0c d8                   	b.j        8302c <Device_vPdmInit+0x310>
   82fc2:	24 ea a8                	b.lbz      r7,0x15(r10)
   82fc5:	00 ff                   	b.addi     r7,r7,-0x1
   82fc7:	3e 07 38                	b.extbz    r7,r7
   82fca:	3c a7 50                	b.sfgtui   r7,0xa
   82fcd:	47 21 a0                	b.bf       83025 <Device_vPdmInit+0x309>
   82fd0:	6c e7 40                	b.slli     r7,r7,0x2
   82fd3:	90 e7 07 f4 10 00       	b.addi     r7,r7,0x82fe0
   82fd9:	2c e7 40                	b.lwz      r7,0x0(r7)
   82fdc:	47 d2 38                	b.jr       r7
   82fdf:	00 00                   	b.trap     0x0
   82fe1:	08 30                   	b.add      r1,r1,r16
   82fe3:	0c 00                   	b.j        82fe3 <Device_vPdmInit+0x2c7>
   82fe5:	08 30                   	b.add      r1,r1,r16
   82fe7:	1b                      	.word 0x1b
   82fe8:	00 08                   	b.trap     0x1
   82fea:	30 11 00                	b.addi     r0,r17,0x0
   82fed:	08 30                   	b.add      r1,r1,r16
   82fef:	20 00 08                	b.sb       0x10(r0),r0
   82ff2:	30 25 00                	b.addi     r1,r5,0x0
   82ff5:	08 30                   	b.add      r1,r1,r16
   82ff7:	20 00 08                	b.sb       0x10(r0),r0
   82ffa:	30 20 00                	b.addi     r1,r0,0x0
   82ffd:	08 30                   	b.add      r1,r1,r16
   82fff:	16                      	.word 0x16
   83000:	00 08                   	b.trap     0x1
   83002:	30 16 00                	b.addi     r0,r22,0x0
   83005:	08 30                   	b.add      r1,r1,r16
   83007:	16                      	.word 0x16
   83008:	00 08                   	b.trap     0x1
   8300a:	30 16 30                	b.addi     r0,r22,0xc
   8300d:	a5 24 0e 60 30 a5       	b.ja       -0x5af3f990
   83013:	3c 0c a0                	b.sfeqi    r12,0x5
   83016:	30 a5 22                	b.addi     r5,r5,0x44
   83019:	0f c0                   	b.j        83028 <Device_vPdmInit+0x30c>
   8301b:	30 a5 34                	b.addi     r5,r5,0x2c
   8301e:	0d 40                   	b.j        83028 <Device_vPdmInit+0x30c>
   83020:	30 a5 2c                	b.addi     r5,r5,0x34
   83023:	0e 80                   	b.j        83028 <Device_vPdmInit+0x30c>
   83025:	30 a5 28                	b.addi     r5,r5,0x14
   83028:	04 6a                   	b.mov      r3,r10
   8302a:	00 80                   	b.movi     r4,0x0
   8302c:	01 98                   	b.addi     r12,r12,0x1
   8302e:	4a 46 b4                	b.jal      8e5b7 <vPDM_AddFileSystemElementToListInAscendingWearCountOrder>
   83031:	8c e0 5c 08 00 20       	b.lwz      r7,0x4001038(r0)
   83037:	24 c7 80                	b.lbz      r6,0x1(r7)
   8303a:	d3 4c ca d7             	b.bgts     r6,r12,82eef <Device_vPdmInit+0x1d3>
   8303e:	2c 01 32                	b.sw       0x4c(r1),r0
   83041:	2c 01 0a                	b.sw       0x50(r1),r0
   83044:	0c 42                   	b.j        8314c <Device_vPdmInit+0x430>
   83046:	28 67 88                	b.lhz      r3,0x10(r7)
   83049:	30 e1 32                	b.addi     r7,r1,0x4c
   8304c:	38 a0 70                	b.ori      r5,r0,0xe
   8304f:	30 c1 28                	b.addi     r6,r1,0x14
   83052:	31 08 3c                	b.addi     r8,r8,0x3c
   83055:	00 84                   	b.movi     r4,0x2
   83057:	2c e1 00                	b.sw       0x0(r1),r7
   8305a:	30 e1 18                	b.addi     r7,r1,0x18
   8305d:	4b 99 b4                	b.jal      8e6c4 <vPDM_MoveAllDataWithBufferIdFromListToList>
   83060:	2d 81 72                	b.lwz      r12,0x4c(r1)
   83063:	d0 00 cc 70             	b.beqi     r12,0x0,83146 <Device_vPdmInit+0x42a>
   83067:	01 c8                   	b.movi     r14,0x1
   83069:	01 40                   	b.movi     r10,0x0
   8306b:	01 a0                   	b.movi     r13,0x0
   8306d:	8c e0 5c 08 00 20       	b.lwz      r7,0x4001038(r0)
   83073:	30 a1 38                	b.addi     r5,r1,0x1c
   83076:	04 6c                   	b.mov      r3,r12
   83078:	2c 87 78                	b.lwz      r4,0x1c(r7)
   8307b:	48 e0 08                	b.jal      87097 <iPDM_ReadUserDataFromFileSystemRecord>
   8307e:	8c e0 5c 08 00 20       	b.lwz      r7,0x4001038(r0)
   83084:	2c 87 78                	b.lwz      r4,0x1c(r7)
   83087:	24 e4 00                	b.lbz      r7,0x0(r4)
   8308a:	00 f8                   	b.addi     r7,r7,0x1
   8308c:	08 e4                   	b.add      r7,r7,r4
   8308e:	24 c7 00                	b.lbz      r6,0x0(r7)
   83091:	20 c1 08                	b.sb       0x10(r1),r6
   83094:	24 e7 80                	b.lbz      r7,0x1(r7)
   83097:	20 e1 88                	b.sb       0x11(r1),r7
   8309a:	28 e1 88                	b.lhz      r7,0x10(r1)
   8309d:	d3 ce d4 80             	b.bgtu     r7,r13,830af <Device_vPdmInit+0x393>
   830a1:	3c 2e 80                	b.sfnei    r14,0x1
   830a4:	65 4a 62                	b.cmov     r10,r10,r12
   830a7:	3c 2e 80                	b.sfnei    r14,0x1
   830aa:	65 ad 3a                	b.cmov     r13,r13,r7
   830ad:	0d 80                   	b.j        830b3 <Device_vPdmInit+0x397>
   830af:	05 4c                   	b.mov      r10,r12
   830b1:	05 a7                   	b.mov      r13,r7
   830b3:	2d 8c 40                	b.lwz      r12,0x0(r12)
   830b6:	01 c0                   	b.movi     r14,0x0
   830b8:	41 0c ad                	b.bnei     r12,0x0,8306d <Device_vPdmInit+0x351>
   830bb:	30 a1 04                	b.addi     r5,r1,0x20
   830be:	04 6a                   	b.mov      r3,r10
   830c0:	4b af f0                	b.jal      87097 <iPDM_ReadUserDataFromFileSystemRecord>
   830c3:	8c e0 5c 08 00 20       	b.lwz      r7,0x4001038(r0)
   830c9:	24 81 04                	b.lbz      r4,0x20(r1)
   830cc:	2c e7 78                	b.lwz      r7,0x1c(r7)
   830cf:	25 a7 00                	b.lbz      r13,0x0(r7)
   830d2:	30 cd 80                	b.addi     r6,r13,0x1
   830d5:	08 c7                   	b.add      r6,r6,r7
   830d7:	24 a6 00                	b.lbz      r5,0x0(r6)
   830da:	20 a1 48                	b.sb       0x12(r1),r5
   830dd:	24 c6 80                	b.lbz      r6,0x1(r6)
   830e0:	20 c1 c8                	b.sb       0x13(r1),r6
   830e3:	40 0d 5c                	b.beqi     r13,0x0,8311d <Device_vPdmInit+0x401>
   830e6:	30 6d c0                	b.addi     r3,r13,0x3
   830e9:	3e 03 18                	b.extbz    r3,r3
   830ec:	08 67                   	b.add      r3,r3,r7
   830ee:	00 c8                   	b.movi     r6,0x1
   830f0:	60 e3 64                	b.add      r7,r3,r12
   830f3:	24 e7 00                	b.lbz      r7,0x0(r7)
   830f6:	41 87 d0                	b.bnei     r7,0x1,83101 <Device_vPdmInit+0x3e5>
   830f9:	01 98                   	b.addi     r12,r12,0x1
   830fb:	00 a0                   	b.movi     r5,0x0
   830fd:	00 e0                   	b.movi     r7,0x0
   830ff:	0d c0                   	b.j        8310d <Device_vPdmInit+0x3f1>
   83101:	3c 27 00                	b.sfnei    r7,0x0
   83104:	64 a0 32                	b.cmov     r5,r0,r6
   83107:	3c 27 00                	b.sfnei    r7,0x0
   8310a:	64 e6 02                	b.cmov     r7,r6,r0
   8310d:	60 a7 29                	b.or       r5,r7,r5
   83110:	40 05 90                	b.beqi     r5,0x0,83119 <Device_vPdmInit+0x3fd>
   83113:	41 87 50                	b.bnei     r7,0x1,8311d <Device_vPdmInit+0x401>
   83116:	46 60 10                	b.j        8391c <Device_vPdmInit+0xc00>
   83119:	d3 48 ce bf             	b.bgts     r4,r12,830f0 <Device_vPdmInit+0x3d4>
   8311d:	8c c0 5c 08 00 20       	b.lwz      r6,0x4001038(r0)
   83123:	38 80 70                	b.ori      r4,r0,0xe
   83126:	30 a1 32                	b.addi     r5,r1,0x4c
   83129:	30 c6 30                	b.addi     r6,r6,0xc
   8312c:	04 6a                   	b.mov      r3,r10
   8312e:	49 63 b4                	b.jal      8e848 <vPDM_MoveFileRecordFromListToList>
   83131:	8c c0 5c 08 00 20       	b.lwz      r6,0x4001038(r0)
   83137:	38 60 70                	b.ori      r3,r0,0xe
   8313a:	30 81 04                	b.addi     r4,r1,0x20
   8313d:	30 a1 32                	b.addi     r5,r1,0x4c
   83140:	30 c6 28                	b.addi     r6,r6,0x14
   83143:	49 0c b4                	b.jal      8e605 <vPDM_MoveAllDataFromListToList>
   83146:	8c e0 5c 08 00 20       	b.lwz      r7,0x4001038(r0)
   8314c:	2c e7 7c                	b.lwz      r7,0x3c(r7)
   8314f:	8d 00 5c 08 00 20       	b.lwz      r8,0x4001038(r0)
   83155:	d0 40 78 f7             	b.bnei     r7,0x0,83046 <Device_vPdmInit+0x32a>
   83159:	2c 01 32                	b.sw       0x4c(r1),r0
   8315c:	2c 01 0a                	b.sw       0x50(r1),r0
   8315f:	2c e8 6c                	b.lwz      r7,0x34(r8)
   83162:	0c b0                   	b.j        83196 <Device_vPdmInit+0x47a>
   83164:	28 67 88                	b.lhz      r3,0x10(r7)
   83167:	24 87 68                	b.lbz      r4,0x16(r7)
   8316a:	31 41 32                	b.addi     r10,r1,0x4c
   8316d:	30 e1 04                	b.addi     r7,r1,0x20
   83170:	38 a0 70                	b.ori      r5,r0,0xe
   83173:	30 c1 38                	b.addi     r6,r1,0x1c
   83176:	31 08 2c                	b.addi     r8,r8,0x34
   83179:	2d 41 00                	b.sw       0x0(r1),r10
   8317c:	48 4a b4                	b.jal      8e6c4 <vPDM_MoveAllDataWithBufferIdFromListToList>
   8317f:	8c 80 5c 08 00 20       	b.lwz      r4,0x4001038(r0)
   83185:	04 6a                   	b.mov      r3,r10
   83187:	30 84 30                	b.addi     r4,r4,0xc
   8318a:	4a f6 f8                	b.jal      8af47 <iPDM_ReconstructReplacedDataTable>
   8318d:	8c e0 5c 08 00 20       	b.lwz      r7,0x4001038(r0)
   83193:	2c e7 6c                	b.lwz      r7,0x34(r7)
   83196:	8d 00 5c 08 00 20       	b.lwz      r8,0x4001038(r0)
   8319c:	41 07 13                	b.bnei     r7,0x0,83164 <Device_vPdmInit+0x448>
   8319f:	2c 01 24                	b.sw       0x24(r1),r0
   831a2:	2c 01 14                	b.sw       0x28(r1),r0
   831a5:	2d 48 74                	b.lwz      r10,0x2c(r8)
   831a8:	46 83 40                	b.j        83469 <Device_vPdmInit+0x74d>
   831ab:	28 6a 88                	b.lhz      r3,0x10(r10)
   831ae:	24 8a 68                	b.lbz      r4,0x16(r10)
   831b1:	30 e1 24                	b.addi     r7,r1,0x24
   831b4:	38 a0 70                	b.ori      r5,r0,0xe
   831b7:	30 c1 b0                	b.addi     r6,r1,0xd
   831ba:	31 08 34                	b.addi     r8,r8,0x2c
   831bd:	31 c1 04                	b.addi     r14,r1,0x20
   831c0:	2c e1 00                	b.sw       0x0(r1),r7
   831c3:	30 e1 70                	b.addi     r7,r1,0xe
   831c6:	49 fc b4                	b.jal      8e6c4 <vPDM_MoveAllDataWithBufferIdFromListToList>
   831c9:	8c c0 5c 08 00 20       	b.lwz      r6,0x4001038(r0)
   831cf:	28 6a 88                	b.lhz      r3,0x10(r10)
   831d2:	38 a0 ff                	b.ori      r5,r0,0xff
   831d5:	30 c6 30                	b.addi     r6,r6,0xc
   831d8:	00 84                   	b.movi     r4,0x2
   831da:	04 ee                   	b.mov      r7,r14
   831dc:	48 e6 70                	b.jal      86b78 <iPDM_SearchForBufferIdInList>
   831df:	8d 80 5c 08 00 20       	b.lwz      r12,0x4001038(r0)
   831e5:	41 03 48                	b.bnei     r3,0x0,831f7 <Device_vPdmInit+0x4db>
   831e8:	28 6a 88                	b.lhz      r3,0x10(r10)
   831eb:	24 8a 68                	b.lbz      r4,0x16(r10)
   831ee:	30 ac 34                	b.addi     r5,r12,0x2c
   831f1:	48 fe 04                	b.jal      8b3ed <iPDM_DeleteAppendedSequence>
   831f4:	46 36 40                	b.j        83460 <Device_vPdmInit+0x744>
   831f7:	2d 41 64                	b.lwz      r10,0x24(r1)
   831fa:	2c 01 34                	b.sw       0x2c(r1),r0
   831fd:	2c 01 0c                	b.sw       0x30(r1),r0
   83200:	2c 01 2c                	b.sw       0x34(r1),r0
   83203:	2c 01 1c                	b.sw       0x38(r1),r0
   83206:	2c 01 3c                	b.sw       0x3c(r1),r0
   83209:	2c 01 02                	b.sw       0x40(r1),r0
   8320c:	2c 01 22                	b.sw       0x44(r1),r0
   8320f:	2c 01 12                	b.sw       0x48(r1),r0
   83212:	2c 01 32                	b.sw       0x4c(r1),r0
   83215:	2c 01 0a                	b.sw       0x50(r1),r0
   83218:	d0 00 a4 10             	b.beqi     r10,0x0,8329a <Device_vPdmInit+0x57e>
   8321c:	01 a0                   	b.movi     r13,0x0
   8321e:	20 01 38                	b.sb       0x1c(r1),r0
   83221:	0c e0                   	b.j        8323d <Device_vPdmInit+0x521>
   83223:	2c 61 44                	b.lwz      r3,0x20(r1)
   83226:	38 80 70                	b.ori      r4,r0,0xe
   83229:	30 a1 24                	b.addi     r5,r1,0x24
   8322c:	30 c1 22                	b.addi     r6,r1,0x44
   8322f:	4a 61 b4                	b.jal      8e848 <vPDM_MoveFileRecordFromListToList>
   83232:	24 e1 38                	b.lbz      r7,0x1c(r1)
   83235:	2d a1 44                	b.lwz      r13,0x20(r1)
   83238:	00 f8                   	b.addi     r7,r7,0x1
   8323a:	20 e1 38                	b.sb       0x1c(r1),r7
   8323d:	28 6a 88                	b.lhz      r3,0x10(r10)
   83240:	24 8a 68                	b.lbz      r4,0x16(r10)
   83243:	24 aa c8                	b.lbz      r5,0x13(r10)
   83246:	30 c1 24                	b.addi     r6,r1,0x24
   83249:	04 ee                   	b.mov      r7,r14
   8324b:	4a d2 70                	b.jal      86b78 <iPDM_SearchForBufferIdInList>
   8324e:	40 03 ab                	b.beqi     r3,0x0,83223 <Device_vPdmInit+0x507>
   83251:	24 e1 38                	b.lbz      r7,0x1c(r1)
   83254:	40 07 8c                	b.beqi     r7,0x0,83285 <Device_vPdmInit+0x569>
   83257:	40 87 b0                	b.beqi     r7,0x1,83264 <Device_vPdmInit+0x548>
   8325a:	30 61 22                	b.addi     r3,r1,0x44
   8325d:	04 8e                   	b.mov      r4,r14
   8325f:	48 68 70                	b.jal      86ab7 <iPDM_FilterDuplicateAppendedSegmentsOnList.8038>
   83262:	0e 80                   	b.j        83267 <Device_vPdmInit+0x54b>
   83264:	2d a1 04                	b.sw       0x20(r1),r13
   83267:	2c 61 44                	b.lwz      r3,0x20(r1)
   8326a:	38 80 70                	b.ori      r4,r0,0xe
   8326d:	30 a1 22                	b.addi     r5,r1,0x44
   83270:	30 c1 32                	b.addi     r6,r1,0x4c
   83273:	4a ae b4                	b.jal      8e848 <vPDM_MoveFileRecordFromListToList>
   83276:	38 60 70                	b.ori      r3,r0,0xe
   83279:	30 81 38                	b.addi     r4,r1,0x1c
   8327c:	30 a1 22                	b.addi     r5,r1,0x44
   8327f:	30 c1 34                	b.addi     r6,r1,0x2c
   83282:	4b 07 34                	b.jal      8e605 <vPDM_MoveAllDataFromListToList>
   83285:	2d 41 64                	b.lwz      r10,0x24(r1)
   83288:	41 0a 69                	b.bnei     r10,0x0,8321e <Device_vPdmInit+0x502>
   8328b:	38 60 70                	b.ori      r3,r0,0xe
   8328e:	30 81 38                	b.addi     r4,r1,0x1c
   83291:	30 a1 32                	b.addi     r5,r1,0x4c
   83294:	30 c1 24                	b.addi     r6,r1,0x24
   83297:	49 db 34                	b.jal      8e605 <vPDM_MoveAllDataFromListToList>
   8329a:	2c e1 64                	b.lwz      r7,0x24(r1)
   8329d:	8d 00 5c 08 00 20       	b.lwz      r8,0x4001038(r0)
   832a3:	28 67 88                	b.lhz      r3,0x10(r7)
   832a6:	24 87 68                	b.lbz      r4,0x16(r7)
   832a9:	31 a1 3c                	b.addi     r13,r1,0x3c
   832ac:	38 a0 70                	b.ori      r5,r0,0xe
   832af:	30 c1 38                	b.addi     r6,r1,0x1c
   832b2:	30 e1 18                	b.addi     r7,r1,0x18
   832b5:	31 08 24                	b.addi     r8,r8,0x24
   832b8:	2d a1 00                	b.sw       0x0(r1),r13
   832bb:	4a 40 b4                	b.jal      8e6c4 <vPDM_MoveAllDataWithBufferIdFromListToList>
   832be:	2d 41 64                	b.lwz      r10,0x24(r1)
   832c1:	0f 90                   	b.j        832e8 <Device_vPdmInit+0x5cc>
   832c3:	28 6a 88                	b.lhz      r3,0x10(r10)
   832c6:	24 8a 68                	b.lbz      r4,0x16(r10)
   832c9:	24 aa c8                	b.lbz      r5,0x13(r10)
   832cc:	30 e1 04                	b.addi     r7,r1,0x20
   832cf:	04 cd                   	b.mov      r6,r13
   832d1:	4b 94 70                	b.jal      86b78 <iPDM_SearchForBufferIdInList>
   832d4:	41 03 88                	b.bnei     r3,0x0,832e5 <Device_vPdmInit+0x5c9>
   832d7:	2c 61 44                	b.lwz      r3,0x20(r1)
   832da:	38 80 70                	b.ori      r4,r0,0xe
   832dd:	30 c1 2c                	b.addi     r6,r1,0x34
   832e0:	04 ad                   	b.mov      r5,r13
   832e2:	49 9a b4                	b.jal      8e848 <vPDM_MoveFileRecordFromListToList>
   832e5:	2d 4a 40                	b.lwz      r10,0x0(r10)
   832e8:	41 0a db                	b.bnei     r10,0x0,832c3 <Device_vPdmInit+0x5a7>
   832eb:	38 60 70                	b.ori      r3,r0,0xe
   832ee:	30 81 38                	b.addi     r4,r1,0x1c
   832f1:	30 c1 24                	b.addi     r6,r1,0x24
   832f4:	04 ad                   	b.mov      r5,r13
   832f6:	4b c3 34                	b.jal      8e605 <vPDM_MoveAllDataFromListToList>
   832f9:	30 a1 24                	b.addi     r5,r1,0x24
   832fc:	38 60 70                	b.ori      r3,r0,0xe
   832ff:	30 81 f0                	b.addi     r4,r1,0xf
   83302:	04 c5                   	b.mov      r6,r5
   83304:	4a 03 34                	b.jal      8e605 <vPDM_MoveAllDataFromListToList>
   83307:	2c e1 64                	b.lwz      r7,0x24(r1)
   8330a:	30 c1 24                	b.addi     r6,r1,0x24
   8330d:	00 a0                   	b.movi     r5,0x0
   8330f:	2c e1 28                	b.sw       0x14(r1),r7
   83312:	28 67 88                	b.lhz      r3,0x10(r7)
   83315:	24 87 68                	b.lbz      r4,0x16(r7)
   83318:	30 e1 18                	b.addi     r7,r1,0x18
   8331b:	4a e8 70                	b.jal      86b78 <iPDM_SearchForBufferIdInList>
   8331e:	d0 40 3b 48             	b.bnei     r3,0x0,8344b <Device_vPdmInit+0x72f>
   83322:	2d 41 58                	b.lwz      r10,0x18(r1)
   83325:	24 c1 f0                	b.lbz      r6,0xf(r1)
   83328:	24 aa 28                	b.lbz      r5,0x14(r10)
   8332b:	d3 ca 60 48             	b.bgtu     r5,r6,8344b <Device_vPdmInit+0x72f>
   8332f:	2c e1 68                	b.lwz      r7,0x14(r1)
   83332:	d3 cc 53 06             	b.bgtu     r6,r5,8393e <Device_vPdmInit+0xc22>
   83336:	24 ca a8                	b.lbz      r6,0x15(r10)
   83339:	d0 50 6a 06             	b.bnei     r6,0x2,8393e <Device_vPdmInit+0xc22>
   8333d:	46 68 60                	b.j        83953 <Device_vPdmInit+0xc37>
   83340:	2c 61 78                	b.lwz      r3,0x1c(r1)
   83343:	24 e3 a8                	b.lbz      r7,0x15(r3)
   83346:	d0 50 70 30             	b.bnei     r7,0x2,83406 <Device_vPdmInit+0x6ea>
   8334a:	24 e3 28                	b.lbz      r7,0x14(r3)
   8334d:	d0 20 79 d0             	b.beqi     r7,0x1,83406 <Device_vPdmInit+0x6ea>
   83351:	30 81 24                	b.addi     r4,r1,0x24
   83354:	30 a1 34                	b.addi     r5,r1,0x2c
   83357:	30 c1 2c                	b.addi     r6,r1,0x34
   8335a:	4a 22 b4                	b.jal      8e86b <iPDM_ReplaceSegmentFromJunkLists.7063>
   8335d:	d0 00 39 50             	b.beqi     r3,0x0,83406 <Device_vPdmInit+0x6ea>
   83361:	0d 5c                   	b.j        8344b <Device_vPdmInit+0x72f>
   83363:	2c e1 78                	b.lwz      r7,0x1c(r1)
   83366:	24 e7 a8                	b.lbz      r7,0x15(r7)
   83369:	d0 50 7a 06             	b.bnei     r7,0x2,8396e <Device_vPdmInit+0xc52>
   8336d:	2c e1 78                	b.lwz      r7,0x1c(r1)
   83370:	24 c7 28                	b.lbz      r6,0x14(r7)
   83373:	41 86 90                	b.bnei     r6,0x1,8337c <Device_vPdmInit+0x660>
   83376:	2c e1 04                	b.sw       0x20(r1),r7
   83379:	46 74 60                	b.j        839a7 <Device_vPdmInit+0xc8b>
   8337c:	24 a7 c8                	b.lbz      r5,0x13(r7)
   8337f:	2c e1 68                	b.lwz      r7,0x14(r1)
   83382:	08 a6                   	b.add      r5,r5,r6
   83384:	3e 05 28                	b.extbz    r5,r5
   83387:	20 a1 08                	b.sb       0x10(r1),r5
   8338a:	30 c1 24                	b.addi     r6,r1,0x24
   8338d:	00 bf                   	b.addi     r5,r5,-0x1
   8338f:	3e 05 28                	b.extbz    r5,r5
   83392:	28 67 88                	b.lhz      r3,0x10(r7)
   83395:	24 87 68                	b.lbz      r4,0x16(r7)
   83398:	30 e1 04                	b.addi     r7,r1,0x20
   8339b:	4a ef b0                	b.jal      86b78 <iPDM_SearchForBufferIdInList>
   8339e:	d0 40 32 fa             	b.bnei     r3,0x0,83992 <Device_vPdmInit+0xc76>
   833a2:	46 a0 60                	b.j        839a7 <Device_vPdmInit+0xc8b>
   833a5:	30 81 24                	b.addi     r4,r1,0x24
   833a8:	30 a1 34                	b.addi     r5,r1,0x2c
   833ab:	30 c1 2c                	b.addi     r6,r1,0x34
   833ae:	4a f4 b4                	b.jal      8e86b <iPDM_ReplaceSegmentFromJunkLists.7063>
   833b1:	d0 40 35 90             	b.bnei     r3,0x0,8344b <Device_vPdmInit+0x72f>
   833b5:	2c e1 58                	b.lwz      r7,0x18(r1)
   833b8:	2d a1 64                	b.lwz      r13,0x24(r1)
   833bb:	24 e7 28                	b.lbz      r7,0x14(r7)
   833be:	20 e1 48                	b.sb       0x12(r1),r7
   833c1:	40 0d a2                	b.beqi     r13,0x0,83406 <Device_vPdmInit+0x6ea>
   833c4:	98 80 05 20 90 00       	b.ori      r4,r0,0x904a0
   833ca:	30 a1 48                	b.addi     r5,r1,0x12
   833cd:	04 6d                   	b.mov      r3,r13
   833cf:	4b e3 b0                	b.jal      86aee <psDLISTsearchForward>
   833d2:	40 03 2c                	b.beqi     r3,0x0,83406 <Device_vPdmInit+0x6ea>
   833d5:	38 80 30                	b.ori      r4,r0,0xc
   833d8:	30 a1 24                	b.addi     r5,r1,0x24
   833db:	30 c1 2c                	b.addi     r6,r1,0x34
   833de:	2d a3 40                	b.lwz      r13,0x0(r3)
   833e1:	4b 98 b4                	b.jal      8e848 <vPDM_MoveFileRecordFromListToList>
   833e4:	0e ef                   	b.j        833c1 <Device_vPdmInit+0x6a5>
   833e6:	24 e3 a8                	b.lbz      r7,0x15(r3)
   833e9:	40 47 b8                	b.beqi     r7,0x2,83406 <Device_vPdmInit+0x6ea>
   833ec:	30 c1 24                	b.addi     r6,r1,0x24
   833ef:	30 e1 28                	b.addi     r7,r1,0x14
   833f2:	00 a4                   	b.movi     r5,0x2
   833f4:	4b 7d 78                	b.jal      8aeef <iPDM_SegmentCopyAndAppendData.constprop.115>
   833f7:	2c 61 58                	b.lwz      r3,0x18(r1)
   833fa:	38 80 70                	b.ori      r4,r0,0xe
   833fd:	30 a1 24                	b.addi     r5,r1,0x24
   83400:	30 c1 2c                	b.addi     r6,r1,0x34
   83403:	4a 88 b4                	b.jal      8e848 <vPDM_MoveFileRecordFromListToList>
   83406:	8c c0 5c 08 00 20       	b.lwz      r6,0x4001038(r0)
   8340c:	38 60 70                	b.ori      r3,r0,0xe
   8340f:	30 81 38                	b.addi     r4,r1,0x1c
   83412:	30 a1 34                	b.addi     r5,r1,0x2c
   83415:	30 c6 28                	b.addi     r6,r6,0x14
   83418:	4a de 34                	b.jal      8e605 <vPDM_MoveAllDataFromListToList>
   8341b:	8c c0 5c 08 00 20       	b.lwz      r6,0x4001038(r0)
   83421:	38 60 70                	b.ori      r3,r0,0xe
   83424:	30 81 38                	b.addi     r4,r1,0x1c
   83427:	30 a1 2c                	b.addi     r5,r1,0x34
   8342a:	30 c6 28                	b.addi     r6,r6,0x14
   8342d:	48 6e 34                	b.jal      8e605 <vPDM_MoveAllDataFromListToList>
   83430:	28 6a 88                	b.lhz      r3,0x10(r10)
   83433:	24 8a 68                	b.lbz      r4,0x16(r10)
   83436:	24 aa 28                	b.lbz      r5,0x14(r10)
   83439:	30 c1 38                	b.addi     r6,r1,0x1c
   8343c:	30 e1 04                	b.addi     r7,r1,0x20
   8343f:	31 01 24                	b.addi     r8,r1,0x24
   83442:	4b 05 04                	b.jal      8b6c5 <iPDM_VerifyDataSequenceWithBufferId>
   83445:	30 cc 30                	b.addi     r6,r12,0xc
   83448:	40 03 30                	b.beqi     r3,0x0,83454 <Device_vPdmInit+0x738>
   8344b:	8c c0 5c 08 00 20       	b.lwz      r6,0x4001038(r0)
   83451:	30 c6 28                	b.addi     r6,r6,0x14
   83454:	38 60 70                	b.ori      r3,r0,0xe
   83457:	30 81 b0                	b.addi     r4,r1,0xd
   8345a:	30 a1 24                	b.addi     r5,r1,0x24
   8345d:	48 56 34                	b.jal      8e605 <vPDM_MoveAllDataFromListToList>
   83460:	8c e0 5c 08 00 20       	b.lwz      r7,0x4001038(r0)
   83466:	2d 47 74                	b.lwz      r10,0x2c(r7)
   83469:	8d 00 5c 08 00 20       	b.lwz      r8,0x4001038(r0)
   8346f:	d0 40 a3 cb             	b.bnei     r10,0x0,831ab <Device_vPdmInit+0x48f>
   83473:	2c 01 32                	b.sw       0x4c(r1),r0
   83476:	2c 01 0a                	b.sw       0x50(r1),r0
   83479:	2d 48 62                	b.lwz      r10,0x44(r8)
   8347c:	0c 68                   	b.j        834d4 <Device_vPdmInit+0x7b8>
   8347e:	28 6a 88                	b.lhz      r3,0x10(r10)
   83481:	24 8a 68                	b.lbz      r4,0x16(r10)
   83484:	31 81 32                	b.addi     r12,r1,0x4c
   83487:	30 e1 04                	b.addi     r7,r1,0x20
   8348a:	38 a0 70                	b.ori      r5,r0,0xe
   8348d:	30 c1 38                	b.addi     r6,r1,0x1c
   83490:	31 08 22                	b.addi     r8,r8,0x44
   83493:	2d 81 00                	b.sw       0x0(r1),r12
   83496:	49 d1 34                	b.jal      8e6c4 <vPDM_MoveAllDataWithBufferIdFromListToList>
   83499:	8d a0 5c 08 00 20       	b.lwz      r13,0x4001038(r0)
   8349f:	04 6c                   	b.mov      r3,r12
   834a1:	4a 01 62                	b.jal      94ea2 <iPDM_ReconstructValidImageBitmap>
   834a4:	30 ed 30                	b.addi     r7,r13,0xc
   834a7:	40 03 30                	b.beqi     r3,0x0,834b3 <Device_vPdmInit+0x797>
   834aa:	8c e0 5c 08 00 20       	b.lwz      r7,0x4001038(r0)
   834b0:	30 e7 28                	b.addi     r7,r7,0x14
   834b3:	28 6a 88                	b.lhz      r3,0x10(r10)
   834b6:	24 8a 68                	b.lbz      r4,0x16(r10)
   834b9:	38 a0 70                	b.ori      r5,r0,0xe
   834bc:	30 c1 38                	b.addi     r6,r1,0x1c
   834bf:	31 01 32                	b.addi     r8,r1,0x4c
   834c2:	2c e1 00                	b.sw       0x0(r1),r7
   834c5:	30 e1 04                	b.addi     r7,r1,0x20
   834c8:	48 fe 34                	b.jal      8e6c4 <vPDM_MoveAllDataWithBufferIdFromListToList>
   834cb:	8c e0 5c 08 00 20       	b.lwz      r7,0x4001038(r0)
   834d1:	2d 47 62                	b.lwz      r10,0x44(r7)
   834d4:	8d 00 5c 08 00 20       	b.lwz      r8,0x4001038(r0)
   834da:	41 0a 25                	b.bnei     r10,0x0,8347e <Device_vPdmInit+0x762>
   834dd:	2d 48 64                	b.lwz      r10,0x24(r8)
   834e0:	0d 74                   	b.j        8359a <Device_vPdmInit+0x87e>
   834e2:	8c c0 5c 08 00 20       	b.lwz      r6,0x4001038(r0)
   834e8:	28 6a 88                	b.lhz      r3,0x10(r10)
   834eb:	38 a0 ff                	b.ori      r5,r0,0xff
   834ee:	30 c6 30                	b.addi     r6,r6,0xc
   834f1:	30 e1 04                	b.addi     r7,r1,0x20
   834f4:	00 84                   	b.movi     r4,0x2
   834f6:	49 05 b0                	b.jal      86b78 <iPDM_SearchForBufferIdInList>
   834f9:	8d 00 5c 08 00 20       	b.lwz      r8,0x4001038(r0)
   834ff:	3e 03 1c                	b.ff1      r3,r3
   83502:	31 83 ff                	b.addi     r12,r3,-0x1
   83505:	30 c1 28                	b.addi     r6,r1,0x14
   83508:	30 e1 18                	b.addi     r7,r1,0x18
   8350b:	31 08 24                	b.addi     r8,r8,0x24
   8350e:	00 a0                   	b.movi     r5,0x0
   83510:	28 6a 88                	b.lhz      r3,0x10(r10)
   83513:	24 8a 68                	b.lbz      r4,0x16(r10)
   83516:	6d 8c f9                	b.srli     r12,r12,0x1f
   83519:	48 d6 04                	b.jal      8b6c5 <iPDM_VerifyDataSequenceWithBufferId>
   8351c:	3e 03 1c                	b.ff1      r3,r3
   8351f:	60 e0 1d                	b.sub      r7,r0,r3
   83522:	6c e7 f9                	b.srli     r7,r7,0x1f
   83525:	3e 0c 68                	b.extbz    r13,r12
   83528:	61 87 61                	b.or       r12,r7,r12
   8352b:	3e 0c 60                	b.extbz    r12,r12
   8352e:	8c c0 5c 08 00 20       	b.lwz      r6,0x4001038(r0)
   83534:	41 0c 08                	b.bnei     r12,0x0,83544 <Device_vPdmInit+0x828>
   83537:	24 a1 28                	b.lbz      r5,0x14(r1)
   8353a:	24 e1 18                	b.lbz      r7,0x18(r1)
   8353d:	31 86 30                	b.addi     r12,r6,0xc
   83540:	d2 8a 7c c0             	b.beq      r5,r7,83573 <Device_vPdmInit+0x857>
   83544:	31 86 28                	b.addi     r12,r6,0x14
   83547:	40 0d 34                	b.beqi     r13,0x0,83573 <Device_vPdmInit+0x857>
   8354a:	28 6a 88                	b.lhz      r3,0x10(r10)
   8354d:	24 8a 68                	b.lbz      r4,0x16(r10)
   83550:	30 c6 24                	b.addi     r6,r6,0x24
   83553:	30 e1 38                	b.addi     r7,r1,0x1c
   83556:	00 a0                   	b.movi     r5,0x0
   83558:	48 11 b0                	b.jal      86b78 <iPDM_SearchForBufferIdInList>
   8355b:	41 03 18                	b.bnei     r3,0x0,83573 <Device_vPdmInit+0x857>
   8355e:	8c c0 5c 08 00 20       	b.lwz      r6,0x4001038(r0)
   83564:	2c 61 78                	b.lwz      r3,0x1c(r1)
   83567:	30 a6 24                	b.addi     r5,r6,0x24
   8356a:	38 80 30                	b.ori      r4,r0,0xc
   8356d:	30 c6 28                	b.addi     r6,r6,0x14
   83570:	48 6d 34                	b.jal      8e848 <vPDM_MoveFileRecordFromListToList>
   83573:	8d 00 5c 08 00 20       	b.lwz      r8,0x4001038(r0)
   83579:	28 6a 88                	b.lhz      r3,0x10(r10)
   8357c:	24 8a 68                	b.lbz      r4,0x16(r10)
   8357f:	30 e1 18                	b.addi     r7,r1,0x18
   83582:	38 a0 70                	b.ori      r5,r0,0xe
   83585:	30 c1 28                	b.addi     r6,r1,0x14
   83588:	31 08 24                	b.addi     r8,r8,0x24
   8358b:	2d 81 00                	b.sw       0x0(r1),r12
   8358e:	49 b2 34                	b.jal      8e6c4 <vPDM_MoveAllDataWithBufferIdFromListToList>
   83591:	8c e0 5c 08 00 20       	b.lwz      r7,0x4001038(r0)
   83597:	2d 47 64                	b.lwz      r10,0x24(r7)
   8359a:	d0 40 a1 2f             	b.bnei     r10,0x0,834e2 <Device_vPdmInit+0x7c6>
   8359e:	48 ec bc                	b.jal      92a7a <vPDM_DeleteUsedSegmentsOnDeallocList>
   835a1:	8d 40 5c 08 00 20       	b.lwz      r10,0x4001038(r0)
   835a7:	4a bc b0                	b.jal      86a9c <u8PDM_CalculateFileSystemCapacity>
   835aa:	20 6a 10                	b.sb       0x8(r10),r3
   835ad:	8d 40 5c 08 00 20       	b.lwz      r10,0x4001038(r0)
   835b3:	00 e8                   	b.movi     r7,0x1
   835b5:	2c ea 32                	b.sw       0x4c(r10),r7
   835b8:	98 e0 05 61 80 00       	b.ori      r7,r0,0x186a0
   835be:	2c ea 06                	b.sw       0x60(r10),r7
   835c1:	21 6a 2a                	b.sb       0x54(r10),r11
   835c4:	28 0a 1a                	b.sh       0x58(r10),r0
   835c7:	2c 0a 0a                	b.sw       0x50(r10),r0
   835ca:	2c 0a 3a                	b.sw       0x5c(r10),r0
   835cd:	4b cc b0                	b.jal      86a9c <u8PDM_CalculateFileSystemCapacity>
   835d0:	24 ea 80                	b.lbz      r7,0x1(r10)
   835d3:	60 67 1d                	b.sub      r3,r7,r3
   835d6:	3e 03 38                	b.extbz    r7,r3
   835d9:	28 ea 6a                	b.sh       0x56(r10),r7
   835dc:	98 60 16 d0 00 20       	b.ori      r3,r0,0x4000b68
   835e2:	98 80 ff ff 00 00       	b.ori      r4,r0,0xffff
   835e8:	98 a0 01 d0 00 20       	b.ori      r5,r0,0x4000b80
   835ee:	38 c0 10                	b.ori      r6,r0,0x8
   835f1:	49 67 70                	b.jal      8718b <PDM_eLoadRecord.constprop.127>
   835f4:	84 e0 16 d0 00 20       	b.lbz      r7,0x4000b68(r0)
   835fa:	d0 50 71 10             	b.bnei     r7,0x2,83682 <Device_vPdmInit+0x966>
   835fe:	8c e0 41 d0 00 20       	b.lwz      r7,0x4000b80(r0)
   83604:	9d 87 2e 88 80 11       	b.sfeqi    r7,-0x77feee8c
   8360a:	47 2a 90                	b.bf       8369f <Device_vPdmInit+0x983>
   8360d:	8c e0 5c 08 00 20       	b.lwz      r7,0x4001038(r0)
   83613:	2c 67 72                	b.lwz      r3,0x4c(r7)
   83616:	40 03 60                	b.beqi     r3,0x0,8361c <Device_vPdmInit+0x900>
   83619:	48 7d fc                	b.jal      93511 <OS_eEnterCriticalSection>
   8361c:	8c e0 5c 08 00 20       	b.lwz      r7,0x4001038(r0)
   83622:	2d 47 4a                	b.lwz      r10,0x50(r7)
   83625:	0e 20                   	b.j        83636 <Device_vPdmInit+0x91a>
   83627:	2d 6a 48                	b.lwz      r11,0x10(r10)
   8362a:	38 a0 18                	b.ori      r5,r0,0x18
   8362d:	04 6a                   	b.mov      r3,r10
   8362f:	00 80                   	b.movi     r4,0x0
   83631:	05 4b                   	b.mov      r10,r11
   83633:	4a 37 b2                	b.jal      96de4 <memset>
   83636:	40 0a d0                	b.beqi     r10,0x0,83641 <Device_vPdmInit+0x925>
   83639:	04 6a                   	b.mov      r3,r10
   8363b:	48 ad 6c                	b.jal      9110f <bPDM_IsDescriptorValid>
   8363e:	40 83 97                	b.beqi     r3,0x1,83627 <Device_vPdmInit+0x90b>
   83641:	8c e0 5c 08 00 20       	b.lwz      r7,0x4001038(r0)
   83647:	2c 07 0a                	b.sw       0x50(r7),r0
   8364a:	28 07 6a                	b.sh       0x56(r7),r0
   8364d:	28 07 1a                	b.sh       0x58(r7),r0
   83650:	49 50 bc                	b.jal      92a7a <vPDM_DeleteUsedSegmentsOnDeallocList>
   83653:	8c c0 5c 08 00 20       	b.lwz      r6,0x4001038(r0)
   83659:	38 60 30                	b.ori      r3,r0,0xc
   8365c:	30 a6 30                	b.addi     r5,r6,0xc
   8365f:	30 81 04                	b.addi     r4,r1,0x20
   83662:	30 c6 28                	b.addi     r6,r6,0x14
   83665:	48 17 d4                	b.jal      8e605 <vPDM_MoveAllDataFromListToList>
   83668:	8c e0 5c 08 00 20       	b.lwz      r7,0x4001038(r0)
   8366e:	24 c7 80                	b.lbz      r6,0x1(r7)
   83671:	2c 67 72                	b.lwz      r3,0x4c(r7)
   83674:	20 c7 10                	b.sb       0x8(r7),r6
   83677:	40 03 60                	b.beqi     r3,0x0,8367d <Device_vPdmInit+0x961>
   8367a:	4b 05 fc                	b.jal      934fd <OS_eExitCriticalSection>
   8367d:	48 51 88                	b.jal      87ca5 <vAHI_SwReset>
   83680:	0f e0                   	b.j        8369f <Device_vPdmInit+0x983>
   83682:	98 e0 2e 88 80 11       	b.ori      r7,r0,0x88011174
   83688:	98 60 16 d0 00 20       	b.ori      r3,r0,0x4000b68
   8368e:	8c e0 01 d0 00 20       	b.sw       0x4000b80(r0),r7
   83694:	00 ef                   	b.movi     r7,-0x1
   83696:	8c e0 21 d0 00 20       	b.sw       0x4000b84(r0),r7
   8369c:	4a f5 6c                	b.jal      91159 <PDM_vSaveRecord>
   8369f:	98 60 34 50 00 20       	b.ori      r3,r0,0x4000a2c
   836a5:	98 80 00 ff 00 00       	b.ori      r4,r0,0xff00
   836ab:	98 a0 22 50 00 20       	b.ori      r5,r0,0x4000a44
   836b1:	38 c0 08                	b.ori      r6,r0,0x10
   836b4:	01 88                   	b.movi     r12,0x1
   836b6:	8c 60 20 e0 00 20       	b.sw       0x4000704(r0),r3
   836bc:	4b cd 70                	b.jal      8718b <PDM_eLoadRecord.constprop.127>
   836bf:	98 e0 10 b0 00 20       	b.ori      r7,r0,0x4000d08
   836c5:	98 80 11 7f 00 00       	b.ori      r4,r0,0xfe88
   836cb:	98 a0 2c b0 00 20       	b.ori      r5,r0,0x4000d34
   836d1:	38 c0 08                	b.ori      r6,r0,0x10
   836d4:	98 60 38 b0 00 20       	b.ori      r3,r0,0x4000d1c
   836da:	99 40 00 00 01 fc       	b.ori      r10,r0,0x3f800000
   836e0:	99 60 00 00 5e 22       	b.ori      r11,r0,0x447a0000
   836e6:	8c e0 06 e0 00 20       	b.sw       0x4000760(r0),r7
   836ec:	98 e0 01 a0 00 20       	b.ori      r7,r0,0x4000580
   836f2:	8c e0 10 b0 00 20       	b.sw       0x4000d08(r0),r7
   836f8:	98 e0 11 d0 00 20       	b.ori      r7,r0,0x4000b88
   836fe:	8c e0 12 e0 00 20       	b.sw       0x4000748(r0),r7
   83704:	38 e0 f0                	b.ori      r7,r0,0xf
   83707:	80 e0 19 d0 00 20       	b.sb       0x4000b98(r0),r7
   8370d:	d8 e0 00 01             	b.addi     r7,r0,-0x8000
   83711:	88 e0 0d d0 00 20       	b.sh       0x4000bb0(r0),r7
   83717:	38 e0 98                	b.ori      r7,r0,0x19
   8371a:	80 e0 2d d0 00 20       	b.sb       0x4000bb4(r0),r7
   83720:	00 e2                   	b.movi     r7,0x4
   83722:	80 e0 ad d0 00 20       	b.sb       0x4000bb5(r0),r7
   83728:	8c e0 53 00 00 40       	b.lwz      r7,0x20000c8(r0)
   8372e:	81 80 52 b0 00 20       	b.sb       0x4000d4a(r0),r12
   83734:	94 e7 ff ff f3 ff       	b.andi     r7,r7,0xffcfffff
   8373a:	8c e0 13 00 00 40       	b.sw       0x20000c8(r0),r7
   83740:	98 e0 18 b0 00 20       	b.ori      r7,r0,0x4000d18
   83746:	8c e0 07 10 00 20       	b.sw       0x40008e0(r0),r7
   8374c:	98 e0 0d a0 00 20       	b.ori      r7,r0,0x40005b0
   83752:	8c e0 18 b0 00 20       	b.sw       0x4000d18(r0),r7
   83758:	8c 00 11 d0 00 20       	b.sw       0x4000b88(r0),r0
   8375e:	88 00 4d d0 00 20       	b.sh       0x4000bb2(r0),r0
   83764:	4b 91 70                	b.jal      8718b <PDM_eLoadRecord.constprop.127>
   83767:	8c e0 47 10 00 20       	b.lwz      r7,0x40008e0(r0)
   8376d:	98 80 d1 7f 00 00       	b.ori      r4,r0,0xfe8b
   83773:	98 60 00 10 00 20       	b.ori      r3,r0,0x4000800
   83779:	50 a7 04                	b.mlwz     r5,0x20(r7),0x0
   8377c:	08 c5                   	b.add      r6,r6,r5
   8377e:	98 a0 18 10 00 20       	b.ori      r5,r0,0x4000818
   83784:	2c c7 34                	b.sw       0x2c(r7),r6
   83787:	2c c7 1c                	b.sw       0x38(r7),r6
   8378a:	2c c7 54                	b.lwz      r6,0x28(r7)
   8378d:	2c c7 2c                	b.sw       0x34(r7),r6
   83790:	d8 c6 00 08             	b.addi     r6,r6,0x1000
   83794:	2c c7 14                	b.sw       0x28(r7),r6
   83797:	38 c0 2e                	b.ori      r6,r0,0x74
   8379a:	4a 3e 70                	b.jal      8718b <PDM_eLoadRecord.constprop.127>
   8379d:	00 68                   	b.movi     r3,0x1
   8379f:	4a 83 4c                	b.jal      902a4 <Node_vDebugOutdent.part.4.1915>
   837a2:	98 e0 1a 50 00 20       	b.ori      r7,r0,0x4000a58
   837a8:	98 80 1c 7f 00 00       	b.ori      r4,r0,0xfe38
   837ae:	98 a0 2e 50 00 20       	b.ori      r5,r0,0x4000a74
   837b4:	38 c0 08                	b.ori      r6,r0,0x10
   837b7:	98 60 3a 50 00 20       	b.ori      r3,r0,0x4000a5c
   837bd:	8c e0 0a e0 00 20       	b.sw       0x4000750(r0),r7
   837c3:	98 e0 3c 20 00 20       	b.ori      r7,r0,0x400043c
   837c9:	8c e0 1a 50 00 20       	b.sw       0x4000a58(r0),r7
   837cf:	48 f6 70                	b.jal      8718b <PDM_eLoadRecord.constprop.127>
   837d2:	8c e0 4a e0 00 20       	b.lwz      r7,0x4000750(r0)
   837d8:	98 c0 05 04 89 12       	b.ori      r6,r0,0x489120a0
   837de:	98 80 9c 7f 00 00       	b.ori      r4,r0,0xfe39
   837e4:	98 a0 1d 50 00 20       	b.ori      r5,r0,0x4000ab8
   837ea:	98 60 05 50 00 20       	b.ori      r3,r0,0x4000aa0
   837f0:	55 47 34                	b.msw      0x2c(r7),r10,0x0
   837f3:	2d 67 2c                	b.sw       0x34(r7),r11
   837f6:	21 87 02                	b.sb       0x40(r7),r12
   837f9:	99 80 00 00 04 82       	b.ori      r12,r0,0x41200000
   837ff:	2c c7 24                	b.sw       0x24(r7),r6
   83802:	98 e0 39 50 00 20       	b.ori      r7,r0,0x4000a9c
   83808:	38 c0 08                	b.ori      r6,r0,0x10
   8380b:	8c e0 1a e0 00 20       	b.sw       0x4000758(r0),r7
   83811:	98 e0 3d c0 00 20       	b.ori      r7,r0,0x40003bc
   83817:	8c e0 39 50 00 20       	b.sw       0x4000a9c(r0),r7
   8381d:	49 da 70                	b.jal      8718b <PDM_eLoadRecord.constprop.127>
   83820:	8c e0 5a e0 00 20       	b.lwz      r7,0x4000758(r0)
   83826:	98 c0 00 00 2a 42       	b.ori      r6,r0,0x42540000
   8382c:	98 80 ec 7f 00 00       	b.ori      r4,r0,0xfe37
   83832:	98 a0 3f 50 00 20       	b.ori      r5,r0,0x4000afc
   83838:	98 60 27 50 00 20       	b.ori      r3,r0,0x4000ae4
   8383e:	2c c7 34                	b.sw       0x2c(r7),r6
   83841:	98 c0 00 00 86 22       	b.ori      r6,r0,0x44610000
   83847:	2c c7 2c                	b.sw       0x34(r7),r6
   8384a:	98 c0 00 01 21 22       	b.ori      r6,r0,0x44848000
   83850:	2d 87 0c                	b.sw       0x30(r7),r12
   83853:	2c c7 24                	b.sw       0x24(r7),r6
   83856:	38 c0 08                	b.ori      r6,r0,0x10
   83859:	20 07 02                	b.sb       0x40(r7),r0
   8385c:	98 e0 07 50 00 20       	b.ori      r7,r0,0x4000ae0
   83862:	8c e0 2a e0 00 20       	b.sw       0x4000754(r0),r7
   83868:	98 e0 3c c0 00 20       	b.ori      r7,r0,0x400033c
   8386e:	8c e0 07 50 00 20       	b.sw       0x4000ae0(r0),r7
   83874:	4b a2 70                	b.jal      8718b <PDM_eLoadRecord.constprop.127>
   83877:	8c e0 6a e0 00 20       	b.lwz      r7,0x4000754(r0)
   8387d:	98 c0 00 00 0f 82       	b.ori      r6,r0,0x41f00000
   83883:	98 80 6c 7f 00 00       	b.ori      r4,r0,0xfe36
   83889:	98 a0 02 d0 00 20       	b.ori      r5,r0,0x4000b40
   8388f:	98 60 14 d0 00 20       	b.ori      r3,r0,0x4000b28
   83895:	2c c7 34                	b.sw       0x2c(r7),r6
   83898:	00 c4                   	b.movi     r6,0x2
   8389a:	20 c7 02                	b.sb       0x40(r7),r6
   8389d:	98 c0 00 5a cc e2       	b.ori      r6,r0,0x47335a00
   838a3:	2d 87 0c                	b.sw       0x30(r7),r12
   838a6:	2d 67 2c                	b.sw       0x34(r7),r11
   838a9:	2c c7 24                	b.sw       0x24(r7),r6
   838ac:	98 e0 24 d0 00 20       	b.ori      r7,r0,0x4000b24
   838b2:	38 c0 08                	b.ori      r6,r0,0x10
   838b5:	8c e0 3a e0 00 20       	b.sw       0x400075c(r0),r7
   838bb:	98 e0 3d 40 00 20       	b.ori      r7,r0,0x40002bc
   838c1:	8c e0 24 d0 00 20       	b.sw       0x4000b24(r0),r7
   838c7:	48 8c 70                	b.jal      8718b <PDM_eLoadRecord.constprop.127>
   838ca:	8c e0 7a e0 00 20       	b.lwz      r7,0x400075c(r0)
   838d0:	98 c0 00 00 12 c2       	b.ori      r6,r0,0x43480000
   838d6:	00 68                   	b.movi     r3,0x1
   838d8:	2c c7 0c                	b.sw       0x30(r7),r6
   838db:	00 cc                   	b.movi     r6,0x3
   838dd:	20 c7 02                	b.sb       0x40(r7),r6
   838e0:	98 c0 00 32 e3 62       	b.ori      r6,r0,0x46c74c00
   838e6:	2d 47 34                	b.sw       0x2c(r7),r10
   838e9:	2d 47 2c                	b.sw       0x34(r7),r10
   838ec:	2c c7 24                	b.sw       0x24(r7),r6
   838ef:	4a b6 4c                	b.jal      902a4 <Node_vDebugOutdent.part.4.1915>
   838f2:	0c 1c                   	b.j        839d2 <Device_vPdmInit+0xcb6>
   838f4:	2c 07 24                	b.sw       0x24(r7),r0
   838f7:	01 80                   	b.movi     r12,0x0
   838f9:	2c 07 14                	b.sw       0x28(r7),r0
   838fc:	39 c0 38                	b.ori      r14,r0,0x1c
   838ff:	01 ea                   	b.movi     r15,0x5
   83901:	2c 07 34                	b.sw       0x2c(r7),r0
   83904:	2c 07 0c                	b.sw       0x30(r7),r0
   83907:	2c 07 2c                	b.sw       0x34(r7),r0
   8390a:	2c 07 1c                	b.sw       0x38(r7),r0
   8390d:	2c 07 3c                	b.sw       0x3c(r7),r0
   83910:	2c 07 02                	b.sw       0x40(r7),r0
   83913:	2c 07 22                	b.sw       0x44(r7),r0
   83916:	2c 07 12                	b.sw       0x48(r7),r0
   83919:	46 18 ef                	b.j        83031 <Device_vPdmInit+0x315>
   8391c:	04 6a                   	b.mov      r3,r10
   8391e:	00 88                   	b.movi     r4,0x1
   83920:	48 33 ac                	b.jal      91050 <iPDM_SetVerifyBytesInFileSystemRecord>
   83923:	24 6a 10                	b.lbz      r3,0x8(r10)
   83926:	31 ad c8                	b.addi     r13,r13,0x13
   83929:	60 8d 64                	b.add      r4,r13,r12
   8392c:	3e 04 20                	b.extbz    r4,r4
   8392f:	00 a8                   	b.movi     r5,0x1
   83931:	4a 38 ac                	b.jal      90da2 <vPDM_WriteByteIntoEEPROM>
   83934:	04 6a                   	b.mov      r3,r10
   83936:	00 80                   	b.movi     r4,0x0
   83938:	48 63 ac                	b.jal      91050 <iPDM_SetVerifyBytesInFileSystemRecord>
   8393b:	46 47 ef                	b.j        8311d <Device_vPdmInit+0x401>
   8393e:	28 67 88                	b.lhz      r3,0x10(r7)
   83941:	24 87 68                	b.lbz      r4,0x16(r7)
   83944:	30 c1 24                	b.addi     r6,r1,0x24
   83947:	30 e1 38                	b.addi     r7,r1,0x1c
   8394a:	49 d1 30                	b.jal      86b78 <iPDM_SearchForBufferIdInList>
   8394d:	d0 00 36 85             	b.beqi     r3,0x0,83363 <Device_vPdmInit+0x647>
   83951:	0e e0                   	b.j        8396e <Device_vPdmInit+0xc52>
   83953:	28 67 88                	b.lhz      r3,0x10(r7)
   83956:	24 87 68                	b.lbz      r4,0x16(r7)
   83959:	00 bf                   	b.addi     r5,r5,-0x1
   8395b:	30 c1 24                	b.addi     r6,r1,0x24
   8395e:	30 e1 38                	b.addi     r7,r1,0x1c
   83961:	3e 05 28                	b.extbz    r5,r5
   83964:	48 a1 30                	b.jal      86b78 <iPDM_SearchForBufferIdInList>
   83967:	d0 00 39 b9             	b.beqi     r3,0x0,83340 <Device_vPdmInit+0x624>
   8396b:	46 07 5f                	b.j        8344b <Device_vPdmInit+0x72f>
   8396e:	2c c1 58                	b.lwz      r6,0x18(r1)
   83971:	2c e1 68                	b.lwz      r7,0x14(r1)
   83974:	24 a6 28                	b.lbz      r5,0x14(r6)
   83977:	28 67 88                	b.lhz      r3,0x10(r7)
   8397a:	24 87 68                	b.lbz      r4,0x16(r7)
   8397d:	00 bf                   	b.addi     r5,r5,-0x1
   8397f:	30 c1 24                	b.addi     r6,r1,0x24
   83982:	30 e1 38                	b.addi     r7,r1,0x1c
   83985:	3e 05 28                	b.extbz    r5,r5
   83988:	48 3e 30                	b.jal      86b78 <iPDM_SearchForBufferIdInList>
   8398b:	d0 00 34 79             	b.beqi     r3,0x0,8336d <Device_vPdmInit+0x651>
   8398f:	46 3d 5f                	b.j        8344b <Device_vPdmInit+0x72f>
   83992:	2c e1 58                	b.lwz      r7,0x18(r1)
   83995:	2c 61 78                	b.lwz      r3,0x1c(r1)
   83998:	24 e7 28                	b.lbz      r7,0x14(r7)
   8399b:	24 c3 c8                	b.lbz      r6,0x13(r3)
   8399e:	00 ff                   	b.addi     r7,r7,-0x1
   839a0:	d2 cc 7a 85             	b.bne      r6,r7,833b5 <Device_vPdmInit+0x699>
   839a4:	46 80 5f                	b.j        833a5 <Device_vPdmInit+0x689>
   839a7:	38 60 70                	b.ori      r3,r0,0xe
   839aa:	30 81 08                	b.addi     r4,r1,0x10
   839ad:	30 a1 24                	b.addi     r5,r1,0x24
   839b0:	04 c5                   	b.mov      r6,r5
   839b2:	4b 28 d4                	b.jal      8e605 <vPDM_MoveAllDataFromListToList>
   839b5:	2c 61 58                	b.lwz      r3,0x18(r1)
   839b8:	24 81 08                	b.lbz      r4,0x10(r1)
   839bb:	24 e3 28                	b.lbz      r7,0x14(r3)
   839be:	d2 ce 47 45             	b.bne      r7,r4,833ec <Device_vPdmInit+0x6d0>
   839c2:	46 24 5f                	b.j        833e6 <Device_vPdmInit+0x6ca>
   839c5:	25 0a 10                	b.lbz      r8,0x8(r10)
   839c8:	24 65 80                	b.lbz      r3,0x1(r5)
   839cb:	00 c0                   	b.movi     r6,0x0
   839cd:	00 e0                   	b.movi     r7,0x0
   839cf:	46 09 af                	b.j        82f5f <Device_vPdmInit+0x243>
   839d2:	47 be b8                	b.reti     0x7,0x1d
   839d5:	00 00                   	b.trap     0x0
	...

000839d8 <iUDP_GetUDPheaderSize>:
   839d8:	3e 04 2c                	b.ff1      r5,r4
   839db:	3e 03 34                	b.ff1      r6,r3
   839de:	00 bf                   	b.addi     r5,r5,-0x1
   839e0:	00 df                   	b.addi     r6,r6,-0x1
   839e2:	60 c5 31                	b.or       r6,r5,r6
   839e5:	04 e3                   	b.mov      r7,r3
   839e7:	45 06 ac                	b.bltsi    r6,0x0,83a1c <iUDP_GetUDPheaderSize+0x44>
   839ea:	38 c0 10                	b.ori      r6,r0,0x8
   839ed:	20 c4 00                	b.sb       0x0(r4),r6
   839f0:	28 c3 8c                	b.lhz      r6,0x30(r3)
   839f3:	6c c6 c1                	b.srli     r6,r6,0x3
   839f6:	20 c4 00                	b.sb       0x0(r4),r6
   839f9:	28 c3 97                	b.lhz      r6,0xe8(r3)
   839fc:	00 60                   	b.movi     r3,0x0
   839fe:	34 c6 e0                	b.andi     r6,r6,0x7
   83a01:	41 06 b8                	b.bnei     r6,0x0,83a1e <iUDP_GetUDPheaderSize+0x46>
   83a04:	28 e7 8c                	b.lhz      r7,0x30(r7)
   83a07:	34 c7 e0                	b.andi     r6,r7,0x7
   83a0a:	41 06 10                	b.bnei     r6,0x0,83a12 <iUDP_GetUDPheaderSize+0x3a>
   83a0d:	6c e7 c1                	b.srli     r7,r7,0x3
   83a10:	0f 80                   	b.j        83a17 <iUDP_GetUDPheaderSize+0x3f>
   83a12:	00 f2                   	b.addi     r7,r7,0x4
   83a14:	6c e7 c2                	b.srai     r7,r7,0x3
   83a17:	20 e4 00                	b.sb       0x0(r4),r7
   83a1a:	0c 80                   	b.j        83a1e <iUDP_GetUDPheaderSize+0x46>
   83a1c:	00 6f                   	b.movi     r3,-0x1
   83a1e:	47 d2 48                	b.jr       r9

00083a21 <boIdSearchMatch.17410>:
   83a21:	2c e4 50                	b.lwz      r7,0x8(r4)
   83a24:	2c 63 40                	b.lwz      r3,0x0(r3)
   83a27:	60 67 1a                	b.xor      r3,r7,r3
   83a2a:	3e 03 1c                	b.ff1      r3,r3
   83a2d:	00 7f                   	b.addi     r3,r3,-0x1
   83a2f:	6c 63 f9                	b.srli     r3,r3,0x1f
   83a32:	47 d2 48                	b.jr       r9

00083a35 <boPortSearchMatch.17406>:
   83a35:	28 e4 b8                	b.lhz      r7,0x1c(r4)
   83a38:	28 63 80                	b.lhz      r3,0x0(r3)
   83a3b:	60 67 1a                	b.xor      r3,r7,r3
   83a3e:	3e 03 1a                	b.exthz    r3,r3
   83a41:	00 7f                   	b.addi     r3,r3,-0x1
   83a43:	6c 63 f9                	b.srli     r3,r3,0x1f
   83a46:	47 d2 48                	b.jr       r9

00083a49 <iWriteIPv6andDataHeaders>:
   83a49:	47 ae c0                	b.entri    0x7,0x3
   83a4c:	20 01 e0                	b.sb       0x7(r1),r0
   83a4f:	05 65                   	b.mov      r11,r5
   83a51:	05 c3                   	b.mov      r14,r3
   83a53:	05 a4                   	b.mov      r13,r4
   83a55:	05 46                   	b.mov      r10,r6
   83a57:	05 e7                   	b.mov      r15,r7
   83a59:	05 88                   	b.mov      r12,r8
   83a5b:	00 a0                   	b.movi     r5,0x0
   83a5d:	d0 00 b5 90             	b.beqi     r11,0x0,83af7 <iWriteIPv6andDataHeaders+0xae>
   83a61:	8c e0 65 08 00 20       	b.lwz      r7,0x40010a4(r0)
   83a67:	30 a1 a0                	b.addi     r5,r1,0x5
   83a6a:	04 86                   	b.mov      r4,r6
   83a6c:	2c e7 74                	b.lwz      r7,0x2c(r7)
   83a6f:	04 c8                   	b.mov      r6,r8
   83a71:	47 d1 38                	b.jalr     r7
   83a74:	24 81 a0                	b.lbz      r4,0x5(r1)
   83a77:	28 ec b8                	b.lhz      r7,0x1c(r12)
   83a7a:	d3 8e 41 00             	b.bgeu     r7,r4,83a82 <iWriteIPv6andDataHeaders+0x39>
   83a7e:	00 af                   	b.movi     r5,-0x1
   83a80:	0f b8                   	b.j        83af7 <iWriteIPv6andDataHeaders+0xae>
   83a82:	8c e0 65 08 00 20       	b.lwz      r7,0x40010a4(r0)
   83a88:	08 8e                   	b.add      r4,r4,r14
   83a8a:	30 a1 60                	b.addi     r5,r1,0x6
   83a8d:	30 c1 e0                	b.addi     r6,r1,0x7
   83a90:	04 6a                   	b.mov      r3,r10
   83a92:	2c e7 78                	b.lwz      r7,0x1c(r7)
   83a95:	47 d1 38                	b.jalr     r7
   83a98:	24 e1 60                	b.lbz      r7,0x6(r1)
   83a9b:	24 c1 a0                	b.lbz      r6,0x5(r1)
   83a9e:	28 ac b8                	b.lhz      r5,0x1c(r12)
   83aa1:	60 87 34                	b.add      r4,r7,r6
   83aa4:	d3 48 55 bf             	b.bgts     r4,r5,83a7e <iWriteIPv6andDataHeaders+0x35>
   83aa8:	24 aa cf                	b.lbz      r5,0xf3(r10)
   83aab:	40 05 34                	b.beqi     r5,0x0,83ad7 <iWriteIPv6andDataHeaders+0x8e>
   83aae:	40 8d d0                	b.beqi     r13,0x1,83ab9 <iWriteIPv6andDataHeaders+0x70>
   83ab1:	60 ab 35                	b.sub      r5,r11,r6
   83ab4:	60 a5 3d                	b.sub      r5,r5,r7
   83ab7:	0f 40                   	b.j        83ac2 <iWriteIPv6andDataHeaders+0x79>
   83ab9:	24 a1 e0                	b.lbz      r5,0x7(r1)
   83abc:	60 ab 2d                	b.sub      r5,r11,r5
   83abf:	30 a5 1b                	b.addi     r5,r5,-0x28
   83ac2:	24 8a 8f                	b.lbz      r4,0xf1(r10)
   83ac5:	3e 05 2a                	b.exthz    r5,r5
   83ac8:	28 aa 57                	b.sh       0xea(r10),r5
   83acb:	3c 24 88                	b.sfnei    r4,0x11
   83ace:	47 29 00                	b.bf       83ad7 <iWriteIPv6andDataHeaders+0x8e>
   83ad1:	30 a5 10                	b.addi     r5,r5,0x8
   83ad4:	28 aa 34                	b.sh       0x2c(r10),r5
   83ad7:	08 e6                   	b.add      r7,r7,r6
   83ad9:	00 a2                   	b.movi     r5,0x4
   83adb:	20 ef 00                	b.sb       0x0(r15),r7
   83ade:	00 e8                   	b.movi     r7,0x1
   83ae0:	20 ea 3b                	b.sb       0xdc(r10),r7
   83ae3:	41 03 28                	b.bnei     r3,0x0,83af7 <iWriteIPv6andDataHeaders+0xae>
   83ae6:	8c e0 65 08 00 20       	b.lwz      r7,0x40010a4(r0)
   83aec:	00 a4                   	b.movi     r5,0x2
   83aee:	28 e7 b9                	b.lhz      r7,0x9c(r7)
   83af1:	3d a7 58                	b.sfgeu    r7,r11
   83af4:	64 a0 2a                	b.cmov     r5,r0,r5
   83af7:	04 65                   	b.mov      r3,r5
   83af9:	47 be c0                	b.reti     0x7,0x3

00083afc <iIPv6_CalculateIPv6AddressChecksum.1507>:
   83afc:	3e 04 34                	b.ff1      r6,r4
   83aff:	3e 03 3c                	b.ff1      r7,r3
   83b02:	00 df                   	b.addi     r6,r6,-0x1
   83b04:	00 ff                   	b.addi     r7,r7,-0x1
   83b06:	60 e6 39                	b.or       r7,r6,r7
   83b09:	42 07 28                	b.bgesi    r7,0x0,83b1d <iIPv6_CalculateIPv6AddressChecksum.1507+0x21>
   83b0c:	8c e0 65 08 00 20       	b.lwz      r7,0x40010a4(r0)
   83b12:	d8 c0 60 80             	b.addi     r6,r0,0x106
   83b16:	00 6f                   	b.movi     r3,-0x1
   83b18:	2c c7 32                	b.sw       0x4c(r7),r6
   83b1b:	0f 90                   	b.j        83b42 <iIPv6_CalculateIPv6AddressChecksum.1507+0x46>
   83b1d:	2c 04 00                	b.sw       0x0(r4),r0
   83b20:	00 e0                   	b.movi     r7,0x0
   83b22:	60 a3 3c                	b.add      r5,r3,r7
   83b25:	00 f2                   	b.addi     r7,r7,0x4
   83b27:	3c 27 08                	b.sfnei    r7,0x10
   83b2a:	29 05 80                	b.lhz      r8,0x0(r5)
   83b2d:	2c c4 40                	b.lwz      r6,0x0(r4)
   83b30:	08 c8                   	b.add      r6,r6,r8
   83b32:	2c c4 00                	b.sw       0x0(r4),r6
   83b35:	28 a5 c0                	b.lhz      r5,0x2(r5)
   83b38:	08 c5                   	b.add      r6,r6,r5
   83b3a:	2c c4 00                	b.sw       0x0(r4),r6
   83b3d:	47 2a 7f                	b.bf       83b22 <iIPv6_CalculateIPv6AddressChecksum.1507+0x26>
   83b40:	00 60                   	b.movi     r3,0x0
   83b42:	47 d2 48                	b.jr       r9

00083b45 <iIPv6_CalculateIPv6PseudoHeaderChecksum>:
   83b45:	3e 05 34                	b.ff1      r6,r5
   83b48:	3e 03 3c                	b.ff1      r7,r3
   83b4b:	00 df                   	b.addi     r6,r6,-0x1
   83b4d:	00 ff                   	b.addi     r7,r7,-0x1
   83b4f:	47 ac a0                	b.entri    0x3,0x5
   83b52:	60 e6 39                	b.or       r7,r6,r7
   83b55:	05 43                   	b.mov      r10,r3
   83b57:	05 64                   	b.mov      r11,r4
   83b59:	42 07 28                	b.bgesi    r7,0x0,83b6d <iIPv6_CalculateIPv6PseudoHeaderChecksum+0x28>
   83b5c:	8c e0 65 08 00 20       	b.lwz      r7,0x40010a4(r0)
   83b62:	d8 c0 60 80             	b.addi     r6,r0,0x106
   83b66:	00 6f                   	b.movi     r3,-0x1
   83b68:	2c c7 32                	b.sw       0x4c(r7),r6
   83b6b:	0d d0                   	b.j        83b99 <iIPv6_CalculateIPv6PseudoHeaderChecksum+0x54>
   83b6d:	30 81 10                	b.addi     r4,r1,0x8
   83b70:	30 63 10                	b.addi     r3,r3,0x8
   83b73:	2c a1 20                	b.sw       0x4(r1),r5
   83b76:	49 87 ff                	b.jal      83afc <iIPv6_CalculateIPv6AddressChecksum.1507>
   83b79:	30 6a 18                	b.addi     r3,r10,0x18
   83b7c:	30 81 30                	b.addi     r4,r1,0xc
   83b7f:	4a fb ff                	b.jal      83afc <iIPv6_CalculateIPv6AddressChecksum.1507>
   83b82:	2c c1 70                	b.lwz      r6,0xc(r1)
   83b85:	2c e1 50                	b.lwz      r7,0x8(r1)
   83b88:	2c a1 60                	b.lwz      r5,0x4(r1)
   83b8b:	08 e6                   	b.add      r7,r7,r6
   83b8d:	00 60                   	b.movi     r3,0x0
   83b8f:	24 ca 8f                	b.lbz      r6,0xf1(r10)
   83b92:	08 e6                   	b.add      r7,r7,r6
   83b94:	09 67                   	b.add      r11,r11,r7
   83b96:	2d 65 00                	b.sw       0x0(r5),r11
   83b99:	47 bc a0                	b.reti     0x3,0x5

00083b9c <boBufferByHandleSearchMatch.16561>:
   83b9c:	2c a4 47                	b.lwz      r5,0xe0(r4)
   83b9f:	2c c3 60                	b.lwz      r6,0x4(r3)
   83ba2:	00 e0                   	b.movi     r7,0x0
   83ba4:	d2 ca 66 80             	b.bne      r5,r6,83bba <boBufferByHandleSearchMatch.16561+0x1e>
   83ba8:	24 a4 1f                	b.lbz      r5,0xf8(r4)
   83bab:	24 c3 00                	b.lbz      r6,0x0(r3)
   83bae:	d2 cc 53 00             	b.bne      r6,r5,83bba <boBufferByHandleSearchMatch.16561+0x1e>
   83bb2:	00 e8                   	b.movi     r7,0x1
   83bb4:	41 06 60                	b.bnei     r6,0x0,83bba <boBufferByHandleSearchMatch.16561+0x1e>
   83bb7:	24 e4 3b                	b.lbz      r7,0xdc(r4)
   83bba:	04 67                   	b.mov      r3,r7
   83bbc:	47 d2 48                	b.jr       r9

00083bbf <boTagIdSearchMatch.16565>:
   83bbf:	28 c3 80                	b.lhz      r6,0x0(r3)
   83bc2:	24 e4 b7                	b.lbz      r7,0xed(r4)
   83bc5:	00 60                   	b.movi     r3,0x0
   83bc7:	d2 ce 62 80             	b.bne      r7,r6,83bdb <boTagIdSearchMatch.16565+0x1c>
   83bcb:	24 64 9f                	b.lbz      r3,0xf9(r4)
   83bce:	00 e8                   	b.movi     r7,0x1
   83bd0:	60 63 3a                	b.xor      r3,r3,r7
   83bd3:	3e 03 18                	b.extbz    r3,r3
   83bd6:	00 7f                   	b.addi     r3,r3,-0x1
   83bd8:	6c 63 f9                	b.srli     r3,r3,0x1f
   83bdb:	47 d2 48                	b.jr       r9

00083bde <boBufferReadyToTXSearchMatch.16557>:
   83bde:	24 e4 9f                	b.lbz      r7,0xf9(r4)
   83be1:	00 60                   	b.movi     r3,0x0
   83be3:	41 87 88                	b.bnei     r7,0x1,83bf4 <boBufferReadyToTXSearchMatch.16557+0x16>
   83be6:	24 64 db                	b.lbz      r3,0xdb(r4)
   83be9:	60 63 3a                	b.xor      r3,r3,r7
   83bec:	3e 03 18                	b.extbz    r3,r3
   83bef:	00 7f                   	b.addi     r3,r3,-0x1
   83bf1:	6c 63 f9                	b.srli     r3,r3,0x1f
   83bf4:	47 d2 48                	b.jr       r9

00083bf7 <boBufferByTagIdAndSrcAddrSearchMatch.16553>:
   83bf7:	28 c3 80                	b.lhz      r6,0x0(r3)
   83bfa:	28 a4 b7                	b.lhz      r5,0xec(r4)
   83bfd:	04 e3                   	b.mov      r7,r3
   83bff:	00 60                   	b.movi     r3,0x0
   83c01:	d2 ca 60 a0             	b.bne      r5,r6,83c51 <boBufferByTagIdAndSrcAddrSearchMatch.16553+0x5a>
   83c05:	24 a4 1f                	b.lbz      r5,0xf8(r4)
   83c08:	24 c7 40                	b.lbz      r6,0x2(r7)
   83c0b:	d2 ca 66 20             	b.bne      r5,r6,83c51 <boBufferByTagIdAndSrcAddrSearchMatch.16553+0x5a>
   83c0f:	2c e7 60                	b.lwz      r7,0x4(r7)
   83c12:	24 c7 40                	b.lbz      r6,0x2(r7)
   83c15:	41 c6 84                	b.bnei     r6,0x3,83c36 <boBufferByTagIdAndSrcAddrSearchMatch.16553+0x3f>
   83c18:	24 c4 32                	b.lbz      r6,0x4c(r4)
   83c1b:	41 86 6c                	b.bnei     r6,0x1,83c51 <boBufferByTagIdAndSrcAddrSearchMatch.16553+0x5a>
   83c1e:	2c a4 62                	b.lwz      r5,0x44(r4)
   83c21:	2c c7 60                	b.lwz      r6,0x4(r7)
   83c24:	d2 ca 6b 40             	b.bne      r5,r6,83c51 <boBufferByTagIdAndSrcAddrSearchMatch.16553+0x5a>
   83c28:	2c c4 52                	b.lwz      r6,0x48(r4)
   83c2b:	2c e7 50                	b.lwz      r7,0x8(r7)
   83c2e:	d2 cc 7c 40             	b.bne      r6,r7,83c51 <boBufferByTagIdAndSrcAddrSearchMatch.16553+0x5a>
   83c32:	00 68                   	b.movi     r3,0x1
   83c34:	0e e0                   	b.j        83c51 <boBufferByTagIdAndSrcAddrSearchMatch.16553+0x5a>
   83c36:	41 46 d8                	b.bnei     r6,0x2,83c51 <boBufferByTagIdAndSrcAddrSearchMatch.16553+0x5a>
   83c39:	24 c4 32                	b.lbz      r6,0x4c(r4)
   83c3c:	41 06 a8                	b.bnei     r6,0x0,83c51 <boBufferByTagIdAndSrcAddrSearchMatch.16553+0x5a>
   83c3f:	28 a4 a2                	b.lhz      r5,0x44(r4)
   83c42:	28 c7 80                	b.lhz      r6,0x0(r7)
   83c45:	d2 ca 63 00             	b.bne      r5,r6,83c51 <boBufferByTagIdAndSrcAddrSearchMatch.16553+0x5a>
   83c49:	28 c4 e2                	b.lhz      r6,0x46(r4)
   83c4c:	28 e7 a0                	b.lhz      r7,0x4(r7)
   83c4f:	0f ef                   	b.j        83c2e <boBufferByTagIdAndSrcAddrSearchMatch.16553+0x37>
   83c51:	47 d2 48                	b.jr       r9

00083c54 <boAddressSearchMatch.16549>:
   83c54:	d8 84 00 80             	b.addi     r4,r4,0x100
   83c58:	60 64 1a                	b.xor      r3,r4,r3
   83c5b:	3e 03 1c                	b.ff1      r3,r3
   83c5e:	00 7f                   	b.addi     r3,r3,-0x1
   83c60:	6c 63 f9                	b.srli     r3,r3,0x1f
   83c63:	47 d2 48                	b.jr       r9

00083c66 <eEUI_CompareMulticast.1556>:
   83c66:	47 aa 80                	b.entri    0x5,0x1
   83c69:	2d 63 40                	b.lwz      r11,0x0(r3)
   83c6c:	6c cb 09                	b.srli     r6,r11,0x10
   83c6f:	3e 06 39                	b.extbs    r7,r6
   83c72:	42 07 a0                	b.bgesi    r7,0x0,83c77 <eEUI_CompareMulticast.1556+0x11>
   83c75:	0f ec                   	b.j        83d54 <eEUI_CompareMulticast.1556+0xee>
   83c77:	34 a6 02                	b.andi     r5,r6,0x40
   83c7a:	00 e6                   	b.movi     r7,0x6
   83c7c:	d0 40 5d b0             	b.bnei     r5,0x0,83d57 <eEUI_CompareMulticast.1556+0xf1>
   83c80:	35 46 f0                	b.andi     r10,r6,0xf
   83c83:	34 c6 0c                	b.andi     r6,r6,0x30
   83c86:	38 e0 10                	b.ori      r7,r0,0x8
   83c89:	3c 06 04                	b.sfeqi    r6,0x20
   83c8c:	47 2d 30                	b.bf       83d57 <eEUI_CompareMulticast.1556+0xf1>
   83c8f:	3c 06 0c                	b.sfeqi    r6,0x30
   83c92:	47 21 a0                	b.bf       83cea <eEUI_CompareMulticast.1556+0x84>
   83c95:	3c 06 08                	b.sfeqi    r6,0x10
   83c98:	47 21 20                	b.bf       83ce0 <eEUI_CompareMulticast.1556+0x7a>
   83c9b:	95 6b ff ff 00 00       	b.andi     r11,r11,0xffff
   83ca1:	d0 40 bc d0             	b.bnei     r11,0x0,83d54 <eEUI_CompareMulticast.1556+0xee>
   83ca5:	2c e3 60                	b.lwz      r7,0x4(r3)
   83ca8:	d0 40 73 50             	b.bnei     r7,0x0,83d54 <eEUI_CompareMulticast.1556+0xee>
   83cac:	2c e3 50                	b.lwz      r7,0x8(r3)
   83caf:	d0 40 7a 50             	b.bnei     r7,0x0,83d54 <eEUI_CompareMulticast.1556+0xee>
   83cb3:	2c e3 70                	b.lwz      r7,0xc(r3)
   83cb6:	40 47 e8                	b.beqi     r7,0x2,83ccd <eEUI_CompareMulticast.1556+0x67>
   83cb9:	3c 07 68                	b.sfeqi    r7,0x16
   83cbc:	47 28 80                	b.bf       83ccd <eEUI_CompareMulticast.1556+0x67>
   83cbf:	d0 60 7a 90             	b.bnei     r7,0x1,83d54 <eEUI_CompareMulticast.1556+0xee>
   83cc3:	01 5f                   	b.addi     r10,r10,-0x1
   83cc5:	00 ea                   	b.movi     r7,0x5
   83cc7:	d1 e0 ab 10             	b.bgtui    r10,0x1,83d54 <eEUI_CompareMulticast.1556+0xee>
   83ccb:	0c c4                   	b.j        83d57 <eEUI_CompareMulticast.1556+0xf1>
   83ccd:	8c e0 65 08 00 20       	b.lwz      r7,0x40010a4(r0)
   83cd3:	24 e7 12                	b.lbz      r7,0x48(r7)
   83cd6:	41 87 7e                	b.bnei     r7,0x1,83d54 <eEUI_CompareMulticast.1556+0xee>
   83cd9:	00 e6                   	b.movi     r7,0x6
   83cdb:	41 4a 9e                	b.bnei     r10,0x2,83d54 <eEUI_CompareMulticast.1556+0xee>
   83cde:	0e 78                   	b.j        83d57 <eEUI_CompareMulticast.1556+0xf1>
   83ce0:	00 ee                   	b.movi     r7,0x7
   83ce2:	d1 d0 aa e0             	b.bgtui    r10,0x2,83d57 <eEUI_CompareMulticast.1556+0xf1>
   83ce6:	00 e2                   	b.movi     r7,0x4
   83ce8:	0f d8                   	b.j        83d57 <eEUI_CompareMulticast.1556+0xf1>
   83cea:	8c c0 65 08 00 20       	b.lwz      r6,0x40010a4(r0)
   83cf0:	2d a3 60                	b.lwz      r13,0x4(r3)
   83cf3:	2c e6 41                	b.lwz      r7,0x80(r6)
   83cf6:	2d 83 50                	b.lwz      r12,0x8(r3)
   83cf9:	61 ad 3a                	b.xor      r13,r13,r7
   83cfc:	38 a0 02                	b.ori      r5,r0,0x40
   83cff:	00 60                   	b.movi     r3,0x0
   83d01:	2c e6 7e                	b.lwz      r7,0x7c(r6)
   83d04:	00 88                   	b.movi     r4,0x1
   83d06:	61 8c 3a                	b.xor      r12,r12,r7
   83d09:	34 eb ff                	b.andi     r7,r11,0xff
   83d0c:	60 a5 3d                	b.sub      r5,r5,r7
   83d0f:	4b 26 b2                	b.jal      972a2 <__ashldi3>
   83d12:	60 80 25                	b.sub      r4,r0,r4
   83d15:	3c 24 00                	b.sfnei    r4,0x0
   83d18:	00 e8                   	b.movi     r7,0x1
   83d1a:	60 60 1d                	b.sub      r3,r0,r3
   83d1d:	64 e7 02                	b.cmov     r7,r7,r0
   83d20:	60 e3 3d                	b.sub      r7,r3,r7
   83d23:	61 a7 68                	b.and      r13,r7,r13
   83d26:	61 84 60                	b.and      r12,r4,r12
   83d29:	60 8d 61                	b.or       r4,r13,r12
   83d2c:	00 e6                   	b.movi     r7,0x6
   83d2e:	41 04 94                	b.bnei     r4,0x0,83d57 <eEUI_CompareMulticast.1556+0xf1>
   83d31:	38 c0 02                	b.ori      r6,r0,0x40
   83d34:	61 6b 32                	b.xor      r11,r11,r6
   83d37:	3e 0b 58                	b.extbz    r11,r11
   83d3a:	01 7f                   	b.addi     r11,r11,-0x1
   83d3c:	00 e8                   	b.movi     r7,0x1
   83d3e:	3c ea 40                	b.sfleui   r10,0x2
   83d41:	6d 6b f9                	b.srli     r11,r11,0x1f
   83d44:	64 e7 02                	b.cmov     r7,r7,r0
   83d47:	60 e7 59                	b.or       r7,r7,r11
   83d4a:	3e 07 38                	b.extbz    r7,r7
   83d4d:	41 07 99                	b.bnei     r7,0x0,83ce6 <eEUI_CompareMulticast.1556+0x80>
   83d50:	00 ee                   	b.movi     r7,0x7
   83d52:	0e 80                   	b.j        83d57 <eEUI_CompareMulticast.1556+0xf1>
   83d54:	38 e0 10                	b.ori      r7,r0,0x8
   83d57:	04 67                   	b.mov      r3,r7
   83d59:	47 ba 80                	b.reti     0x5,0x1

00083d5c <vHandleNwkCallback.15730>:
   83d5c:	8c e0 57 30 00 20       	b.lwz      r7,0x4000ce8(r0)
   83d62:	47 a8 80                	b.entri    0x1,0x1
   83d65:	40 07 38                	b.beqi     r7,0x0,83d81 <vHandleNwkCallback.15730+0x25>
   83d68:	3c e4 10                	b.sfleui   r4,0x8
   83d6b:	47 2b 00                	b.bf       83d78 <vHandleNwkCallback.15730+0x1c>
   83d6e:	00 91                   	b.addi     r4,r4,-0x8
   83d70:	30 a5 10                	b.addi     r5,r5,0x8
   83d73:	3e 04 20                	b.extbz    r4,r4
   83d76:	0d 80                   	b.j        83d7c <vHandleNwkCallback.15730+0x20>
   83d78:	00 a0                   	b.movi     r5,0x0
   83d7a:	00 80                   	b.movi     r4,0x0
   83d7c:	47 d1 38                	b.jalr     r7
   83d7f:	0c 80                   	b.j        83d83 <vHandleNwkCallback.15730+0x27>
   83d81:	00 68                   	b.movi     r3,0x1
   83d83:	47 b8 80                	b.reti     0x1,0x1

00083d86 <vQueueApi.14541>:
   83d86:	38 a0 28                	b.ori      r5,r0,0x14
   83d89:	98 60 23 b0 00 20       	b.ori      r3,r0,0x4000dc4
   83d8f:	47 a8 80                	b.entri    0x1,0x1
   83d92:	d4 53 43 ef             	b.jal      5c <memcpy>
   83d96:	47 b8 80                	b.reti     0x1,0x1

00083d99 <vEstablishRoute_Backoff.13187>:
   83d99:	8c e0 57 10 00 20       	b.lwz      r7,0x40008e8(r0)
   83d9f:	00 c8                   	b.movi     r6,0x1
   83da1:	c0 c7 94 80             	b.sb       0x129(r7),r6
   83da5:	47 d2 48                	b.jr       r9

00083da8 <vActiveScan_Backoff.13192>:
   83da8:	47 d2 48                	b.jr       r9

00083dab <vNed_StateTimeoutHandler>:
   83dab:	8c e0 57 10 00 20       	b.lwz      r7,0x40008e8(r0)
   83db1:	00 c8                   	b.movi     r6,0x1
   83db3:	cc c7 32 80             	b.sw       0x14c(r7),r6
   83db7:	47 d2 48                	b.jr       r9

00083dba <vNed_PollPeriodHandler>:
   83dba:	8c e0 57 10 00 20       	b.lwz      r7,0x40008e8(r0)
   83dc0:	00 c8                   	b.movi     r6,0x1
   83dc2:	c0 c7 54 80             	b.sb       0x12a(r7),r6
   83dc6:	47 d2 48                	b.jr       r9

00083dc9 <vNed_PollTimeoutHandler>:
   83dc9:	8c e0 57 10 00 20       	b.lwz      r7,0x40008e8(r0)
   83dcf:	c4 c7 b8 80             	b.lbz      r6,0x11d(r7)
   83dd3:	41 86 a4                	b.bnei     r6,0x1,83df8 <vNed_PollTimeoutHandler+0x2f>
   83dd6:	c0 07 b8 80             	b.sb       0x11d(r7),r0
   83dda:	8c e0 77 10 00 20       	b.lwz      r7,0x40008ec(r0)
   83de0:	c4 c7 26 80             	b.lbz      r6,0x164(r7)
   83de4:	3c 06 b0                	b.sfeqi    r6,0xd
   83de7:	47 29 00                	b.bf       83df0 <vNed_PollTimeoutHandler+0x27>
   83dea:	3c 06 f0                	b.sfeqi    r6,0xf
   83ded:	47 3d 00                	b.bnf      83df8 <vNed_PollTimeoutHandler+0x2f>
   83df0:	2c c7 44                	b.lwz      r6,0x20(r7)
   83df3:	00 d8                   	b.addi     r6,r6,0x1
   83df5:	2c c7 04                	b.sw       0x20(r7),r6
   83df8:	47 d2 48                	b.jr       r9

00083dfb <vNed_ScanTimeoutHandler>:
   83dfb:	8c e0 77 10 00 20       	b.lwz      r7,0x40008ec(r0)
   83e01:	47 a8 80                	b.entri    0x1,0x1
   83e04:	c4 c7 26 80             	b.lbz      r6,0x164(r7)
   83e08:	00 d7                   	b.addi     r6,r6,-0x2
   83e0a:	3e 06 30                	b.extbz    r6,r6
   83e0d:	3c a6 30                	b.sfgtui   r6,0xc
   83e10:	47 28 e0                	b.bf       83e81 <vNed_ScanTimeoutHandler+0x86>
   83e13:	6c c6 40                	b.slli     r6,r6,0x2
   83e16:	90 c6 24 7c 10 00       	b.addi     r6,r6,0x83e24
   83e1c:	2c c6 40                	b.lwz      r6,0x0(r6)
   83e1f:	47 d2 30                	b.jr       r6
   83e22:	00 00                   	b.trap     0x0
   83e24:	00 08                   	b.trap     0x1
   83e26:	3e 58 00                	b.abs      r0,r24
   83e29:	08 3e                   	b.add      r1,r1,r30
   83e2b:	81 00 08 3e 58 00       	b.sb       0x1a7c10(r0),r8
   83e31:	08 3e                   	b.add      r1,r1,r30
   83e33:	81 00 08 3e 81 00       	b.sb       0x817c10(r0),r8
   83e39:	08 3e                   	b.add      r1,r1,r30
   83e3b:	5f                      	.word 0x5f
   83e3c:	00 08                   	b.trap     0x1
   83e3e:	3e                      	.word 0x3e
   83e3f:	63 00 08                	b.and      r24,r0,r1
   83e42:	3e 81 00                	b.extbz    r0,r1
   83e45:	08 3e                   	b.add      r1,r1,r30
   83e47:	81 00 08 3e 81 00       	b.sb       0x817c10(r0),r8
   83e4d:	08 3e                   	b.add      r1,r1,r30
   83e4f:	81 00 08 3e 81 00       	b.sb       0x817c10(r0),r8
   83e55:	08 3e                   	b.add      r1,r1,r30
   83e57:	6b 00 c8                	b.subb     r24,r0,r25
   83e5a:	20 c7 18                	b.sb       0x18(r7),r6
   83e5d:	0c 90                   	b.j        83e81 <vNed_ScanTimeoutHandler+0x86>
   83e5f:	00 ca                   	b.movi     r6,0x5
   83e61:	0c 80                   	b.j        83e65 <vNed_ScanTimeoutHandler+0x6a>
   83e63:	00 c6                   	b.movi     r6,0x6
   83e65:	c0 c7 26 80             	b.sb       0x164(r7),r6
   83e69:	0c 60                   	b.j        83e81 <vNed_ScanTimeoutHandler+0x86>
   83e6b:	cc c7 79 80             	b.lwz      r6,0x19c(r7)
   83e6f:	40 06 48                	b.beqi     r6,0x0,83e81 <vNed_ScanTimeoutHandler+0x86>
   83e72:	c4 a7 45 80             	b.lbz      r5,0x1a2(r7)
   83e76:	cc 07 39 80             	b.sw       0x19c(r7),r0
   83e7a:	c0 a7 26 80             	b.sb       0x164(r7),r5
   83e7e:	47 d1 30                	b.jalr     r6
   83e81:	47 b8 80                	b.reti     0x1,0x1

00083e84 <bOND_SafeToSleep.14529>:
   83e84:	47 a8 80                	b.entri    0x1,0x1
   83e87:	4a 30 4c                	b.jal      906b8 <bJnc_IsStackRunning>
   83e8a:	40 03 e8                	b.beqi     r3,0x0,83ea1 <bOND_SafeToSleep.14529+0x1d>
   83e8d:	84 e0 1f b0 00 20       	b.lbz      r7,0x4000df8(r0)
   83e93:	40 07 70                	b.beqi     r7,0x0,83ea1 <bOND_SafeToSleep.14529+0x1d>
   83e96:	84 e0 f5 b0 00 20       	b.lbz      r7,0x4000daf(r0)
   83e9c:	00 60                   	b.movi     r3,0x0
   83e9e:	41 87 30                	b.bnei     r7,0x1,83eaa <bOND_SafeToSleep.14529+0x26>
   83ea1:	8c 60 57 b0 00 20       	b.lwz      r3,0x4000de8(r0)
   83ea7:	47 d1 18                	b.jalr     r3
   83eaa:	47 b8 80                	b.reti     0x1,0x1

00083ead <vScanOrAssociate_Backoff>:
   83ead:	47 a8 80                	b.entri    0x1,0x1
   83eb0:	49 92 4c                	b.jal      907d6 <vJnc_ClearScanListVect>
   83eb3:	8c e0 77 10 00 20       	b.lwz      r7,0x40008ec(r0)
   83eb9:	00 cc                   	b.movi     r6,0x3
   83ebb:	c0 c7 26 80             	b.sb       0x164(r7),r6
   83ebf:	47 b8 80                	b.reti     0x1,0x1

00083ec2 <u8GroupAddUnique.18362>:
   83ec2:	47 a6 00                	b.entri    0x6,0x0
   83ec5:	05 a3                   	b.mov      r13,r3
   83ec7:	05 c4                   	b.mov      r14,r4
   83ec9:	05 45                   	b.mov      r10,r5
   83ecb:	05 84                   	b.mov      r12,r4
   83ecd:	01 60                   	b.movi     r11,0x0
   83ecf:	0f a0                   	b.j        83ee6 <u8GroupAddUnique.18362+0x24>
   83ed1:	38 a0 08                	b.ori      r5,r0,0x10
   83ed4:	04 8c                   	b.mov      r4,r12
   83ed6:	04 6d                   	b.mov      r3,r13
   83ed8:	31 8c 08                	b.addi     r12,r12,0x10
   83edb:	4b 85 d2                	b.jal      96d62 <memcmp>
   83ede:	40 03 f8                	b.beqi     r3,0x0,83efd <u8GroupAddUnique.18362+0x3b>
   83ee1:	01 78                   	b.addi     r11,r11,0x1
   83ee3:	3e 0b 58                	b.extbz    r11,r11
   83ee6:	d2 d6 ad 7f             	b.bne      r11,r10,83ed1 <u8GroupAddUnique.18362+0xf>
   83eea:	6c 6a 20                	b.slli     r3,r10,0x4
   83eed:	08 6e                   	b.add      r3,r3,r14
   83eef:	38 a0 08                	b.ori      r5,r0,0x10
   83ef2:	01 58                   	b.addi     r10,r10,0x1
   83ef4:	04 8d                   	b.mov      r4,r13
   83ef6:	3e 0a 50                	b.extbz    r10,r10
   83ef9:	d4 c6 83 ef             	b.jal      5c <memcpy>
   83efd:	04 6a                   	b.mov      r3,r10
   83eff:	47 b6 00                	b.reti     0x6,0x0

00083f02 <u8CompressAddrs.18347>:
   83f02:	47 ae e0                	b.entri    0x7,0x7
   83f05:	05 63                   	b.mov      r11,r3
   83f07:	2c 81 08                	b.sw       0x10(r1),r4
   83f0a:	01 c0                   	b.movi     r14,0x0
   83f0c:	2c a1 28                	b.sw       0x14(r1),r5
   83f0f:	01 40                   	b.movi     r10,0x0
   83f11:	01 88                   	b.movi     r12,0x1
   83f13:	0f 94                   	b.j        83fba <u8CompressAddrs.18347+0xb8>
   83f15:	60 cb 3c                	b.add      r6,r11,r7
   83f18:	30 67 80                	b.addi     r3,r7,0x1
   83f1b:	08 6b                   	b.add      r3,r3,r11
   83f1d:	38 a0 b0                	b.ori      r5,r0,0xd
   83f20:	25 a6 00                	b.lbz      r13,0x0(r6)
   83f23:	2c 81 50                	b.lwz      r4,0x8(r1)
   83f26:	6d ad 80                	b.slli     r13,r13,0x1
   83f29:	31 ad 70                	b.addi     r13,r13,0xe
   83f2c:	09 a7                   	b.add      r13,r13,r7
   83f2e:	3e 0d 68                	b.extbz    r13,r13
   83f31:	54 c1 00                	b.msw      0x0(r1),r6,0x0
   83f34:	49 d1 d2                	b.jal      96d62 <memcmp>
   83f37:	50 c1 00                	b.mlwz     r6,0x0(r1),0x0
   83f3a:	41 03 5c                	b.bnei     r3,0x0,83f74 <u8CompressAddrs.18347+0x72>
   83f3d:	d3 9a aa 80             	b.bgeu     r13,r10,83f52 <u8CompressAddrs.18347+0x50>
   83f41:	30 6d 40                	b.addi     r3,r13,0x2
   83f44:	08 6b                   	b.add      r3,r3,r11
   83f46:	60 8b 6c                	b.add      r4,r11,r13
   83f49:	60 aa 6d                	b.sub      r5,r10,r13
   83f4c:	48 a9 d2                	b.jal      96da0 <memmove>
   83f4f:	50 c1 00                	b.mlwz     r6,0x0(r1),0x0
   83f52:	24 af 00                	b.lbz      r5,0x0(r15)
   83f55:	09 ab                   	b.add      r13,r13,r11
   83f57:	01 54                   	b.addi     r10,r10,0x2
   83f59:	3e 0a 50                	b.extbz    r10,r10
   83f5c:	20 ad 00                	b.sb       0x0(r13),r5
   83f5f:	24 af 80                	b.lbz      r5,0x1(r15)
   83f62:	20 ad 80                	b.sb       0x1(r13),r5
   83f65:	24 a6 00                	b.lbz      r5,0x0(r6)
   83f68:	00 b8                   	b.addi     r5,r5,0x1
   83f6a:	20 a6 00                	b.sb       0x0(r6),r5
   83f6d:	00 c8                   	b.movi     r6,0x1
   83f6f:	2c c1 30                	b.sw       0xc(r1),r6
   83f72:	0c 80                   	b.j        83f76 <u8CompressAddrs.18347+0x74>
   83f74:	04 ed                   	b.mov      r7,r13
   83f76:	2c a1 70                	b.lwz      r5,0xc(r1)
   83f79:	3d ea 38                	b.sfgtu    r10,r7
   83f7c:	60 cc 2a                	b.xor      r6,r12,r5
   83f7f:	64 8c 02                	b.cmov     r4,r12,r0
   83f82:	3e 06 28                	b.extbz    r5,r6
   83f85:	60 c4 30                	b.and      r6,r4,r6
   83f88:	3e 06 30                	b.extbz    r6,r6
   83f8b:	41 06 51                	b.bnei     r6,0x0,83f15 <u8CompressAddrs.18347+0x13>
   83f8e:	3d 2a 22                	b.sfltui   r10,0x44
   83f91:	64 ec 02                	b.cmov     r7,r12,r0
   83f94:	60 e5 38                	b.and      r7,r5,r7
   83f97:	40 07 78                	b.beqi     r7,0x0,83fb5 <u8CompressAddrs.18347+0xb3>
   83f9a:	60 eb 54                	b.add      r7,r11,r10
   83f9d:	30 6a 80                	b.addi     r3,r10,0x1
   83fa0:	08 6b                   	b.add      r3,r3,r11
   83fa2:	38 a0 f0                	b.ori      r5,r0,0xf
   83fa5:	31 4a 08                	b.addi     r10,r10,0x10
   83fa8:	3e 0a 50                	b.extbz    r10,r10
   83fab:	2c 81 50                	b.lwz      r4,0x8(r1)
   83fae:	21 87 00                	b.sb       0x0(r7),r12
   83fb1:	d4 d5 03 ef             	b.jal      5c <memcpy>
   83fb5:	01 d8                   	b.addi     r14,r14,0x1
   83fb7:	3e 0e 70                	b.extbz    r14,r14
   83fba:	2c e1 68                	b.lwz      r7,0x14(r1)
   83fbd:	3d 2a 4a                	b.sfltui   r10,0x52
   83fc0:	64 cc 02                	b.cmov     r6,r12,r0
   83fc3:	3d e7 70                	b.sfgtu    r7,r14
   83fc6:	64 ec 02                	b.cmov     r7,r12,r0
   83fc9:	60 e6 38                	b.and      r7,r6,r7
   83fcc:	3e 07 38                	b.extbz    r7,r7
   83fcf:	40 07 d8                	b.beqi     r7,0x0,83fea <u8CompressAddrs.18347+0xe8>
   83fd2:	2c c1 48                	b.lwz      r6,0x10(r1)
   83fd5:	6d 0e 20                	b.slli     r8,r14,0x4
   83fd8:	09 06                   	b.add      r8,r8,r6
   83fda:	30 e8 80                	b.addi     r7,r8,0x1
   83fdd:	31 e8 70                	b.addi     r15,r8,0xe
   83fe0:	2c e1 10                	b.sw       0x8(r1),r7
   83fe3:	00 e0                   	b.movi     r7,0x0
   83fe5:	2c 01 30                	b.sw       0xc(r1),r0
   83fe8:	0d c7                   	b.j        83f76 <u8CompressAddrs.18347+0x74>
   83fea:	04 6a                   	b.mov      r3,r10
   83fec:	47 be e0                	b.reti     0x7,0x7

00083fef <u8GetChangedButUnnotifiedGroups.17414>:
   83fef:	47 ae 80                	b.entri    0x7,0x1
   83ff2:	2d 64 40                	b.lwz      r11,0x0(r4)
   83ff5:	05 a4                   	b.mov      r13,r4
   83ff7:	61 6b 5b                	b.nand     r11,r11,r11
   83ffa:	05 e5                   	b.mov      r15,r5
   83ffc:	61 6b 18                	b.and      r11,r11,r3
   83fff:	01 40                   	b.movi     r10,0x0
   84001:	01 80                   	b.movi     r12,0x0
   84003:	01 c8                   	b.movi     r14,0x1
   84005:	0c b0                   	b.j        84039 <u8GetChangedButUnnotifiedGroups.17414+0x4a>
   84007:	00 e8                   	b.movi     r7,0x1
   84009:	60 e7 66                	b.sll      r7,r7,r12
   8400c:	60 c7 58                	b.and      r6,r7,r11
   8400f:	40 06 14                	b.beqi     r6,0x0,84037 <u8GetChangedButUnnotifiedGroups.17414+0x48>
   84012:	2c cd 40                	b.lwz      r6,0x0(r13)
   84015:	8c 80 64 50 00 20       	b.lwz      r4,0x4000a24(r0)
   8401b:	61 6b 3a                	b.xor      r11,r11,r7
   8401e:	60 e6 39                	b.or       r7,r6,r7
   84021:	6c 6a 20                	b.slli     r3,r10,0x4
   84024:	08 6f                   	b.add      r3,r3,r15
   84026:	38 a0 08                	b.ori      r5,r0,0x10
   84029:	01 58                   	b.addi     r10,r10,0x1
   8402b:	2c ed 00                	b.sw       0x0(r13),r7
   8402e:	6c ec 20                	b.slli     r7,r12,0x4
   84031:	08 87                   	b.add      r4,r4,r7
   84033:	d4 94 03 ef             	b.jal      5c <memcpy>
   84037:	01 98                   	b.addi     r12,r12,0x1
   84039:	3e 0b 3c                	b.ff1      r7,r11
   8403c:	60 e0 3d                	b.sub      r7,r0,r7
   8403f:	3c ea c0                	b.sfleui   r10,0x3
   84042:	6c e7 f9                	b.srli     r7,r7,0x1f
   84045:	64 ce 02                	b.cmov     r6,r14,r0
   84048:	60 e7 30                	b.and      r7,r7,r6
   8404b:	41 07 3d                	b.bnei     r7,0x0,84007 <u8GetChangedButUnnotifiedGroups.17414+0x18>
   8404e:	3e 0a 18                	b.extbz    r3,r10
   84051:	47 be 80                	b.reti     0x7,0x1

00084054 <b6LP_HandleRxEvent>:
   84054:	8c e0 65 08 00 20       	b.lwz      r7,0x40010a4(r0)
   8405a:	47 a8 80                	b.entri    0x1,0x1
   8405d:	2c e7 6c                	b.lwz      r7,0x34(r7)
   84060:	47 d1 38                	b.jalr     r7
   84063:	00 e8                   	b.movi     r7,0x1
   84065:	60 63 3a                	b.xor      r3,r3,r7
   84068:	3e 03 1c                	b.ff1      r3,r3
   8406b:	00 7f                   	b.addi     r3,r3,-0x1
   8406d:	6c 63 f9                	b.srli     r3,r3,0x1f
   84070:	47 b8 80                	b.reti     0x1,0x1

00084073 <u16IPv6_Truncate32bitChecksumTo16bit>:
   84073:	0d 40                   	b.j        8407d <u16IPv6_Truncate32bitChecksumTo16bit+0xa>
   84075:	94 63 ff ff 00 00       	b.andi     r3,r3,0xffff
   8407b:	08 67                   	b.add      r3,r3,r7
   8407d:	6c e3 09                	b.srli     r7,r3,0x10
   84080:	41 07 af                	b.bnei     r7,0x0,84075 <u16IPv6_Truncate32bitChecksumTo16bit+0x2>
   84083:	98 e0 ff ff 00 00       	b.ori      r7,r0,0xffff
   84089:	60 63 1b                	b.nand     r3,r3,r3
   8408c:	3e 03 1a                	b.exthz    r3,r3
   8408f:	3c 23 00                	b.sfnei    r3,0x0
   84092:	64 63 3a                	b.cmov     r3,r3,r7
   84095:	47 d2 48                	b.jr       r9

00084098 <u32IPv6_CalculatePayloadDataChecksum>:
   84098:	6d 04 81                	b.srli     r8,r4,0x1
   8409b:	47 ac 80                	b.entri    0x3,0x1
   8409e:	34 84 80                	b.andi     r4,r4,0x1
   840a1:	30 c3 80                	b.addi     r6,r3,0x1
   840a4:	00 a0                   	b.movi     r5,0x0
   840a6:	00 e0                   	b.movi     r7,0x0
   840a8:	0d a0                   	b.j        840be <u32IPv6_CalculatePayloadDataChecksum+0x26>
   840aa:	c5 46 bf ff             	b.lbz      r10,-0x3(r6)
   840ae:	c5 66 7f ff             	b.lbz      r11,-0x2(r6)
   840b2:	6d 4a 10                	b.slli     r10,r10,0x8
   840b5:	09 4b                   	b.add      r10,r10,r11
   840b7:	3e 0a 52                	b.exthz    r10,r10
   840ba:	00 b8                   	b.addi     r5,r5,0x1
   840bc:	08 ea                   	b.add      r7,r7,r10
   840be:	00 d4                   	b.addi     r6,r6,0x2
   840c0:	d3 50 55 7f             	b.bgts     r8,r5,840aa <u32IPv6_CalculatePayloadDataChecksum+0x12>
   840c4:	40 04 08                	b.beqi     r4,0x0,840d4 <u32IPv6_CalculatePayloadDataChecksum+0x3c>
   840c7:	6d 08 80                	b.slli     r8,r8,0x1
   840ca:	08 68                   	b.add      r3,r3,r8
   840cc:	24 c3 00                	b.lbz      r6,0x0(r3)
   840cf:	6c c6 10                	b.slli     r6,r6,0x8
   840d2:	08 e6                   	b.add      r7,r7,r6
   840d4:	04 67                   	b.mov      r3,r7
   840d6:	47 bc 80                	b.reti     0x3,0x1

000840d9 <u16_6LP_DefGetSizeOfIPv6Record>:
   840d9:	8c e0 65 08 00 20       	b.lwz      r7,0x40010a4(r0)
   840df:	28 67 b9                	b.lhz      r3,0x9c(r7)
   840e2:	d8 63 db 00             	b.addi     r3,r3,0xdb
   840e6:	94 63 3f ff 00 00       	b.andi     r3,r3,0xfffc
   840ec:	47 d2 48                	b.jr       r9

000840ef <i6LP_DefCreateInterfaceIdFrom64>:
