
c:/NXP/bstudio_nxp/workspace2/JN-AN-1190-JenNet-IP-Application-Template/Binary/0x11111111s_DeviceTemplate_DR1174_Coordinator_JN5168_DEBUG.elf:     file format elf32-ba


Disassembly of section .vsr_handlers:

00080050 <_exception_external_interrupt>:
   80050:	30 21 0d                	b.addi     r1,r1,-0x50
   80053:	2c 61 30                	b.sw       0xc(r1),r3
   80056:	2d 41 14                	b.sw       0x28(r1),r10
   80059:	a8 60 04 00 00 00       	b.mfspr    r3,r0,0x20
   8005f:	2c 61 12                	b.sw       0x48(r1),r3
   80062:	a8 60 02 00 00 00       	b.mfspr    r3,r0,0x40
   80068:	2c 61 22                	b.sw       0x44(r1),r3
   8006b:	a8 60 08 12 00 00       	b.mfspr    r3,r0,0x4810
   80071:	2c 61 32                	b.sw       0x4c(r1),r3
   80074:	a8 60 88 12 00 00       	b.mfspr    r3,r0,0x4811
   8007a:	a8 60 08 12 00 01       	b.mtspr    r0,r3,0x4810
   80080:	a9 40 c8 12 00 00       	b.mfspr    r10,r0,0x4813
   80086:	04 01                   	b.ei       
   80088:	2c 41 10                	b.sw       0x8(r1),r2
   8008b:	2c 81 08                	b.sw       0x10(r1),r4
   8008e:	2c a1 28                	b.sw       0x14(r1),r5
   80091:	2c c1 18                	b.sw       0x18(r1),r6
   80094:	2c e1 38                	b.sw       0x1c(r1),r7
   80097:	2d 01 04                	b.sw       0x20(r1),r8
   8009a:	2d 21 24                	b.sw       0x24(r1),r9
   8009d:	d2 94 00 40             	b.beq      r10,r0,800bd <_exception_external_interrupt+0x6d>
   800a1:	3e 0a 24                	b.ff1      r4,r10
   800a4:	61 4a 27                	b.srl      r10,r10,r4
   800a7:	61 4a 26                	b.sll      r10,r10,r4
   800aa:	00 9f                   	b.addi     r4,r4,-0x1
   800ac:	6c e4 40                	b.slli     r7,r4,0x2
   800af:	8c e7 45 70 00 20       	b.lwz      r7,0x4000ea0(r7)
   800b5:	60 60 09                	b.or       r3,r0,r1
   800b8:	47 d1 38                	b.jalr     r7
   800bb:	0d 1f                   	b.j        8009d <_exception_external_interrupt+0x4d>
   800bd:	2c 41 50                	b.lwz      r2,0x8(r1)
   800c0:	2c 61 70                	b.lwz      r3,0xc(r1)
   800c3:	2c a1 68                	b.lwz      r5,0x14(r1)
   800c6:	2c c1 58                	b.lwz      r6,0x18(r1)
   800c9:	2c e1 78                	b.lwz      r7,0x1c(r1)
   800cc:	2d 01 44                	b.lwz      r8,0x20(r1)
   800cf:	2d 21 64                	b.lwz      r9,0x24(r1)
   800d2:	2d 41 54                	b.lwz      r10,0x28(r1)
   800d5:	04 02                   	b.di       
   800d7:	2c 81 62                	b.lwz      r4,0x44(r1)
   800da:	a8 80 02 00 00 01       	b.mtspr    r0,r4,0x40
   800e0:	2c 81 52                	b.lwz      r4,0x48(r1)
   800e3:	a8 80 04 00 00 01       	b.mtspr    r0,r4,0x20
   800e9:	2c 81 72                	b.lwz      r4,0x4c(r1)
   800ec:	a8 80 08 12 00 01       	b.mtspr    r0,r4,0x4810
   800f2:	2c 81 48                	b.lwz      r4,0x10(r1)
   800f5:	30 21 0a                	b.addi     r1,r1,0x50

000800f8 <_default_vsr_dummy>:
   800f8:	04 00                   	b.rfe      

Disassembly of section .text:

000808e4 <Device_vInit>:
   808e4:	8c 00 35 10 00 20       	b.sw       0x40008ac(r0),r0
   808ea:	47 ae b2                	b.entri    0x7,0x4d
   808ed:	80 00 15 10 00 20       	b.sb       0x40008a8(r0),r0
   808f3:	05 43                   	b.mov      r10,r3
   808f5:	8c 00 2f 10 00 20       	b.sw       0x40008f4(r0),r0
   808fb:	cc f0 79 01             	b.lwz      r7,-0x7f64(r16)
   808ff:	94 e7 00 40 00 00       	b.andi     r7,r7,0x200
   80905:	40 07 6f                	b.beqi     r7,0x0,808fb <Device_vInit+0x17>
   80908:	46 90 b8                	b.j        82611 <Device_vInit+0x1d2d>
   8090b:	38 80 0b                	b.ori      r4,r0,0xd0
   8090e:	00 60                   	b.movi     r3,0x0
   80910:	00 a8                   	b.movi     r5,0x1
   80912:	49 fe 88                	b.jal      84f10 <pvHeap_Alloc>
   80915:	8c 60 19 70 00 20       	b.sw       0x4000e98(r0),r3
   8091b:	40 03 90                	b.beqi     r3,0x0,80924 <Device_vInit+0x40>
   8091e:	20 03 92                	b.sb       0x49(r3),r0
   80921:	20 03 12                	b.sb       0x48(r3),r0
   80924:	98 e0 63 2d 10 00       	b.ori      r7,r0,0x8b4c6
   8092a:	98 c0 9f 6d 10 00       	b.ori      r6,r0,0x8b6f9
   80930:	98 60 eb ff 00 00       	b.ori      r3,r0,0xffd7
   80936:	38 80 10                	b.ori      r4,r0,0x8
   80939:	8c e0 05 50 00 20       	b.sw       0x4000aa0(r0),r7
   8093f:	8c e0 2f c0 00 20       	b.sw       0x40003f4(r0),r7
   80945:	8c e0 00 20 00 20       	b.sw       0x4000400(r0),r7
   8094b:	8c e0 20 20 00 20       	b.sw       0x4000404(r0),r7
   80951:	8c e0 28 20 00 20       	b.sw       0x4000414(r0),r7
   80957:	98 e0 29 4e 10 00       	b.ori      r7,r0,0x87294
   8095d:	8c e0 05 70 00 20       	b.sw       0x4000ea0(r0),r7
   80963:	98 e0 20 52 10 00       	b.ori      r7,r0,0x84a04
   80969:	8c e0 25 70 00 20       	b.sw       0x4000ea4(r0),r7
   8096f:	98 e0 bc 52 10 00       	b.ori      r7,r0,0x84a3d
   80975:	8c e0 15 70 00 20       	b.sw       0x4000ea8(r0),r7
   8097b:	98 e0 fb 92 10 00       	b.ori      r7,r0,0x849df
   80981:	8c e0 0d 70 00 20       	b.sw       0x4000eb0(r0),r7
   80987:	98 e0 bd 52 10 00       	b.ori      r7,r0,0x84abd
   8098d:	8c e0 1d 70 00 20       	b.sw       0x4000eb8(r0),r7
   80993:	98 e0 e9 52 10 00       	b.ori      r7,r0,0x84a97
   80999:	8c e0 3d 70 00 20       	b.sw       0x4000ebc(r0),r7
   8099f:	98 e0 0d 4e 10 00       	b.ori      r7,r0,0x872b0
   809a5:	8c e0 03 70 00 20       	b.sw       0x4000ec0(r0),r7
   809ab:	98 e0 4c 52 10 00       	b.ori      r7,r0,0x84a32
   809b1:	8c e0 23 70 00 20       	b.sw       0x4000ec4(r0),r7
   809b7:	98 e0 cf 4e 10 00       	b.ori      r7,r0,0x872f3
   809bd:	8c e0 13 70 00 20       	b.sw       0x4000ec8(r0),r7
   809c3:	98 e0 b3 4e 10 00       	b.ori      r7,r0,0x872cd
   809c9:	8c e0 33 70 00 20       	b.sw       0x4000ecc(r0),r7
   809cf:	98 e0 7e 4e 10 00       	b.ori      r7,r0,0x8727e
   809d5:	8c e0 0b 70 00 20       	b.sw       0x4000ed0(r0),r7
   809db:	98 e0 7c ce 10 00       	b.ori      r7,r0,0x8733e
   809e1:	8c e0 2b 70 00 20       	b.sw       0x4000ed4(r0),r7
   809e7:	98 e0 91 4e 10 00       	b.ori      r7,r0,0x87289
   809ed:	8c c0 1f c0 00 20       	b.sw       0x40003f8(r0),r6
   809f3:	8c c0 3f c0 00 20       	b.sw       0x40003fc(r0),r6
   809f9:	98 c0 94 d7 10 00       	b.ori      r6,r0,0x8eb29
   809ff:	8c e0 1b 70 00 20       	b.sw       0x4000ed8(r0),r7
   80a05:	98 e0 b1 1e 10 00       	b.ori      r7,r0,0x8788d
   80a0b:	8c c0 10 20 00 20       	b.sw       0x4000408(r0),r6
   80a11:	8c c0 30 20 00 20       	b.sw       0x400040c(r0),r6
   80a17:	8c c0 08 20 00 20       	b.sw       0x4000410(r0),r6
   80a1d:	8c e0 3b 70 00 20       	b.sw       0x4000edc(r0),r7
   80a23:	49 fe 6a                	b.jal      96421 <vAHI_InterruptSetPriority>
   80a26:	04 01                   	b.ei       
   80a28:	d8 60 00 10             	b.addi     r3,r0,0x800
   80a2c:	00 80                   	b.movi     r4,0x0
   80a2e:	4a 93 d8                	b.jal      87953 <vAHI_DioSetDirection>
   80a31:	cc f0 70 09             	b.lwz      r7,-0x6ff4(r16)
   80a35:	98 e7 00 10 00 00       	b.ori      r7,r7,0x800
   80a3b:	cc f0 30 09             	b.sw       -0x6ff4(r16),r7
   80a3f:	41 0a 3a                	b.bnei     r10,0x0,80a9b <Device_vInit+0x1b7>
   80a42:	8c e0 4c c0 00 20       	b.lwz      r7,0x4000330(r0)
   80a48:	8c e0 30 e0 00 20       	b.sw       0x400070c(r0),r7
   80a4e:	8c e0 30 90 00 20       	b.sw       0x400090c(r0),r7
   80a54:	38 c1 00                	b.ori      r6,r1,0x0
   80a57:	98 a0 86 e9 40 00       	b.ori      r5,r0,0x29761
   80a5d:	0f 80                   	b.j        80a64 <Device_vInit+0x180>
   80a5f:	2c a7 00                	b.sw       0x0(r7),r5
   80a62:	00 f2                   	b.addi     r7,r7,0x4
   80a64:	d3 cc 7d ff             	b.bgtu     r6,r7,80a5f <Device_vInit+0x17b>
   80a68:	8c e0 08 90 00 20       	b.sw       0x4000910(r0),r7
   80a6e:	00 6f                   	b.movi     r3,-0x1
   80a70:	8c e0 4a 00 00 20       	b.lwz      r7,0x4000050(r0)
   80a76:	00 80                   	b.movi     r4,0x0
   80a78:	8c e0 18 20 00 20       	b.sw       0x4000418(r0),r7
   80a7e:	98 e0 0d 92 10 00       	b.ori      r7,r0,0x849b0
   80a84:	8c e0 0a 00 00 20       	b.sw       0x4000050(r0),r7
   80a8a:	4a 4d d8                	b.jal      87953 <vAHI_DioSetDirection>
   80a8d:	cc f0 7c 09             	b.lwz      r7,-0x6fc4(r16)
   80a91:	94 e7 00 00 0f ff       	b.andi     r7,r7,0xfff00000
   80a97:	cc f0 3c 09             	b.sw       -0x6fc4(r16),r7
   80a9b:	00 e8                   	b.movi     r7,0x1
   80a9d:	80 e0 38 20 00 20       	b.sb       0x400041c(r0),r7
   80aa3:	38 e0 02                	b.ori      r7,r0,0x40
   80aa6:	98 60 0b 10 10 00       	b.ori      r3,r0,0x808d0
   80aac:	8c e0 1f 10 00 20       	b.sw       0x40008f8(r0),r7
   80ab2:	38 e0 7c                	b.ori      r7,r0,0x3e
   80ab5:	80 e0 3f 10 00 20       	b.sb       0x40008fc(r0),r7
   80abb:	80 e0 78 80 00 20       	b.sb       0x400011e(r0),r7
   80ac1:	80 00 b8 80 00 20       	b.sb       0x400011d(r0),r0
   80ac7:	8c 00 04 20 00 20       	b.sw       0x4000420(r0),r0
   80acd:	80 00 0d 10 00 20       	b.sb       0x40008b0(r0),r0
   80ad3:	4b aa a2                	b.jal      9202a <dbg_vPrintfImplNoneVerbose>
   80ad6:	98 60 3f 00 10 00       	b.ori      r3,r0,0x800fc
   80adc:	49 ca a2                	b.jal      9202a <dbg_vPrintfImplNoneVerbose>
   80adf:	98 80 0d 10 00 20       	b.ori      r4,r0,0x40008b0
   80ae5:	98 60 70 80 10 00       	b.ori      r3,r0,0x8010e
   80aeb:	04 aa                   	b.mov      r5,r10
   80aed:	4a f2 a2                	b.jal      9202a <dbg_vPrintfImplNoneVerbose>
   80af0:	00 68                   	b.movi     r3,0x1
   80af2:	49 4c 54                	b.jal      8b3bc <Node_vDebugIndent.part.2.1796>
   80af5:	98 60 44 80 10 00       	b.ori      r3,r0,0x80122
   80afb:	98 80 0d 10 00 20       	b.ori      r4,r0,0x40008b0
   80b01:	04 aa                   	b.mov      r5,r10
   80b03:	4b 92 a2                	b.jal      9202a <dbg_vPrintfImplNoneVerbose>
   80b06:	a0 40 a2 86 80 00       	b.bnei     r10,0x0,8211a <Device_vInit+0x1836>
   80b0c:	98 60 2c 80 10 00       	b.ori      r3,r0,0x80134
   80b12:	98 80 0d 10 00 20       	b.ori      r4,r0,0x40008b0
   80b18:	49 22 a2                	b.jal      9202a <dbg_vPrintfImplNoneVerbose>
   80b1b:	00 68                   	b.movi     r3,0x1
   80b1d:	4b e4 54                	b.jal      8b3bc <Node_vDebugIndent.part.2.1796>
   80b20:	85 40 78 80 00 20       	b.lbz      r10,0x400011e(r0)
   80b26:	6d 6a 60                	b.slli     r11,r10,0x6
   80b29:	30 eb 30                	b.addi     r7,r11,0xc
   80b2c:	9f 47 03 f0 00 00       	b.sfleui   r7,0xfc0
   80b32:	47 22 80                	b.bf       80b46 <Device_vInit+0x262>
   80b35:	31 8b 30                	b.addi     r12,r11,0xc
   80b38:	31 6b 18                	b.addi     r11,r11,0x18
   80b3b:	9e cb 03 f0 00 00       	b.sfgtui   r11,0xfc0
   80b41:	47 2c c0                	b.bf       80b74 <Device_vInit+0x290>
   80b44:	0d f0                   	b.j        80b82 <Device_vInit+0x29e>
   80b46:	00 68                   	b.movi     r3,0x1
   80b48:	4b 2e 0c                	b.jal      8cd1b <bPDM_InitialiseEEPROM>
   80b4b:	38 e0 10                	b.ori      r7,r0,0x8
   80b4e:	8d 60 21 00 00 80       	b.sw       0x1000084(r0),r11
   80b54:	8c e0 01 00 00 80       	b.sw       0x1000080(r0),r7
   80b5a:	00 e0                   	b.movi     r7,0x0
   80b5c:	8c a0 71 00 00 80       	b.lwz      r5,0x100008c(r0)
   80b62:	30 c1 2e                	b.addi     r6,r1,0x74
   80b65:	08 c7                   	b.add      r6,r6,r7
   80b67:	00 f8                   	b.addi     r7,r7,0x1
   80b69:	3c 27 30                	b.sfnei    r7,0xc
   80b6c:	20 a6 00                	b.sb       0x0(r6),r5
   80b6f:	47 2b 7f                	b.bf       80b5c <Device_vInit+0x278>
   80b72:	0f 0f                   	b.j        80b35 <Device_vInit+0x251>
   80b74:	2c c1 5e                	b.lwz      r6,0x78(r1)
   80b77:	9d 86 d3 c8 7a 5f       	b.sfeqi    r6,-0x5a1ec35
   80b7d:	47 34 e0                	b.bnf      80bef <Device_vInit+0x30b>
   80b80:	0e 30                   	b.j        80bb1 <Device_vInit+0x2cd>
   80b82:	00 68                   	b.movi     r3,0x1
   80b84:	4b a6 0c                	b.jal      8cd1b <bPDM_InitialiseEEPROM>
   80b87:	38 e0 10                	b.ori      r7,r0,0x8
   80b8a:	8d 80 21 00 00 80       	b.sw       0x1000084(r0),r12
   80b90:	8c e0 01 00 00 80       	b.sw       0x1000080(r0),r7
   80b96:	00 e0                   	b.movi     r7,0x0
   80b98:	8c a0 71 00 00 80       	b.lwz      r5,0x100008c(r0)
   80b9e:	d8 c1 01 00             	b.addi     r6,r1,0x80
   80ba2:	08 c7                   	b.add      r6,r6,r7
   80ba4:	00 f8                   	b.addi     r7,r7,0x1
   80ba6:	3c 27 30                	b.sfnei    r7,0xc
   80ba9:	20 a6 00                	b.sb       0x0(r6),r5
   80bac:	47 23 7f                	b.bf       80b98 <Device_vInit+0x2b4>
   80baf:	0e 8f                   	b.j        80b74 <Device_vInit+0x290>
   80bb1:	2c e1 7e                	b.lwz      r7,0x7c(r1)
   80bb4:	9d c7 2e 00 80 10       	b.sfnei    r7,0x8010074
   80bba:	47 2a c0                	b.bf       80bef <Device_vInit+0x30b>
   80bbd:	2c a1 6e                	b.lwz      r5,0x74(r1)
   80bc0:	2c c1 21                	b.sw       0x84(r1),r6
   80bc3:	6c a5 80                	b.slli     r5,r5,0x1
   80bc6:	38 80 30                	b.ori      r4,r0,0xc
   80bc9:	d8 c1 01 00             	b.addi     r6,r1,0x80
   80bcd:	04 6a                   	b.mov      r3,r10
   80bcf:	2c a1 01                	b.sw       0x80(r1),r5
   80bd2:	38 a0 30                	b.ori      r5,r0,0xc
   80bd5:	01 68                   	b.movi     r11,0x1
   80bd7:	2c e1 11                	b.sw       0x88(r1),r7
   80bda:	2c 01 1e                	b.sw       0x78(r1),r0
   80bdd:	4b dd 0c                	b.jal      8cecc <bAHI_WriteEEPROM>
   80be0:	38 a0 30                	b.ori      r5,r0,0xc
   80be3:	30 c1 2e                	b.addi     r6,r1,0x74
   80be6:	04 6a                   	b.mov      r3,r10
   80be8:	00 80                   	b.movi     r4,0x0
   80bea:	49 1d 0c                	b.jal      8cecc <bAHI_WriteEEPROM>
   80bed:	0c a4                   	b.j        80c81 <Device_vInit+0x39d>
   80bef:	2c c1 61                	b.lwz      r6,0x84(r1)
   80bf2:	9d c6 d3 c8 7a 5f       	b.sfnei    r6,-0x5a1ec35
   80bf8:	47 23 c0                	b.bf       80c34 <Device_vInit+0x350>
   80bfb:	2c e1 51                	b.lwz      r7,0x88(r1)
   80bfe:	9d c7 2e 00 80 10       	b.sfnei    r7,0x8010074
   80c04:	47 20 c0                	b.bf       80c34 <Device_vInit+0x350>
   80c07:	2c a1 41                	b.lwz      r5,0x80(r1)
   80c0a:	2c c1 1e                	b.sw       0x78(r1),r6
   80c0d:	6c a5 80                	b.slli     r5,r5,0x1
   80c10:	30 c1 2e                	b.addi     r6,r1,0x74
   80c13:	00 80                   	b.movi     r4,0x0
   80c15:	2c a1 2e                	b.sw       0x74(r1),r5
   80c18:	38 a0 30                	b.ori      r5,r0,0xc
   80c1b:	04 6a                   	b.mov      r3,r10
   80c1d:	2c e1 3e                	b.sw       0x7c(r1),r7
   80c20:	2c 01 21                	b.sw       0x84(r1),r0
   80c23:	4a 55 0c                	b.jal      8cecc <bAHI_WriteEEPROM>
   80c26:	04 6a                   	b.mov      r3,r10
   80c28:	38 80 30                	b.ori      r4,r0,0xc
   80c2b:	38 a0 30                	b.ori      r5,r0,0xc
   80c2e:	d8 c1 01 00             	b.addi     r6,r1,0x80
   80c32:	0d 48                   	b.j        80c7c <Device_vInit+0x398>
   80c34:	d9 81 0f 00             	b.addi     r12,r1,0xf0
   80c38:	38 a0 02                	b.ori      r5,r0,0x40
   80c3b:	04 6c                   	b.mov      r3,r12
   80c3d:	00 80                   	b.movi     r4,0x0
   80c3f:	01 60                   	b.movi     r11,0x0
   80c41:	49 d7 ca                	b.jal      95bef <memset>
   80c44:	38 a0 02                	b.ori      r5,r0,0x40
   80c47:	04 6b                   	b.mov      r3,r11
   80c49:	00 80                   	b.movi     r4,0x0
   80c4b:	04 cc                   	b.mov      r6,r12
   80c4d:	01 78                   	b.addi     r11,r11,0x1
   80c4f:	4a f9 0c                	b.jal      8cecc <bAHI_WriteEEPROM>
   80c52:	3e 0b 58                	b.extbz    r11,r11
   80c55:	3c 2b fc                	b.sfnei    r11,0x3f
   80c58:	47 23 7f                	b.bf       80c44 <Device_vInit+0x360>
   80c5b:	00 e7                   	b.movi     r7,-0x2
   80c5d:	2c e1 2e                	b.sw       0x74(r1),r7
   80c60:	98 e0 d3 c8 7a 5f       	b.ori      r7,r0,0xfa5e13cb
   80c66:	38 a0 30                	b.ori      r5,r0,0xc
   80c69:	30 c1 2e                	b.addi     r6,r1,0x74
   80c6c:	04 6a                   	b.mov      r3,r10
   80c6e:	2c e1 1e                	b.sw       0x78(r1),r7
   80c71:	98 e0 2e 00 80 10       	b.ori      r7,r0,0x8010074
   80c77:	00 80                   	b.movi     r4,0x0
   80c79:	2c e1 3e                	b.sw       0x7c(r1),r7
   80c7c:	48 29 0c                	b.jal      8cecc <bAHI_WriteEEPROM>
   80c7f:	01 60                   	b.movi     r11,0x0
   80c81:	00 60                   	b.movi     r3,0x0
   80c83:	48 88 d8                	b.jal      878c7 <vAHI_TickTimerConfigure>
   80c86:	00 e0                   	b.movi     r7,0x0
   80c88:	a8 e0 80 0a 00 01       	b.mtspr    r0,r7,0x5001
   80c8e:	98 60 00 12 17 80       	b.ori      r3,r0,0x1e84800
   80c94:	49 77 58                	b.jal      8784e <vAHI_TickTimerInterval>
   80c97:	00 64                   	b.movi     r3,0x2
   80c99:	49 d0 d8                	b.jal      878c7 <vAHI_TickTimerConfigure>
   80c9c:	00 68                   	b.movi     r3,0x1
   80c9e:	49 cf 58                	b.jal      8786c <vAHI_TickTimerIntEnable>
   80ca1:	0e 80                   	b.j        80ca6 <Device_vInit+0x3c2>
   80ca3:	48 78 d8                	b.jal      8791b <vAHI_CpuDoze>
   80ca6:	a8 e0 80 0a 00 00       	b.mfspr    r7,r0,0x5001
   80cac:	9f 47 ff e2 17 80       	b.sfleui   r7,0x1e847ff
   80cb2:	47 28 ff                	b.bf       80ca3 <Device_vInit+0x3bf>
   80cb5:	00 60                   	b.movi     r3,0x0
   80cb7:	48 20 d8                	b.jal      878c7 <vAHI_TickTimerConfigure>
   80cba:	41 0b 3c                	b.bnei     r11,0x0,80cf6 <Device_vInit+0x412>
   80cbd:	2c e1 6e                	b.lwz      r7,0x74(r1)
   80cc0:	38 80 30                	b.ori      r4,r0,0xc
   80cc3:	38 e7 80                	b.ori      r7,r7,0x1
   80cc6:	38 a0 30                	b.ori      r5,r0,0xc
   80cc9:	d8 c1 01 00             	b.addi     r6,r1,0x80
   80ccd:	04 6a                   	b.mov      r3,r10
   80ccf:	2c e1 01                	b.sw       0x80(r1),r7
   80cd2:	2c e1 5e                	b.lwz      r7,0x78(r1)
   80cd5:	2c 01 1e                	b.sw       0x78(r1),r0
   80cd8:	2c e1 21                	b.sw       0x84(r1),r7
   80cdb:	2c e1 7e                	b.lwz      r7,0x7c(r1)
   80cde:	2c e1 11                	b.sw       0x88(r1),r7
   80ce1:	4b 5e 0c                	b.jal      8cecc <bAHI_WriteEEPROM>
   80ce4:	38 a0 30                	b.ori      r5,r0,0xc
   80ce7:	30 c1 2e                	b.addi     r6,r1,0x74
   80cea:	04 6a                   	b.mov      r3,r10
   80cec:	00 80                   	b.movi     r4,0x0
   80cee:	49 ee 0c                	b.jal      8cecc <bAHI_WriteEEPROM>
   80cf1:	2c e1 41                	b.lwz      r7,0x80(r1)
   80cf4:	0e 70                   	b.j        80d2d <Device_vInit+0x449>
   80cf6:	2c e1 41                	b.lwz      r7,0x80(r1)
   80cf9:	38 a0 30                	b.ori      r5,r0,0xc
   80cfc:	38 e7 80                	b.ori      r7,r7,0x1
   80cff:	30 c1 2e                	b.addi     r6,r1,0x74
   80d02:	00 80                   	b.movi     r4,0x0
   80d04:	2c e1 2e                	b.sw       0x74(r1),r7
   80d07:	04 6a                   	b.mov      r3,r10
   80d09:	2c e1 61                	b.lwz      r7,0x84(r1)
   80d0c:	2c 01 21                	b.sw       0x84(r1),r0
   80d0f:	2c e1 1e                	b.sw       0x78(r1),r7
   80d12:	2c e1 51                	b.lwz      r7,0x88(r1)
   80d15:	2c e1 3e                	b.sw       0x7c(r1),r7
   80d18:	48 b6 0c                	b.jal      8cecc <bAHI_WriteEEPROM>
   80d1b:	38 80 30                	b.ori      r4,r0,0xc
   80d1e:	38 a0 30                	b.ori      r5,r0,0xc
   80d21:	d8 c1 01 00             	b.addi     r6,r1,0x80
   80d25:	04 6a                   	b.mov      r3,r10
   80d27:	4a 96 0c                	b.jal      8cecc <bAHI_WriteEEPROM>
   80d2a:	2c e1 6e                	b.lwz      r7,0x74(r1)
   80d2d:	38 c0 88                	b.ori      r6,r0,0x11
   80d30:	34 e7 f8                	b.andi     r7,r7,0x1f
   80d33:	60 e7 32                	b.xor      r7,r7,r6
   80d36:	3e 07 3c                	b.ff1      r7,r7
   80d39:	00 ff                   	b.addi     r7,r7,-0x1
   80d3b:	6c e7 f9                	b.srli     r7,r7,0x1f
   80d3e:	00 68                   	b.movi     r3,0x1
   80d40:	2c e1 08                	b.sw       0x10(r1),r7
   80d43:	48 4d 94                	b.jal      8b40b <Node_vDebugOutdent.part.3.1799>
   80d46:	2c 81 48                	b.lwz      r4,0x10(r1)
   80d49:	98 60 6a 80 10 00       	b.ori      r3,r0,0x80156
   80d4f:	4b 6d 22                	b.jal      9202a <dbg_vPrintfImplNoneVerbose>
   80d52:	98 80 0d 10 00 20       	b.ori      r4,r0,0x40008b0
   80d58:	98 60 3a 80 10 00       	b.ori      r3,r0,0x8015c
   80d5e:	48 cd 22                	b.jal      9202a <dbg_vPrintfImplNoneVerbose>
   80d61:	00 68                   	b.movi     r3,0x1
   80d63:	4a 69 94                	b.jal      8b3bc <Node_vDebugIndent.part.2.1796>
   80d66:	98 80 0d 10 00 20       	b.ori      r4,r0,0x40008b0
   80d6c:	38 a0 0c                	b.ori      r5,r0,0x30
   80d6f:	38 c0 98                	b.ori      r6,r0,0x19
   80d72:	98 60 8e 80 10 00       	b.ori      r3,r0,0x80171
   80d78:	49 35 22                	b.jal      9202a <dbg_vPrintfImplNoneVerbose>
   80d7b:	00 68                   	b.movi     r3,0x1
   80d7d:	4b f1 94                	b.jal      8b3bc <Node_vDebugIndent.part.2.1796>
   80d80:	84 a0 3f 10 00 20       	b.lbz      r5,0x40008fc(r0)
   80d86:	8c e0 5f 10 00 20       	b.lwz      r7,0x40008f8(r0)
   80d8c:	2c a1 30                	b.sw       0xc(r1),r5
   80d8f:	cc d0 60 01             	b.lwz      r6,-0x7ffc(r16)
   80d93:	34 c6 40                	b.andi     r6,r6,0x2
   80d96:	a0 40 6d 41 00 00       	b.bnei     r6,0x0,815c1 <Device_vInit+0xcdd>
   80d9c:	2c c1 70                	b.lwz      r6,0xc(r1)
   80d9f:	3e 07 38                	b.extbz    r7,r7
   80da2:	00 df                   	b.addi     r6,r6,-0x1
   80da4:	30 a7 ff                	b.addi     r5,r7,-0x1
   80da7:	60 c5 31                	b.or       r6,r5,r6
   80daa:	d1 40 6a 7e             	b.bltsi    r6,0x0,8158f <Device_vInit+0xcab>
   80dae:	98 c0 06 90 00 20       	b.ori      r6,r0,0x4000960
   80db4:	38 80 38                	b.ori      r4,r0,0x1c
   80db7:	00 a8                   	b.movi     r5,0x1
   80db9:	8c c0 24 20 00 20       	b.sw       0x4000424(r0),r6
   80dbf:	2c c1 70                	b.lwz      r6,0xc(r1)
   80dc2:	8c 60 66 90 00 20       	b.lwz      r3,0x4000964(r0)
   80dc8:	64 86 23                	b.mul      r4,r6,r4
   80dcb:	80 e0 06 90 00 20       	b.sb       0x4000960(r0),r7
   80dd1:	80 c0 86 90 00 20       	b.sb       0x4000961(r0),r6
   80dd7:	80 c0 16 90 00 20       	b.sb       0x4000968(r0),r6
   80ddd:	4b 32 08                	b.jal      84f10 <pvHeap_Alloc>
   80de0:	8d 40 64 20 00 20       	b.lwz      r10,0x4000424(r0)
   80de6:	8c 60 26 90 00 20       	b.sw       0x4000964(r0),r3
   80dec:	2c ea 60                	b.lwz      r7,0x4(r10)
   80def:	d0 00 70 5e             	b.beqi     r7,0x0,8158f <Device_vInit+0xcab>
   80df3:	24 8a 00                	b.lbz      r4,0x0(r10)
   80df6:	2c 6a 78                	b.lwz      r3,0x1c(r10)
   80df9:	30 84 0f                	b.addi     r4,r4,-0x10
   80dfc:	00 a8                   	b.movi     r5,0x1
   80dfe:	49 22 08                	b.jal      84f10 <pvHeap_Alloc>
   80e01:	2c 6a 38                	b.sw       0x1c(r10),r3
   80e04:	8d 40 64 20 00 20       	b.lwz      r10,0x4000424(r0)
   80e0a:	2c ea 78                	b.lwz      r7,0x1c(r10)
   80e0d:	d0 00 74 1e             	b.beqi     r7,0x0,8158f <Device_vInit+0xcab>
   80e11:	2c 6a 44                	b.lwz      r3,0x20(r10)
   80e14:	38 80 08                	b.ori      r4,r0,0x10
   80e17:	00 a8                   	b.movi     r5,0x1
   80e19:	4b bc 08                	b.jal      84f10 <pvHeap_Alloc>
   80e1c:	2c 6a 04                	b.sw       0x20(r10),r3
   80e1f:	8d 40 64 20 00 20       	b.lwz      r10,0x4000424(r0)
   80e25:	2c ea 44                	b.lwz      r7,0x20(r10)
   80e28:	d0 00 7e 6e             	b.beqi     r7,0x0,8158f <Device_vInit+0xcab>
   80e2c:	2c 0a 30                	b.sw       0xc(r10),r0
   80e2f:	99 80 00 64 9a 82       	b.ori      r12,r0,0x41592600
   80e35:	01 60                   	b.movi     r11,0x0
   80e37:	2c 0a 08                	b.sw       0x10(r10),r0
   80e3a:	2c 0a 28                	b.sw       0x14(r10),r0
   80e3d:	2c 0a 18                	b.sw       0x18(r10),r0
   80e40:	20 0a 21                	b.sb       0x84(r10),r0
   80e43:	d8 81 03 00             	b.addi     r4,r1,0xc0
   80e47:	3e 0b 18                	b.extbz    r3,r11
   80e4a:	20 61 3d                	b.sb       0xbc(r1),r3
   80e4d:	49 f7 f4                	b.jal      8ce0b <iPDM_ReadSegmentHeaderFromEEPROM>
   80e50:	24 e1 d3                	b.lbz      r7,0xcb(r1)
   80e53:	3c 27 8c                	b.sfnei    r7,0x31
   80e56:	47 29 80                	b.bf       80e6f <Device_vInit+0x58b>
   80e59:	2c e1 73                	b.lwz      r7,0xcc(r1)
   80e5c:	94 e7 00 ff ff ff       	b.andi     r7,r7,0xffffff00
   80e62:	60 e7 62                	b.xor      r7,r7,r12
   80e65:	3e 07 3c                	b.ff1      r7,r7
   80e68:	00 ff                   	b.addi     r7,r7,-0x1
   80e6a:	6c e7 f9                	b.srli     r7,r7,0x1f
   80e6d:	0c 80                   	b.j        80e71 <Device_vInit+0x58d>
   80e6f:	00 e0                   	b.movi     r7,0x0
   80e71:	01 78                   	b.addi     r11,r11,0x1
   80e73:	a0 20 71 41 80 00       	b.beqi     r7,0x1,8269b <Device_vInit+0x1db7>
   80e79:	24 ea 80                	b.lbz      r7,0x1(r10)
   80e7c:	d3 4e be 3f             	b.bgts     r7,r11,80e43 <Device_vInit+0x55f>
   80e80:	01 60                   	b.movi     r11,0x0
   80e82:	01 aa                   	b.movi     r13,0x5
   80e84:	0d f0                   	b.j        80ec2 <Device_vInit+0x5de>
   80e86:	3e 0b 60                	b.extbz    r12,r11
   80e89:	04 6c                   	b.mov      r3,r12
   80e8b:	4b 53 68                	b.jal      869b6 <bPDM_IsEEPROMsegmentErased>
   80e8e:	41 03 4c                	b.bnei     r3,0x0,80ec0 <Device_vInit+0x5dc>
   80e91:	49 45 f4                	b.jal      8cd1b <bPDM_InitialiseEEPROM>
   80e94:	6c eb 60                	b.slli     r7,r11,0x6
   80e97:	04 6c                   	b.mov      r3,r12
   80e99:	8c e0 21 00 00 80       	b.sw       0x1000084(r0),r7
   80e9f:	8d a0 01 00 00 80       	b.sw       0x1000080(r0),r13
   80ea5:	8c 00 11 00 00 80       	b.sw       0x1000088(r0),r0
   80eab:	8c 00 11 00 00 80       	b.sw       0x1000088(r0),r0
   80eb1:	8c 00 11 00 00 80       	b.sw       0x1000088(r0),r0
   80eb7:	8c 00 11 00 00 80       	b.sw       0x1000088(r0),r0
   80ebd:	48 11 f4                	b.jal      8ccdd <vPDM_WriteEEPROMfixSegmentData>
   80ec0:	01 78                   	b.addi     r11,r11,0x1
   80ec2:	24 ea 80                	b.lbz      r7,0x1(r10)
   80ec5:	d3 4e b8 3f             	b.bgts     r7,r11,80e86 <Device_vInit+0x5a2>
   80ec9:	2c 0a 30                	b.sw       0xc(r10),r0
   80ecc:	39 80 38                	b.ori      r12,r0,0x1c
   80ecf:	2c 0a 08                	b.sw       0x10(r10),r0
   80ed2:	2c 0a 28                	b.sw       0x14(r10),r0
   80ed5:	2c 0a 18                	b.sw       0x18(r10),r0
   80ed8:	01 40                   	b.movi     r10,0x0
   80eda:	0c 30                   	b.j        80f0a <Device_vInit+0x626>
   80edc:	65 6a 63                	b.mul      r11,r10,r12
   80edf:	2c c7 60                	b.lwz      r6,0x4(r7)
   80ee2:	38 a0 08                	b.ori      r5,r0,0x10
   80ee5:	08 cb                   	b.add      r6,r6,r11
   80ee7:	00 80                   	b.movi     r4,0x0
   80ee9:	21 46 10                	b.sb       0x8(r6),r10
   80eec:	01 58                   	b.addi     r10,r10,0x1
   80eee:	2c 67 60                	b.lwz      r3,0x4(r7)
   80ef1:	08 6b                   	b.add      r3,r3,r11
   80ef3:	30 63 30                	b.addi     r3,r3,0xc
   80ef6:	4a 7c ca                	b.jal      95bef <memset>
   80ef9:	8c 60 64 20 00 20       	b.lwz      r3,0x4000424(r0)
   80eff:	2c 83 60                	b.lwz      r4,0x4(r3)
   80f02:	30 63 28                	b.addi     r3,r3,0x14
   80f05:	08 8b                   	b.add      r4,r4,r11
   80f07:	4a 20 9c                	b.jal      8f318 <vDLISTaddToTail>
   80f0a:	8c e0 64 20 00 20       	b.lwz      r7,0x4000424(r0)
   80f10:	24 c7 80                	b.lbz      r6,0x1(r7)
   80f13:	d3 4c a9 3f             	b.bgts     r6,r10,80edc <Device_vInit+0x5f8>
   80f17:	20 c7 10                	b.sb       0x8(r7),r6
   80f1a:	46 ae 60                	b.j        8158f <Device_vInit+0xcab>
   80f1d:	65 eb 63                	b.mul      r15,r11,r12
   80f20:	2c ee 60                	b.lwz      r7,0x4(r14)
   80f23:	3e 0b 18                	b.extbz    r3,r11
   80f26:	08 ef                   	b.add      r7,r7,r15
   80f28:	20 67 10                	b.sb       0x8(r7),r3
   80f2b:	2c 8e 60                	b.lwz      r4,0x4(r14)
   80f2e:	08 8f                   	b.add      r4,r4,r15
   80f30:	30 84 30                	b.addi     r4,r4,0xc
   80f33:	48 6d f4                	b.jal      8ce0b <iPDM_ReadSegmentHeaderFromEEPROM>
   80f36:	2c ae 60                	b.lwz      r5,0x4(r14)
   80f39:	61 45 7c                	b.add      r10,r5,r15
   80f3c:	d0 00 a6 90             	b.beqi     r10,0x0,80fd2 <Device_vInit+0x6ee>
   80f40:	24 ea e8                	b.lbz      r7,0x17(r10)
   80f43:	41 07 28                	b.bnei     r7,0x0,80f57 <Device_vInit+0x673>
   80f46:	2c ea 58                	b.lwz      r7,0x18(r10)
   80f49:	94 e7 00 ff ff ff       	b.andi     r7,r7,0xffffff00
   80f4f:	a0 40 72 b1 80 00       	b.bnei     r7,0x0,82823 <Device_vInit+0x1f3f>
   80f55:	0f c4                   	b.j        80fe4 <Device_vInit+0x700>
   80f57:	3c 27 8c                	b.sfnei    r7,0x31
   80f5a:	d6 93 18 00             	b.bf       82823 <Device_vInit+0x1f3f>
   80f5e:	2c ea 58                	b.lwz      r7,0x18(r10)
   80f61:	94 e7 00 ff ff ff       	b.andi     r7,r7,0xffffff00
   80f67:	9d 87 00 64 9a 82       	b.sfeqi    r7,0x41592600
   80f6d:	47 2e e0                	b.bf       80fe4 <Device_vInit+0x700>
   80f70:	46 cd 18                	b.j        82823 <Device_vInit+0x1f3f>
   80f73:	d2 8e 34 80             	b.beq      r7,r3,80f85 <Device_vInit+0x6a1>
   80f77:	64 87 63                	b.mul      r4,r7,r12
   80f7a:	08 85                   	b.add      r4,r4,r5
   80f7c:	2c 84 70                	b.lwz      r4,0xc(r4)
   80f7f:	3d a6 20                	b.sfgeu    r6,r4
   80f82:	64 c6 22                	b.cmov     r6,r6,r4
   80f85:	00 f8                   	b.addi     r7,r7,0x1
   80f87:	d3 50 73 7f             	b.bgts     r8,r7,80f73 <Device_vInit+0x68f>
   80f8b:	2c aa 70                	b.lwz      r5,0xc(r10)
   80f8e:	d8 e6 13 00             	b.addi     r7,r6,0xc8
   80f92:	d3 8e 50 20             	b.bgeu     r7,r5,80fd2 <Device_vInit+0x6ee>
   80f96:	00 d8                   	b.addi     r6,r6,0x1
   80f98:	00 88                   	b.movi     r4,0x1
   80f9a:	2c ca 30                	b.sw       0xc(r10),r6
   80f9d:	04 6a                   	b.mov      r3,r10
   80f9f:	48 cd f4                	b.jal      8ce6b <iPDM_SetVerifyBytesInFileSystemRecord>
   80fa2:	24 ca 10                	b.lbz      r6,0x8(r10)
   80fa5:	2c ea 70                	b.lwz      r7,0xc(r10)
   80fa8:	6c c6 60                	b.slli     r6,r6,0x6
   80fab:	04 6a                   	b.mov      r3,r10
   80fad:	8c c0 21 00 00 80       	b.sw       0x1000084(r0),r6
   80fb3:	00 80                   	b.movi     r4,0x0
   80fb5:	8d a0 01 00 00 80       	b.sw       0x1000080(r0),r13
   80fbb:	8c e0 11 00 00 80       	b.sw       0x1000088(r0),r7
   80fc1:	49 55 f4                	b.jal      8ce6b <iPDM_SetVerifyBytesInFileSystemRecord>
   80fc4:	2c ee 7a                	b.lwz      r7,0x5c(r14)
   80fc7:	40 07 d0                	b.beqi     r7,0x0,80fd2 <Device_vInit+0x6ee>
   80fca:	24 6a 10                	b.lbz      r3,0x8(r10)
   80fcd:	00 8c                   	b.movi     r4,0x3
   80fcf:	47 d1 38                	b.jalr     r7
   80fd2:	8c a0 64 20 00 20       	b.lwz      r5,0x4000424(r0)
   80fd8:	00 80                   	b.movi     r4,0x0
   80fda:	2c 65 60                	b.lwz      r3,0x4(r5)
   80fdd:	30 a5 28                	b.addi     r5,r5,0x14
   80fe0:	08 6f                   	b.add      r3,r3,r15
   80fe2:	0c b8                   	b.j        81056 <Device_vInit+0x772>
   80fe4:	8c a0 64 20 00 20       	b.lwz      r5,0x4000424(r0)
   80fea:	2c 65 60                	b.lwz      r3,0x4(r5)
   80fed:	08 6f                   	b.add      r3,r3,r15
   80fef:	24 e3 a8                	b.lbz      r7,0x15(r3)
   80ff2:	00 ff                   	b.addi     r7,r7,-0x1
   80ff4:	3e 07 38                	b.extbz    r7,r7
   80ff7:	3c a7 50                	b.sfgtui   r7,0xa
   80ffa:	47 2e a0                	b.bf       81051 <Device_vInit+0x76d>
   80ffd:	6c e7 40                	b.slli     r7,r7,0x2
   81000:	90 e7 30 08 10 00       	b.addi     r7,r7,0x8100c
   81006:	2c e7 40                	b.lwz      r7,0x0(r7)
   81009:	47 d2 38                	b.jr       r7
   8100c:	00 08                   	b.trap     0x1
   8100e:	10                      	.word 0x10
   8100f:	38 00 08                	b.ori      r0,r0,0x10
   81012:	10                      	.word 0x10
   81013:	47                      	.word 0x47
   81014:	00 08                   	b.trap     0x1
   81016:	10                      	.word 0x10
   81017:	3d 00 08                	b.sfltsi   r0,0x10
   8101a:	10                      	.word 0x10
   8101b:	4c                      	.word 0x4c
   8101c:	00 08                   	b.trap     0x1
   8101e:	10                      	.word 0x10
   8101f:	51 00 08                	b.mlwz     r8,0x10(r0),0x0
   81022:	10                      	.word 0x10
   81023:	4c                      	.word 0x4c
   81024:	00 08                   	b.trap     0x1
   81026:	10                      	.word 0x10
   81027:	4c                      	.word 0x4c
   81028:	00 08                   	b.trap     0x1
   8102a:	10                      	.word 0x10
   8102b:	42 00 08                	b.bgesi    r0,0x0,8103b <Device_vInit+0x757>
   8102e:	10                      	.word 0x10
   8102f:	42 00 08                	b.bgesi    r0,0x0,8103f <Device_vInit+0x75b>
   81032:	10                      	.word 0x10
   81033:	42 00 08                	b.bgesi    r0,0x0,81043 <Device_vInit+0x75f>
   81036:	10                      	.word 0x10
   81037:	42 30 a5                	b.bgesi    r16,0x4,80fdc <Device_vInit+0x6f8>
   8103a:	24 0e 60                	b.lbz      r0,0x6(r14)
   8103d:	30 a5 3c                	b.addi     r5,r5,0x3c
   81040:	0c a0                   	b.j        81054 <Device_vInit+0x770>
   81042:	30 a5 22                	b.addi     r5,r5,0x44
   81045:	0f c0                   	b.j        81054 <Device_vInit+0x770>
   81047:	30 a5 34                	b.addi     r5,r5,0x2c
   8104a:	0d 40                   	b.j        81054 <Device_vInit+0x770>
   8104c:	30 a5 2c                	b.addi     r5,r5,0x34
   8104f:	0e 80                   	b.j        81054 <Device_vInit+0x770>
   81051:	30 a5 28                	b.addi     r5,r5,0x14
   81054:	00 80                   	b.movi     r4,0x0
   81056:	01 78                   	b.addi     r11,r11,0x1
   81058:	49 d1 0c                	b.jal      8d286 <vPDM_AddFileSystemElementToListInAscendingWearCountOrder>
   8105b:	8d c0 64 20 00 20       	b.lwz      r14,0x4000424(r0)
   81061:	24 ee 80                	b.lbz      r7,0x1(r14)
   81064:	d3 4e b9 d7             	b.bgts     r7,r11,80f1d <Device_vInit+0x639>
   81068:	2c 01 26                	b.sw       0x64(r1),r0
   8106b:	2c 01 16                	b.sw       0x68(r1),r0
   8106e:	2c ee 7c                	b.lwz      r7,0x3c(r14)
   81071:	0e dc                   	b.j        8115e <Device_vInit+0x87a>
   81073:	28 67 88                	b.lhz      r3,0x10(r7)
   81076:	30 e1 26                	b.addi     r7,r1,0x64
   81079:	38 a0 70                	b.ori      r5,r0,0xe
   8107c:	30 c1 24                	b.addi     r6,r1,0x24
   8107f:	31 0b 3c                	b.addi     r8,r11,0x3c
   81082:	00 84                   	b.movi     r4,0x2
   81084:	2c e1 00                	b.sw       0x0(r1),r7
   81087:	30 e1 14                	b.addi     r7,r1,0x28
   8108a:	48 85 0c                	b.jal      8d30e <vPDM_MoveAllDataWithBufferIdFromListToList>
   8108d:	2d 81 66                	b.lwz      r12,0x64(r1)
   81090:	d0 00 cd 30             	b.beqi     r12,0x0,8115b <Device_vInit+0x877>
   81094:	01 c8                   	b.movi     r14,0x1
   81096:	01 40                   	b.movi     r10,0x0
   81098:	01 a0                   	b.movi     r13,0x0
   8109a:	8c e0 64 20 00 20       	b.lwz      r7,0x4000424(r0)
   810a0:	30 a1 34                	b.addi     r5,r1,0x2c
   810a3:	04 6c                   	b.mov      r3,r12
   810a5:	2c 87 78                	b.lwz      r4,0x1c(r7)
   810a8:	4a 2e c8                	b.jal      85e79 <iPDM_ReadUserDataFromFileSystemRecord>
   810ab:	2c 8b 78                	b.lwz      r4,0x1c(r11)
   810ae:	24 e4 00                	b.lbz      r7,0x0(r4)
   810b1:	00 f8                   	b.addi     r7,r7,0x1
   810b3:	08 e4                   	b.add      r7,r7,r4
   810b5:	24 c7 00                	b.lbz      r6,0x0(r7)
   810b8:	20 c1 38                	b.sb       0x1c(r1),r6
   810bb:	24 e7 80                	b.lbz      r7,0x1(r7)
   810be:	20 e1 b8                	b.sb       0x1d(r1),r7
   810c1:	28 e1 b8                	b.lhz      r7,0x1c(r1)
   810c4:	d3 ce d4 80             	b.bgtu     r7,r13,810d6 <Device_vInit+0x7f2>
   810c8:	3c 2e 80                	b.sfnei    r14,0x1
   810cb:	65 4a 62                	b.cmov     r10,r10,r12
   810ce:	3c 2e 80                	b.sfnei    r14,0x1
   810d1:	65 ad 3a                	b.cmov     r13,r13,r7
   810d4:	0d 80                   	b.j        810da <Device_vInit+0x7f6>
   810d6:	05 4c                   	b.mov      r10,r12
   810d8:	05 a7                   	b.mov      r13,r7
   810da:	2d 8c 40                	b.lwz      r12,0x0(r12)
   810dd:	01 c0                   	b.movi     r14,0x0
   810df:	41 0c dd                	b.bnei     r12,0x0,8109a <Device_vInit+0x7b6>
   810e2:	30 a1 0c                	b.addi     r5,r1,0x30
   810e5:	04 6a                   	b.mov      r3,r10
   810e7:	49 26 c8                	b.jal      85e79 <iPDM_ReadUserDataFromFileSystemRecord>
   810ea:	2c eb 78                	b.lwz      r7,0x1c(r11)
   810ed:	24 81 0c                	b.lbz      r4,0x30(r1)
   810f0:	25 a7 00                	b.lbz      r13,0x0(r7)
   810f3:	30 cd 80                	b.addi     r6,r13,0x1
   810f6:	08 c7                   	b.add      r6,r6,r7
   810f8:	24 a6 00                	b.lbz      r5,0x0(r6)
   810fb:	20 a1 78                	b.sb       0x1e(r1),r5
   810fe:	24 c6 80                	b.lbz      r6,0x1(r6)
   81101:	20 c1 f8                	b.sb       0x1f(r1),r6
   81104:	40 0d 5c                	b.beqi     r13,0x0,8113e <Device_vInit+0x85a>
   81107:	30 6d c0                	b.addi     r3,r13,0x3
   8110a:	3e 03 18                	b.extbz    r3,r3
   8110d:	08 67                   	b.add      r3,r3,r7
   8110f:	00 c8                   	b.movi     r6,0x1
   81111:	60 e3 64                	b.add      r7,r3,r12
   81114:	24 e7 00                	b.lbz      r7,0x0(r7)
   81117:	41 87 d0                	b.bnei     r7,0x1,81122 <Device_vInit+0x83e>
   8111a:	01 98                   	b.addi     r12,r12,0x1
   8111c:	00 a0                   	b.movi     r5,0x0
   8111e:	00 e0                   	b.movi     r7,0x0
   81120:	0d c0                   	b.j        8112e <Device_vInit+0x84a>
   81122:	3c 27 00                	b.sfnei    r7,0x0
   81125:	64 a0 32                	b.cmov     r5,r0,r6
   81128:	3c 27 00                	b.sfnei    r7,0x0
   8112b:	64 e6 02                	b.cmov     r7,r6,r0
   8112e:	60 a7 29                	b.or       r5,r7,r5
   81131:	40 05 90                	b.beqi     r5,0x0,8113a <Device_vInit+0x856>
   81134:	41 87 50                	b.bnei     r7,0x1,8113e <Device_vInit+0x85a>
   81137:	46 31 a8                	b.j        826c3 <Device_vInit+0x1ddf>
   8113a:	d3 48 ce bf             	b.bgts     r4,r12,81111 <Device_vInit+0x82d>
   8113e:	38 80 70                	b.ori      r4,r0,0xe
   81141:	30 a1 26                	b.addi     r5,r1,0x64
   81144:	30 cb 30                	b.addi     r6,r11,0xc
   81147:	04 6a                   	b.mov      r3,r10
   81149:	4b 05 0c                	b.jal      8d3cc <vPDM_MoveFileRecordFromListToList>
   8114c:	38 60 70                	b.ori      r3,r0,0xe
   8114f:	30 81 0c                	b.addi     r4,r1,0x30
   81152:	30 a1 26                	b.addi     r5,r1,0x64
   81155:	30 cb 28                	b.addi     r6,r11,0x14
   81158:	48 fa 0c                	b.jal      8d2d4 <vPDM_MoveAllDataFromListToList>
   8115b:	2c eb 7c                	b.lwz      r7,0x3c(r11)
   8115e:	8d 60 64 20 00 20       	b.lwz      r11,0x4000424(r0)
   81164:	d0 40 7f 0f             	b.bnei     r7,0x0,81073 <Device_vInit+0x78f>
   81168:	2c 01 26                	b.sw       0x64(r1),r0
   8116b:	2c 01 16                	b.sw       0x68(r1),r0
   8116e:	2c eb 6c                	b.lwz      r7,0x34(r11)
   81171:	0c b0                   	b.j        811a5 <Device_vInit+0x8c1>
   81173:	28 67 88                	b.lhz      r3,0x10(r7)
   81176:	24 87 68                	b.lbz      r4,0x16(r7)
   81179:	31 41 26                	b.addi     r10,r1,0x64
   8117c:	30 e1 0c                	b.addi     r7,r1,0x30
   8117f:	38 a0 70                	b.ori      r5,r0,0xe
   81182:	30 c1 34                	b.addi     r6,r1,0x2c
   81185:	31 08 2c                	b.addi     r8,r8,0x34
   81188:	2d 41 00                	b.sw       0x0(r1),r10
   8118b:	4b 06 0c                	b.jal      8d30e <vPDM_MoveAllDataWithBufferIdFromListToList>
   8118e:	8c 80 64 20 00 20       	b.lwz      r4,0x4000424(r0)
   81194:	04 6a                   	b.mov      r3,r10
   81196:	30 84 30                	b.addi     r4,r4,0xc
   81199:	4b 0e 44                	b.jal      89b5c <iPDM_ReconstructReplacedDataTable>
   8119c:	8c e0 64 20 00 20       	b.lwz      r7,0x4000424(r0)
   811a2:	2c e7 6c                	b.lwz      r7,0x34(r7)
   811a5:	8d 00 64 20 00 20       	b.lwz      r8,0x4000424(r0)
   811ab:	41 07 13                	b.bnei     r7,0x0,81173 <Device_vInit+0x88f>
   811ae:	2c 01 3c                	b.sw       0x3c(r1),r0
   811b1:	2c 01 02                	b.sw       0x40(r1),r0
   811b4:	2d 48 74                	b.lwz      r10,0x2c(r8)
   811b7:	46 9d 40                	b.j        81470 <Device_vInit+0xb8c>
   811ba:	28 6a 88                	b.lhz      r3,0x10(r10)
   811bd:	24 8a 68                	b.lbz      r4,0x16(r10)
   811c0:	30 e1 3c                	b.addi     r7,r1,0x3c
   811c3:	38 a0 70                	b.ori      r5,r0,0xe
   811c6:	30 c1 58                	b.addi     r6,r1,0x1a
   811c9:	31 8b 34                	b.addi     r12,r11,0x2c
   811cc:	05 0c                   	b.mov      r8,r12
   811ce:	2c e1 00                	b.sw       0x0(r1),r7
   811d1:	30 e1 d8                	b.addi     r7,r1,0x1b
   811d4:	49 72 0c                	b.jal      8d30e <vPDM_MoveAllDataWithBufferIdFromListToList>
   811d7:	8c c0 64 20 00 20       	b.lwz      r6,0x4000424(r0)
   811dd:	28 6a 88                	b.lhz      r3,0x10(r10)
   811e0:	31 a1 34                	b.addi     r13,r1,0x2c
   811e3:	38 a0 ff                	b.ori      r5,r0,0xff
   811e6:	30 c6 30                	b.addi     r6,r6,0xc
   811e9:	00 84                   	b.movi     r4,0x2
   811eb:	04 ed                   	b.mov      r7,r13
   811ed:	4a 09 88                	b.jal      8582e <iPDM_SearchForBufferIdInList>
   811f0:	41 03 88                	b.bnei     r3,0x0,81201 <Device_vInit+0x91d>
   811f3:	28 6a 88                	b.lhz      r3,0x10(r10)
   811f6:	24 8a 68                	b.lbz      r4,0x16(r10)
   811f9:	04 ac                   	b.mov      r5,r12
   811fb:	4b 5d 44                	b.jal      89ce6 <iPDM_DeleteAppendedSequence>
   811fe:	46 96 40                	b.j        81467 <Device_vInit+0xb83>
   81201:	2d 41 7c                	b.lwz      r10,0x3c(r1)
   81204:	2c 01 22                	b.sw       0x44(r1),r0
   81207:	2c 01 12                	b.sw       0x48(r1),r0
   8120a:	2c 01 32                	b.sw       0x4c(r1),r0
   8120d:	2c 01 0a                	b.sw       0x50(r1),r0
   81210:	2c 01 2a                	b.sw       0x54(r1),r0
   81213:	2c 01 1a                	b.sw       0x58(r1),r0
   81216:	2c 01 3a                	b.sw       0x5c(r1),r0
   81219:	2c 01 06                	b.sw       0x60(r1),r0
   8121c:	2c 01 26                	b.sw       0x64(r1),r0
   8121f:	2c 01 16                	b.sw       0x68(r1),r0
   81222:	d0 00 a4 10             	b.beqi     r10,0x0,812a4 <Device_vInit+0x9c0>
   81226:	01 80                   	b.movi     r12,0x0
   81228:	20 01 0c                	b.sb       0x30(r1),r0
   8122b:	0c e0                   	b.j        81247 <Device_vInit+0x963>
   8122d:	2c 61 74                	b.lwz      r3,0x2c(r1)
   81230:	38 80 70                	b.ori      r4,r0,0xe
   81233:	30 a1 3c                	b.addi     r5,r1,0x3c
   81236:	30 c1 3a                	b.addi     r6,r1,0x5c
   81239:	4b 26 0c                	b.jal      8d3cc <vPDM_MoveFileRecordFromListToList>
   8123c:	24 e1 0c                	b.lbz      r7,0x30(r1)
   8123f:	2d 81 74                	b.lwz      r12,0x2c(r1)
   81242:	00 f8                   	b.addi     r7,r7,0x1
   81244:	20 e1 0c                	b.sb       0x30(r1),r7
   81247:	28 6a 88                	b.lhz      r3,0x10(r10)
   8124a:	24 8a 68                	b.lbz      r4,0x16(r10)
   8124d:	24 aa c8                	b.lbz      r5,0x13(r10)
   81250:	30 c1 3c                	b.addi     r6,r1,0x3c
   81253:	04 ed                   	b.mov      r7,r13
   81255:	4a 6e 88                	b.jal      8582e <iPDM_SearchForBufferIdInList>
   81258:	40 03 ab                	b.beqi     r3,0x0,8122d <Device_vInit+0x949>
   8125b:	24 e1 0c                	b.lbz      r7,0x30(r1)
   8125e:	40 07 8c                	b.beqi     r7,0x0,8128f <Device_vInit+0x9ab>
   81261:	40 87 b0                	b.beqi     r7,0x1,8126e <Device_vInit+0x98a>
   81264:	30 61 3a                	b.addi     r3,r1,0x5c
   81267:	04 8d                   	b.mov      r4,r13
   81269:	49 9a 88                	b.jal      857cf <iPDM_FilterDuplicateAppendedSegmentsOnList.6924>
   8126c:	0e 80                   	b.j        81271 <Device_vInit+0x98d>
   8126e:	2d 81 34                	b.sw       0x2c(r1),r12
   81271:	2c 61 74                	b.lwz      r3,0x2c(r1)
   81274:	38 80 70                	b.ori      r4,r0,0xe
   81277:	30 a1 3a                	b.addi     r5,r1,0x5c
   8127a:	30 c1 26                	b.addi     r6,r1,0x64
   8127d:	4b ca 0c                	b.jal      8d3cc <vPDM_MoveFileRecordFromListToList>
   81280:	38 60 70                	b.ori      r3,r0,0xe
   81283:	30 81 0c                	b.addi     r4,r1,0x30
   81286:	30 a1 3a                	b.addi     r5,r1,0x5c
   81289:	30 c1 22                	b.addi     r6,r1,0x44
   8128c:	48 48 0c                	b.jal      8d2d4 <vPDM_MoveAllDataFromListToList>
   8128f:	2d 41 7c                	b.lwz      r10,0x3c(r1)
   81292:	41 0a 69                	b.bnei     r10,0x0,81228 <Device_vInit+0x944>
   81295:	38 60 70                	b.ori      r3,r0,0xe
   81298:	30 81 0c                	b.addi     r4,r1,0x30
   8129b:	30 a1 26                	b.addi     r5,r1,0x64
   8129e:	30 c1 3c                	b.addi     r6,r1,0x3c
   812a1:	4b 30 0c                	b.jal      8d2d4 <vPDM_MoveAllDataFromListToList>
   812a4:	2c e1 7c                	b.lwz      r7,0x3c(r1)
   812a7:	31 81 2a                	b.addi     r12,r1,0x54
   812aa:	38 a0 70                	b.ori      r5,r0,0xe
   812ad:	30 c1 0c                	b.addi     r6,r1,0x30
   812b0:	31 0b 24                	b.addi     r8,r11,0x24
   812b3:	28 67 88                	b.lhz      r3,0x10(r7)
   812b6:	24 87 68                	b.lbz      r4,0x16(r7)
   812b9:	2d 81 00                	b.sw       0x0(r1),r12
   812bc:	30 e1 14                	b.addi     r7,r1,0x28
   812bf:	4b c8 0c                	b.jal      8d30e <vPDM_MoveAllDataWithBufferIdFromListToList>
   812c2:	2d 41 7c                	b.lwz      r10,0x3c(r1)
   812c5:	0f 90                   	b.j        812ec <Device_vInit+0xa08>
   812c7:	28 6a 88                	b.lhz      r3,0x10(r10)
   812ca:	24 8a 68                	b.lbz      r4,0x16(r10)
   812cd:	24 aa c8                	b.lbz      r5,0x13(r10)
   812d0:	30 e1 34                	b.addi     r7,r1,0x2c
   812d3:	04 cc                   	b.mov      r6,r12
   812d5:	4a 6a 88                	b.jal      8582e <iPDM_SearchForBufferIdInList>
   812d8:	41 03 88                	b.bnei     r3,0x0,812e9 <Device_vInit+0xa05>
   812db:	2c 61 74                	b.lwz      r3,0x2c(r1)
   812de:	38 80 70                	b.ori      r4,r0,0xe
   812e1:	30 c1 32                	b.addi     r6,r1,0x4c
   812e4:	04 ac                   	b.mov      r5,r12
   812e6:	49 9c 0c                	b.jal      8d3cc <vPDM_MoveFileRecordFromListToList>
   812e9:	2d 4a 40                	b.lwz      r10,0x0(r10)
   812ec:	41 0a db                	b.bnei     r10,0x0,812c7 <Device_vInit+0x9e3>
   812ef:	38 60 70                	b.ori      r3,r0,0xe
   812f2:	30 81 0c                	b.addi     r4,r1,0x30
   812f5:	30 c1 3c                	b.addi     r6,r1,0x3c
   812f8:	04 ac                   	b.mov      r5,r12
   812fa:	49 6f f4                	b.jal      8d2d4 <vPDM_MoveAllDataFromListToList>
   812fd:	30 a1 3c                	b.addi     r5,r1,0x3c
   81300:	38 60 70                	b.ori      r3,r0,0xe
   81303:	30 81 38                	b.addi     r4,r1,0x1c
   81306:	04 c5                   	b.mov      r6,r5
   81308:	48 cf f4                	b.jal      8d2d4 <vPDM_MoveAllDataFromListToList>
   8130b:	2c e1 7c                	b.lwz      r7,0x3c(r1)
   8130e:	30 c1 3c                	b.addi     r6,r1,0x3c
   81311:	00 a0                   	b.movi     r5,0x0
   81313:	28 67 88                	b.lhz      r3,0x10(r7)
   81316:	24 87 68                	b.lbz      r4,0x16(r7)
   81319:	2c e1 04                	b.sw       0x20(r1),r7
   8131c:	30 e1 24                	b.addi     r7,r1,0x24
   8131f:	4b c2 88                	b.jal      8582e <iPDM_SearchForBufferIdInList>
   81322:	d0 40 30 c8             	b.bnei     r3,0x0,81452 <Device_vInit+0xb6e>
   81326:	2d 41 64                	b.lwz      r10,0x24(r1)
   81329:	24 c1 38                	b.lbz      r6,0x1c(r1)
   8132c:	24 aa 28                	b.lbz      r5,0x14(r10)
   8132f:	d3 ca 6c 48             	b.bgtu     r5,r6,81452 <Device_vInit+0xb6e>
   81333:	2c e1 44                	b.lwz      r7,0x20(r1)
   81336:	a3 cc 5f 5c 80 00       	b.bgtu     r6,r5,826e5 <Device_vInit+0x1e01>
   8133c:	24 ca a8                	b.lbz      r6,0x15(r10)
   8133f:	a0 50 66 5c 80 00       	b.bnei     r6,0x2,826e5 <Device_vInit+0x1e01>
   81345:	46 ed c8                	b.j        826fc <Device_vInit+0x1e18>
   81348:	2c 61 54                	b.lwz      r3,0x28(r1)
   8134b:	24 e3 a8                	b.lbz      r7,0x15(r3)
   8134e:	d0 50 72 30             	b.bnei     r7,0x2,81412 <Device_vInit+0xb2e>
   81352:	24 e3 28                	b.lbz      r7,0x14(r3)
   81355:	d0 20 7b d0             	b.beqi     r7,0x1,81412 <Device_vInit+0xb2e>
   81359:	30 81 3c                	b.addi     r4,r1,0x3c
   8135c:	30 a1 22                	b.addi     r5,r1,0x44
   8135f:	30 c1 32                	b.addi     r6,r1,0x4c
   81362:	49 02 c4                	b.jal      8a064 <iPDM_ReplaceSegmentFromJunkLists.5949>
   81365:	d0 00 3b 50             	b.beqi     r3,0x0,81412 <Device_vInit+0xb2e>
   81369:	0e 5c                   	b.j        81452 <Device_vInit+0xb6e>
   8136b:	2c e1 54                	b.lwz      r7,0x28(r1)
   8136e:	24 e7 a8                	b.lbz      r7,0x15(r7)
   81371:	a0 50 71 5c 80 00       	b.bnei     r7,0x2,82719 <Device_vInit+0x1e35>
   81377:	2c e1 54                	b.lwz      r7,0x28(r1)
   8137a:	24 c7 28                	b.lbz      r6,0x14(r7)
   8137d:	41 86 90                	b.bnei     r6,0x1,81386 <Device_vInit+0xaa2>
   81380:	2c e1 34                	b.sw       0x2c(r1),r7
   81383:	46 cb c8                	b.j        82756 <Device_vInit+0x1e72>
   81386:	24 a7 c8                	b.lbz      r5,0x13(r7)
   81389:	2c e1 44                	b.lwz      r7,0x20(r1)
   8138c:	08 a6                   	b.add      r5,r5,r6
   8138e:	3e 05 28                	b.extbz    r5,r5
   81391:	20 a1 0c                	b.sb       0x30(r1),r5
   81394:	30 c1 3c                	b.addi     r6,r1,0x3c
   81397:	00 bf                   	b.addi     r5,r5,-0x1
   81399:	3e 05 28                	b.extbz    r5,r5
   8139c:	28 67 88                	b.lhz      r3,0x10(r7)
   8139f:	24 87 68                	b.lbz      r4,0x16(r7)
   813a2:	30 e1 34                	b.addi     r7,r1,0x2c
   813a5:	4a 44 88                	b.jal      8582e <iPDM_SearchForBufferIdInList>
   813a8:	a0 40 3e 9c 80 00       	b.bnei     r3,0x0,8273f <Device_vInit+0x1e5b>
   813ae:	46 15 c8                	b.j        82756 <Device_vInit+0x1e72>
   813b1:	30 81 3c                	b.addi     r4,r1,0x3c
   813b4:	30 a1 22                	b.addi     r5,r1,0x44
   813b7:	30 c1 32                	b.addi     r6,r1,0x4c
   813ba:	49 54 c4                	b.jal      8a064 <iPDM_ReplaceSegmentFromJunkLists.5949>
   813bd:	d0 40 3a 90             	b.bnei     r3,0x0,81452 <Device_vInit+0xb6e>
   813c1:	2c e1 64                	b.lwz      r7,0x24(r1)
   813c4:	2d 81 7c                	b.lwz      r12,0x3c(r1)
   813c7:	24 e7 28                	b.lbz      r7,0x14(r7)
   813ca:	20 e1 78                	b.sb       0x1e(r1),r7
   813cd:	40 0c a2                	b.beqi     r12,0x0,81412 <Device_vInit+0xb2e>
   813d0:	98 80 54 c3 10 00       	b.ori      r4,r0,0x8c32a
   813d6:	30 a1 78                	b.addi     r5,r1,0x1e
   813d9:	04 6c                   	b.mov      r3,r12
   813db:	4b 50 88                	b.jal      85806 <psDLISTsearchForward>
   813de:	40 03 2c                	b.beqi     r3,0x0,81412 <Device_vInit+0xb2e>
   813e1:	38 80 30                	b.ori      r4,r0,0xc
   813e4:	30 a1 3c                	b.addi     r5,r1,0x3c
   813e7:	30 c1 32                	b.addi     r6,r1,0x4c
   813ea:	2d 83 40                	b.lwz      r12,0x0(r3)
   813ed:	4b ef f4                	b.jal      8d3cc <vPDM_MoveFileRecordFromListToList>
   813f0:	0e ef                   	b.j        813cd <Device_vInit+0xae9>
   813f2:	24 e3 a8                	b.lbz      r7,0x15(r3)
   813f5:	40 47 b8                	b.beqi     r7,0x2,81412 <Device_vInit+0xb2e>
   813f8:	30 c1 3c                	b.addi     r6,r1,0x3c
   813fb:	30 e1 04                	b.addi     r7,r1,0x20
   813fe:	00 a4                   	b.movi     r5,0x2
   81400:	48 83 84                	b.jal      89b04 <iPDM_SegmentCopyAndAppendData.constprop.116>
   81403:	2c 61 64                	b.lwz      r3,0x24(r1)
   81406:	38 80 70                	b.ori      r4,r0,0xe
   81409:	30 a1 3c                	b.addi     r5,r1,0x3c
   8140c:	30 c1 32                	b.addi     r6,r1,0x4c
   8140f:	4a f7 f4                	b.jal      8d3cc <vPDM_MoveFileRecordFromListToList>
   81412:	8d 80 64 20 00 20       	b.lwz      r12,0x4000424(r0)
   81418:	38 60 70                	b.ori      r3,r0,0xe
   8141b:	31 8c 28                	b.addi     r12,r12,0x14
   8141e:	30 81 34                	b.addi     r4,r1,0x2c
   81421:	30 a1 22                	b.addi     r5,r1,0x44
   81424:	04 cc                   	b.mov      r6,r12
   81426:	49 d5 f4                	b.jal      8d2d4 <vPDM_MoveAllDataFromListToList>
   81429:	38 60 70                	b.ori      r3,r0,0xe
   8142c:	30 81 34                	b.addi     r4,r1,0x2c
   8142f:	30 a1 32                	b.addi     r5,r1,0x4c
   81432:	04 cc                   	b.mov      r6,r12
   81434:	48 15 f4                	b.jal      8d2d4 <vPDM_MoveAllDataFromListToList>
   81437:	28 6a 88                	b.lhz      r3,0x10(r10)
   8143a:	24 8a 68                	b.lbz      r4,0x16(r10)
   8143d:	24 aa 28                	b.lbz      r5,0x14(r10)
   81440:	30 c1 34                	b.addi     r6,r1,0x2c
   81443:	30 e1 0c                	b.addi     r7,r1,0x30
   81446:	31 01 3c                	b.addi     r8,r1,0x3c
   81449:	4a bb 44                	b.jal      89fbe <iPDM_VerifyDataSequenceWithBufferId>
   8144c:	30 cb 30                	b.addi     r6,r11,0xc
   8144f:	40 03 30                	b.beqi     r3,0x0,8145b <Device_vInit+0xb77>
   81452:	8c c0 64 20 00 20       	b.lwz      r6,0x4000424(r0)
   81458:	30 c6 28                	b.addi     r6,r6,0x14
   8145b:	38 60 70                	b.ori      r3,r0,0xe
   8145e:	30 81 58                	b.addi     r4,r1,0x1a
   81461:	30 a1 3c                	b.addi     r5,r1,0x3c
   81464:	48 39 f4                	b.jal      8d2d4 <vPDM_MoveAllDataFromListToList>
   81467:	8c e0 64 20 00 20       	b.lwz      r7,0x4000424(r0)
   8146d:	2d 47 74                	b.lwz      r10,0x2c(r7)
   81470:	8d 60 64 20 00 20       	b.lwz      r11,0x4000424(r0)
   81476:	d0 40 a2 2b             	b.bnei     r10,0x0,811ba <Device_vInit+0x8d6>
   8147a:	2c 01 26                	b.sw       0x64(r1),r0
   8147d:	2c 01 16                	b.sw       0x68(r1),r0
   81480:	2d 4b 62                	b.lwz      r10,0x44(r11)
   81483:	0c 68                   	b.j        814db <Device_vInit+0xbf7>
   81485:	28 6a 88                	b.lhz      r3,0x10(r10)
   81488:	24 8a 68                	b.lbz      r4,0x16(r10)
   8148b:	31 81 26                	b.addi     r12,r1,0x64
   8148e:	30 e1 0c                	b.addi     r7,r1,0x30
   81491:	31 0b 22                	b.addi     r8,r11,0x44
   81494:	38 a0 70                	b.ori      r5,r0,0xe
   81497:	30 c1 34                	b.addi     r6,r1,0x2c
   8149a:	2d 81 00                	b.sw       0x0(r1),r12
   8149d:	4a 39 f4                	b.jal      8d30e <vPDM_MoveAllDataWithBufferIdFromListToList>
   814a0:	8d 60 64 20 00 20       	b.lwz      r11,0x4000424(r0)
   814a6:	04 6c                   	b.mov      r3,r12
   814a8:	48 f5 a2                	b.jal      92b64 <iPDM_ReconstructValidImageBitmap>
   814ab:	30 eb 30                	b.addi     r7,r11,0xc
   814ae:	40 03 30                	b.beqi     r3,0x0,814ba <Device_vInit+0xbd6>
   814b1:	8c e0 64 20 00 20       	b.lwz      r7,0x4000424(r0)
   814b7:	30 e7 28                	b.addi     r7,r7,0x14
   814ba:	28 6a 88                	b.lhz      r3,0x10(r10)
   814bd:	24 8a 68                	b.lbz      r4,0x16(r10)
   814c0:	38 a0 70                	b.ori      r5,r0,0xe
   814c3:	30 c1 34                	b.addi     r6,r1,0x2c
   814c6:	31 01 26                	b.addi     r8,r1,0x64
   814c9:	2c e1 00                	b.sw       0x0(r1),r7
   814cc:	30 e1 0c                	b.addi     r7,r1,0x30
   814cf:	4b f1 f4                	b.jal      8d30e <vPDM_MoveAllDataWithBufferIdFromListToList>
   814d2:	8c e0 64 20 00 20       	b.lwz      r7,0x4000424(r0)
   814d8:	2d 47 62                	b.lwz      r10,0x44(r7)
   814db:	8d 60 64 20 00 20       	b.lwz      r11,0x4000424(r0)
   814e1:	41 0a 25                	b.bnei     r10,0x0,81485 <Device_vInit+0xba1>
   814e4:	2d 4b 64                	b.lwz      r10,0x24(r11)
   814e7:	31 cb 30                	b.addi     r14,r11,0xc
   814ea:	0c 64                   	b.j        81582 <Device_vInit+0xc9e>
   814ec:	28 6a 88                	b.lhz      r3,0x10(r10)
   814ef:	38 a0 ff                	b.ori      r5,r0,0xff
   814f2:	30 e1 34                	b.addi     r7,r1,0x2c
   814f5:	00 84                   	b.movi     r4,0x2
   814f7:	04 ce                   	b.mov      r6,r14
   814f9:	4a b3 08                	b.jal      8582e <iPDM_SearchForBufferIdInList>
   814fc:	3e 03 1c                	b.ff1      r3,r3
   814ff:	31 e3 ff                	b.addi     r15,r3,-0x1
   81502:	6d ef f9                	b.srli     r15,r15,0x1f
   81505:	3e 0f 38                	b.extbz    r7,r15
   81508:	28 6a 88                	b.lhz      r3,0x10(r10)
   8150b:	24 8a 68                	b.lbz      r4,0x16(r10)
   8150e:	2c e1 28                	b.sw       0x14(r1),r7
   81511:	31 8b 24                	b.addi     r12,r11,0x24
   81514:	30 e1 0c                	b.addi     r7,r1,0x30
   81517:	30 c1 24                	b.addi     r6,r1,0x24
   8151a:	00 a0                   	b.movi     r5,0x0
   8151c:	05 0c                   	b.mov      r8,r12
   8151e:	48 15 44                	b.jal      89fbe <iPDM_VerifyDataSequenceWithBufferId>
   81521:	3e 03 1c                	b.ff1      r3,r3
   81524:	60 e0 1d                	b.sub      r7,r0,r3
   81527:	6c e7 f9                	b.srli     r7,r7,0x1f
   8152a:	61 e7 79                	b.or       r15,r7,r15
   8152d:	05 ae                   	b.mov      r13,r14
   8152f:	3e 0f 78                	b.extbz    r15,r15
   81532:	41 0f b0                	b.bnei     r15,0x0,8153f <Device_vInit+0xc5b>
   81535:	24 c1 24                	b.lbz      r6,0x24(r1)
   81538:	24 e1 0c                	b.lbz      r7,0x30(r1)
   8153b:	d2 8c 7b 40             	b.beq      r6,r7,81568 <Device_vInit+0xc84>
   8153f:	2c a1 68                	b.lwz      r5,0x14(r1)
   81542:	31 ab 28                	b.addi     r13,r11,0x14
   81545:	40 05 c4                	b.beqi     r5,0x0,81568 <Device_vInit+0xc84>
   81548:	28 6a 88                	b.lhz      r3,0x10(r10)
   8154b:	24 8a 68                	b.lbz      r4,0x16(r10)
   8154e:	30 e1 14                	b.addi     r7,r1,0x28
   81551:	00 a0                   	b.movi     r5,0x0
   81553:	04 cc                   	b.mov      r6,r12
   81555:	4a 6d 08                	b.jal      8582e <iPDM_SearchForBufferIdInList>
   81558:	41 03 08                	b.bnei     r3,0x0,81568 <Device_vInit+0xc84>
   8155b:	2c 61 54                	b.lwz      r3,0x28(r1)
   8155e:	38 80 30                	b.ori      r4,r0,0xc
   81561:	04 ac                   	b.mov      r5,r12
   81563:	04 cd                   	b.mov      r6,r13
   81565:	4b 99 f4                	b.jal      8d3cc <vPDM_MoveFileRecordFromListToList>
   81568:	28 6a 88                	b.lhz      r3,0x10(r10)
   8156b:	24 8a 68                	b.lbz      r4,0x16(r10)
   8156e:	38 a0 70                	b.ori      r5,r0,0xe
   81571:	30 c1 24                	b.addi     r6,r1,0x24
   81574:	30 e1 0c                	b.addi     r7,r1,0x30
   81577:	05 0c                   	b.mov      r8,r12
   81579:	2d a1 00                	b.sw       0x0(r1),r13
   8157c:	49 26 f4                	b.jal      8d30e <vPDM_MoveAllDataWithBufferIdFromListToList>
   8157f:	2d 4b 64                	b.lwz      r10,0x24(r11)
   81582:	d0 40 a5 6f             	b.bnei     r10,0x0,814ec <Device_vInit+0xc08>
   81586:	49 97 c2                	b.jal      9252c <vPDM_DeleteUsedSegmentsOnDeallocList>
   81589:	49 6c e8                	b.jal      87263 <u8PDM_CalculateFileSystemCapacity>
   8158c:	20 6b 10                	b.sb       0x8(r11),r3
   8158f:	8d 40 64 20 00 20       	b.lwz      r10,0x4000424(r0)
   81595:	00 e8                   	b.movi     r7,0x1
   81597:	2c c1 70                	b.lwz      r6,0xc(r1)
   8159a:	2c ea 32                	b.sw       0x4c(r10),r7
   8159d:	98 e0 05 61 80 00       	b.ori      r7,r0,0x186a0
   815a3:	2c ea 06                	b.sw       0x60(r10),r7
   815a6:	20 ca 2a                	b.sb       0x54(r10),r6
   815a9:	28 0a 1a                	b.sh       0x58(r10),r0
   815ac:	2c 0a 0a                	b.sw       0x50(r10),r0
   815af:	2c 0a 3a                	b.sw       0x5c(r10),r0
   815b2:	4a 34 e8                	b.jal      87263 <u8PDM_CalculateFileSystemCapacity>
   815b5:	24 ea 80                	b.lbz      r7,0x1(r10)
   815b8:	60 67 1d                	b.sub      r3,r7,r3
   815bb:	3e 03 38                	b.extbz    r7,r3
   815be:	28 ea 6a                	b.sh       0x56(r10),r7
   815c1:	98 60 28 90 00 20       	b.ori      r3,r0,0x4000914
   815c7:	98 80 ff ff 00 00       	b.ori      r4,r0,0xffff
   815cd:	98 a0 34 90 00 20       	b.ori      r5,r0,0x400092c
   815d3:	38 c0 10                	b.ori      r6,r0,0x8
   815d6:	4b a6 48                	b.jal      85f6d <PDM_eLoadRecord.constprop.126>
   815d9:	84 e0 28 90 00 20       	b.lbz      r7,0x4000914(r0)
   815df:	41 47 de                	b.bnei     r7,0x2,8165a <Device_vInit+0xd76>
   815e2:	8c e0 74 90 00 20       	b.lwz      r7,0x400092c(r0)
   815e8:	9d 87 2e 00 80 10       	b.sfeqi    r7,0x8010074
   815ee:	47 29 10                	b.bf       81677 <Device_vInit+0xd93>
   815f1:	8c e0 64 20 00 20       	b.lwz      r7,0x4000424(r0)
   815f7:	2c 67 72                	b.lwz      r3,0x4c(r7)
   815fa:	40 03 60                	b.beqi     r3,0x0,81600 <Device_vInit+0xd1c>
   815fd:	48 c4 fc                	b.jal      91289 <OS_eEnterCriticalSection>
   81600:	8c e0 64 20 00 20       	b.lwz      r7,0x4000424(r0)
   81606:	2d 47 4a                	b.lwz      r10,0x50(r7)
   81609:	0e 20                   	b.j        8161a <Device_vInit+0xd36>
   8160b:	2d 6a 48                	b.lwz      r11,0x10(r10)
   8160e:	38 a0 18                	b.ori      r5,r0,0x18
   81611:	04 6a                   	b.mov      r3,r10
   81613:	00 80                   	b.movi     r4,0x0
   81615:	05 4b                   	b.mov      r10,r11
   81617:	48 6e 8a                	b.jal      95bef <memset>
   8161a:	40 0a d0                	b.beqi     r10,0x0,81625 <Device_vInit+0xd41>
   8161d:	04 6a                   	b.mov      r3,r10
   8161f:	4b 42 74                	b.jal      8cf2a <bPDM_IsDescriptorValid>
   81622:	40 83 97                	b.beqi     r3,0x1,8160b <Device_vInit+0xd27>
   81625:	8d 40 64 20 00 20       	b.lwz      r10,0x4000424(r0)
   8162b:	2c 0a 0a                	b.sw       0x50(r10),r0
   8162e:	28 0a 6a                	b.sh       0x56(r10),r0
   81631:	28 0a 1a                	b.sh       0x58(r10),r0
   81634:	48 7d c2                	b.jal      9252c <vPDM_DeleteUsedSegmentsOnDeallocList>
   81637:	38 60 30                	b.ori      r3,r0,0xc
   8163a:	30 81 0c                	b.addi     r4,r1,0x30
   8163d:	30 aa 30                	b.addi     r5,r10,0xc
   81640:	30 ca 28                	b.addi     r6,r10,0x14
   81643:	4a 24 f4                	b.jal      8d2d4 <vPDM_MoveAllDataFromListToList>
   81646:	24 ea 80                	b.lbz      r7,0x1(r10)
   81649:	2c 6a 72                	b.lwz      r3,0x4c(r10)
   8164c:	20 ea 10                	b.sb       0x8(r10),r7
   8164f:	40 03 60                	b.beqi     r3,0x0,81655 <Device_vInit+0xd71>
   81652:	4b 10 fc                	b.jal      91275 <OS_eExitCriticalSection>
   81655:	4a 6d 18                	b.jal      8792e <vAHI_SwReset>
   81658:	0f e0                   	b.j        81677 <Device_vInit+0xd93>
   8165a:	98 e0 2e 00 80 10       	b.ori      r7,r0,0x8010074
   81660:	98 60 28 90 00 20       	b.ori      r3,r0,0x4000914
   81666:	8c e0 34 90 00 20       	b.sw       0x400092c(r0),r7
   8166c:	00 ef                   	b.movi     r7,-0x1
   8166e:	8c e0 0c 90 00 20       	b.sw       0x4000930(r0),r7
   81674:	4b 0d b8                	b.jal      88d37 <PDM_vSaveRecord>
   81677:	98 60 15 a0 00 20       	b.ori      r3,r0,0x40005a8
   8167d:	98 80 00 ff 00 00       	b.ori      r4,r0,0xff00
   81683:	98 a0 03 a0 00 20       	b.ori      r5,r0,0x40005c0
   81689:	38 c0 08                	b.ori      r6,r0,0x10
   8168c:	8c 60 0d 60 00 20       	b.sw       0x40006b0(r0),r3
   81692:	4b 6c 48                	b.jal      85f6d <PDM_eLoadRecord.constprop.126>
   81695:	98 60 3e 20 00 20       	b.ori      r3,r0,0x400047c
   8169b:	d8 c0 00 80             	b.addi     r6,r0,0x100
   8169f:	98 80 40 ff 00 00       	b.ori      r4,r0,0xff02
   816a5:	98 a0 29 20 00 20       	b.ori      r5,r0,0x4000494
   816ab:	8c 60 2d 60 00 20       	b.sw       0x40006b4(r0),r3
   816b1:	48 f4 48                	b.jal      85f6d <PDM_eLoadRecord.constprop.126>
   816b4:	8c c0 6d 60 00 20       	b.lwz      r6,0x40006b4(r0)
   816ba:	24 e6 00                	b.lbz      r7,0x0(r6)
   816bd:	c0 e6 98 80             	b.sb       0x119(r6),r7
   816c1:	40 47 54                	b.beqi     r7,0x2,816eb <Device_vInit+0xe07>
   816c4:	d8 61 31 00             	b.addi     r3,r1,0x8c
   816c8:	38 a0 08                	b.ori      r5,r0,0x10
   816cb:	00 80                   	b.movi     r4,0x0
   816cd:	49 12 8a                	b.jal      95bef <memset>
   816d0:	00 ef                   	b.movi     r7,-0x1
   816d2:	20 e1 31                	b.sb       0x8c(r1),r7
   816d5:	38 e0 a8                	b.ori      r7,r0,0x15
   816d8:	d8 81 31 00             	b.addi     r4,r1,0x8c
   816dc:	00 60                   	b.movi     r3,0x0
   816de:	20 e1 b1                	b.sb       0x8d(r1),r7
   816e1:	d8 e0 f0 0f             	b.addi     r7,r0,-0xff1
   816e5:	28 e1 59                	b.sh       0x9a(r1),r7
   816e8:	4a f4 78                	b.jal      88fa5 <bJIP_GroupCallback>
   816eb:	38 e0 08                	b.ori      r7,r0,0x10
   816ee:	80 e0 44 c0 00 20       	b.sb       0x4000322(r0),r7
   816f4:	98 e0 36 20 00 20       	b.ori      r7,r0,0x400046c
   816fa:	8c e0 08 e0 00 20       	b.sw       0x4000710(r0),r7
   81700:	98 e0 04 80 00 20       	b.ori      r7,r0,0x4000120
   81706:	8c e0 36 20 00 20       	b.sw       0x400046c(r0),r7
   8170c:	98 e0 2c 90 00 20       	b.ori      r7,r0,0x4000934
   81712:	8c e0 09 10 00 20       	b.sw       0x4000890(r0),r7
   81718:	38 e0 0c                	b.ori      r7,r0,0x30
   8171b:	80 e0 22 90 00 20       	b.sb       0x4000944(r0),r7
   81721:	d8 e0 00 01             	b.addi     r7,r0,-0x8000
   81725:	88 e0 1a 90 00 20       	b.sh       0x4000958(r0),r7
   8172b:	38 e0 98                	b.ori      r7,r0,0x19
   8172e:	80 e0 3a 90 00 20       	b.sb       0x400095c(r0),r7
   81734:	00 e2                   	b.movi     r7,0x4
   81736:	80 e0 ba 90 00 20       	b.sb       0x400095d(r0),r7
   8173c:	8c e0 53 00 00 40       	b.lwz      r7,0x20000c8(r0)
   81742:	8c 00 2c 90 00 20       	b.sw       0x4000934(r0),r0
   81748:	94 e7 ff ff f3 ff       	b.andi     r7,r7,0xffcfffff
   8174e:	8c e0 13 00 00 40       	b.sw       0x20000c8(r0),r7
   81754:	00 ef                   	b.movi     r7,-0x1
   81756:	88 00 5a 90 00 20       	b.sh       0x400095a(r0),r0
   8175c:	80 e0 7a 90 00 20       	b.sb       0x400095e(r0),r7
   81762:	48 6c e4                	b.jal      8b43a <MibAdcStatus_vStart>
   81765:	98 e0 14 20 00 20       	b.ori      r7,r0,0x4000428
   8176b:	98 80 11 7f 00 00       	b.ori      r4,r0,0xfe88
   81771:	98 a0 22 20 00 20       	b.ori      r5,r0,0x4000444
   81777:	38 c0 08                	b.ori      r6,r0,0x10
   8177a:	98 60 34 20 00 20       	b.ori      r3,r0,0x400042c
   81780:	8c e0 31 10 00 20       	b.sw       0x400088c(r0),r7
   81786:	98 e0 0a 80 00 20       	b.ori      r7,r0,0x4000150
   8178c:	8c e0 14 20 00 20       	b.sw       0x4000428(r0),r7
   81792:	00 e8                   	b.movi     r7,0x1
   81794:	80 e0 5a 20 00 20       	b.sb       0x400045a(r0),r7
   8179a:	4b 2f 88                	b.jal      85f6d <PDM_eLoadRecord.constprop.126>
   8179d:	8c e0 71 10 00 20       	b.lwz      r7,0x400088c(r0)
   817a3:	98 80 d1 7f 00 00       	b.ori      r4,r0,0xfe8b
   817a9:	98 60 0d e0 00 20       	b.ori      r3,r0,0x40007b0
   817af:	50 a7 04                	b.mlwz     r5,0x20(r7),0x0
   817b2:	08 c5                   	b.add      r6,r6,r5
   817b4:	98 a0 13 e0 00 20       	b.ori      r5,r0,0x40007c8
   817ba:	2c c7 34                	b.sw       0x2c(r7),r6
   817bd:	2c c7 1c                	b.sw       0x38(r7),r6
   817c0:	2c c7 54                	b.lwz      r6,0x28(r7)
   817c3:	2c c7 2c                	b.sw       0x34(r7),r6
   817c6:	d8 c6 00 08             	b.addi     r6,r6,0x1000
   817ca:	2c c7 14                	b.sw       0x28(r7),r6
   817cd:	38 c0 2e                	b.ori      r6,r0,0x74
   817d0:	4a e7 88                	b.jal      85f6d <PDM_eLoadRecord.constprop.126>
   817d3:	00 68                   	b.movi     r3,0x1
   817d5:	49 b0 e4                	b.jal      8b40b <Node_vDebugOutdent.part.3.1799>
   817d8:	00 68                   	b.movi     r3,0x1
   817da:	4a 30 e4                	b.jal      8b40b <Node_vDebugOutdent.part.3.1799>
   817dd:	98 60 09 80 10 00       	b.ori      r3,r0,0x80190
   817e3:	4b 88 42                	b.jal      9202a <dbg_vPrintfImplNoneVerbose>
   817e6:	00 60                   	b.movi     r3,0x0
   817e8:	00 82                   	b.movi     r4,0x4
   817ea:	4a 5a 18                	b.jal      87953 <vAHI_DioSetDirection>
   817ed:	00 62                   	b.movi     r3,0x4
   817ef:	00 80                   	b.movi     r4,0x0
   817f1:	49 ca 18                	b.jal      8793f <vAHI_DioSetOutput>
   817f4:	cc 90 50 05             	b.lwz      r4,-0x5ff8(r16)
   817f8:	98 60 d9 80 10 00       	b.ori      r3,r0,0x8019b
   817fe:	48 d0 42                	b.jal      9202a <dbg_vPrintfImplNoneVerbose>
   81801:	2c e1 48                	b.lwz      r7,0x10(r1)
   81804:	40 07 10                	b.beqi     r7,0x0,8180c <Device_vInit+0xf28>
   81807:	00 68                   	b.movi     r3,0x1
   81809:	49 cc a2                	b.jal      92cd7 <Device_vReset>
   8180c:	98 80 0d 10 00 20       	b.ori      r4,r0,0x40008b0
   81812:	98 60 35 80 10 00       	b.ori      r3,r0,0x801ac
   81818:	49 20 42                	b.jal      9202a <dbg_vPrintfImplNoneVerbose>
   8181b:	00 68                   	b.movi     r3,0x1
   8181d:	4b e7 64                	b.jal      8b3bc <Node_vDebugIndent.part.2.1796>
   81820:	98 60 83 80 10 00       	b.ori      r3,r0,0x801c1
   81826:	98 80 0d 10 00 20       	b.ori      r4,r0,0x40008b0
   8182c:	49 ff 82                	b.jal      9202a <dbg_vPrintfImplNoneVerbose>
   8182f:	00 68                   	b.movi     r3,0x1
   81831:	4b 47 64                	b.jal      8b3bc <Node_vDebugIndent.part.2.1796>
   81834:	98 e0 40 00 17 01       	b.ori      r7,r0,0x80e80002
   8183a:	98 c0 cb d0 20 bf       	b.ori      r6,r0,0xfd040bd3
   81840:	8c e0 32 10 00 20       	b.sw       0x400084c(r0),r7
   81846:	98 e0 00 1f ff e0       	b.ori      r7,r0,0x7fff800
   8184c:	8c e0 0a 10 00 20       	b.sw       0x4000850(r0),r7
   81852:	00 ef                   	b.movi     r7,-0x1
   81854:	88 e0 2a 10 00 20       	b.sh       0x4000854(r0),r7
   8185a:	00 e2                   	b.movi     r7,0x4
   8185c:	88 e0 1a 10 00 20       	b.sh       0x4000858(r0),r7
   81862:	00 e8                   	b.movi     r7,0x1
   81864:	80 e0 da 10 00 20       	b.sb       0x400085b(r0),r7
   8186a:	38 e0 08                	b.ori      r7,r0,0x10
   8186d:	8c e0 3a 10 00 20       	b.sw       0x400085c(r0),r7
   81873:	80 e0 26 10 00 20       	b.sb       0x4000864(r0),r7
   81879:	80 e0 a6 10 00 20       	b.sb       0x4000865(r0),r7
   8187f:	80 e0 66 10 00 20       	b.sb       0x4000866(r0),r7
   81885:	80 e0 e6 10 00 20       	b.sb       0x4000867(r0),r7
   8188b:	d8 e0 8a e0             	b.addi     r7,r0,0x751
   8188f:	8c c0 12 10 00 20       	b.sw       0x4000848(r0),r6
   81895:	98 c0 2e 00 80 10       	b.ori      r6,r0,0x8010074
   8189b:	88 e0 16 10 00 20       	b.sh       0x4000868(r0),r7
   818a1:	98 e0 2b 80 10 00       	b.ori      r7,r0,0x801d4
   818a7:	8c c0 06 10 00 20       	b.sw       0x4000860(r0),r6
   818ad:	8c e0 36 10 00 20       	b.sw       0x400086c(r0),r7
   818b3:	d8 e0 ca e0             	b.addi     r7,r0,0x753
   818b7:	84 c0 13 e0 00 20       	b.lbz      r6,0x40007c8(r0)
   818bd:	88 e0 0e 10 00 20       	b.sh       0x4000870(r0),r7
   818c3:	00 e4                   	b.movi     r7,0x2
   818c5:	88 00 6a 10 00 20       	b.sh       0x4000856(r0),r0
   818cb:	80 e0 5a 10 00 20       	b.sb       0x400085a(r0),r7
   818d1:	30 e6 af                	b.addi     r7,r6,-0xb
   818d4:	3c a7 f0                	b.sfgtui   r7,0xf
   818d7:	47 29 40                	b.bf       81900 <Device_vInit+0x101c>
   818da:	88 e0 d3 e0 00 20       	b.lhz      r7,0x40007ca(r0)
   818e0:	30 a7 ff                	b.addi     r5,r7,-0x1
   818e3:	3e 05 2a                	b.exthz    r5,r5
   818e6:	9e c5 bf ff 00 00       	b.sfgtui   r5,0xfffd
   818ec:	47 22 80                	b.bf       81900 <Device_vInit+0x101c>
   818ef:	00 a8                   	b.movi     r5,0x1
   818f1:	60 c5 36                	b.sll      r6,r5,r6
   818f4:	8c c0 0a 10 00 20       	b.sw       0x4000850(r0),r6
   818fa:	88 e0 2a 10 00 20       	b.sh       0x4000854(r0),r7
   81900:	38 e0 50                	b.ori      r7,r0,0xa
   81903:	80 e0 c4 c0 00 20       	b.sb       0x4000323(r0),r7
   81909:	38 e0 10                	b.ori      r7,r0,0x8
   8190c:	80 e0 38 80 00 20       	b.sb       0x400011c(r0),r7
   81912:	cc f0 79 01             	b.lwz      r7,-0x7f64(r16)
   81916:	94 e7 00 40 00 00       	b.andi     r7,r7,0x200
   8191c:	40 07 6f                	b.beqi     r7,0x0,81912 <Device_vInit+0x102e>
   8191f:	46 ea 70                	b.j        82776 <Device_vInit+0x1e92>
   81922:	2c e1 5f                	b.lwz      r7,0xf8(r1)
   81925:	3c a7 f8                	b.sfgtui   r7,0x1f
   81928:	47 2d 00                	b.bf       81933 <Device_vInit+0x104f>
   8192b:	00 c8                   	b.movi     r6,0x1
   8192d:	60 e6 3e                	b.sll      r7,r6,r7
   81930:	2c e1 1f                	b.sw       0xf8(r1),r7
   81933:	2c e1 5f                	b.lwz      r7,0xf8(r1)
   81936:	94 e7 00 1f ff e0       	b.andi     r7,r7,0x7fff800
   8193c:	2c e1 1f                	b.sw       0xf8(r1),r7
   8193f:	41 07 b0                	b.bnei     r7,0x0,8194c <Device_vInit+0x1068>
   81942:	d8 e0 80 04             	b.addi     r7,r0,0x2001
   81946:	2c e3 32                	b.sw       0x4c(r3),r7
   81949:	46 2b 70                	b.j        8281d <Device_vInit+0x1f39>
   8194c:	98 e0 56 c2 90 00       	b.ori      r7,r0,0x9436a
   81952:	00 a0                   	b.movi     r5,0x0
   81954:	2c e3 00                	b.sw       0x0(r3),r7
   81957:	98 e0 83 22 90 00       	b.ori      r7,r0,0x944c1
   8195d:	2c e3 20                	b.sw       0x4(r3),r7
   81960:	98 e0 ca 45 10 00       	b.ori      r7,r0,0x8a253
   81966:	2c e3 10                	b.sw       0x8(r3),r7
   81969:	98 e0 99 1c 10 00       	b.ori      r7,r0,0x83899
   8196f:	2c e3 30                	b.sw       0xc(r3),r7
   81972:	98 e0 e4 2e 10 00       	b.ori      r7,r0,0x87427
   81978:	2c e3 08                	b.sw       0x10(r3),r7
   8197b:	98 e0 c3 ce 10 00       	b.ori      r7,r0,0x873c3
   81981:	2c e3 28                	b.sw       0x14(r3),r7
   81984:	98 e0 2f ae 10 00       	b.ori      r7,r0,0x875f4
   8198a:	2c e3 18                	b.sw       0x18(r3),r7
   8198d:	98 e0 a0 ee 10 00       	b.ori      r7,r0,0x87705
   81993:	2c e3 38                	b.sw       0x1c(r3),r7
   81996:	98 e0 bc 0a 10 00       	b.ori      r7,r0,0x8503d
   8199c:	2c e3 14                	b.sw       0x28(r3),r7
   8199f:	98 e0 b3 b8 90 00       	b.ori      r7,r0,0x91dcd
   819a5:	2c e3 34                	b.sw       0x2c(r3),r7
   819a8:	98 e0 e1 2e 10 00       	b.ori      r7,r0,0x87487
   819ae:	2c e3 0c                	b.sw       0x30(r3),r7
   819b1:	98 e0 1d 5a 90 00       	b.ori      r7,r0,0x95ab8
   819b7:	2c e3 24                	b.sw       0x24(r3),r7
   819ba:	98 e0 b1 f3 10 00       	b.ori      r7,r0,0x8cf8d
   819c0:	2c e3 2c                	b.sw       0x34(r3),r7
   819c3:	98 e0 b9 ec 10 00       	b.ori      r7,r0,0x8379d
   819c9:	2c e3 1c                	b.sw       0x38(r3),r7
   819cc:	98 e0 32 ec 90 00       	b.ori      r7,r0,0x9374c
   819d2:	2c e3 3c                	b.sw       0x3c(r3),r7
   819d5:	98 e0 15 95 10 00       	b.ori      r7,r0,0x8a9a8
   819db:	2c e3 02                	b.sw       0x40(r3),r7
   819de:	98 e0 34 ec 10 00       	b.ori      r7,r0,0x8372c
   819e4:	2c e3 22                	b.sw       0x44(r3),r7
   819e7:	00 e4                   	b.movi     r7,0x2
   819e9:	20 e3 92                	b.sb       0x49(r3),r7
   819ec:	c4 e1 40 80             	b.lbz      r7,0x102(r1)
   819f0:	84 80 84 c0 00 20       	b.lbz      r4,0x4000321(r0)
   819f6:	00 f8                   	b.addi     r7,r7,0x1
   819f8:	6c 84 c0                	b.slli     r4,r4,0x3
   819fb:	c0 e1 40 80             	b.sb       0x102(r1),r7
   819ff:	c4 e1 c0 80             	b.lbz      r7,0x103(r1)
   81a03:	20 e3 12                	b.sb       0x48(r3),r7
   81a06:	8c 60 75 50 00 20       	b.lwz      r3,0x4000aac(r0)
   81a0c:	48 82 b0                	b.jal      84f10 <pvHeap_Alloc>
   81a0f:	84 80 04 c0 00 20       	b.lbz      r4,0x4000320(r0)
   81a15:	38 e0 31                	b.ori      r7,r0,0x8c
   81a18:	00 a0                   	b.movi     r5,0x0
   81a1a:	64 84 3b                	b.mul      r4,r4,r7
   81a1d:	8c 60 35 50 00 20       	b.sw       0x4000aac(r0),r3
   81a23:	8c 60 65 50 00 20       	b.lwz      r3,0x4000aa4(r0)
   81a29:	4b 9c b0                	b.jal      84f10 <pvHeap_Alloc>
   81a2c:	84 80 c4 c0 00 20       	b.lbz      r4,0x4000323(r0)
   81a32:	80 00 0d 50 00 20       	b.sb       0x4000ab0(r0),r0
   81a38:	38 e0 1d                	b.ori      r7,r0,0xb8
   81a3b:	00 a0                   	b.movi     r5,0x0
   81a3d:	80 00 8d 50 00 20       	b.sb       0x4000ab1(r0),r0
   81a43:	64 84 3b                	b.mul      r4,r4,r7
   81a46:	8c 60 25 50 00 20       	b.sw       0x4000aa4(r0),r3
   81a4c:	8c 60 4f 90 00 20       	b.lwz      r3,0x40009f0(r0)
   81a52:	80 00 15 50 00 20       	b.sb       0x4000aa8(r0),r0
   81a58:	80 00 95 50 00 20       	b.sb       0x4000aa9(r0),r0
   81a5e:	8c 00 2c 60 00 20       	b.sw       0x4000634(r0),r0
   81a64:	8c 00 0c 60 00 20       	b.sw       0x4000630(r0),r0
   81a6a:	49 94 b0                	b.jal      84f10 <pvHeap_Alloc>
   81a6d:	84 a0 c4 c0 00 20       	b.lbz      r5,0x4000323(r0)
   81a73:	8c 60 0f 90 00 20       	b.sw       0x40009f0(r0),r3
   81a79:	30 85 ff                	b.addi     r4,r5,-0x1
   81a7c:	d8 e3 1d 00             	b.addi     r7,r3,0xb8
   81a80:	00 c0                   	b.movi     r6,0x0
   81a82:	0c c0                   	b.j        81a8e <Device_vInit+0x11aa>
   81a84:	cc e7 12 ff             	b.sw       -0xb8(r7),r7
   81a88:	00 d8                   	b.addi     r6,r6,0x1
   81a8a:	d8 e7 1d 00             	b.addi     r7,r7,0xb8
   81a8e:	d3 48 66 ff             	b.bgts     r4,r6,81a84 <Device_vInit+0x11a0>
   81a92:	38 e0 1d                	b.ori      r7,r0,0xb8
   81a95:	00 bf                   	b.addi     r5,r5,-0x1
   81a97:	64 a5 3b                	b.mul      r5,r5,r7
   81a9a:	98 e0 2f 90 00 20       	b.ori      r7,r0,0x40009f4
   81aa0:	08 a3                   	b.add      r5,r5,r3
   81aa2:	2c 05 00                	b.sw       0x0(r5),r0
   81aa5:	8c 60 0e 60 00 20       	b.sw       0x4000670(r0),r3
   81aab:	00 6e                   	b.movi     r3,0x7
   81aad:	8c e0 36 60 00 20       	b.sw       0x400066c(r0),r7
   81ab3:	4b 02 9c                	b.jal      8ffb6 <vMiniMac_Init>
   81ab6:	8d 40 59 70 00 20       	b.lwz      r10,0x4000e98(r0)
   81abc:	38 e0 3c                	b.ori      r7,r0,0x3c
   81abf:	38 80 2a                	b.ori      r4,r0,0x54
   81ac2:	00 a0                   	b.movi     r5,0x0
   81ac4:	20 ea f9                	b.sb       0x9f(r10),r7
   81ac7:	00 ef                   	b.movi     r7,-0x1
   81ac9:	2c 0a 32                	b.sw       0x4c(r10),r0
   81acc:	20 ea 79                	b.sb       0x9e(r10),r7
   81acf:	2c 0a 15                	b.sw       0xa8(r10),r0
   81ad2:	c5 81 40 80             	b.lbz      r12,0x102(r1)
   81ad6:	2c 6a 4a                	b.lwz      r3,0x50(r10)
   81ad9:	64 8c 23                	b.mul      r4,r12,r4
   81adc:	48 b0 b0                	b.jal      84f10 <pvHeap_Alloc>
   81adf:	84 e0 44 c0 00 20       	b.lbz      r7,0x4000322(r0)
   81ae5:	2c 6a 0a                	b.sw       0x50(r10),r3
   81ae8:	3c e7 04                	b.sfleui   r7,0x20
   81aeb:	47 23 00                	b.bf       81af7 <Device_vInit+0x1213>
   81aee:	38 e0 04                	b.ori      r7,r0,0x20
   81af1:	80 e0 44 c0 00 20       	b.sb       0x4000322(r0),r7
   81af7:	84 80 44 c0 00 20       	b.lbz      r4,0x4000322(r0)
   81afd:	8c 60 6d 50 00 20       	b.lwz      r3,0x4000ab4(r0)
   81b03:	6c 84 20                	b.slli     r4,r4,0x4
   81b06:	00 a0                   	b.movi     r5,0x0
   81b08:	48 40 b0                	b.jal      84f10 <pvHeap_Alloc>
   81b0b:	8c e0 59 70 00 20       	b.lwz      r7,0x4000e98(r0)
   81b11:	8c 60 2d 50 00 20       	b.sw       0x4000ab4(r0),r3
   81b17:	01 40                   	b.movi     r10,0x0
   81b19:	8c 00 12 60 00 20       	b.sw       0x4000648(r0),r0
   81b1f:	39 a0 2a                	b.ori      r13,r0,0x54
   81b22:	01 cf                   	b.movi     r14,-0x1
   81b24:	8c 00 22 60 00 20       	b.sw       0x4000644(r0),r0
   81b2a:	8c 00 02 60 00 20       	b.sw       0x4000640(r0),r0
   81b30:	8c 00 3c 60 00 20       	b.sw       0x400063c(r0),r0
   81b36:	8c 00 1c 60 00 20       	b.sw       0x4000638(r0),r0
   81b3c:	2c 07 2a                	b.sw       0x54(r7),r0
   81b3f:	2c 07 1a                	b.sw       0x58(r7),r0
   81b42:	2c 07 3a                	b.sw       0x5c(r7),r0
   81b45:	2c 07 06                	b.sw       0x60(r7),r0
   81b48:	21 87 26                	b.sb       0x64(r7),r12
   81b4b:	0c c8                   	b.j        81b97 <Device_vInit+0x12b3>
   81b4d:	8c 60 59 70 00 20       	b.lwz      r3,0x4000e98(r0)
   81b53:	65 6a 6b                	b.mul      r11,r10,r13
   81b56:	2c 83 4a                	b.lwz      r4,0x50(r3)
   81b59:	30 63 3a                	b.addi     r3,r3,0x5c
   81b5c:	08 8b                   	b.add      r4,r4,r11
   81b5e:	49 77 ac                	b.jal      8f318 <vDLISTaddToTail>
   81b61:	8c c0 59 70 00 20       	b.lwz      r6,0x4000e98(r0)
   81b67:	00 a8                   	b.movi     r5,0x1
   81b69:	2c e6 4a                	b.lwz      r7,0x50(r6)
   81b6c:	08 eb                   	b.add      r7,r7,r11
   81b6e:	20 07 1c                	b.sb       0x38(r7),r0
   81b71:	2d 47 10                	b.sw       0x8(r7),r10
   81b74:	01 58                   	b.addi     r10,r10,0x1
   81b76:	2c 07 30                	b.sw       0xc(r7),r0
   81b79:	2c 07 08                	b.sw       0x10(r7),r0
   81b7c:	2c 07 28                	b.sw       0x14(r7),r0
   81b7f:	2c e6 4a                	b.lwz      r7,0x50(r6)
   81b82:	08 eb                   	b.add      r7,r7,r11
   81b84:	21 c7 5c                	b.sb       0x3a(r7),r14
   81b87:	2c e6 4a                	b.lwz      r7,0x50(r6)
   81b8a:	08 eb                   	b.add      r7,r7,r11
   81b8c:	20 a7 9c                	b.sb       0x39(r7),r5
   81b8f:	2c e6 4a                	b.lwz      r7,0x50(r6)
   81b92:	09 67                   	b.add      r11,r11,r7
   81b94:	2c 0b 0a                	b.sw       0x50(r11),r0
   81b97:	3e 0a 38                	b.extbz    r7,r10
   81b9a:	d3 d8 7c df             	b.bgtu     r12,r7,81b4d <Device_vInit+0x1269>
   81b9e:	01 40                   	b.movi     r10,0x0
   81ba0:	0d 60                   	b.j        81bba <Device_vInit+0x12d6>
   81ba2:	8c 60 6d 50 00 20       	b.lwz      r3,0x4000ab4(r0)
   81ba8:	6c ea 20                	b.slli     r7,r10,0x4
   81bab:	08 67                   	b.add      r3,r3,r7
   81bad:	38 a0 08                	b.ori      r5,r0,0x10
   81bb0:	01 58                   	b.addi     r10,r10,0x1
   81bb2:	00 80                   	b.movi     r4,0x0
   81bb4:	3e 0a 50                	b.extbz    r10,r10
   81bb7:	48 70 0a                	b.jal      95bef <memset>
   81bba:	84 e0 44 c0 00 20       	b.lbz      r7,0x4000322(r0)
   81bc0:	d3 ce a4 7f             	b.bgtu     r7,r10,81ba2 <Device_vInit+0x12be>
   81bc4:	8c e0 50 e0 00 20       	b.lwz      r7,0x4000708(r0)
   81bca:	8c 60 59 70 00 20       	b.lwz      r3,0x4000e98(r0)
   81bd0:	2c e1 0e                	b.sw       0x70(r1),r7
   81bd3:	d8 63 31 00             	b.addi     r3,r3,0x8c
   81bd7:	30 81 36                	b.addi     r4,r1,0x6c
   81bda:	8c e0 60 e0 00 20       	b.lwz      r7,0x4000704(r0)
   81be0:	2c e1 36                	b.sw       0x6c(r1),r7
   81be3:	48 19 10                	b.jal      83e43 <i6LP_DefCreateInterfaceIdFrom64>
   81be6:	8c e0 59 70 00 20       	b.lwz      r7,0x4000e98(r0)
   81bec:	d8 a0 00 a0             	b.addi     r5,r0,0x500
   81bf0:	2c c7 71                	b.lwz      r6,0x8c(r7)
   81bf3:	28 07 19                	b.sh       0x98(r7),r0
   81bf6:	2c c7 21                	b.sw       0x84(r7),r6
   81bf9:	2c c7 49                	b.lwz      r6,0x90(r7)
   81bfc:	20 07 05                	b.sb       0xa0(r7),r0
   81bff:	2c c7 11                	b.sw       0x88(r7),r6
   81c02:	38 c0 02                	b.ori      r6,r0,0x40
   81c05:	20 c7 69                	b.sb       0x96(r7),r6
   81c08:	24 c7 12                	b.lbz      r6,0x48(r7)
   81c0b:	28 07 25                	b.sh       0xa4(r7),r0
   81c0e:	3c 06 80                	b.sfeqi    r6,0x1
   81c11:	64 c6 02                	b.cmov     r6,r6,r0
   81c14:	20 c7 33                	b.sb       0xcc(r7),r6
   81c17:	38 c0 0a                	b.ori      r6,r0,0x50
   81c1a:	20 c7 65                	b.sb       0xa6(r7),r6
   81c1d:	28 c1 ff                	b.lhz      r6,0xfe(r1)
   81c20:	2c 07 23                	b.sw       0xc4(r7),r0
   81c23:	3c 26 00                	b.sfnei    r6,0x0
   81c26:	64 c6 2a                	b.cmov     r6,r6,r5
   81c29:	d8 a6 00 ff             	b.addi     r5,r6,-0x100
   81c2d:	9e c5 00 20 00 00       	b.sfgtui   r5,0x400
   81c33:	2c 07 13                	b.sw       0xc8(r7),r0
   81c36:	d6 15 d0 00             	b.bf       827de <Device_vInit+0x1efa>
   81c3a:	28 c7 39                	b.sh       0x9c(r7),r6
   81c3d:	c8 61 80 80             	b.lhz      r3,0x100(r1)
   81c41:	2c e7 64                	b.lwz      r7,0x24(r7)
   81c44:	47 d1 38                	b.jalr     r7
   81c47:	42 03 88                	b.bgesi    r3,0x0,81c58 <Device_vInit+0x1374>
   81c4a:	98 c0 80 81 00 00       	b.ori      r6,r0,0x8101
   81c50:	8c e0 59 70 00 20       	b.lwz      r7,0x4000e98(r0)
   81c56:	0d 72                   	b.j        81d90 <Device_vInit+0x14ac>
   81c58:	8c e0 59 70 00 20       	b.lwz      r7,0x4000e98(r0)
   81c5e:	28 c1 bf                	b.lhz      r6,0xfc(r1)
   81c61:	2c a1 4f                	b.lwz      r5,0xf0(r1)
   81c64:	28 c7 19                	b.sh       0x98(r7),r6
   81c67:	98 60 f2 60 00 20       	b.ori      r3,r0,0x400064f
   81c6d:	30 81 0c                	b.addi     r4,r1,0x30
   81c70:	2c c1 6f                	b.lwz      r6,0xf4(r1)
   81c73:	2c a7 01                	b.sw       0x80(r7),r5
   81c76:	2c c7 3e                	b.sw       0x7c(r7),r6
   81c79:	2c a1 0c                	b.sw       0x30(r1),r5
   81c7c:	38 a0 10                	b.ori      r5,r0,0x8
   81c7f:	2c c1 2c                	b.sw       0x34(r1),r6
   81c82:	d4 5b c7 ef             	b.jal      5c <memcpy>
   81c86:	84 e0 72 60 00 20       	b.lbz      r7,0x400064e(r0)
   81c8c:	d1 f8 7b 00             	b.bgtui    r7,0x7,81c99 <Device_vInit+0x13b5>
   81c90:	38 e0 10                	b.ori      r7,r0,0x8
   81c93:	80 e0 72 60 00 20       	b.sb       0x400064e(r0),r7
   81c99:	8c e0 58 80 00 20       	b.lwz      r7,0x4000118(r0)
   81c9f:	d0 7e 71 60             	b.bnei     r7,-0x1,81d07 <Device_vInit+0x1423>
   81ca3:	48 fe c2                	b.jal      92a9f <i6LP_DefSocket.constprop.102>
   81ca6:	c9 61 88 80             	b.lhz      r11,0x110(r1)
   81caa:	8c 60 18 80 00 20       	b.sw       0x4000118(r0),r3
   81cb0:	05 43                   	b.mov      r10,r3
   81cb2:	89 60 16 60 00 20       	b.sh       0x4000668(r0),r11
   81cb8:	d0 3e 3f 20             	b.beqi     r3,-0x1,81d07 <Device_vInit+0x1423>
   81cbc:	d8 61 0b 00             	b.addi     r3,r1,0xd0
   81cc0:	00 80                   	b.movi     r4,0x0
   81cc2:	4a c4 a4                	b.jal      8b14f <i6LP_DefGetOwnDeviceAddress>
   81cc5:	d8 81 0b 00             	b.addi     r4,r1,0xd0
   81cc9:	04 6a                   	b.mov      r3,r10
   81ccb:	29 61 2b                	b.sh       0xd4(r1),r11
   81cce:	49 d2 f0                	b.jal      859fc <i6LP_DefBind.constprop.103>
   81cd1:	d0 7e 33 00             	b.bnei     r3,-0x1,81cdd <Device_vInit+0x13f9>
   81cd5:	8c 60 18 80 00 20       	b.sw       0x4000118(r0),r3
   81cdb:	0c d0                   	b.j        81d07 <Device_vInit+0x1423>
   81cdd:	8c e0 59 70 00 20       	b.lwz      r7,0x4000e98(r0)
   81ce3:	24 c7 26                	b.lbz      r6,0x64(r7)
   81ce6:	d3 4c ab 00             	b.bgts     r6,r10,81cf3 <Device_vInit+0x140f>
   81cea:	d8 c0 98 58             	b.addi     r6,r0,0x1a19
   81cee:	2c c7 32                	b.sw       0x4c(r7),r6
   81cf1:	0d a0                   	b.j        81d07 <Device_vInit+0x1423>
   81cf3:	38 c0 2a                	b.ori      r6,r0,0x54
   81cf6:	2c e7 4a                	b.lwz      r7,0x50(r7)
   81cf9:	65 4a 33                	b.mul      r10,r10,r6
   81cfc:	09 47                   	b.add      r10,r10,r7
   81cfe:	98 e0 ce 88 90 00       	b.ori      r7,r0,0x91173
   81d04:	2c ea 3c                	b.sw       0x3c(r10),r7
   81d07:	8c e0 59 70 00 20       	b.lwz      r7,0x4000e98(r0)
   81d0d:	d8 c0 80 84             	b.addi     r6,r0,0x2101
   81d11:	25 67 92                	b.lbz      r11,0x49(r7)
   81d14:	41 4b 3e                	b.bnei     r11,0x2,81d90 <Device_vInit+0x14ac>
   81d17:	c4 c1 c0 80             	b.lbz      r6,0x103(r1)
   81d1b:	40 06 f6                	b.beqi     r6,0x0,81d8a <Device_vInit+0x14a6>
   81d1e:	d2 10 69 00             	b.bleui    r6,0x2,81d27 <Device_vInit+0x1443>
   81d22:	41 c6 16                	b.bnei     r6,0x3,81d8a <Device_vInit+0x14a6>
   81d25:	0d d0                   	b.j        81d53 <Device_vInit+0x146f>
   81d27:	d8 61 0f 00             	b.addi     r3,r1,0xf0
   81d2b:	49 27 38                	b.jal      890bd <vJnc_JenNetInitVariablesVect>
   81d2e:	00 62                   	b.movi     r3,0x4
   81d30:	00 80                   	b.movi     r4,0x0
   81d32:	00 a0                   	b.movi     r5,0x0
   81d34:	4b 47 64                	b.jal      8b8bf <vJIP_StackEvent>
   81d37:	4b fa 9c                	b.jal      902b6 <vJnc_InitSystemVect.constprop.75>
   81d3a:	00 e8                   	b.movi     r7,0x1
   81d3c:	80 e0 1d 50 00 20       	b.sb       0x4000ab8(r0),r7
   81d42:	00 68                   	b.movi     r3,0x1
   81d44:	c4 e1 c0 80             	b.lbz      r7,0x103(r1)
   81d48:	40 87 a0                	b.beqi     r7,0x1,81d4d <Device_vInit+0x1469>
   81d4b:	00 60                   	b.movi     r3,0x0
   81d4d:	48 5a ec                	b.jal      8fab5 <vApi_Start_CRVect>
   81d50:	46 19 50                	b.j        827e8 <Device_vInit+0x1f04>
   81d53:	d8 61 0f 00             	b.addi     r3,r1,0xf0
   81d57:	49 9b 38                	b.jal      890bd <vJnc_JenNetInitVariablesVect>
   81d5a:	00 62                   	b.movi     r3,0x4
   81d5c:	00 80                   	b.movi     r4,0x0
   81d5e:	00 a0                   	b.movi     r5,0x0
   81d60:	4b eb 64                	b.jal      8b8bf <vJIP_StackEvent>
   81d63:	4b 2a 9c                	b.jal      902b6 <vJnc_InitSystemVect.constprop.75>
   81d66:	8d 40 7f 60 00 20       	b.lwz      r10,0x40006fc(r0)
   81d6c:	c1 6a a6 80             	b.sb       0x165(r10),r11
   81d70:	49 41 d0                	b.jal      84b7a <vAHI_StartRandomNumberGenerator.constprop.97>
   81d73:	4b db 68                	b.jal      878e2 <bAHI_RndNumPoll>
   81d76:	40 03 bf                	b.beqi     r3,0x0,81d73 <Device_vInit+0x148f>
   81d79:	cc f0 63 01             	b.lwz      r7,-0x7f3c(r16)
   81d7d:	c0 ea 01 80             	b.sb       0x180(r10),r7
   81d81:	00 ec                   	b.movi     r7,0x3
   81d83:	c0 ea 26 80             	b.sb       0x164(r10),r7
   81d87:	46 86 50                	b.j        827e8 <Device_vInit+0x1f04>
   81d8a:	d8 c0 80 a0             	b.addi     r6,r0,0x501
   81d8e:	0d 00                   	b.j        81d90 <Device_vInit+0x14ac>
   81d90:	2c c7 32                	b.sw       0x4c(r7),r6
   81d93:	46 51 50                	b.j        8281d <Device_vInit+0x1f39>
   81d96:	4b 1a c2                	b.jal      92af9 <eCreateSocket.6996>
   81d99:	05 63                   	b.mov      r11,r3
   81d9b:	d0 40 36 f8             	b.bnei     r3,0x0,81f91 <Device_vInit+0x16ad>
   81d9f:	85 80 26 10 00 20       	b.lbz      r12,0x4000864(r0)
   81da5:	38 80 28                	b.ori      r4,r0,0x14
   81da8:	00 a8                   	b.movi     r5,0x1
   81daa:	8c 60 40 60 00 20       	b.lwz      r3,0x4000600(r0)
   81db0:	64 8c 23                	b.mul      r4,r12,r4
   81db3:	85 60 66 10 00 20       	b.lbz      r11,0x4000866(r0)
   81db9:	85 40 a6 10 00 20       	b.lbz      r10,0x4000865(r0)
   81dbf:	4a 2a 30                	b.jal      84f10 <pvHeap_Alloc>
   81dc2:	8c 60 00 60 00 20       	b.sw       0x4000600(r0),r3
   81dc8:	41 03 d0                	b.bnei     r3,0x0,81dd3 <Device_vInit+0x14ef>
   81dcb:	80 00 3f a0 00 20       	b.sb       0x40005fc(r0),r0
   81dd1:	0e f0                   	b.j        81e0e <Device_vInit+0x152a>
   81dd3:	8c 60 5f a0 00 20       	b.lwz      r3,0x40005f8(r0)
   81dd9:	6c 8a c0                	b.slli     r4,r10,0x3
   81ddc:	00 a8                   	b.movi     r5,0x1
   81dde:	49 32 30                	b.jal      84f10 <pvHeap_Alloc>
   81de1:	8c 60 1f a0 00 20       	b.sw       0x40005f8(r0),r3
   81de7:	41 03 d0                	b.bnei     r3,0x0,81df2 <Device_vInit+0x150e>
   81dea:	81 80 3f a0 00 20       	b.sb       0x40005fc(r0),r12
   81df0:	0d e0                   	b.j        81e0e <Device_vInit+0x152a>
   81df2:	81 40 2f a0 00 20       	b.sb       0x40005f4(r0),r10
   81df8:	00 e0                   	b.movi     r7,0x0
   81dfa:	00 cf                   	b.movi     r6,-0x1
   81dfc:	0c c0                   	b.j        81e08 <Device_vInit+0x1524>
   81dfe:	6c a7 c0                	b.slli     r5,r7,0x3
   81e01:	08 a3                   	b.add      r5,r5,r3
   81e03:	00 f8                   	b.addi     r7,r7,0x1
   81e05:	20 c5 00                	b.sb       0x0(r5),r6
   81e08:	d3 54 76 ff             	b.bgts     r10,r7,81dfe <Device_vInit+0x151a>
   81e0c:	0d ef                   	b.j        81dea <Device_vInit+0x1506>
   81e0e:	38 80 30                	b.ori      r4,r0,0xc
   81e11:	00 a8                   	b.movi     r5,0x1
   81e13:	8c 60 57 90 00 20       	b.lwz      r3,0x40009e8(r0)
   81e19:	64 8b 23                	b.mul      r4,r11,r4
   81e1c:	01 40                   	b.movi     r10,0x0
   81e1e:	49 3c 30                	b.jal      84f10 <pvHeap_Alloc>
   81e21:	39 a0 30                	b.ori      r13,r0,0xc
   81e24:	05 83                   	b.mov      r12,r3
   81e26:	8c 60 17 90 00 20       	b.sw       0x40009e8(r0),r3
   81e2c:	8c 00 37 a0 00 20       	b.sw       0x40005ec(r0),r0
   81e32:	8c 00 0f a0 00 20       	b.sw       0x40005f0(r0),r0
   81e38:	8c 00 27 a0 00 20       	b.sw       0x40005e4(r0),r0
   81e3e:	8c 00 17 a0 00 20       	b.sw       0x40005e8(r0),r0
   81e44:	0d 20                   	b.j        81e56 <Device_vInit+0x1572>
   81e46:	64 8a 6b                	b.mul      r4,r10,r13
   81e49:	98 60 27 a0 00 20       	b.ori      r3,r0,0x40005e4
   81e4f:	08 8c                   	b.add      r4,r4,r12
   81e51:	01 58                   	b.addi     r10,r10,0x1
   81e53:	4a 8c ac                	b.jal      8f318 <vDLISTaddToTail>
   81e56:	d3 56 a0 ff             	b.bgts     r11,r10,81e46 <Device_vInit+0x1562>
   81e5a:	8c e0 6a 00 00 20       	b.lwz      r7,0x4000054(r0)
   81e60:	84 80 e6 10 00 20       	b.lbz      r4,0x4000867(r0)
   81e66:	98 c0 00 33 10 00       	b.ori      r6,r0,0x8cc00
   81e6c:	8c e0 07 a0 00 20       	b.sw       0x40005e0(r0),r7
   81e72:	98 e0 1c 42 90 00       	b.ori      r7,r0,0x94238
   81e78:	8c c0 2a 00 00 20       	b.sw       0x4000054(r0),r6
   81e7e:	8c e0 1b a0 00 20       	b.sw       0x40005d8(r0),r7
   81e84:	8c 00 3b a0 00 20       	b.sw       0x40005dc(r0),r0
   81e8a:	80 80 15 60 00 20       	b.sb       0x40006a8(r0),r4
   81e90:	8d 40 76 10 00 20       	b.lwz      r10,0x400086c(r0)
   81e96:	40 04 68                	b.beqi     r4,0x0,81eac <Device_vInit+0x15c8>
   81e99:	8c 60 53 80 00 20       	b.lwz      r3,0x40001c8(r0)
   81e9f:	00 98                   	b.addi     r4,r4,0x1
   81ea1:	00 a8                   	b.movi     r5,0x1
   81ea3:	4a d8 30                	b.jal      84f10 <pvHeap_Alloc>
   81ea6:	8c 60 13 80 00 20       	b.sw       0x40001c8(r0),r3
   81eac:	98 60 05 80 00 20       	b.ori      r3,r0,0x40001a0
   81eb2:	8d 40 1b 80 00 20       	b.sw       0x40001d8(r0),r10
   81eb8:	49 62 90                	b.jal      843d2 <eJIP_RegisterMib>
   81ebb:	8c e0 53 80 00 20       	b.lwz      r7,0x40001c8(r0)
   81ec1:	41 07 08                	b.bnei     r7,0x0,81ed1 <Device_vInit+0x15ed>
   81ec4:	98 60 05 80 00 20       	b.ori      r3,r0,0x40001a0
   81eca:	00 88                   	b.movi     r4,0x1
   81ecc:	00 a0                   	b.movi     r5,0x0
   81ece:	4a c0 3c                	b.jal      90edb <vJIP_SetEnabled>
   81ed1:	8c e0 5b 80 00 20       	b.lwz      r7,0x40001d8(r0)
   81ed7:	41 07 08                	b.bnei     r7,0x0,81ee7 <Device_vInit+0x1603>
   81eda:	98 60 05 80 00 20       	b.ori      r3,r0,0x40001a0
   81ee0:	00 84                   	b.movi     r4,0x2
   81ee2:	00 a0                   	b.movi     r5,0x0
   81ee4:	4b bf dc                	b.jal      90edb <vJIP_SetEnabled>
   81ee7:	8c e0 59 70 00 20       	b.lwz      r7,0x4000e98(r0)
   81eed:	98 60 20 60 00 20       	b.ori      r3,r0,0x4000604
   81ef3:	38 a0 18                	b.ori      r5,r0,0x18
   81ef6:	00 80                   	b.movi     r4,0x0
   81ef8:	25 47 12                	b.lbz      r10,0x48(r7)
   81efb:	48 bc f2                	b.jal      95bef <memset>
   81efe:	40 0a 30                	b.beqi     r10,0x0,81f0a <Device_vInit+0x1626>
   81f01:	30 ea ff                	b.addi     r7,r10,-0x1
   81f04:	8c e0 20 60 00 20       	b.sw       0x4000604(r0),r7
   81f0a:	98 60 1a 00 00 20       	b.ori      r3,r0,0x4000058
   81f10:	49 0c 90                	b.jal      843d2 <eJIP_RegisterMib>
   81f13:	00 e8                   	b.movi     r7,0x1
   81f15:	61 4a 3a                	b.xor      r10,r10,r7
   81f18:	3e 0a 50                	b.extbz    r10,r10
   81f1b:	60 a0 55                	b.sub      r5,r0,r10
   81f1e:	98 60 1a 00 00 20       	b.ori      r3,r0,0x4000058
   81f24:	6c a5 f9                	b.srli     r5,r5,0x1f
   81f27:	00 88                   	b.movi     r4,0x1
   81f29:	49 37 dc                	b.jal      90edb <vJIP_SetEnabled>
   81f2c:	30 aa ff                	b.addi     r5,r10,-0x1
   81f2f:	6c a5 f9                	b.srli     r5,r5,0x1f
   81f32:	98 60 1a 00 00 20       	b.ori      r3,r0,0x4000058
   81f38:	00 82                   	b.movi     r4,0x4
   81f3a:	4a 17 dc                	b.jal      90edb <vJIP_SetEnabled>
   81f3d:	88 e0 96 10 00 20       	b.lhz      r7,0x4000868(r0)
   81f43:	00 80                   	b.movi     r4,0x0
   81f45:	88 e0 37 90 00 20       	b.sh       0x40009ec(r0),r7
   81f4b:	00 60                   	b.movi     r3,0x0
   81f4d:	49 ef dc                	b.jal      90f2b <vNetworkModule_Update>
   81f50:	98 60 0f 80 00 20       	b.ori      r3,r0,0x40001f0
   81f56:	48 f8 90                	b.jal      843d2 <eJIP_RegisterMib>
   81f59:	98 60 02 40 00 20       	b.ori      r3,r0,0x4000240
   81f5f:	4b 38 90                	b.jal      843d2 <eJIP_RegisterMib>
   81f62:	00 ef                   	b.movi     r7,-0x1
   81f64:	98 60 17 00 00 20       	b.ori      r3,r0,0x40000e8
   81f6a:	01 60                   	b.movi     r11,0x0
   81f6c:	80 e0 a4 60 00 20       	b.sb       0x4000625(r0),r7
   81f72:	8d 40 46 10 00 20       	b.lwz      r10,0x4000860(r0)
   81f78:	49 68 90                	b.jal      843d2 <eJIP_RegisterMib>
   81f7b:	8c c0 46 10 00 20       	b.lwz      r6,0x4000860(r0)
   81f81:	8c e0 7f 60 00 20       	b.lwz      r7,0x40006fc(r0)
   81f87:	8d 40 14 60 00 20       	b.sw       0x4000628(r0),r10
   81f8d:	cc c7 21 80             	b.sw       0x184(r7),r6
   81f91:	8c c0 59 70 00 20       	b.lwz      r6,0x4000e98(r0)
   81f97:	00 e8                   	b.movi     r7,0x1
   81f99:	20 e6 f9                	b.sb       0x9f(r6),r7
   81f9c:	80 e0 25 60 00 20       	b.sb       0x40006a4(r0),r7
   81fa2:	cc f0 40 01             	b.lwz      r7,-0x8000(r16)
   81fa6:	98 e7 00 00 00 c0       	b.ori      r7,r7,0x3000000
   81fac:	cc f0 00 01             	b.sw       -0x8000(r16),r7
   81fb0:	84 e0 3e 60 00 20       	b.lbz      r7,0x400067c(r0)
   81fb6:	40 07 30                	b.beqi     r7,0x0,81fc2 <Device_vInit+0x16de>
   81fb9:	84 60 ae 60 00 20       	b.lbz      r3,0x4000675(r0)
   81fbf:	4b 2d 08                	b.jal      86292 <vSetChannelAndPower>
   81fc2:	cc f0 60 05             	b.lwz      r7,-0x5ffc(r16)
   81fc6:	cc f0 20 05             	b.sw       -0x5ffc(r16),r7
   81fca:	8d 80 4d 60 00 20       	b.lwz      r12,0x40006b0(r0)
   81fd0:	00 e4                   	b.movi     r7,0x2
   81fd2:	8c e0 35 10 00 20       	b.sw       0x40008ac(r0),r7
   81fd8:	24 ec 18                	b.lbz      r7,0x18(r12)
   81fdb:	d0 40 7f 50             	b.bnei     r7,0x0,8208a <Device_vInit+0x17a6>
   81fdf:	98 80 29 40 10 00       	b.ori      r4,r0,0x80294
   81fe5:	38 a0 88                	b.ori      r5,r0,0x11
   81fe8:	d8 61 2d 00             	b.addi     r3,r1,0xb4
   81fec:	d4 0e 07 ef             	b.jal      5c <memcpy>
   81ff0:	4a 88 e8                	b.jal      87c35 <pvAppApiDefGetMacAddrLocation>
   81ff3:	38 a0 10                	b.ori      r5,r0,0x8
   81ff6:	31 ac 18                	b.addi     r13,r12,0x18
   81ff9:	98 80 5b 80 10 00       	b.ori      r4,r0,0x801da
   81fff:	05 43                   	b.mov      r10,r3
   82001:	04 6d                   	b.mov      r3,r13
   82003:	d4 9a 07 ef             	b.jal      5c <memcpy>
   82007:	20 0c 04                	b.sb       0x20(r12),r0
   8200a:	04 6d                   	b.mov      r3,r13
   8200c:	49 40 f2                	b.jal      95c16 <strlen>
   8200f:	38 c0 04                	b.ori      r6,r0,0x20
   82012:	3e 03 18                	b.extbz    r3,r3
   82015:	60 ec 1c                	b.add      r7,r12,r3
   82018:	d8 a1 0c 80             	b.addi     r5,r1,0x130
   8201c:	04 6c                   	b.mov      r3,r12
   8201e:	20 c7 18                	b.sb       0x18(r7),r6
   82021:	2c ca 60                	b.lwz      r6,0x4(r10)
   82024:	6c c6 29                	b.srli     r6,r6,0x14
   82027:	34 c6 f0                	b.andi     r6,r6,0xf
   8202a:	08 c5                   	b.add      r6,r6,r5
   8202c:	c4 c6 21 ff             	b.lbz      r6,-0x7c(r6)
   82030:	20 c7 98                	b.sb       0x19(r7),r6
   82033:	28 ca a0                	b.lhz      r6,0x4(r10)
   82036:	34 c6 f0                	b.andi     r6,r6,0xf
   82039:	08 c5                   	b.add      r6,r6,r5
   8203b:	c4 c6 21 ff             	b.lbz      r6,-0x7c(r6)
   8203f:	20 c7 58                	b.sb       0x1a(r7),r6
   82042:	2c ca 60                	b.lwz      r6,0x4(r10)
   82045:	6c c6 31                	b.srli     r6,r6,0xc
   82048:	34 c6 f0                	b.andi     r6,r6,0xf
   8204b:	08 c5                   	b.add      r6,r6,r5
   8204d:	c4 c6 21 ff             	b.lbz      r6,-0x7c(r6)
   82051:	20 c7 d8                	b.sb       0x1b(r7),r6
   82054:	2c ca 60                	b.lwz      r6,0x4(r10)
   82057:	6c c6 11                	b.srli     r6,r6,0x8
   8205a:	34 c6 f0                	b.andi     r6,r6,0xf
   8205d:	08 c5                   	b.add      r6,r6,r5
   8205f:	c4 c6 21 ff             	b.lbz      r6,-0x7c(r6)
   82063:	20 c7 38                	b.sb       0x1c(r7),r6
   82066:	2c ca 60                	b.lwz      r6,0x4(r10)
   82069:	6c c6 21                	b.srli     r6,r6,0x4
   8206c:	34 c6 f0                	b.andi     r6,r6,0xf
   8206f:	08 c5                   	b.add      r6,r6,r5
   82071:	c4 c6 21 ff             	b.lbz      r6,-0x7c(r6)
   82075:	20 c7 b8                	b.sb       0x1d(r7),r6
   82078:	2c ca 60                	b.lwz      r6,0x4(r10)
   8207b:	34 c6 f0                	b.andi     r6,r6,0xf
   8207e:	08 c5                   	b.add      r6,r6,r5
   82080:	c4 c6 21 ff             	b.lbz      r6,-0x7c(r6)
   82084:	20 c7 78                	b.sb       0x1e(r7),r6
   82087:	48 34 d8                	b.jal      88d37 <PDM_vSaveRecord>
   8208a:	8c 80 4d 60 00 20       	b.lwz      r4,0x40006b0(r0)
   82090:	8d 40 53 80 00 20       	b.lwz      r10,0x40001c8(r0)
   82096:	30 84 18                	b.addi     r4,r4,0x18
   82099:	40 0a 84                	b.beqi     r10,0x0,820ba <Device_vInit+0x17d6>
   8209c:	85 80 15 60 00 20       	b.lbz      r12,0x40006a8(r0)
   820a2:	04 6a                   	b.mov      r3,r10
   820a4:	04 ac                   	b.mov      r5,r12
   820a6:	09 4c                   	b.add      r10,r10,r12
   820a8:	48 07 72                	b.jal      95c28 <strncpy>
   820ab:	98 60 05 80 00 20       	b.ori      r3,r0,0x40001a0
   820b1:	00 88                   	b.movi     r4,0x1
   820b3:	c0 0a ff ff             	b.sb       -0x1(r10),r0
   820b7:	4a 29 dc                	b.jal      90f08 <vJIP_NotifyChanged>
   820ba:	98 e0 7e 09 10 00       	b.ori      r7,r0,0x8907e
   820c0:	8c e0 35 60 00 20       	b.sw       0x40006ac(r0),r7
   820c6:	8c e0 6d 60 00 20       	b.lwz      r7,0x40006b4(r0)
   820cc:	c4 e7 18 80             	b.lbz      r7,0x118(r7)
   820d0:	41 07 60                	b.bnei     r7,0x0,820d6 <Device_vInit+0x17f2>
   820d3:	4a 74 c2                	b.jal      92d8c <MibGroup_vRestore.part.0.2219>
   820d6:	8c e0 48 e0 00 20       	b.lwz      r7,0x4000710(r0)
   820dc:	2c 67 40                	b.lwz      r3,0x0(r7)
   820df:	4b 3d 10                	b.jal      843d2 <eJIP_RegisterMib>
   820e2:	8d 40 71 10 00 20       	b.lwz      r10,0x400088c(r0)
   820e8:	2c 6a 40                	b.lwz      r3,0x0(r10)
   820eb:	4b 9d 10                	b.jal      843d2 <eJIP_RegisterMib>
   820ee:	00 e8                   	b.movi     r7,0x1
   820f0:	98 60 0d 40 00 20       	b.ori      r3,r0,0x40002b0
   820f6:	20 ea 0c                	b.sb       0x30(r10),r7
   820f9:	4a 6d 10                	b.jal      843d2 <eJIP_RegisterMib>
   820fc:	98 60 0d e0 00 20       	b.ori      r3,r0,0x40007b0
   82102:	4a b0 d8                	b.jal      88d37 <PDM_vSaveRecord>
   82105:	00 68                   	b.movi     r3,0x1
   82107:	48 83 24                	b.jal      8b40b <Node_vDebugOutdent.part.3.1799>
   8210a:	00 68                   	b.movi     r3,0x1
   8210c:	4b fd 24                	b.jal      8b40b <Node_vDebugOutdent.part.3.1799>
   8210f:	98 60 c7 80 10 00       	b.ori      r3,r0,0x801e3
   82115:	04 8b                   	b.mov      r4,r11
   82117:	4b 23 fc                	b.jal      9202a <dbg_vPrintfImplNoneVerbose>
   8211a:	98 60 e7 80 10 00       	b.ori      r3,r0,0x801e7
   82120:	98 80 0d 10 00 20       	b.ori      r4,r0,0x40008b0
   82126:	48 83 fc                	b.jal      9202a <dbg_vPrintfImplNoneVerbose>
   82129:	00 68                   	b.movi     r3,0x1
   8212b:	4a 25 24                	b.jal      8b3bc <Node_vDebugIndent.part.2.1796>
   8212e:	80 00 39 50 00 20       	b.sb       0x4000a9c(r0),r0
   82134:	46 8d 20                	b.j        825e5 <Device_vInit+0x1d01>
   82137:	84 e0 3e 10 00 20       	b.lbz      r7,0x400087c(r0)
   8213d:	41 87 38                	b.bnei     r7,0x1,82159 <Device_vInit+0x1875>
   82140:	00 ef                   	b.movi     r7,-0x1
   82142:	98 80 37 e0 00 20       	b.ori      r4,r0,0x40007ec
   82148:	00 68                   	b.movi     r3,0x1
   8214a:	80 00 3e 10 00 20       	b.sb       0x400087c(r0),r0
   82150:	88 e0 13 60 00 20       	b.sh       0x40006c8(r0),r7
   82156:	48 2a 10                	b.jal      842a6 <vApi_SetNwkKey>
   82159:	84 e0 55 10 00 20       	b.lbz      r7,0x40008aa(r0)
   8215f:	3e 07 38                	b.extbz    r7,r7
   82162:	40 07 ea                	b.beqi     r7,0x0,821b9 <Device_vInit+0x18d5>
   82165:	84 c0 11 10 00 20       	b.lbz      r6,0x4000888(r0)
   8216b:	80 00 55 10 00 20       	b.sb       0x40008aa(r0),r0
   82171:	8c e0 5f 60 00 20       	b.lwz      r7,0x40006f8(r0)
   82177:	40 06 9c                	b.beqi     r6,0x0,821b0 <Device_vInit+0x18cc>
   8217a:	8c c0 6f 60 00 20       	b.lwz      r6,0x40006f4(r0)
   82180:	34 e7 f0                	b.andi     r7,r7,0xf
   82183:	c8 c6 8a 80             	b.lhz      r6,0x150(r6)
   82187:	34 c6 80                	b.andi     r6,r6,0x1
   8218a:	41 06 04                	b.bnei     r6,0x0,821aa <Device_vInit+0x18c6>
   8218d:	3c a7 d0                	b.sfgtui   r7,0xb
   82190:	47 2b 00                	b.bf       8219d <Device_vInit+0x18b9>
   82193:	00 60                   	b.movi     r3,0x0
   82195:	98 80 00 00 40 00       	b.ori      r4,r0,0x20000
   8219b:	0d 40                   	b.j        821a5 <Device_vInit+0x18c1>
   8219d:	98 60 00 00 40 00       	b.ori      r3,r0,0x20000
   821a3:	00 80                   	b.movi     r4,0x0
   821a5:	49 67 a8                	b.jal      8793f <vAHI_DioSetOutput>
   821a8:	0e 20                   	b.j        821b9 <Device_vInit+0x18d5>
   821aa:	d2 38 79 7f             	b.bleui    r7,0x7,82193 <Device_vInit+0x18af>
   821ae:	0f df                   	b.j        8219d <Device_vInit+0x18b9>
   821b0:	34 e7 f0                	b.andi     r7,r7,0xf
   821b3:	d1 f0 75 7f             	b.bgtui    r7,0x3,8219d <Device_vInit+0x18b9>
   821b7:	0c ef                   	b.j        82193 <Device_vInit+0x18af>
   821b9:	84 e0 95 10 00 20       	b.lbz      r7,0x40008a9(r0)
   821bf:	3e 07 38                	b.extbz    r7,r7
   821c2:	d0 00 75 74             	b.beqi     r7,0x0,824ac <Device_vInit+0x1bc8>
   821c6:	8d 40 69 10 00 20       	b.lwz      r10,0x4000894(r0)
   821cc:	d8 80 1a 40             	b.addi     r4,r0,0x258
   821d0:	04 6a                   	b.mov      r3,r10
   821d2:	80 00 95 10 00 20       	b.sb       0x40008a9(r0),r0
   821d8:	48 34 f2                	b.jal      95e88 <__umodsi3>
   821db:	d8 80 1a 40             	b.addi     r4,r0,0x258
   821df:	05 63                   	b.mov      r11,r3
   821e1:	04 6a                   	b.mov      r3,r10
   821e3:	4a 39 72                	b.jal      95c54 <__udivsi3>
   821e6:	d8 80 1a 40             	b.addi     r4,r0,0x258
   821ea:	05 43                   	b.mov      r10,r3
   821ec:	48 e4 f2                	b.jal      95e88 <__umodsi3>
   821ef:	d8 80 1a 40             	b.addi     r4,r0,0x258
   821f3:	05 83                   	b.mov      r12,r3
   821f5:	04 6a                   	b.mov      r3,r10
   821f7:	4a e9 72                	b.jal      95c54 <__udivsi3>
   821fa:	05 43                   	b.mov      r10,r3
   821fc:	98 60 9f 80 10 00       	b.ori      r3,r0,0x801f9
   82202:	04 cb                   	b.mov      r6,r11
   82204:	04 8a                   	b.mov      r4,r10
   82206:	04 ac                   	b.mov      r5,r12
   82208:	49 11 fc                	b.jal      9202a <dbg_vPrintfImplNoneVerbose>
   8220b:	3e 0c 34                	b.ff1      r6,r12
   8220e:	3e 0a 3c                	b.ff1      r7,r10
   82211:	00 df                   	b.addi     r6,r6,-0x1
   82213:	00 ff                   	b.addi     r7,r7,-0x1
   82215:	6c e7 f9                	b.srli     r7,r7,0x1f
   82218:	6c c6 f9                	b.srli     r6,r6,0x1f
   8221b:	60 c6 38                	b.and      r6,r6,r7
   8221e:	00 e8                   	b.movi     r7,0x1
   82220:	60 eb 3a                	b.xor      r7,r11,r7
   82223:	3e 07 3c                	b.ff1      r7,r7
   82226:	00 ff                   	b.addi     r7,r7,-0x1
   82228:	6c e7 f9                	b.srli     r7,r7,0x1f
   8222b:	60 e7 30                	b.and      r7,r7,r6
   8222e:	40 07 3c                	b.beqi     r7,0x0,8226a <Device_vInit+0x1986>
   82231:	98 80 00 01 00 00       	b.ori      r4,r0,0x8000
   82237:	00 60                   	b.movi     r3,0x0
   82239:	49 63 a8                	b.jal      87953 <vAHI_DioSetDirection>
   8223c:	98 80 00 01 00 00       	b.ori      r4,r0,0x8000
   82242:	00 60                   	b.movi     r3,0x0
   82244:	4b 7d a8                	b.jal      8793f <vAHI_DioSetOutput>
   82247:	98 80 00 00 40 00       	b.ori      r4,r0,0x20000
   8224d:	00 60                   	b.movi     r3,0x0
   8224f:	48 83 a8                	b.jal      87953 <vAHI_DioSetDirection>
   82252:	98 80 00 00 40 00       	b.ori      r4,r0,0x20000
   82258:	00 60                   	b.movi     r3,0x0
   8225a:	4a 9d a8                	b.jal      8793f <vAHI_DioSetOutput>
   8225d:	cc 90 50 05             	b.lwz      r4,-0x5ff8(r16)
   82261:	98 60 d9 80 10 00       	b.ori      r3,r0,0x8019b
   82267:	4b 0e fc                	b.jal      9202a <dbg_vPrintfImplNoneVerbose>
   8226a:	98 60 9f 80 10 00       	b.ori      r3,r0,0x801f9
   82270:	04 8a                   	b.mov      r4,r10
   82272:	04 cb                   	b.mov      r6,r11
   82274:	04 ac                   	b.mov      r5,r12
   82276:	48 b6 fc                	b.jal      9202a <dbg_vPrintfImplNoneVerbose>
   82279:	38 e0 30                	b.ori      r7,r0,0xc
   8227c:	61 6c 59                	b.or       r11,r12,r11
   8227f:	61 4a 3a                	b.xor      r10,r10,r7
   82282:	3e 0b 5c                	b.ff1      r11,r11
   82285:	3e 0a 54                	b.ff1      r10,r10
   82288:	01 7f                   	b.addi     r11,r11,-0x1
   8228a:	01 5f                   	b.addi     r10,r10,-0x1
   8228c:	61 4b 50                	b.and      r10,r11,r10
   8228f:	42 0a 34                	b.bgesi    r10,0x0,822bb <Device_vInit+0x19d7>
   82292:	00 60                   	b.movi     r3,0x0
   82294:	00 82                   	b.movi     r4,0x4
   82296:	4a f5 a8                	b.jal      87953 <vAHI_DioSetDirection>
   82299:	00 60                   	b.movi     r3,0x0
   8229b:	00 82                   	b.movi     r4,0x4
   8229d:	49 15 a8                	b.jal      8793f <vAHI_DioSetOutput>
   822a0:	00 60                   	b.movi     r3,0x0
   822a2:	00 82                   	b.movi     r4,0x4
   822a4:	4b d5 a8                	b.jal      87953 <vAHI_DioSetDirection>
   822a7:	00 60                   	b.movi     r3,0x0
   822a9:	00 82                   	b.movi     r4,0x4
   822ab:	48 a5 a8                	b.jal      8793f <vAHI_DioSetOutput>
   822ae:	cc 90 50 05             	b.lwz      r4,-0x5ff8(r16)
   822b2:	98 60 d9 80 10 00       	b.ori      r3,r0,0x8019b
   822b8:	49 3a fc                	b.jal      9202a <dbg_vPrintfImplNoneVerbose>
   822bb:	8c 60 69 10 00 20       	b.lwz      r3,0x4000894(r0)
   822c1:	38 80 78                	b.ori      r4,r0,0x1e
   822c4:	48 8f 72                	b.jal      95e88 <__umodsi3>
   822c7:	41 03 9a                	b.bnei     r3,0x0,82320 <Device_vInit+0x1a3c>
   822ca:	84 e0 11 10 00 20       	b.lbz      r7,0x4000888(r0)
   822d0:	40 07 0a                	b.beqi     r7,0x0,82320 <Device_vInit+0x1a3c>
   822d3:	84 e0 da 10 00 20       	b.lbz      r7,0x400085b(r0)
   822d9:	41 87 e2                	b.bnei     r7,0x1,82320 <Device_vInit+0x1a3c>
   822dc:	38 e0 c8                	b.ori      r7,r0,0x13
   822df:	98 80 20 e0 00 20       	b.ori      r4,r0,0x4000704
   822e5:	38 a0 10                	b.ori      r5,r0,0x8
   822e8:	d8 61 85 00             	b.addi     r3,r1,0xa1
   822ec:	20 e1 05                	b.sb       0xa0(r1),r7
   822ef:	38 e0 04                	b.ori      r7,r0,0x20
   822f2:	20 e1 79                	b.sb       0x9e(r1),r7
   822f5:	d4 e6 bb ef             	b.jal      5c <memcpy>
   822f9:	8c e0 40 e0 00 20       	b.lwz      r7,0x4000700(r0)
   822ff:	8c 60 7f 60 00 20       	b.lwz      r3,0x40006fc(r0)
   82305:	24 e7 c0                	b.lbz      r7,0x3(r7)
   82308:	d8 63 19 80             	b.addi     r3,r3,0x198
   8230c:	d8 c1 79 00             	b.addi     r6,r1,0x9e
   82310:	00 84                   	b.movi     r4,0x2
   82312:	20 e1 95                	b.sb       0xa9(r1),r7
   82315:	38 e0 68                	b.ori      r7,r0,0x16
   82318:	00 a0                   	b.movi     r5,0x0
   8231a:	20 01 55                	b.sb       0xaa(r1),r0
   8231d:	4a 60 c2                	b.jal      92f36 <eNwk_TransmitPacketVect>
   82320:	8c c0 70 e0 00 20       	b.lwz      r6,0x400070c(r0)
   82326:	8c e0 48 90 00 20       	b.lwz      r7,0x4000910(r0)
   8232c:	0c 80                   	b.j        82330 <Device_vInit+0x1a4c>
   8232e:	00 f3                   	b.addi     r7,r7,-0x4
   82330:	2c a7 40                	b.lwz      r5,0x0(r7)
   82333:	9d c5 86 e9 40 00       	b.sfnei    r5,0x29761
   82339:	47 2b 80                	b.bf       82356 <Device_vInit+0x1a72>
   8233c:	8c e0 08 90 00 20       	b.sw       0x4000910(r0),r7
   82342:	8c e0 48 e0 00 20       	b.lwz      r7,0x4000710(r0)
   82348:	8d 40 69 10 00 20       	b.lwz      r10,0x4000894(r0)
   8234e:	2c c7 70                	b.lwz      r6,0xc(r7)
   82351:	41 06 d0                	b.bnei     r6,0x0,8235c <Device_vInit+0x1a78>
   82354:	0f e0                   	b.j        82373 <Device_vInit+0x1a8f>
   82356:	d3 ce 61 bf             	b.bgtu     r7,r6,8232e <Device_vInit+0x1a4a>
   8235a:	0d 1f                   	b.j        8233c <Device_vInit+0x1a58>
   8235c:	d3 cc a8 80             	b.bgtu     r6,r10,8236d <Device_vInit+0x1a89>
   82360:	2c 07 30                	b.sw       0xc(r7),r0
   82363:	00 68                   	b.movi     r3,0x1
   82365:	28 07 60                	b.sh       0x6(r7),r0
   82368:	4b da 42                	b.jal      92cd7 <Device_vReset>
   8236b:	0c 40                   	b.j        82373 <Device_vInit+0x1a8f>
   8236d:	60 c6 55                	b.sub      r6,r6,r10
   82370:	28 c7 60                	b.sh       0x6(r7),r6
   82373:	8c e0 48 e0 00 20       	b.lwz      r7,0x4000710(r0)
   82379:	2c c7 50                	b.lwz      r6,0x8(r7)
   8237c:	40 06 58                	b.beqi     r6,0x0,82396 <Device_vInit+0x1ab2>
   8237f:	d3 cc a8 80             	b.bgtu     r6,r10,82390 <Device_vInit+0x1aac>
   82383:	2c 07 10                	b.sw       0x8(r7),r0
   82386:	00 60                   	b.movi     r3,0x0
   82388:	28 07 20                	b.sh       0x4(r7),r0
   8238b:	48 ca 42                	b.jal      92cd7 <Device_vReset>
   8238e:	0c 40                   	b.j        82396 <Device_vInit+0x1ab2>
   82390:	61 46 55                	b.sub      r10,r6,r10
   82393:	29 47 20                	b.sh       0x4(r7),r10
   82396:	8d 40 71 10 00 20       	b.lwz      r10,0x400088c(r0)
   8239c:	8c c0 69 10 00 20       	b.lwz      r6,0x4000894(r0)
   823a2:	2c ea 7c                	b.lwz      r7,0x3c(r10)
   823a5:	2c ca 3c                	b.sw       0x3c(r10),r6
   823a8:	60 e6 3d                	b.sub      r7,r6,r7
   823ab:	24 ca 4c                	b.lbz      r6,0x32(r10)
   823ae:	40 06 84                	b.beqi     r6,0x0,823cf <Device_vInit+0x1aeb>
   823b1:	8c a0 74 e0 00 20       	b.lwz      r5,0x400072c(r0)
   823b7:	2c ca 6c                	b.lwz      r6,0x34(r10)
   823ba:	d3 8c 5a 80             	b.bgeu     r6,r5,823cf <Device_vInit+0x1aeb>
   823be:	60 c5 35                	b.sub      r6,r5,r6
   823c1:	9f 46 ff f0 00 00       	b.sfleui   r6,0xfff
   823c7:	47 21 00                	b.bf       823cf <Device_vInit+0x1aeb>
   823ca:	00 c8                   	b.movi     r6,0x1
   823cc:	20 ca 0c                	b.sb       0x30(r10),r6
   823cf:	2c ca 74                	b.lwz      r6,0x2c(r10)
   823d2:	2c aa 5c                	b.lwz      r5,0x38(r10)
   823d5:	08 c7                   	b.add      r6,r6,r7
   823d7:	2c ca 34                	b.sw       0x2c(r10),r6
   823da:	60 c6 2d                	b.sub      r6,r6,r5
   823dd:	9f 46 08 70 00 00       	b.sfleui   r6,0xe10
   823e3:	47 28 80                	b.bf       823f4 <Device_vInit+0x1b10>
   823e6:	00 c8                   	b.movi     r6,0x1
   823e8:	20 ca 0c                	b.sb       0x30(r10),r6
   823eb:	2c ca 42                	b.lwz      r6,0x40(r10)
   823ee:	38 c6 80                	b.ori      r6,r6,0x1
   823f1:	2c ca 02                	b.sw       0x40(r10),r6
   823f4:	24 ca 8c                	b.lbz      r6,0x31(r10)
   823f7:	40 06 b8                	b.beqi     r6,0x0,82414 <Device_vInit+0x1b30>
   823fa:	2c 6a 44                	b.lwz      r3,0x20(r10)
   823fd:	d8 80 08 70             	b.addi     r4,r0,0xe10
   82401:	08 67                   	b.add      r3,r3,r7
   82403:	2c 6a 04                	b.sw       0x20(r10),r3
   82406:	49 05 72                	b.jal      95e88 <__umodsi3>
   82409:	41 03 64                	b.bnei     r3,0x0,8242f <Device_vInit+0x1b4b>
   8240c:	2c ea 42                	b.lwz      r7,0x40(r10)
   8240f:	38 e7 20                	b.ori      r7,r7,0x4
   82412:	0d 60                   	b.j        8242c <Device_vInit+0x1b48>
   82414:	2c 6a 64                	b.lwz      r3,0x24(r10)
   82417:	d8 80 08 70             	b.addi     r4,r0,0xe10
   8241b:	08 67                   	b.add      r3,r3,r7
   8241d:	2c 6a 24                	b.sw       0x24(r10),r3
   82420:	48 59 72                	b.jal      95e88 <__umodsi3>
   82423:	41 03 30                	b.bnei     r3,0x0,8242f <Device_vInit+0x1b4b>
   82426:	2c ea 42                	b.lwz      r7,0x40(r10)
   82429:	38 e7 10                	b.ori      r7,r7,0x8
   8242c:	2c ea 02                	b.sw       0x40(r10),r7
   8242f:	24 ea 0c                	b.lbz      r7,0x30(r10)
   82432:	40 07 78                	b.beqi     r7,0x0,82450 <Device_vInit+0x1b6c>
   82435:	8c e0 74 e0 00 20       	b.lwz      r7,0x400072c(r0)
   8243b:	20 0a 0c                	b.sb       0x30(r10),r0
   8243e:	30 6a 20                	b.addi     r3,r10,0x4
   82441:	2c ea 14                	b.sw       0x28(r10),r7
   82444:	2c ea 2c                	b.sw       0x34(r10),r7
   82447:	2c ea 74                	b.lwz      r7,0x2c(r10)
   8244a:	2c ea 1c                	b.sw       0x38(r10),r7
   8244d:	49 5c 58                	b.jal      88d37 <PDM_vSaveRecord>
   82450:	8c e0 41 10 00 20       	b.lwz      r7,0x4000880(r0)
   82456:	8c c0 69 10 00 20       	b.lwz      r6,0x4000894(r0)
   8245c:	40 07 e2                	b.beqi     r7,0x0,824a3 <Device_vInit+0x1bbf>
   8245f:	d3 ce 6d c0             	b.bgtu     r7,r6,8249a <Device_vInit+0x1bb6>
   82463:	00 60                   	b.movi     r3,0x0
   82465:	8c 00 01 10 00 20       	b.sw       0x4000880(r0),r0
   8246b:	88 00 3c 10 00 20       	b.sh       0x400083c(r0),r0
   82471:	8c 00 33 e0 00 20       	b.sw       0x40007cc(r0),r0
   82477:	8c 00 0b e0 00 20       	b.sw       0x40007d0(r0),r0
   8247d:	8c 00 2b e0 00 20       	b.sw       0x40007d4(r0),r0
   82483:	8c 00 1b e0 00 20       	b.sw       0x40007d8(r0),r0
   82489:	80 00 13 e0 00 20       	b.sb       0x40007c8(r0),r0
   8248f:	88 00 53 e0 00 20       	b.sh       0x40007ca(r0),r0
   82495:	49 08 42                	b.jal      92cd7 <Device_vReset>
   82498:	0f 40                   	b.j        824a3 <Device_vInit+0x1bbf>
   8249a:	60 e7 35                	b.sub      r7,r7,r6
   8249d:	88 e0 3c 10 00 20       	b.sh       0x400083c(r0),r7
   824a3:	98 60 b8 40 10 00       	b.ori      r3,r0,0x8021d
   824a9:	4a 07 7c                	b.jal      9202a <dbg_vPrintfImplNoneVerbose>
   824ac:	84 e0 15 10 00 20       	b.lbz      r7,0x40008a8(r0)
   824b2:	3e 07 38                	b.extbz    r7,r7
   824b5:	d0 00 7c 88             	b.beqi     r7,0x0,825c8 <Device_vInit+0x1ce4>
   824b9:	8c e0 65 10 00 20       	b.lwz      r7,0x40008a4(r0)
   824bf:	80 00 15 10 00 20       	b.sb       0x40008a8(r0),r0
   824c5:	40 07 58                	b.beqi     r7,0x0,824df <Device_vInit+0x1bfb>
   824c8:	00 ff                   	b.addi     r7,r7,-0x1
   824ca:	8c e0 25 10 00 20       	b.sw       0x40008a4(r0),r7
   824d0:	41 07 f0                	b.bnei     r7,0x0,824df <Device_vInit+0x1bfb>
   824d3:	8c 00 05 10 00 20       	b.sw       0x40008a0(r0),r0
   824d9:	8c 00 39 10 00 20       	b.sw       0x400089c(r0),r0
   824df:	8d 40 71 10 00 20       	b.lwz      r10,0x400088c(r0)
   824e5:	2c ca 42                	b.lwz      r6,0x40(r10)
   824e8:	34 e6 f0                	b.andi     r7,r6,0xf
   824eb:	d0 00 71 90             	b.beqi     r7,0x0,82583 <Device_vInit+0x1c9f>
   824ef:	8c e0 75 10 00 20       	b.lwz      r7,0x40008ac(r0)
   824f5:	2d 8a 40                	b.lwz      r12,0x0(r10)
   824f8:	d0 50 7d 10             	b.bnei     r7,0x2,82583 <Device_vInit+0x1c9f>
   824fc:	84 e0 11 10 00 20       	b.lbz      r7,0x4000888(r0)
   82502:	d0 00 78 10             	b.beqi     r7,0x0,82583 <Device_vInit+0x1c9f>
   82506:	2c ac 60                	b.lwz      r5,0x4(r12)
   82509:	38 e0 f0                	b.ori      r7,r0,0xf
   8250c:	98 60 f4 40 10 00       	b.ori      r3,r0,0x8022f
   82512:	98 80 0d 10 00 20       	b.ori      r4,r0,0x40008b0
   82518:	01 02                   	b.movi     r8,0x4
   8251a:	48 23 7c                	b.jal      9202a <dbg_vPrintfImplNoneVerbose>
   8251d:	00 68                   	b.movi     r3,0x1
   8251f:	4a e5 c4                	b.jal      8b3bc <Node_vDebugIndent.part.2.1796>
   82522:	2c ea 42                	b.lwz      r7,0x40(r10)
   82525:	34 c7 80                	b.andi     r6,r7,0x1
   82528:	41 06 78                	b.bnei     r6,0x0,82546 <Device_vInit+0x1c62>
   8252b:	34 c7 40                	b.andi     r6,r7,0x2
   8252e:	41 06 04                	b.bnei     r6,0x0,8254e <Device_vInit+0x1c6a>
   82531:	34 c7 20                	b.andi     r6,r7,0x4
   82534:	41 06 44                	b.bnei     r6,0x0,82556 <Device_vInit+0x1c72>
   82537:	34 c7 10                	b.andi     r6,r7,0x8
   8253a:	40 06 22                	b.beqi     r6,0x0,8257e <Device_vInit+0x1c9a>
   8253d:	38 a0 10                	b.ori      r5,r0,0x8
   82540:	00 cc                   	b.movi     r6,0x3
   82542:	01 6c                   	b.movi     r11,0x3
   82544:	0c 60                   	b.j        8255c <Device_vInit+0x1c78>
   82546:	00 a8                   	b.movi     r5,0x1
   82548:	00 c0                   	b.movi     r6,0x0
   8254a:	01 60                   	b.movi     r11,0x0
   8254c:	0c 20                   	b.j        8255c <Device_vInit+0x1c78>
   8254e:	00 a4                   	b.movi     r5,0x2
   82550:	00 c8                   	b.movi     r6,0x1
   82552:	01 68                   	b.movi     r11,0x1
   82554:	0c 40                   	b.j        8255c <Device_vInit+0x1c78>
   82556:	00 a2                   	b.movi     r5,0x4
   82558:	00 c4                   	b.movi     r6,0x2
   8255a:	01 64                   	b.movi     r11,0x2
   8255c:	60 a5 2b                	b.nand     r5,r5,r5
   8255f:	60 e5 38                	b.and      r7,r5,r7
   82562:	98 60 ba 40 10 00       	b.ori      r3,r0,0x8025d
   82568:	98 80 0d 10 00 20       	b.ori      r4,r0,0x40008b0
   8256e:	2c ac 60                	b.lwz      r5,0x4(r12)
   82571:	2c ea 02                	b.sw       0x40(r10),r7
   82574:	49 b5 7c                	b.jal      9202a <dbg_vPrintfImplNoneVerbose>
   82577:	04 6c                   	b.mov      r3,r12
   82579:	04 8b                   	b.mov      r4,r11
   8257b:	4a c6 5c                	b.jal      90f08 <vJIP_NotifyChanged>
   8257e:	00 68                   	b.movi     r3,0x1
   82580:	4b 45 c4                	b.jal      8b40b <Node_vDebugOutdent.part.3.1799>
   82583:	8c e0 49 10 00 20       	b.lwz      r7,0x4000890(r0)
   82589:	2c 67 44                	b.lwz      r3,0x20(r7)
   8258c:	24 87 14                	b.lbz      r4,0x28(r7)
   8258f:	00 78                   	b.addi     r3,r3,0x1
   82591:	2c 67 04                	b.sw       0x20(r7),r3
   82594:	48 bc 72                	b.jal      95e88 <__umodsi3>
   82597:	41 03 60                	b.bnei     r3,0x0,8259d <Device_vInit+0x1cb9>
   8259a:	48 15 c4                	b.jal      8b43a <MibAdcStatus_vStart>
   8259d:	84 c0 19 10 00 20       	b.lbz      r6,0x4000898(r0)
   825a3:	84 e0 b9 50 00 20       	b.lbz      r7,0x4000a9d(r0)
   825a9:	d2 8e 6f 80             	b.beq      r7,r6,825c8 <Device_vInit+0x1ce4>
   825ad:	8c a0 69 10 00 20       	b.lwz      r5,0x4000894(r0)
   825b3:	98 60 de 40 10 00       	b.ori      r3,r0,0x8027b
   825b9:	98 80 0d 10 00 20       	b.ori      r4,r0,0x40008b0
   825bf:	80 c0 b9 50 00 20       	b.sb       0x4000a9d(r0),r6
   825c5:	4a 99 7c                	b.jal      9202a <dbg_vPrintfImplNoneVerbose>
   825c8:	8c e0 75 10 00 20       	b.lwz      r7,0x40008ac(r0)
   825ce:	41 47 60                	b.bnei     r7,0x2,825d4 <Device_vInit+0x1cf0>
   825d1:	4b 19 00                	b.jal      82834 <v6LP_Tick>
   825d4:	8c e0 75 10 00 20       	b.lwz      r7,0x40008ac(r0)
   825da:	41 07 28                	b.bnei     r7,0x0,825ee <Device_vInit+0x1d0a>
   825dd:	00 e8                   	b.movi     r7,0x1
   825df:	80 e0 39 50 00 20       	b.sb       0x4000a9c(r0),r7
   825e5:	00 60                   	b.movi     r3,0x0
   825e7:	00 80                   	b.movi     r4,0x0
   825e9:	49 ab 28                	b.jal      8793f <vAHI_DioSetOutput>
   825ec:	0d c0                   	b.j        825fa <Device_vInit+0x1d16>
   825ee:	84 e0 39 50 00 20       	b.lbz      r7,0x4000a9c(r0)
   825f4:	41 07 60                	b.bnei     r7,0x0,825fa <Device_vInit+0x1d16>
   825f7:	48 93 28                	b.jal      8791b <vAHI_CpuDoze>
   825fa:	84 e0 39 50 00 20       	b.lbz      r7,0x4000a9c(r0)
   82600:	d0 00 7e cd             	b.beqi     r7,0x0,82137 <Device_vInit+0x1853>
   82604:	00 68                   	b.movi     r3,0x1
   82606:	4a 81 c4                	b.jal      8b40b <Node_vDebugOutdent.part.3.1799>
   82609:	00 68                   	b.movi     r3,0x1
   8260b:	48 01 c4                	b.jal      8b40b <Node_vDebugOutdent.part.3.1799>
   8260e:	46 44 40                	b.j        82830 <Device_vInit+0x1f4c>
   82611:	00 ea                   	b.movi     r7,0x5
   82613:	80 e0 32 00 00 20       	b.sb       0x400004c(r0),r7
   82619:	98 e0 de a6 10 00       	b.ori      r7,r0,0x8657b
   8261f:	8c e0 00 90 00 20       	b.sw       0x4000900(r0),r7
   82625:	98 e0 43 26 10 00       	b.ori      r7,r0,0x864c2
   8262b:	8c e0 37 c0 00 20       	b.sw       0x40003ec(r0),r7
   82631:	98 e0 49 26 10 00       	b.ori      r7,r0,0x86492
   82637:	8c e0 17 c0 00 20       	b.sw       0x40003e8(r0),r7
   8263d:	98 e0 79 c3 10 00       	b.ori      r7,r0,0x8c39e
   82643:	8c e0 20 90 00 20       	b.sw       0x4000904(r0),r7
   82649:	98 e0 3c 26 10 00       	b.ori      r7,r0,0x8643c
   8264f:	8c e0 10 90 00 20       	b.sw       0x4000908(r0),r7
   82655:	80 00 0f c0 00 20       	b.sb       0x40003f0(r0),r0
   8265b:	48 13 f0                	b.jal      8657b <DBG_vUartInitHardware>
   8265e:	cc f0 40 09             	b.lwz      r7,-0x7000(r16)
   82662:	98 e7 00 00 00 10       	b.ori      r7,r7,0x8000000
   82668:	cc f0 00 09             	b.sw       -0x7000(r16),r7
   8266c:	00 60                   	b.movi     r3,0x0
   8266e:	00 84                   	b.movi     r4,0x2
   82670:	49 c0 30                	b.jal      8567e <vAHI_UartSetBaudDivisor.part.1.23971>
   82673:	d8 c0 04 0d             	b.addi     r6,r0,-0x4fe0
   82677:	04 e6                   	b.mov      r7,r6
   82679:	08 f0                   	b.add      r7,r7,r16
   8267b:	08 d0                   	b.add      r6,r6,r16
   8267d:	2c c6 40                	b.lwz      r6,0x0(r6)
   82680:	94 c6 0f ff ff ff       	b.andi     r6,r6,0xfffffff0
   82686:	38 c6 10                	b.ori      r6,r6,0x8
   82689:	2c c7 00                	b.sw       0x0(r7),r6
   8268c:	8c e0 59 70 00 20       	b.lwz      r7,0x4000e98(r0)
   82692:	a0 40 74 94 7f ff       	b.bnei     r7,0x0,80924 <Device_vInit+0x40>
   82698:	46 ce 47                	b.j        8090b <Device_vInit+0x27>
   8269b:	2c 0a 24                	b.sw       0x24(r10),r0
   8269e:	01 60                   	b.movi     r11,0x0
   826a0:	2c 0a 14                	b.sw       0x28(r10),r0
   826a3:	39 80 38                	b.ori      r12,r0,0x1c
   826a6:	01 aa                   	b.movi     r13,0x5
   826a8:	2c 0a 34                	b.sw       0x2c(r10),r0
   826ab:	2c 0a 0c                	b.sw       0x30(r10),r0
   826ae:	2c 0a 2c                	b.sw       0x34(r10),r0
   826b1:	2c 0a 1c                	b.sw       0x38(r10),r0
   826b4:	2c 0a 3c                	b.sw       0x3c(r10),r0
   826b7:	2c 0a 02                	b.sw       0x40(r10),r0
   826ba:	2c 0a 22                	b.sw       0x44(r10),r0
   826bd:	2c 0a 12                	b.sw       0x48(r10),r0
   826c0:	46 d9 97                	b.j        8105b <Device_vInit+0x777>
   826c3:	04 6a                   	b.mov      r3,r10
   826c5:	00 88                   	b.movi     r4,0x1
   826c7:	48 97 94                	b.jal      8ce6b <iPDM_SetVerifyBytesInFileSystemRecord>
   826ca:	24 6a 10                	b.lbz      r3,0x8(r10)
   826cd:	31 ad c8                	b.addi     r13,r13,0x13
   826d0:	60 8d 64                	b.add      r4,r13,r12
   826d3:	3e 04 20                	b.extbz    r4,r4
   826d6:	00 a8                   	b.movi     r5,0x1
   826d8:	4a 9c 94                	b.jal      8cbbd <vPDM_WriteByteIntoEEPROM>
   826db:	04 6a                   	b.mov      r3,r10
   826dd:	00 80                   	b.movi     r4,0x0
   826df:	48 c7 94                	b.jal      8ce6b <iPDM_SetVerifyBytesInFileSystemRecord>
   826e2:	46 3a 57                	b.j        8113e <Device_vInit+0x85a>
   826e5:	28 67 88                	b.lhz      r3,0x10(r7)
   826e8:	24 87 68                	b.lbz      r4,0x16(r7)
   826eb:	30 c1 3c                	b.addi     r6,r1,0x3c
   826ee:	30 e1 14                	b.addi     r7,r1,0x28
   826f1:	4a f2 30                	b.jal      8582e <iPDM_SearchForBufferIdInList>
   826f4:	a0 00 3e e3 7f ff       	b.beqi     r3,0x0,8136b <Device_vInit+0xa87>
   826fa:	0f e0                   	b.j        82719 <Device_vInit+0x1e35>
   826fc:	28 67 88                	b.lhz      r3,0x10(r7)
   826ff:	24 87 68                	b.lbz      r4,0x16(r7)
   82702:	00 bf                   	b.addi     r5,r5,-0x1
   82704:	30 c1 3c                	b.addi     r6,r1,0x3c
   82707:	30 e1 14                	b.addi     r7,r1,0x28
   8270a:	3e 05 28                	b.extbz    r5,r5
   8270d:	4a 12 30                	b.jal      8582e <iPDM_SearchForBufferIdInList>
   82710:	a0 00 31 c3 7f ff       	b.beqi     r3,0x0,81348 <Device_vInit+0xa64>
   82716:	46 3c b7                	b.j        81452 <Device_vInit+0xb6e>
   82719:	2c c1 64                	b.lwz      r6,0x24(r1)
   8271c:	2c e1 44                	b.lwz      r7,0x20(r1)
   8271f:	24 a6 28                	b.lbz      r5,0x14(r6)
   82722:	28 67 88                	b.lhz      r3,0x10(r7)
   82725:	24 87 68                	b.lbz      r4,0x16(r7)
   82728:	00 bf                   	b.addi     r5,r5,-0x1
   8272a:	30 c1 3c                	b.addi     r6,r1,0x3c
   8272d:	30 e1 14                	b.addi     r7,r1,0x28
   82730:	3e 05 28                	b.extbz    r5,r5
   82733:	4b 7c 30                	b.jal      8582e <iPDM_SearchForBufferIdInList>
   82736:	a0 00 38 23 7f ff       	b.beqi     r3,0x0,81377 <Device_vInit+0xa93>
   8273c:	46 68 b7                	b.j        81452 <Device_vInit+0xb6e>
   8273f:	2c e1 64                	b.lwz      r7,0x24(r1)
   82742:	2c 61 54                	b.lwz      r3,0x28(r1)
   82745:	24 e7 28                	b.lbz      r7,0x14(r7)
   82748:	24 c3 c8                	b.lbz      r6,0x13(r3)
   8274b:	00 ff                   	b.addi     r7,r7,-0x1
   8274d:	a2 cc 72 e3 7f ff       	b.bne      r6,r7,813c1 <Device_vInit+0xadd>
   82753:	46 7a 37                	b.j        813b1 <Device_vInit+0xacd>
   82756:	38 60 70                	b.ori      r3,r0,0xe
   82759:	30 81 0c                	b.addi     r4,r1,0x30
   8275c:	30 a1 3c                	b.addi     r5,r1,0x3c
   8275f:	04 c5                   	b.mov      r6,r5
   82761:	4b 3b 54                	b.jal      8d2d4 <vPDM_MoveAllDataFromListToList>
   82764:	2c 61 64                	b.lwz      r3,0x24(r1)
   82767:	24 81 0c                	b.lbz      r4,0x30(r1)
   8276a:	24 e3 28                	b.lbz      r7,0x14(r3)
   8276d:	a2 ce 4d 13 7f ff       	b.bne      r7,r4,813f8 <Device_vInit+0xb14>
   82773:	46 fe 37                	b.j        813f2 <Device_vInit+0xb0e>
   82776:	98 e0 40 00 17 01       	b.ori      r7,r0,0x80e80002
   8277c:	98 c0 cb d0 20 bf       	b.ori      r6,r0,0xfd040bd3
   82782:	38 80 0b                	b.ori      r4,r0,0xd0
   82785:	00 a8                   	b.movi     r5,0x1
   82787:	2c e1 2f                	b.sw       0xf4(r1),r7
   8278a:	8c e0 4a 10 00 20       	b.lwz      r7,0x4000850(r0)
   82790:	8c 60 59 70 00 20       	b.lwz      r3,0x4000e98(r0)
   82796:	2c e1 1f                	b.sw       0xf8(r1),r7
   82799:	88 e0 aa 10 00 20       	b.lhz      r7,0x4000854(r0)
   8279f:	2c c1 0f                	b.sw       0xf0(r1),r6
   827a2:	00 c8                   	b.movi     r6,0x1
   827a4:	28 e1 3f                	b.sh       0xfc(r1),r7
   827a7:	00 e2                   	b.movi     r7,0x4
   827a9:	c8 e1 00 80             	b.sh       0x100(r1),r7
   827ad:	00 e4                   	b.movi     r7,0x2
   827af:	c0 e1 40 80             	b.sb       0x102(r1),r7
   827b3:	c0 e1 20 80             	b.sb       0x104(r1),r7
   827b7:	38 e0 08                	b.ori      r7,r0,0x10
   827ba:	cc e1 10 80             	b.sw       0x108(r1),r7
   827be:	d8 e0 ca e0             	b.addi     r7,r0,0x753
   827c2:	28 01 7f                	b.sh       0xfe(r1),r0
   827c5:	c0 c1 c0 80             	b.sb       0x103(r1),r6
   827c9:	c8 e1 08 80             	b.sh       0x110(r1),r7
   827cd:	4b 0b 90                	b.jal      84f10 <pvHeap_Alloc>
   827d0:	8c 60 19 70 00 20       	b.sw       0x4000e98(r0),r3
   827d6:	a0 40 33 28 ff ff       	b.bnei     r3,0x0,81922 <Device_vInit+0x103e>
   827dc:	0e 08                   	b.j        8281d <Device_vInit+0x1f39>
   827de:	d8 c0 40 c0             	b.addi     r6,r0,0x302
   827e2:	2c c7 32                	b.sw       0x4c(r7),r6
   827e5:	46 a6 2f                	b.j        81c4a <Device_vInit+0x1366>
   827e8:	8c e0 6f 60 00 20       	b.lwz      r7,0x40006f4(r0)
   827ee:	98 c0 72 60 00 20       	b.ori      r6,r0,0x400064e
   827f4:	cc c7 12 80             	b.sw       0x148(r7),r6
   827f8:	98 c0 0d 5c 10 00       	b.ori      r6,r0,0x83ab0
   827fe:	88 60 96 10 00 20       	b.lhz      r3,0x4000868(r0)
   82804:	cc c7 02 80             	b.sw       0x140(r7),r6
   82808:	84 e0 da 10 00 20       	b.lbz      r7,0x400085b(r0)
   8280e:	88 60 32 60 00 20       	b.sh       0x400064c(r0),r3
   82814:	a0 60 7d 1a ff ff       	b.bnei     r7,0x1,81d9f <Device_vInit+0x14bb>
   8281a:	46 3e af                	b.j        81d96 <Device_vInit+0x14b2>
   8281d:	39 60 ff                	b.ori      r11,r0,0xff
   82820:	46 8e ef                	b.j        81f91 <Device_vInit+0x16ad>
   82823:	24 6a 10                	b.lbz      r3,0x8(r10)
   82826:	25 0e 80                	b.lbz      r8,0x1(r14)
   82829:	00 c0                   	b.movi     r6,0x0
   8282b:	00 e0                   	b.movi     r7,0x0
   8282d:	46 5a e7                	b.j        80f87 <Device_vInit+0x6a3>
   82830:	47 be b2                	b.reti     0x7,0x4d
	...

00082834 <v6LP_Tick>:
   82834:	47 ae e6                	b.entri    0x7,0x67
   82837:	cd 90 64 29             	b.lwz      r12,-0x6bdc(r16)
   8283b:	8c c0 6c 60 00 20       	b.lwz      r6,0x4000634(r0)
   82841:	88 e0 d4 c0 00 20       	b.lhz      r7,0x400032a(r0)
   82847:	60 cc 35                	b.sub      r6,r12,r6
   8284a:	a3 ce 6f d7 00 00       	b.bgtu     r7,r6,83709 <v6LP_Tick+0xed5>
   82850:	8d 80 2c 60 00 20       	b.sw       0x4000634(r0),r12
   82856:	0f f0                   	b.j        82895 <v6LP_Tick+0x61>
   82858:	84 c0 8d 50 00 20       	b.lbz      r6,0x4000ab1(r0)
   8285e:	8c e0 75 50 00 20       	b.lwz      r7,0x4000aac(r0)
   82864:	3e 06 30                	b.extbz    r6,r6
   82867:	6c c6 c0                	b.slli     r6,r6,0x3
   8286a:	08 c7                   	b.add      r6,r6,r7
   8286c:	2c e6 40                	b.lwz      r7,0x0(r6)
   8286f:	40 07 90                	b.beqi     r7,0x0,82878 <v6LP_Tick+0x44>
   82872:	2c 66 60                	b.lwz      r3,0x4(r6)
   82875:	47 d1 38                	b.jalr     r7
   82878:	84 e0 8d 50 00 20       	b.lbz      r7,0x4000ab1(r0)
   8287e:	84 c0 84 c0 00 20       	b.lbz      r6,0x4000321(r0)
   82884:	00 f8                   	b.addi     r7,r7,0x1
   82886:	3e 07 38                	b.extbz    r7,r7
   82889:	3d e6 38                	b.sfgtu    r6,r7
   8288c:	64 e7 02                	b.cmov     r7,r7,r0
   8288f:	80 e0 8d 50 00 20       	b.sb       0x4000ab1(r0),r7
   82895:	84 c0 8d 50 00 20       	b.lbz      r6,0x4000ab1(r0)
   8289b:	84 e0 0d 50 00 20       	b.lbz      r7,0x4000ab0(r0)
   828a1:	3e 06 30                	b.extbz    r6,r6
   828a4:	3e 07 38                	b.extbz    r7,r7
   828a7:	d2 cc 78 df             	b.bne      r6,r7,82858 <v6LP_Tick+0x24>
   828ab:	46 f2 a0                	b.j        82dfa <v6LP_Tick+0x5c6>
   828ae:	85 40 95 50 00 20       	b.lbz      r10,0x4000aa9(r0)
   828b4:	38 e0 31                	b.ori      r7,r0,0x8c
   828b7:	3e 0a 50                	b.extbz    r10,r10
   828ba:	65 4a 3b                	b.mul      r10,r10,r7
   828bd:	8c e0 65 50 00 20       	b.lwz      r7,0x4000aa4(r0)
   828c3:	09 47                   	b.add      r10,r10,r7
   828c5:	24 ea 51                	b.lbz      r7,0x8a(r10)
   828c8:	24 8a 11                	b.lbz      r4,0x88(r10)
   828cb:	80 e0 19 10 00 20       	b.sb       0x4000898(r0),r7
   828d1:	3c 04 88                	b.sfeqi    r4,0x11
   828d4:	24 ea d1                	b.lbz      r7,0x8b(r10)
   828d7:	25 6a 91                	b.lbz      r11,0x89(r10)
   828da:	80 e0 a7 50 00 20       	b.sb       0x4000ae5(r0),r7
   828e0:	47 24 d0                	b.bf       82992 <v6LP_Tick+0x15e>
   828e3:	3c a4 88                	b.sfgtui   r4,0x11
   828e6:	47 2f c0                	b.bf       82925 <v6LP_Tick+0xf1>
   828e9:	3c 04 90                	b.sfeqi    r4,0x9
   828ec:	47 2c 10                	b.bf       8296f <v6LP_Tick+0x13b>
   828ef:	3c a4 90                	b.sfgtui   r4,0x9
   828f2:	47 20 80                	b.bf       82902 <v6LP_Tick+0xce>
   828f5:	d0 20 47 b0             	b.beqi     r4,0x1,829d3 <v6LP_Tick+0x19f>
   828f9:	40 04 6e                	b.beqi     r4,0x0,8296f <v6LP_Tick+0x13b>
   828fc:	d0 58 48 72             	b.bnei     r4,0x6,82ddd <v6LP_Tick+0x5a9>
   82900:	0f 42                   	b.j        82a0b <v6LP_Tick+0x1d7>
   82902:	3c 04 b0                	b.sfeqi    r4,0xd
   82905:	47 20 c4                	b.bf       82b35 <v6LP_Tick+0x301>
   82908:	3c a4 b0                	b.sfgtui   r4,0xd
   8290b:	47 2d 00                	b.bf       82916 <v6LP_Tick+0xe2>
   8290e:	3c 04 50                	b.sfeqi    r4,0xa
   82911:	47 33 32                	b.bnf      82ddd <v6LP_Tick+0x5a9>
   82914:	0c 12                   	b.j        82a34 <v6LP_Tick+0x200>
   82916:	3c 04 70                	b.sfeqi    r4,0xe
   82919:	47 24 14                	b.bf       82b9b <v6LP_Tick+0x367>
   8291c:	3c 04 f0                	b.sfeqi    r4,0xf
   8291f:	47 37 d2                	b.bnf      82ddd <v6LP_Tick+0x5a9>
   82922:	46 c8 40                	b.j        82b35 <v6LP_Tick+0x301>
   82925:	3c 04 98                	b.sfeqi    r4,0x19
   82928:	47 25 52                	b.bf       82dd2 <v6LP_Tick+0x59e>
   8292b:	3c a4 98                	b.sfgtui   r4,0x19
   8292e:	47 21 80                	b.bf       82946 <v6LP_Tick+0x112>
   82931:	3c 04 a8                	b.sfeqi    r4,0x15
   82934:	47 25 e4                	b.bf       82bae <v6LP_Tick+0x37a>
   82937:	3d 24 a8                	b.sfltui   r4,0x15
   8293a:	47 2d f8                	b.bf       82b35 <v6LP_Tick+0x301>
   8293d:	3c 04 e8                	b.sfeqi    r4,0x17
   82940:	47 3b 92                	b.bnf      82ddd <v6LP_Tick+0x5a9>
   82943:	46 dd 40                	b.j        82bfe <v6LP_Tick+0x3ca>
   82946:	3c 04 0a                	b.sfeqi    r4,0x50
   82949:	47 25 d4                	b.bf       82c03 <v6LP_Tick+0x3cf>
   8294c:	3c a4 0a                	b.sfgtui   r4,0x50
   8294f:	47 23 00                	b.bf       8295b <v6LP_Tick+0x127>
   82952:	3c 04 58                	b.sfeqi    r4,0x1a
   82955:	47 31 12                	b.bnf      82ddd <v6LP_Tick+0x5a9>
   82958:	46 3a 40                	b.j        82bb4 <v6LP_Tick+0x380>
   8295b:	9d 84 7f 00 00 00       	b.sfeqi    r4,0xfe
   82961:	47 22 d0                	b.bf       82a15 <v6LP_Tick+0x1e1>
   82964:	9d 84 ff 00 00 00       	b.sfeqi    r4,0xff
   8296a:	47 3c e2                	b.bnf      82ddd <v6LP_Tick+0x5a9>
   8296d:	0e b4                   	b.j        82a22 <v6LP_Tick+0x1ee>
   8296f:	30 ea 10                	b.addi     r7,r10,0x8
   82972:	d8 61 21 00             	b.addi     r3,r1,0x84
   82976:	2c e1 39                	b.sw       0x9c(r1),r7
   82979:	00 ec                   	b.movi     r7,0x3
   8297b:	20 e1 61                	b.sb       0x86(r1),r7
   8297e:	2c ea 40                	b.lwz      r7,0x0(r10)
   82981:	29 61 05                	b.sh       0xa0(r1),r11
   82984:	2c e1 11                	b.sw       0x88(r1),r7
   82987:	2c ea 60                	b.lwz      r7,0x4(r10)
   8298a:	20 01 49                	b.sb       0x92(r1),r0
   8298d:	2c e1 31                	b.sw       0x8c(r1),r7
   82990:	0e b8                   	b.j        82a05 <v6LP_Tick+0x1d1>
   82992:	30 ea d8                	b.addi     r7,r10,0x1b
   82995:	31 6b b7                	b.addi     r11,r11,-0x13
   82998:	30 8a d0                	b.addi     r4,r10,0xb
   8299b:	38 a0 10                	b.ori      r5,r0,0x8
   8299e:	30 61 16                	b.addi     r3,r1,0x68
   829a1:	29 61 01                	b.sh       0x80(r1),r11
   829a4:	01 6c                   	b.movi     r11,0x3
   829a6:	2c e1 3e                	b.sw       0x7c(r1),r7
   829a9:	21 61 66                	b.sb       0x66(r1),r11
   829ac:	d4 0d 6b ef             	b.jal      5c <memcpy>
   829b0:	30 61 2e                	b.addi     r3,r1,0x74
   829b3:	30 8a c8                	b.addi     r4,r10,0x13
   829b6:	38 a0 10                	b.ori      r5,r0,0x8
   829b9:	21 61 4e                	b.sb       0x72(r1),r11
   829bc:	d4 05 6b ef             	b.jal      5c <memcpy>
   829c0:	30 61 26                	b.addi     r3,r1,0x64
   829c3:	4a 9f 20                	b.jal      83da8 <b6LP_HandleRxEvent>
   829c6:	d0 40 3e 82             	b.bnei     r3,0x0,82ddd <v6LP_Tick+0x5a9>
   829ca:	30 61 2e                	b.addi     r3,r1,0x74
   829cd:	49 fa f4                	b.jal      8e74b <ePAR_SendFindNode>
   829d0:	46 b0 20                	b.j        82ddd <v6LP_Tick+0x5a9>
   829d3:	30 ea 10                	b.addi     r7,r10,0x8
   829d6:	30 61 22                	b.addi     r3,r1,0x44
   829d9:	2c e1 3a                	b.sw       0x5c(r1),r7
   829dc:	00 ec                   	b.movi     r7,0x3
   829de:	20 e1 62                	b.sb       0x46(r1),r7
   829e1:	2c ca 40                	b.lwz      r6,0x0(r10)
   829e4:	29 61 06                	b.sh       0x60(r1),r11
   829e7:	2c c1 12                	b.sw       0x48(r1),r6
   829ea:	2c ca 60                	b.lwz      r6,0x4(r10)
   829ed:	20 e1 4a                	b.sb       0x52(r1),r7
   829f0:	8c e0 50 e0 00 20       	b.lwz      r7,0x4000708(r0)
   829f6:	2c c1 32                	b.sw       0x4c(r1),r6
   829f9:	2c e1 1a                	b.sw       0x58(r1),r7
   829fc:	8c e0 60 e0 00 20       	b.lwz      r7,0x4000704(r0)
   82a02:	2c e1 2a                	b.sw       0x54(r1),r7
   82a05:	4b 17 20                	b.jal      83da8 <b6LP_HandleRxEvent>
   82a08:	46 ab c0                	b.j        82ddd <v6LP_Tick+0x5a9>
   82a0b:	00 66                   	b.movi     r3,0x6
   82a0d:	30 8a 10                	b.addi     r4,r10,0x8
   82a10:	00 a8                   	b.movi     r5,0x1
   82a12:	46 13 c0                	b.j        82dda <v6LP_Tick+0x5a6>
   82a15:	24 ea 10                	b.lbz      r7,0x8(r10)
   82a18:	30 61 20                	b.addi     r3,r1,0x4
   82a1b:	00 80                   	b.movi     r4,0x0
   82a1d:	20 e1 20                	b.sb       0x4(r1),r7
   82a20:	0d c0                   	b.j        82a2e <v6LP_Tick+0x1fa>
   82a22:	24 ea 10                	b.lbz      r7,0x8(r10)
   82a25:	30 61 20                	b.addi     r3,r1,0x4
   82a28:	38 80 47                	b.ori      r4,r0,0xe2
   82a2b:	20 e1 20                	b.sb       0x4(r1),r7
   82a2e:	4b d3 4c                	b.jal      8f55d <vHandleTxEvent>
   82a31:	46 35 c0                	b.j        82ddd <v6LP_Tick+0x5a9>
   82a34:	04 61                   	b.mov      r3,r1
   82a36:	4b 73 d0                	b.jal      85971 <iIPv6_SearchForBufferReadyToTX>
   82a39:	41 03 48                	b.bnei     r3,0x0,82a4b <v6LP_Tick+0x217>
   82a3c:	8c e0 59 70 00 20       	b.lwz      r7,0x4000e98(r0)
   82a42:	2c 61 40                	b.lwz      r3,0x0(r1)
   82a45:	2c e7 60                	b.lwz      r7,0x4(r7)
   82a48:	47 d1 38                	b.jalr     r7
   82a4b:	84 80 94 c0 00 20       	b.lbz      r4,0x4000329(r0)
   82a51:	8c 60 77 50 00 20       	b.lwz      r3,0x4000aec(r0)
   82a57:	98 e0 24 42 90 00       	b.ori      r7,r0,0x94224
   82a5d:	6c 84 20                	b.slli     r4,r4,0x4
   82a60:	00 a0                   	b.movi     r5,0x0
   82a62:	8c e0 13 50 00 20       	b.sw       0x4000ac8(r0),r7
   82a68:	8c 00 33 50 00 20       	b.sw       0x4000acc(r0),r0
   82a6e:	80 00 0b 50 00 20       	b.sb       0x4000ad0(r0),r0
   82a74:	48 e4 90                	b.jal      84f10 <pvHeap_Alloc>
   82a77:	84 e0 0f 50 00 20       	b.lbz      r7,0x4000af0(r0)
   82a7d:	8c 60 37 50 00 20       	b.sw       0x4000aec(r0),r3
   82a83:	41 07 14                	b.bnei     r7,0x0,82aab <v6LP_Tick+0x277>
   82a86:	00 e8                   	b.movi     r7,0x1
   82a88:	80 e0 0f 50 00 20       	b.sb       0x4000af0(r0),r7
   82a8e:	8c e0 6f 60 00 20       	b.lwz      r7,0x40006f4(r0)
   82a94:	40 07 e8                	b.beqi     r7,0x0,82aab <v6LP_Tick+0x277>
   82a97:	cc c7 5c 80             	b.lwz      r6,0x138(r7)
   82a9b:	8c c0 3d 50 00 20       	b.sw       0x4000abc(r0),r6
   82aa1:	98 c0 59 12 90 00       	b.ori      r6,r0,0x9489a
   82aa7:	cc c7 1c 80             	b.sw       0x138(r7),r6
   82aab:	84 80 14 c0 00 20       	b.lbz      r4,0x4000328(r0)
   82ab1:	98 e0 24 2f 00 00       	b.ori      r7,r0,0xf424
   82ab7:	98 60 03 50 00 20       	b.ori      r3,r0,0x4000ac0
   82abd:	64 84 3b                	b.mul      r4,r4,r7
   82ac0:	4b 36 ec                	b.jal      90873 <TSV_eStart>
   82ac3:	28 ea d8                	b.lhz      r7,0x1a(r10)
   82ac6:	8d a0 59 70 00 20       	b.lwz      r13,0x4000e98(r0)
   82acc:	00 60                   	b.movi     r3,0x0
   82ace:	28 ed 19                	b.sh       0x98(r13),r7
   82ad1:	24 ed 12                	b.lbz      r7,0x48(r13)
   82ad4:	40 87 9a                	b.beqi     r7,0x1,82b2d <v6LP_Tick+0x2f9>
   82ad7:	2c 8a 44                	b.lwz      r4,0x20(r10)
   82ada:	40 04 a2                	b.beqi     r4,0x0,82b1f <v6LP_Tick+0x2eb>
   82add:	24 e4 00                	b.lbz      r7,0x0(r4)
   82ae0:	d2 38 7f c0             	b.bleui    r7,0x7,82b1f <v6LP_Tick+0x2eb>
   82ae4:	00 98                   	b.addi     r4,r4,0x1
   82ae6:	38 a0 10                	b.ori      r5,r0,0x8
   82ae9:	30 61 10                	b.addi     r3,r1,0x8
   82aec:	d4 0e ab ef             	b.jal      5c <memcpy>
   82af0:	50 c1 10                	b.mlwz     r6,0x8(r1),0x0
   82af3:	98 60 f2 60 00 20       	b.ori      r3,r0,0x400064f
   82af9:	30 81 08                	b.addi     r4,r1,0x10
   82afc:	38 a0 10                	b.ori      r5,r0,0x8
   82aff:	2c ed 3e                	b.sw       0x7c(r13),r7
   82b02:	2c cd 01                	b.sw       0x80(r13),r6
   82b05:	54 c1 08                	b.msw      0x10(r1),r6,0x0
   82b08:	d4 2a ab ef             	b.jal      5c <memcpy>
   82b0c:	84 e0 72 60 00 20       	b.lbz      r7,0x400064e(r0)
   82b12:	d1 f8 7b 00             	b.bgtui    r7,0x7,82b1f <v6LP_Tick+0x2eb>
   82b16:	38 e0 10                	b.ori      r7,r0,0x8
   82b19:	80 e0 72 60 00 20       	b.sb       0x400064e(r0),r7
   82b1f:	88 60 b2 60 00 20       	b.lhz      r3,0x400064c(r0)
   82b25:	48 af fc                	b.jal      92af9 <eCreateSocket.6996>
   82b28:	4b 66 ec                	b.jal      908c3 <vStartTrapTimer>
   82b2b:	00 68                   	b.movi     r3,0x1
   82b2d:	30 8a 10                	b.addi     r4,r10,0x8
   82b30:	04 ab                   	b.mov      r5,r11
   82b32:	46 15 40                	b.j        82dda <v6LP_Tick+0x5a6>
   82b35:	2c ea 40                	b.lwz      r7,0x0(r10)
   82b38:	30 84 cf                	b.addi     r4,r4,-0xd
   82b3b:	3e 04 20                	b.extbz    r4,r4
   82b3e:	2c e1 24                	b.sw       0x24(r1),r7
   82b41:	90 84 38 60 10 00       	b.addi     r4,r4,0x8061c
   82b47:	2c ea 60                	b.lwz      r7,0x4(r10)
   82b4a:	2c e1 14                	b.sw       0x28(r1),r7
   82b4d:	00 e7                   	b.movi     r7,-0x2
   82b4f:	28 e1 0c                	b.sh       0x30(r1),r7
   82b52:	2c ea 50                	b.lwz      r7,0x8(r10)
   82b55:	25 44 00                	b.lbz      r10,0x0(r4)
   82b58:	2c e1 34                	b.sw       0x2c(r1),r7
   82b5b:	3c aa 50                	b.sfgtui   r10,0xa
   82b5e:	47 24 c0                	b.bf       82b90 <v6LP_Tick+0x35c>
   82b61:	00 c8                   	b.movi     r6,0x1
   82b63:	3e 0a 39                	b.extbs    r7,r10
   82b66:	60 e6 3e                	b.sll      r7,r6,r7
   82b69:	94 c7 31 a0 00 00       	b.andi     r6,r7,0x58c
   82b6f:	41 06 d0                	b.bnei     r6,0x0,82b7a <v6LP_Tick+0x346>
   82b72:	34 e7 40                	b.andi     r7,r7,0x2
   82b75:	41 07 f0                	b.bnei     r7,0x0,82b84 <v6LP_Tick+0x350>
   82b78:	0c 60                   	b.j        82b90 <v6LP_Tick+0x35c>
   82b7a:	30 81 24                	b.addi     r4,r1,0x24
   82b7d:	04 6a                   	b.mov      r3,r10
   82b7f:	48 d7 1c                	b.jal      90f2b <vNetworkModule_Update>
   82b82:	0d c0                   	b.j        82b90 <v6LP_Tick+0x35c>
   82b84:	88 60 b2 60 00 20       	b.lhz      r3,0x400064c(r0)
   82b8a:	4b db fc                	b.jal      92af9 <eCreateSocket.6996>
   82b8d:	49 b2 ec                	b.jal      908c3 <vStartTrapTimer>
   82b90:	04 6a                   	b.mov      r3,r10
   82b92:	30 81 24                	b.addi     r4,r1,0x24
   82b95:	38 a0 08                	b.ori      r5,r0,0x10
   82b98:	46 42 40                	b.j        82dda <v6LP_Tick+0x5a6>
   82b9b:	8c e0 59 70 00 20       	b.lwz      r7,0x4000e98(r0)
   82ba1:	2c e7 63                	b.lwz      r7,0xc4(r7)
   82ba4:	40 07 60                	b.beqi     r7,0x0,82baa <v6LP_Tick+0x376>
   82ba7:	47 d1 38                	b.jalr     r7
   82baa:	00 6a                   	b.movi     r3,0x5
   82bac:	0e 07                   	b.j        82b2d <v6LP_Tick+0x2f9>
   82bae:	38 60 90                	b.ori      r3,r0,0x9
   82bb1:	46 24 40                	b.j        82dd5 <v6LP_Tick+0x5a1>
   82bb4:	88 e0 96 60 00 20       	b.lhz      r7,0x4000668(r0)
   82bba:	2c 01 25                	b.sw       0xa4(r1),r0
   82bbd:	04 61                   	b.mov      r3,r1
   82bbf:	2c 01 0d                	b.sw       0xb0(r1),r0
   82bc2:	2c 01 2d                	b.sw       0xb4(r1),r0
   82bc5:	2c 01 1d                	b.sw       0xb8(r1),r0
   82bc8:	2c 01 3d                	b.sw       0xbc(r1),r0
   82bcb:	28 e1 15                	b.sh       0xa8(r1),r7
   82bce:	48 81 f8                	b.jal      8a9d2 <i6LP_DefGetDataBuffer>
   82bd1:	d0 40 33 04             	b.bnei     r3,0x0,82ddd <v6LP_Tick+0x5a9>
   82bd5:	2c 61 40                	b.lwz      r3,0x0(r1)
   82bd8:	38 a0 10                	b.ori      r5,r0,0x8
   82bdb:	04 8a                   	b.mov      r4,r10
   82bdd:	20 03 00                	b.sb       0x0(r3),r0
   82be0:	20 03 80                	b.sb       0x1(r3),r0
   82be3:	00 74                   	b.addi     r3,r3,0x2
   82be5:	d4 ee 2b ef             	b.jal      5c <memcpy>
   82be9:	2c 81 40                	b.lwz      r4,0x0(r1)
   82bec:	8c 60 58 80 00 20       	b.lwz      r3,0x4000118(r0)
   82bf2:	38 a0 50                	b.ori      r5,r0,0xa
   82bf5:	d8 c1 25 00             	b.addi     r6,r1,0xa4
   82bf9:	49 76 78                	b.jal      8a5b3 <i6LP_DefSendTo.constprop.49>
   82bfc:	0e 1e                   	b.j        82ddd <v6LP_Tick+0x5a9>
   82bfe:	38 60 30                	b.ori      r3,r0,0xc
   82c01:	0c ae                   	b.j        82dd5 <v6LP_Tick+0x5a1>
   82c03:	24 ea c8                	b.lbz      r7,0x13(r10)
   82c06:	30 cb 2f                	b.addi     r6,r11,-0xc
   82c09:	31 aa 10                	b.addi     r13,r10,0x8
   82c0c:	3e 06 30                	b.extbz    r6,r6
   82c0f:	40 67 22                	b.beqi     r7,0x6,82c53 <v6LP_Tick+0x41f>
   82c12:	d1 d8 7b 00             	b.bgtui    r7,0x6,82c1f <v6LP_Tick+0x3eb>
   82c16:	40 47 b8                	b.beqi     r7,0x2,82c33 <v6LP_Tick+0x3ff>
   82c19:	d0 48 72 38             	b.bnei     r7,0x4,82ddd <v6LP_Tick+0x5a9>
   82c1d:	0d b0                   	b.j        82c53 <v6LP_Tick+0x41f>
   82c1f:	9d 87 21 00 00 00       	b.sfeqi    r7,0x84
   82c25:	47 27 c8                	b.bf       82d63 <v6LP_Tick+0x52f>
   82c28:	9d 87 61 00 00 00       	b.sfeqi    r7,0x86
   82c2e:	47 3f 58                	b.bnf      82ddd <v6LP_Tick+0x5a9>
   82c31:	0d 32                   	b.j        82d63 <v6LP_Tick+0x52f>
   82c33:	8c 60 77 50 00 20       	b.lwz      r3,0x4000aec(r0)
   82c39:	84 a0 0b 50 00 20       	b.lbz      r5,0x4000ad0(r0)
   82c3f:	84 e0 94 c0 00 20       	b.lbz      r7,0x4000329(r0)
   82c45:	30 8a 28                	b.addi     r4,r10,0x14
   82c48:	49 44 e2                	b.jal      948d2 <u8DecompressAddrs.17253>
   82c4b:	80 60 0b 50 00 20       	b.sb       0x4000ad0(r0),r3
   82c51:	0c c6                   	b.j        82ddd <v6LP_Tick+0x5a9>
   82c53:	8c e0 59 70 00 20       	b.lwz      r7,0x4000e98(r0)
   82c59:	24 e7 12                	b.lbz      r7,0x48(r7)
   82c5c:	d0 60 70 f0             	b.bnei     r7,0x1,82d4c <v6LP_Tick+0x518>
   82c60:	d9 c1 23 00             	b.addi     r14,r1,0xc4
   82c64:	30 8a 28                	b.addi     r4,r10,0x14
   82c67:	04 6e                   	b.mov      r3,r14
   82c69:	00 a0                   	b.movi     r5,0x0
   82c6b:	00 e2                   	b.movi     r7,0x4
   82c6d:	4a 98 e2                	b.jal      948d2 <u8DecompressAddrs.17253>
   82c70:	05 63                   	b.mov      r11,r3
   82c72:	d0 00 3d 68             	b.beqi     r3,0x0,82ddd <v6LP_Tick+0x5a9>
   82c76:	24 ea c8                	b.lbz      r7,0x13(r10)
   82c79:	41 27 5c                	b.bnei     r7,0x4,82cb3 <v6LP_Tick+0x47f>
   82c7c:	0d 60                   	b.j        82c96 <v6LP_Tick+0x462>
   82c7e:	6c 6d 20                	b.slli     r3,r13,0x4
   82c81:	08 6e                   	b.add      r3,r3,r14
   82c83:	01 b8                   	b.addi     r13,r13,0x1
   82c85:	8c 80 77 50 00 20       	b.lwz      r4,0x4000aec(r0)
   82c8b:	4b 47 c0                	b.jal      83c16 <u8GroupAddUnique.17248>
   82c8e:	80 60 0b 50 00 20       	b.sb       0x4000ad0(r0),r3
   82c94:	0c 80                   	b.j        82c98 <v6LP_Tick+0x464>
   82c96:	01 a0                   	b.movi     r13,0x0
   82c98:	84 a0 0b 50 00 20       	b.lbz      r5,0x4000ad0(r0)
   82c9e:	84 e0 94 c0 00 20       	b.lbz      r7,0x4000329(r0)
   82ca4:	d3 8a 71 00             	b.bgeu     r5,r7,82cac <v6LP_Tick+0x478>
   82ca8:	d3 56 d6 bf             	b.bgts     r11,r13,82c7e <v6LP_Tick+0x44a>
   82cac:	00 e8                   	b.movi     r7,0x1
   82cae:	20 e1 82                	b.sb       0x41(r1),r7
   82cb1:	0e 80                   	b.j        82cb6 <v6LP_Tick+0x482>
   82cb3:	20 01 82                	b.sb       0x41(r1),r0
   82cb6:	24 aa c8                	b.lbz      r5,0x13(r10)
   82cb9:	d9 a1 23 00             	b.addi     r13,r1,0xc4
   82cbd:	04 8b                   	b.mov      r4,r11
   82cbf:	04 6d                   	b.mov      r3,r13
   82cc1:	4a 62 04                	b.jal      8adda <bGenerateMLDv2.17228>
   82cc4:	31 ca d0                	b.addi     r14,r10,0xb
   82cc7:	38 a0 10                	b.ori      r5,r0,0x8
   82cca:	30 61 2c                	b.addi     r3,r1,0x34
   82ccd:	04 8e                   	b.mov      r4,r14
   82ccf:	d4 b1 cb ef             	b.jal      5c <memcpy>
   82cd3:	38 60 d0                	b.ori      r3,r0,0xb
   82cd6:	30 81 2c                	b.addi     r4,r1,0x34
   82cd9:	38 a0 08                	b.ori      r5,r0,0x10
   82cdc:	2d a1 3c                	b.sw       0x3c(r1),r13
   82cdf:	21 61 02                	b.sb       0x40(r1),r11
   82ce2:	4a ef 44                	b.jal      8b8bf <vJIP_StackEvent>
   82ce5:	38 e0 04                	b.ori      r7,r0,0x20
   82ce8:	38 a0 10                	b.ori      r5,r0,0x8
   82ceb:	30 61 38                	b.addi     r3,r1,0x1c
   82cee:	04 8e                   	b.mov      r4,r14
   82cf0:	c0 e1 22 80             	b.sb       0x144(r1),r7
   82cf4:	38 e0 0a                	b.ori      r7,r0,0x50
   82cf7:	c0 e1 62 80             	b.sb       0x146(r1),r7
   82cfb:	24 ea c8                	b.lbz      r7,0x13(r10)
   82cfe:	30 e7 01                	b.addi     r7,r7,-0x80
   82d01:	c0 e1 f2 80             	b.sb       0x14f(r1),r7
   82d05:	d4 ea cb ef             	b.jal      5c <memcpy>
   82d09:	2c e1 78                	b.lwz      r7,0x1c(r1)
   82d0c:	98 80 20 e0 00 20       	b.ori      r4,r0,0x4000704
   82d12:	38 a0 10                	b.ori      r5,r0,0x8
   82d15:	04 6e                   	b.mov      r3,r14
   82d17:	cc e1 0a 80             	b.sw       0x150(r1),r7
   82d1b:	2c e1 44                	b.lwz      r7,0x20(r1)
   82d1e:	cc e1 2a 80             	b.sw       0x154(r1),r7
   82d22:	d4 5c cb ef             	b.jal      5c <memcpy>
   82d26:	d8 61 1a 80             	b.addi     r3,r1,0x158
   82d2a:	04 8d                   	b.mov      r4,r13
   82d2c:	04 ab                   	b.mov      r5,r11
   82d2e:	48 53 c0                	b.jal      83c56 <u8CompressAddrs.17233>
   82d31:	30 e3 28                	b.addi     r7,r3,0x14
   82d34:	00 80                   	b.movi     r4,0x0
   82d36:	8c 60 7f 60 00 20       	b.lwz      r3,0x40006fc(r0)
   82d3c:	30 a1 38                	b.addi     r5,r1,0x1c
   82d3f:	d8 63 19 80             	b.addi     r3,r3,0x198
   82d43:	d8 c1 22 80             	b.addi     r6,r1,0x144
   82d47:	3e 07 3a                	b.exthz    r7,r7
   82d4a:	0f 04                   	b.j        82dcd <v6LP_Tick+0x599>
   82d4c:	8c 60 7f 60 00 20       	b.lwz      r3,0x40006fc(r0)
   82d52:	00 80                   	b.movi     r4,0x0
   82d54:	d8 63 19 80             	b.addi     r3,r3,0x198
   82d58:	00 a0                   	b.movi     r5,0x0
   82d5a:	04 cd                   	b.mov      r6,r13
   82d5c:	04 eb                   	b.mov      r7,r11
   82d5e:	48 6e 02                	b.jal      92f36 <eNwk_TransmitPacketVect>
   82d61:	0c f8                   	b.j        82ddd <v6LP_Tick+0x5a9>
   82d63:	30 61 38                	b.addi     r3,r1,0x1c
   82d66:	30 8a 28                	b.addi     r4,r10,0x14
   82d69:	38 a0 10                	b.ori      r5,r0,0x8
   82d6c:	d4 0f 4b ef             	b.jal      5c <memcpy>
   82d70:	8c e0 50 e0 00 20       	b.lwz      r7,0x4000708(r0)
   82d76:	2c c1 44                	b.lwz      r6,0x20(r1)
   82d79:	d2 cc 78 20             	b.bne      r6,r7,82dba <v6LP_Tick+0x586>
   82d7d:	8c e0 60 e0 00 20       	b.lwz      r7,0x4000704(r0)
   82d83:	2c c1 78                	b.lwz      r6,0x1c(r1)
   82d86:	d2 cc 72 c0             	b.bne      r6,r7,82dba <v6LP_Tick+0x586>
   82d8a:	30 8a 38                	b.addi     r4,r10,0x1c
   82d8d:	30 cb 37                	b.addi     r6,r11,-0x14
   82d90:	d8 61 23 00             	b.addi     r3,r1,0xc4
   82d94:	00 a0                   	b.movi     r5,0x0
   82d96:	3e 06 30                	b.extbz    r6,r6
   82d99:	00 e2                   	b.movi     r7,0x4
   82d9b:	4b b3 62                	b.jal      948d2 <u8DecompressAddrs.17253>
   82d9e:	24 aa c8                	b.lbz      r5,0x13(r10)
   82da1:	30 e0 21                	b.addi     r7,r0,-0x7c
   82da4:	60 a5 3a                	b.xor      r5,r5,r7
   82da7:	3e 05 28                	b.extbz    r5,r5
   82daa:	00 bf                   	b.addi     r5,r5,-0x1
   82dac:	04 83                   	b.mov      r4,r3
   82dae:	6c a5 f9                	b.srli     r5,r5,0x1f
   82db1:	d8 61 23 00             	b.addi     r3,r1,0xc4
   82db5:	4a b6 b0                	b.jal      8636a <v6LP_SocketGroupChangeAcked>
   82db8:	0e 90                   	b.j        82ddd <v6LP_Tick+0x5a9>
   82dba:	8c 60 7f 60 00 20       	b.lwz      r3,0x40006fc(r0)
   82dc0:	30 a1 38                	b.addi     r5,r1,0x1c
   82dc3:	d8 63 19 80             	b.addi     r3,r3,0x198
   82dc7:	04 8a                   	b.mov      r4,r10
   82dc9:	04 cd                   	b.mov      r6,r13
   82dcb:	04 eb                   	b.mov      r7,r11
   82dcd:	4a 8e 74                	b.jal      8e792 <ePAR_RoutePacketVect>
   82dd0:	0e c0                   	b.j        82ddd <v6LP_Tick+0x5a9>
   82dd2:	38 60 b0                	b.ori      r3,r0,0xd
   82dd5:	38 a0 10                	b.ori      r5,r0,0x8
   82dd8:	04 8a                   	b.mov      r4,r10
   82dda:	4a 9d 44                	b.jal      8b8bf <vJIP_StackEvent>
   82ddd:	84 e0 95 50 00 20       	b.lbz      r7,0x4000aa9(r0)
   82de3:	84 c0 04 c0 00 20       	b.lbz      r6,0x4000320(r0)
   82de9:	00 f8                   	b.addi     r7,r7,0x1
   82deb:	3e 07 38                	b.extbz    r7,r7
   82dee:	3d e6 38                	b.sfgtu    r6,r7
   82df1:	64 e7 02                	b.cmov     r7,r7,r0
   82df4:	80 e0 95 50 00 20       	b.sb       0x4000aa9(r0),r7
   82dfa:	84 c0 95 50 00 20       	b.lbz      r6,0x4000aa9(r0)
   82e00:	84 e0 15 50 00 20       	b.lbz      r7,0x4000aa8(r0)
   82e06:	3e 06 30                	b.extbz    r6,r6
   82e09:	3e 07 38                	b.extbz    r7,r7
   82e0c:	d2 cc 74 55             	b.bne      r6,r7,828ae <v6LP_Tick+0x7a>
   82e10:	30 61 20                	b.addi     r3,r1,0x4
   82e13:	4b 72 e0                	b.jal      84b4e <vMicroIntEnableOnly.constprop.108>
   82e16:	8c e0 42 60 00 20       	b.lwz      r7,0x4000640(r0)
   82e1c:	40 07 44                	b.beqi     r7,0x0,82e3e <v6LP_Tick+0x60a>
   82e1f:	8c c0 74 c0 00 20       	b.lwz      r6,0x400032c(r0)
   82e25:	60 ec 3d                	b.sub      r7,r12,r7
   82e28:	d3 cc 76 80             	b.bgtu     r6,r7,82e3e <v6LP_Tick+0x60a>
   82e2c:	8c 00 3c 60 00 20       	b.sw       0x400063c(r0),r0
   82e32:	8c 00 1c 60 00 20       	b.sw       0x4000638(r0),r0
   82e38:	8c 00 02 60 00 20       	b.sw       0x4000640(r0),r0
   82e3e:	8c e0 7c 60 00 20       	b.lwz      r7,0x400063c(r0)
   82e44:	8c 60 52 60 00 20       	b.lwz      r3,0x4000648(r0)
   82e4a:	8c c0 5c 60 00 20       	b.lwz      r6,0x4000638(r0)
   82e50:	60 e7 18                	b.and      r7,r7,r3
   82e53:	3c 2c 00                	b.sfnei    r12,0x0
   82e56:	8c e0 3c 60 00 20       	b.sw       0x400063c(r0),r7
   82e5c:	98 80 3c 60 00 20       	b.ori      r4,r0,0x400063c
   82e62:	d8 a1 20 80             	b.addi     r5,r1,0x104
   82e66:	01 e8                   	b.movi     r15,0x1
   82e68:	8c e0 62 60 00 20       	b.lwz      r7,0x4000644(r0)
   82e6e:	65 ec 7a                	b.cmov     r15,r12,r15
   82e71:	60 e6 38                	b.and      r7,r6,r7
   82e74:	01 68                   	b.movi     r11,0x1
   82e76:	8c e0 1c 60 00 20       	b.sw       0x4000638(r0),r7
   82e7c:	4b 8d c0                	b.jal      83d43 <u8GetChangedButUnnotifiedGroups.16300>
   82e7f:	05 43                   	b.mov      r10,r3
   82e81:	41 03 04                	b.bnei     r3,0x0,82ea1 <v6LP_Tick+0x66d>
   82e84:	8c 60 62 60 00 20       	b.lwz      r3,0x4000644(r0)
   82e8a:	98 80 1c 60 00 20       	b.ori      r4,r0,0x4000638
   82e90:	d8 a1 20 80             	b.addi     r5,r1,0x104
   82e94:	4b d5 c0                	b.jal      83d43 <u8GetChangedButUnnotifiedGroups.16300>
   82e97:	01 64                   	b.movi     r11,0x2
   82e99:	3c 03 00                	b.sfeqi    r3,0x0
   82e9c:	65 6b 02                	b.cmov     r11,r11,r0
   82e9f:	05 43                   	b.mov      r10,r3
   82ea1:	30 61 20                	b.addi     r3,r1,0x4
   82ea4:	49 7c 10                	b.jal      84f9e <vMicroIntRestoreState>
   82ea7:	d0 10 bc 10             	b.beqi     r11,0x2,82f2a <v6LP_Tick+0x6f6>
   82eab:	00 e2                   	b.movi     r7,0x4
   82ead:	3c 0b 00                	b.sfeqi    r11,0x0
   82eb0:	00 a6                   	b.movi     r5,0x6
   82eb2:	64 a5 3a                	b.cmov     r5,r5,r7
   82eb5:	01 a8                   	b.movi     r13,0x1
   82eb7:	8c e0 6f 60 00 20       	b.lwz      r7,0x40006f4(r0)
   82ebd:	c8 e7 8a 80             	b.lhz      r7,0x150(r7)
   82ec1:	34 e7 80                	b.andi     r7,r7,0x1
   82ec4:	41 07 54                	b.bnei     r7,0x0,82eee <v6LP_Tick+0x6ba>
   82ec7:	8c e0 59 70 00 20       	b.lwz      r7,0x4000e98(r0)
   82ecd:	d8 61 20 80             	b.addi     r3,r1,0x104
   82ed1:	04 8a                   	b.mov      r4,r10
   82ed3:	24 e7 12                	b.lbz      r7,0x48(r7)
   82ed6:	41 87 c8                	b.bnei     r7,0x1,82ee9 <v6LP_Tick+0x6b5>
   82ed9:	4a 03 f8                	b.jal      8adda <bGenerateMLDv2.17228>
   82edc:	d8 61 20 80             	b.addi     r3,r1,0x104
   82ee0:	04 8a                   	b.mov      r4,r10
   82ee2:	04 ab                   	b.mov      r5,r11
   82ee4:	49 84 b0                	b.jal      8636a <v6LP_SocketGroupChangeAcked>
   82ee7:	0e 80                   	b.j        82eec <v6LP_Tick+0x6b8>
   82ee9:	49 13 0c                	b.jal      8f20b <bGenerateJenNetGcastInfo.17238>
   82eec:	01 a0                   	b.movi     r13,0x0
   82eee:	d9 c1 20 80             	b.addi     r14,r1,0x104
   82ef2:	38 60 d0                	b.ori      r3,r0,0xb
   82ef5:	30 81 2c                	b.addi     r4,r1,0x34
   82ef8:	38 a0 08                	b.ori      r5,r0,0x10
   82efb:	2c 01 2c                	b.sw       0x34(r1),r0
   82efe:	2c 01 1c                	b.sw       0x38(r1),r0
   82f01:	2d c1 3c                	b.sw       0x3c(r1),r14
   82f04:	21 41 02                	b.sb       0x40(r1),r10
   82f07:	21 61 82                	b.sb       0x41(r1),r11
   82f0a:	4a b6 44                	b.jal      8b8bf <vJIP_StackEvent>
   82f0d:	41 0d 30                	b.bnei     r13,0x0,82f19 <v6LP_Tick+0x6e5>
   82f10:	8c e0 74 c0 00 20       	b.lwz      r7,0x400032c(r0)
   82f16:	41 07 70                	b.bnei     r7,0x0,82f24 <v6LP_Tick+0x6f0>
   82f19:	04 6e                   	b.mov      r3,r14
   82f1b:	04 8a                   	b.mov      r4,r10
   82f1d:	04 ab                   	b.mov      r5,r11
   82f1f:	4b 48 b0                	b.jal      8636a <v6LP_SocketGroupChangeAcked>
   82f22:	0c 40                   	b.j        82f2a <v6LP_Tick+0x6f6>
   82f24:	8d e0 02 60 00 20       	b.sw       0x4000640(r0),r15
   82f2a:	84 e0 07 50 00 20       	b.lbz      r7,0x4000ae0(r0)
   82f30:	40 07 d8                	b.beqi     r7,0x0,82f4b <v6LP_Tick+0x717>
   82f33:	84 60 87 50 00 20       	b.lbz      r3,0x4000ae1(r0)
   82f39:	84 80 47 50 00 20       	b.lbz      r4,0x4000ae2(r0)
   82f3f:	4a 4e 4c                	b.jal      8f908 <bJnc_ResetStackVect>
   82f42:	41 83 90                	b.bnei     r3,0x1,82f4b <v6LP_Tick+0x717>
   82f45:	80 00 07 50 00 20       	b.sb       0x4000ae0(r0),r0
   82f4b:	8c e0 7b 50 00 20       	b.lwz      r7,0x4000adc(r0)
   82f51:	24 e7 00                	b.lbz      r7,0x0(r7)
   82f54:	d0 40 7b 54             	b.bnei     r7,0x0,83201 <v6LP_Tick+0x9cd>
   82f58:	99 60 1f ed 00 00       	b.ori      r11,r0,0xb7f8
   82f5e:	01 48                   	b.movi     r10,0x1
   82f60:	8c e0 7f 60 00 20       	b.lwz      r7,0x40006fc(r0)
   82f66:	84 a0 24 c0 00 20       	b.lbz      r5,0x4000324(r0)
   82f6c:	c4 c7 26 80             	b.lbz      r6,0x164(r7)
   82f70:	d2 8a 65 00             	b.beq      r5,r6,82f7a <v6LP_Tick+0x746>
   82f74:	80 c0 24 c0 00 20       	b.sb       0x4000324(r0),r6
   82f7a:	30 a6 ff                	b.addi     r5,r6,-0x1
   82f7d:	3e 05 28                	b.extbz    r5,r5
   82f80:	3c a5 08                	b.sfgtui   r5,0x10
   82f83:	47 2e 64                	b.bf       831ea <v6LP_Tick+0x9b6>
   82f86:	6c a5 40                	b.slli     r5,r5,0x2
   82f89:	90 a5 19 f4 10 00       	b.addi     r5,r5,0x82f98
   82f8f:	2c a5 40                	b.lwz      r5,0x0(r5)
   82f92:	47 d2 28                	b.jr       r5
   82f95:	00 00                   	b.trap     0x0
   82f97:	00 00                   	b.trap     0x0
   82f99:	08 2f                   	b.add      r1,r1,r15
   82f9b:	dc 00 08 30             	f.beq.s    r0,r0,8305c <v6LP_Tick+0x828>
   82f9f:	07 00                   	b.mov      r24,r0
   82fa1:	08 30                   	b.add      r1,r1,r16
   82fa3:	76 00 08                	b.adds     r16,r0,r1
   82fa6:	31 02 00                	b.addi     r8,r2,0x0
   82fa9:	08 31                   	b.add      r1,r1,r17
   82fab:	3a 00 08                	b.ori      r16,r0,0x10
   82fae:	31 3a 00                	b.addi     r9,r26,0x0
   82fb1:	08 31                   	b.add      r1,r1,r17
   82fb3:	48 00 08                	b.jal      86fb3 <vInitCoordRtrStateVect+0x179>
   82fb6:	31 48 00                	b.addi     r10,r8,0x0
   82fb9:	08 31                   	b.add      r1,r1,r17
   82fbb:	60 00 08                	b.and      r0,r0,r1
   82fbe:	31 65 00                	b.addi     r11,r5,0x0
   82fc1:	08 31                   	b.add      r1,r1,r17
   82fc3:	7b 00 08                	b.slls     r24,r0,r1
   82fc6:	31 92 00                	b.addi     r12,r18,0x0
   82fc9:	08 31                   	b.add      r1,r1,r17
   82fcb:	ea                      	.word 0xea
   82fcc:	00 08                   	b.trap     0x1
   82fce:	31 ea 00                	b.addi     r15,r10,0x0
   82fd1:	08 31                   	b.add      r1,r1,r17
   82fd3:	b7 00 08 30 19 00       	b.copd     r24,0x980c10,0x0
   82fd9:	08 30                   	b.add      r1,r1,r16
   82fdb:	5c                      	.word 0x5c
   82fdc:	00 68                   	b.movi     r3,0x1
   82fde:	4b 12 f0                	b.jal      86d01 <eJnc_StartScanVect>
   82fe1:	41 03 08                	b.bnei     r3,0x0,82ff1 <v6LP_Tick+0x7bd>
   82fe4:	8c e0 7f 60 00 20       	b.lwz      r7,0x40006fc(r0)
   82fea:	00 c4                   	b.movi     r6,0x2
   82fec:	2c 07 17                	b.sw       0xe8(r7),r0
   82fef:	0f 5a                   	b.j        8315a <v6LP_Tick+0x926>
   82ff1:	8c e0 6f 60 00 20       	b.lwz      r7,0x40006f4(r0)
   82ff7:	00 60                   	b.movi     r3,0x0
   82ff9:	c4 e7 30 80             	b.lbz      r7,0x10c(r7)
   82ffd:	00 88                   	b.movi     r4,0x1
   82fff:	3c a7 10                	b.sfgtui   r7,0x8
   83002:	47 2e 70                	b.bf       830e9 <v6LP_Tick+0x8b5>
   83005:	0e 9e                   	b.j        831ea <v6LP_Tick+0x9b6>
   83007:	2c c7 57                	b.lwz      r6,0xe8(r7)
   8300a:	9f 46 34 80 00 00       	b.sfleui   r6,0x12c
   83010:	47 25 b8                	b.bf       831ea <v6LP_Tick+0x9b6>
   83013:	c1 47 26 80             	b.sb       0x164(r7),r10
   83017:	0f 2e                   	b.j        831ea <v6LP_Tick+0x9b6>
   83019:	84 60 6b 50 00 20       	b.lbz      r3,0x4000ad6(r0)
   8301f:	4b 0b 30                	b.jal      86362 <vMiniMac_PLME_SetReq_Channel>
   83022:	88 60 ab 50 00 20       	b.lhz      r3,0x4000ad4(r0)
   83028:	48 38 e0                	b.jal      84c98 <vMiniMac_MLME_SetReq_PanId>
   8302b:	8d c0 7f 60 00 20       	b.lwz      r14,0x40006fc(r0)
   83031:	49 18 a4                	b.jal      8c493 <rand>
   83034:	8c e0 40 e0 00 20       	b.lwz      r7,0x4000700(r0)
   8303a:	29 a7 90                	b.lhz      r13,0x8(r7)
   8303d:	28 87 d0                	b.lhz      r4,0xa(r7)
   83040:	60 84 6d                	b.sub      r4,r4,r13
   83043:	00 98                   	b.addi     r4,r4,0x1
   83045:	4b 3f d2                	b.jal      96038 <__modsi3>
   83048:	8c e0 7f 60 00 20       	b.lwz      r7,0x40006fc(r0)
   8304e:	08 6d                   	b.add      r3,r3,r13
   83050:	38 c0 88                	b.ori      r6,r0,0x11
   83053:	c8 6e 05 80             	b.sh       0x1a0(r14),r3
   83057:	2c 07 17                	b.sw       0xe8(r7),r0
   8305a:	0c 02                   	b.j        8315a <v6LP_Tick+0x926>
   8305c:	c8 c7 85 80             	b.lhz      r6,0x1a0(r7)
   83060:	2c a7 57                	b.lwz      r5,0xe8(r7)
   83063:	d3 8c 5e 18             	b.bgeu     r6,r5,831ea <v6LP_Tick+0x9b6>
   83067:	c8 67 ee 80             	b.lhz      r3,0x176(r7)
   8306b:	80 00 eb 50 00 20       	b.sb       0x4000ad7(r0),r0
   83071:	4b 90 e0                	b.jal      84c98 <vMiniMac_MLME_SetReq_PanId>
   83074:	0c f4                   	b.j        83130 <v6LP_Tick+0x8fc>
   83076:	c4 c7 a6 80             	b.lbz      r6,0x165(r7)
   8307a:	41 06 14                	b.bnei     r6,0x0,830a2 <v6LP_Tick+0x86e>
   8307d:	8c c0 6f 60 00 20       	b.lwz      r6,0x40006f4(r0)
   83083:	c4 a6 58 80             	b.lbz      r5,0x11a(r6)
   83087:	41 05 d8                	b.bnei     r5,0x0,830a2 <v6LP_Tick+0x86e>
   8308a:	8c e0 40 e0 00 20       	b.lwz      r7,0x4000700(r0)
   83090:	c1 46 58 80             	b.sb       0x11a(r6),r10
   83094:	98 a0 c7 43 10 00       	b.ori      r5,r0,0x8c2e3
   8309a:	28 67 90                	b.lhz      r3,0x8(r7)
   8309d:	28 87 d0                	b.lhz      r4,0xa(r7)
   830a0:	0e dc                   	b.j        8318d <v6LP_Tick+0x959>
   830a2:	84 c0 eb 50 00 20       	b.lbz      r6,0x4000ad7(r0)
   830a8:	40 06 10                	b.beqi     r6,0x0,830b0 <v6LP_Tick+0x87c>
   830ab:	38 c0 08                	b.ori      r6,r0,0x10
   830ae:	0c d4                   	b.j        8315a <v6LP_Tick+0x926>
   830b0:	8c e0 6f 60 00 20       	b.lwz      r7,0x40006f4(r0)
   830b6:	c4 c7 08 80             	b.lbz      r6,0x110(r7)
   830ba:	40 06 84                	b.beqi     r6,0x0,830db <v6LP_Tick+0x8a7>
   830bd:	88 c0 93 60 00 20       	b.lhz      r6,0x40006c8(r0)
   830c3:	9f 46 ff 00 00 00       	b.sfleui   r6,0xff
   830c9:	47 24 80                	b.bf       830db <v6LP_Tick+0x8a7>
   830cc:	84 c0 6b 50 00 20       	b.lbz      r6,0x4000ad6(r0)
   830d2:	40 06 90                	b.beqi     r6,0x0,830db <v6LP_Tick+0x8a7>
   830d5:	81 40 eb 50 00 20       	b.sb       0x4000ad7(r0),r10
   830db:	c4 e7 30 80             	b.lbz      r7,0x10c(r7)
   830df:	00 60                   	b.movi     r3,0x0
   830e1:	3c e7 10                	b.sfleui   r7,0x8
   830e4:	47 25 00                	b.bf       830ee <v6LP_Tick+0x8ba>
   830e7:	00 8c                   	b.movi     r4,0x3
   830e9:	4b e0 4c                	b.jal      8f908 <bJnc_ResetStackVect>
   830ec:	0d fc                   	b.j        831ea <v6LP_Tick+0x9b6>
   830ee:	4b 20 f0                	b.jal      86d01 <eJnc_StartScanVect>
   830f1:	d0 40 39 f0             	b.bnei     r3,0x0,831ea <v6LP_Tick+0x9b6>
   830f5:	8c e0 7f 60 00 20       	b.lwz      r7,0x40006fc(r0)
   830fb:	00 c2                   	b.movi     r6,0x4
   830fd:	2c 07 17                	b.sw       0xe8(r7),r0
   83100:	0d 68                   	b.j        8315a <v6LP_Tick+0x926>
   83102:	2c e7 57                	b.lwz      r7,0xe8(r7)
   83105:	9f 47 34 80 00 00       	b.sfleui   r7,0x12c
   8310b:	47 2f b0                	b.bf       831ea <v6LP_Tick+0x9b6>
   8310e:	8c e0 6f 60 00 20       	b.lwz      r7,0x40006f4(r0)
   83114:	cc e7 74 80             	b.lwz      r7,0x12c(r7)
   83118:	40 07 a8                	b.beqi     r7,0x0,8312d <v6LP_Tick+0x8f9>
   8311b:	00 60                   	b.movi     r3,0x0
   8311d:	00 80                   	b.movi     r4,0x0
   8311f:	00 a0                   	b.movi     r5,0x0
   83121:	47 d1 38                	b.jalr     r7
   83124:	40 03 90                	b.beqi     r3,0x0,8312d <v6LP_Tick+0x8f9>
   83127:	00 60                   	b.movi     r3,0x0
   83129:	00 80                   	b.movi     r4,0x0
   8312b:	0d f7                   	b.j        830e9 <v6LP_Tick+0x8b5>
   8312d:	48 8c a4                	b.jal      8c5f1 <vJnc_ClearScanListVect>
   83130:	00 cc                   	b.movi     r6,0x3
   83132:	8c e0 7f 60 00 20       	b.lwz      r7,0x40006fc(r0)
   83138:	0d 10                   	b.j        8315a <v6LP_Tick+0x926>
   8313a:	49 30 cc                	b.jal      8fd6c <bJnc_StartAssociateVect>
   8313d:	8c e0 7f 60 00 20       	b.lwz      r7,0x40006fc(r0)
   83143:	2c 07 17                	b.sw       0xe8(r7),r0
   83146:	0c 94                   	b.j        831ea <v6LP_Tick+0x9b6>
   83148:	2c a7 57                	b.lwz      r5,0xe8(r7)
   8314b:	3c e5 26                	b.sfleui   r5,0x64
   8314e:	47 23 90                	b.bf       831ea <v6LP_Tick+0x9b6>
   83151:	41 e6 e0                	b.bnei     r6,0x7,83158 <v6LP_Tick+0x924>
   83154:	00 ca                   	b.movi     r6,0x5
   83156:	0c 80                   	b.j        8315a <v6LP_Tick+0x926>
   83158:	00 c6                   	b.movi     r6,0x6
   8315a:	c0 c7 26 80             	b.sb       0x164(r7),r6
   8315e:	0c c4                   	b.j        831ea <v6LP_Tick+0x9b6>
   83160:	4b 5e 02                	b.jal      9334b <vStartCoordVect>
   83163:	0f 84                   	b.j        831ea <v6LP_Tick+0x9b6>
   83165:	49 9e 02                	b.jal      9334b <vStartCoordVect>
   83168:	8c e0 7f 60 00 20       	b.lwz      r7,0x40006fc(r0)
   8316e:	00 68                   	b.movi     r3,0x1
   83170:	c8 87 9e 80             	b.lhz      r4,0x178(r7)
   83174:	00 a0                   	b.movi     r5,0x0
   83176:	4a e9 8c                	b.jal      8f7d3 <vNwk_RouteEstablishedVect>
   83179:	0e 38                   	b.j        831ea <v6LP_Tick+0x9b6>
   8317b:	8c e0 40 e0 00 20       	b.lwz      r7,0x4000700(r0)
   83181:	98 a0 2d ef 10 00       	b.ori      r5,r0,0x8f7b4
   83187:	28 67 b0                	b.lhz      r3,0xc(r7)
   8318a:	28 87 f0                	b.lhz      r4,0xe(r7)
   8318d:	4b 72 f8                	b.jal      8aec8 <vJnc_BackOffVect>
   83190:	0d 68                   	b.j        831ea <v6LP_Tick+0x9b6>
   83192:	2c e7 57                	b.lwz      r7,0xe8(r7)
   83195:	3c e7 26                	b.sfleui   r7,0x64
   83198:	47 24 a0                	b.bf       831ea <v6LP_Tick+0x9b6>
   8319b:	4b ee 60                	b.jal      84b7a <vAHI_StartRandomNumberGenerator.constprop.97>
   8319e:	48 8b 88                	b.jal      878e2 <bAHI_RndNumPoll>
   831a1:	40 03 bf                	b.beqi     r3,0x0,8319e <v6LP_Tick+0x96a>
   831a4:	8c e0 7f 60 00 20       	b.lwz      r7,0x40006fc(r0)
   831aa:	cc d0 63 01             	b.lwz      r6,-0x7f3c(r16)
   831ae:	c0 c7 01 80             	b.sb       0x180(r7),r6
   831b2:	38 c0 d0                	b.ori      r6,r0,0xb
   831b5:	0e 97                   	b.j        8315a <v6LP_Tick+0x926>
   831b7:	8c e0 6f 60 00 20       	b.lwz      r7,0x40006f4(r0)
   831bd:	cc c7 78 80             	b.lwz      r6,0x11c(r7)
   831c1:	94 c6 00 ff ff 00       	b.andi     r6,r6,0xffff00
   831c7:	41 06 c8                	b.bnei     r6,0x0,831da <v6LP_Tick+0x9a6>
   831ca:	cc e7 44 80             	b.lwz      r7,0x120(r7)
   831ce:	81 40 67 50 00 20       	b.sb       0x4000ae6(r0),r10
   831d4:	8c e0 17 50 00 20       	b.sw       0x4000ae8(r0),r7
   831da:	8c e0 7d 08 00 40       	b.lwz      r7,0x20010bc(r0)
   831e0:	34 e7 08                	b.andi     r7,r7,0x10
   831e3:	40 07 e0                	b.beqi     r7,0x0,831ea <v6LP_Tick+0x9b6>
   831e6:	cd 70 2d 01             	b.sw       -0x7f4c(r16),r11
   831ea:	8c e0 7f 60 00 20       	b.lwz      r7,0x40006fc(r0)
   831f0:	84 c0 24 c0 00 20       	b.lbz      r6,0x4000324(r0)
   831f6:	c4 e7 26 80             	b.lbz      r7,0x164(r7)
   831fa:	d2 cc 76 6b             	b.bne      r6,r7,82f60 <v6LP_Tick+0x72c>
   831fe:	46 74 c0                	b.j        8352c <v6LP_Tick+0xcf8>
   83201:	99 60 ff 5c 10 00       	b.ori      r11,r0,0x83aff
   83207:	99 40 f2 dc 10 00       	b.ori      r10,r0,0x83b4f
   8320d:	8c e0 7f 60 00 20       	b.lwz      r7,0x40006fc(r0)
   83213:	c4 c7 26 80             	b.lbz      r6,0x164(r7)
   83217:	8c e0 6f 60 00 20       	b.lwz      r7,0x40006f4(r0)
   8321d:	41 06 84                	b.bnei     r6,0x0,8323e <v6LP_Tick+0xa0a>
   83220:	c4 e7 4a 80             	b.lbz      r7,0x152(r7)
   83224:	d0 00 71 0c             	b.beqi     r7,0x0,8352c <v6LP_Tick+0xcf8>
   83228:	00 62                   	b.movi     r3,0x4
   8322a:	4a 01 20                	b.jal      8442b <iNed_StopTimerVect>
   8322d:	8c e0 6f 60 00 20       	b.lwz      r7,0x40006f4(r0)
   83233:	cc 07 32 80             	b.sw       0x14c(r7),r0
   83237:	c0 07 4a 80             	b.sb       0x152(r7),r0
   8323b:	46 8f 40                	b.j        8352c <v6LP_Tick+0xcf8>
   8323e:	cc e7 72 80             	b.lwz      r7,0x14c(r7)
   83242:	40 07 60                	b.beqi     r7,0x0,83248 <v6LP_Tick+0xa14>
   83245:	4a 5d 88                	b.jal      8792e <vAHI_SwReset>
   83248:	8c e0 6f 60 00 20       	b.lwz      r7,0x40006f4(r0)
   8324e:	c4 c7 94 80             	b.lbz      r6,0x129(r7)
   83252:	41 86 50                	b.bnei     r6,0x1,8325c <v6LP_Tick+0xa28>
   83255:	c0 07 94 80             	b.sb       0x129(r7),r0
   83259:	48 44 ac                	b.jal      906e1 <eApi_PollForData>
   8325c:	8c a0 6f 60 00 20       	b.lwz      r5,0x40006f4(r0)
   83262:	8c c0 7f 60 00 20       	b.lwz      r6,0x40006fc(r0)
   83268:	c4 85 4a 80             	b.lbz      r4,0x152(r5)
   8326c:	c4 e6 26 80             	b.lbz      r7,0x164(r6)
   83270:	d2 88 71 20             	b.beq      r4,r7,832b8 <v6LP_Tick+0xa84>
   83274:	c0 e5 4a 80             	b.sb       0x152(r5),r7
   83278:	3c 07 b0                	b.sfeqi    r7,0xd
   8327b:	47 25 00                	b.bf       83285 <v6LP_Tick+0xa51>
   8327e:	cd a6 65 80             	b.lwz      r13,0x1a4(r6)
   83282:	41 0d 28                	b.bnei     r13,0x0,83296 <v6LP_Tick+0xa62>
   83285:	00 62                   	b.movi     r3,0x4
   83287:	48 96 20                	b.jal      8442b <iNed_StopTimerVect>
   8328a:	8c e0 6f 60 00 20       	b.lwz      r7,0x40006f4(r0)
   83290:	cc 07 32 80             	b.sw       0x14c(r7),r0
   83294:	0c 90                   	b.j        832b8 <v6LP_Tick+0xa84>
   83296:	4b 02 20                	b.jal      84399 <vInterrupt_Suspend>
   83299:	8c e0 6f 60 00 20       	b.lwz      r7,0x40006f4(r0)
   8329f:	cc c7 5a 80             	b.lwz      r6,0x158(r7)
   832a3:	09 a6                   	b.add      r13,r13,r6
   832a5:	cd a7 39 80             	b.sw       0x19c(r7),r13
   832a9:	cc 07 05 80             	b.sw       0x1a0(r7),r0
   832ad:	cd 67 25 80             	b.sw       0x1a4(r7),r11
   832b1:	cc 07 15 80             	b.sw       0x1a8(r7),r0
   832b5:	4b d4 20                	b.jal      84364 <vInterrupt_Resume>
   832b8:	8c e0 7f 60 00 20       	b.lwz      r7,0x40006fc(r0)
   832be:	c4 c7 26 80             	b.lbz      r6,0x164(r7)
   832c2:	3c a6 f0                	b.sfgtui   r6,0xf
   832c5:	47 26 84                	b.bf       834db <v6LP_Tick+0xca7>
   832c8:	6c c6 40                	b.slli     r6,r6,0x2
   832cb:	90 c6 1b 4c 10 00       	b.addi     r6,r6,0x832d8
   832d1:	2c c6 40                	b.lwz      r6,0x0(r6)
   832d4:	47 d2 30                	b.jr       r6
   832d7:	00 00                   	b.trap     0x0
   832d9:	08 34                   	b.add      r1,r1,r20
   832db:	e2                      	.word 0xe2
   832dc:	00 08                   	b.trap     0x1
   832de:	34 db 00                	b.andi     r6,r27,0x0
   832e1:	08 34                   	b.add      r1,r1,r20
   832e3:	db 00 08 33             	b.addi     r24,r0,-0x33f0
   832e7:	18                      	.word 0x18
   832e8:	00 08                   	b.trap     0x1
   832ea:	33 8c 00                	b.addi     r28,r12,0x0
   832ed:	08 33                   	b.add      r1,r1,r19
   832ef:	a0 00 08 33 a0 00       	b.beqi     r0,0x0,88fb0 <bJIP_GroupCallback+0xb>
   832f5:	08 34                   	b.add      r1,r1,r20
   832f7:	e2                      	.word 0xe2
   832f8:	00 08                   	b.trap     0x1
   832fa:	34 e2 00                	b.andi     r7,r2,0x0
   832fd:	08 34                   	b.add      r1,r1,r20
   832ff:	db 00 08 34             	b.addi     r24,r0,0x2c10
   83303:	db 00 08 33             	b.addi     r24,r0,-0x33f0
   83307:	cd 00 08 33             	b.sw       -0x33f0(r0),r8
   8330b:	dc 00 08 34             	f.beq.s    r0,r0,835cc <v6LP_Tick+0xd98>
   8330f:	27 00 08                	b.lbz      r24,0x10(r0)
   83312:	34 3e 00                	b.andi     r1,r30,0x0
   83315:	08 34                   	b.add      r1,r1,r20
   83317:	89 24 e7 18 40 07       	b.lhz      r9,0xe00218e6(r4)
   8331d:	82 8c e0 6f 60 00       	b.sb       0x6f607(r12),r20
   83323:	20 cc e7                	b.sb       0xe7(r12),r6
   83326:	74 80 40                	b.adds     r4,r0,r8
   83329:	07 a8                   	b.mov      r29,r8
   8332b:	00 60                   	b.movi     r3,0x0
   8332d:	00 80                   	b.movi     r4,0x0
   8332f:	00 a0                   	b.movi     r5,0x0
   83331:	47 d1 38                	b.jalr     r7
   83334:	40 03 90                	b.beqi     r3,0x0,8333d <v6LP_Tick+0xb09>
   83337:	00 60                   	b.movi     r3,0x0
   83339:	00 80                   	b.movi     r4,0x0
   8333b:	0c 96                   	b.j        834df <v6LP_Tick+0xcab>
   8333d:	8c e0 7f 60 00 20       	b.lwz      r7,0x40006fc(r0)
   83343:	38 80 50                	b.ori      r4,r0,0xa
   83346:	2c 67 68                	b.lwz      r3,0x14(r7)
   83349:	20 07 18                	b.sb       0x18(r7),r0
   8334c:	48 42 52                	b.jal      95c54 <__udivsi3>
   8334f:	98 a0 3f 5c 10 00       	b.ori      r5,r0,0x83afc
   83355:	3e 03 1a                	b.exthz    r3,r3
   83358:	04 83                   	b.mov      r4,r3
   8335a:	0c 4c                   	b.j        83422 <v6LP_Tick+0xbee>
   8335c:	00 60                   	b.movi     r3,0x0
   8335e:	4b 16 70                	b.jal      86d01 <eJnc_StartScanVect>
   83361:	d0 40 35 e8             	b.bnei     r3,0x0,834db <v6LP_Tick+0xca7>
   83365:	8c e0 7f 60 00 20       	b.lwz      r7,0x40006fc(r0)
   8336b:	00 c2                   	b.movi     r6,0x4
   8336d:	20 07 18                	b.sb       0x18(r7),r0
   83370:	c0 c7 26 80             	b.sb       0x164(r7),r6
   83374:	2d a7 48                	b.lwz      r13,0x10(r7)
   83377:	49 10 20                	b.jal      84399 <vInterrupt_Suspend>
   8337a:	8c e0 6f 60 00 20       	b.lwz      r7,0x40006f4(r0)
   83380:	cc c7 5a 80             	b.lwz      r6,0x158(r7)
   83384:	09 a6                   	b.add      r13,r13,r6
   83386:	cd a7 3a 80             	b.sw       0x15c(r7),r13
   8338a:	0d 30                   	b.j        833bc <v6LP_Tick+0xb88>
   8338c:	24 e7 18                	b.lbz      r7,0x18(r7)
   8338f:	d0 00 7c a8             	b.beqi     r7,0x0,834e2 <v6LP_Tick+0xcae>
   83393:	49 e9 24                	b.jal      8c5f1 <vJnc_ClearScanListVect>
   83396:	00 cc                   	b.movi     r6,0x3
   83398:	8c e0 7f 60 00 20       	b.lwz      r7,0x40006fc(r0)
   8339e:	0d e8                   	b.j        833fc <v6LP_Tick+0xbc8>
   833a0:	48 ce 4c                	b.jal      8fd6c <bJnc_StartAssociateVect>
   833a3:	d0 00 3f c8             	b.beqi     r3,0x0,834e2 <v6LP_Tick+0xcae>
   833a7:	49 3f c0                	b.jal      84399 <vInterrupt_Suspend>
   833aa:	8c e0 6f 60 00 20       	b.lwz      r7,0x40006f4(r0)
   833b0:	cc c7 5a 80             	b.lwz      r6,0x158(r7)
   833b4:	d8 c6 17 c0             	b.addi     r6,r6,0x3e8
   833b8:	cc c7 3a 80             	b.sw       0x15c(r7),r6
   833bc:	cc 07 06 80             	b.sw       0x160(r7),r0
   833c0:	cd 47 26 80             	b.sw       0x164(r7),r10
   833c4:	cc 07 16 80             	b.sw       0x168(r7),r0
   833c8:	48 e7 c0                	b.jal      84364 <vInterrupt_Resume>
   833cb:	0f a2                   	b.j        834e2 <v6LP_Tick+0xcae>
   833cd:	38 c0 30                	b.ori      r6,r0,0xc
   833d0:	20 07 10                	b.sb       0x8(r7),r0
   833d3:	c0 c7 26 80             	b.sb       0x164(r7),r6
   833d7:	4a 45 0c                	b.jal      8f660 <vJnc_SendEstablishRouteVect.constprop.31>
   833da:	0c 42                   	b.j        834e2 <v6LP_Tick+0xcae>
   833dc:	24 e7 10                	b.lbz      r7,0x8(r7)
   833df:	40 07 c4                	b.beqi     r7,0x0,83402 <v6LP_Tick+0xbce>
   833e2:	48 67 a0                	b.jal      84b7a <vAHI_StartRandomNumberGenerator.constprop.97>
   833e5:	4a fc 88                	b.jal      878e2 <bAHI_RndNumPoll>
   833e8:	40 03 bf                	b.beqi     r3,0x0,833e5 <v6LP_Tick+0xbb1>
   833eb:	8c e0 7f 60 00 20       	b.lwz      r7,0x40006fc(r0)
   833f1:	cc d0 63 01             	b.lwz      r6,-0x7f3c(r16)
   833f5:	c0 c7 01 80             	b.sb       0x180(r7),r6
   833f9:	38 c0 d0                	b.ori      r6,r0,0xb
   833fc:	c0 c7 26 80             	b.sb       0x164(r7),r6
   83400:	0d 1c                   	b.j        834e2 <v6LP_Tick+0xcae>
   83402:	8c e0 6f 60 00 20       	b.lwz      r7,0x40006f4(r0)
   83408:	c4 e7 b8 80             	b.lbz      r7,0x11d(r7)
   8340c:	d0 40 76 b0             	b.bnei     r7,0x0,834e2 <v6LP_Tick+0xcae>
   83410:	8c e0 40 e0 00 20       	b.lwz      r7,0x4000700(r0)
   83416:	98 a0 b7 5c 10 00       	b.ori      r5,r0,0x83aed
   8341c:	28 67 b0                	b.lhz      r3,0xc(r7)
   8341f:	28 87 f0                	b.lhz      r4,0xe(r7)
   83422:	49 95 78                	b.jal      8aec8 <vJnc_BackOffVect>
   83425:	0e f4                   	b.j        834e2 <v6LP_Tick+0xcae>
   83427:	8c e0 6f 60 00 20       	b.lwz      r7,0x40006f4(r0)
   8342d:	c4 c7 54 80             	b.lbz      r6,0x12a(r7)
   83431:	d0 00 68 d0             	b.beqi     r6,0x0,834e2 <v6LP_Tick+0xcae>
   83435:	c0 07 54 80             	b.sb       0x12a(r7),r0
   83439:	48 55 2c                	b.jal      906e1 <eApi_PollForData>
   8343c:	0d 94                   	b.j        834e2 <v6LP_Tick+0xcae>
   8343e:	8c c0 7b 50 00 20       	b.lwz      r6,0x4000adc(r0)
   83444:	24 c6 2c                	b.lbz      r6,0x34(r6)
   83447:	d0 00 6d 90             	b.beqi     r6,0x0,834e2 <v6LP_Tick+0xcae>
   8344b:	c4 c7 45 80             	b.lbz      r6,0x1a2(r7)
   8344f:	8c e0 6f 60 00 20       	b.lwz      r7,0x40006f4(r0)
   83455:	00 60                   	b.movi     r3,0x0
   83457:	c0 c7 d8 80             	b.sb       0x11b(r7),r6
   8345b:	48 2f c0                	b.jal      8442b <iNed_StopTimerVect>
   8345e:	00 68                   	b.movi     r3,0x1
   83460:	4b 4f c0                	b.jal      8442b <iNed_StopTimerVect>
   83463:	00 64                   	b.movi     r3,0x2
   83465:	49 8f c0                	b.jal      8442b <iNed_StopTimerVect>
   83468:	8c e0 7f 60 00 20       	b.lwz      r7,0x40006fc(r0)
   8346e:	c8 c7 85 80             	b.lhz      r6,0x1a0(r7)
   83472:	d8 e0 02 80             	b.addi     r7,r0,0x140
   83476:	64 e6 3b                	b.mul      r7,r6,r7
   83479:	8c e0 17 50 00 20       	b.sw       0x4000ae8(r0),r7
   8347f:	00 e8                   	b.movi     r7,0x1
   83481:	80 e0 67 50 00 20       	b.sb       0x4000ae6(r0),r7
   83487:	0f 68                   	b.j        834e2 <v6LP_Tick+0xcae>
   83489:	8c e0 6f 60 00 20       	b.lwz      r7,0x40006f4(r0)
   8348f:	cc e7 78 80             	b.lwz      r7,0x11c(r7)
   83493:	94 e7 00 ff ff 00       	b.andi     r7,r7,0xffff00
   83499:	41 07 54                	b.bnei     r7,0x0,834c3 <v6LP_Tick+0xc8f>
   8349c:	00 60                   	b.movi     r3,0x0
   8349e:	4a c7 c0                	b.jal      8442b <iNed_StopTimerVect>
   834a1:	00 68                   	b.movi     r3,0x1
   834a3:	48 47 c0                	b.jal      8442b <iNed_StopTimerVect>
   834a6:	00 64                   	b.movi     r3,0x2
   834a8:	4b 07 c0                	b.jal      8442b <iNed_StopTimerVect>
   834ab:	8c e0 6f 60 00 20       	b.lwz      r7,0x40006f4(r0)
   834b1:	cc e7 44 80             	b.lwz      r7,0x120(r7)
   834b5:	8c e0 17 50 00 20       	b.sw       0x4000ae8(r0),r7
   834bb:	00 e8                   	b.movi     r7,0x1
   834bd:	80 e0 67 50 00 20       	b.sb       0x4000ae6(r0),r7
   834c3:	8c e0 7d 08 00 40       	b.lwz      r7,0x20010bc(r0)
   834c9:	34 e7 08                	b.andi     r7,r7,0x10
   834cc:	40 07 68                	b.beqi     r7,0x0,834e2 <v6LP_Tick+0xcae>
   834cf:	98 e0 1f ed 00 00       	b.ori      r7,r0,0xb7f8
   834d5:	cc f0 2d 01             	b.sw       -0x7f4c(r16),r7
   834d9:	0e 40                   	b.j        834e2 <v6LP_Tick+0xcae>
   834db:	00 60                   	b.movi     r3,0x0
   834dd:	00 8c                   	b.movi     r4,0x3
   834df:	4a 50 8c                	b.jal      8f908 <bJnc_ResetStackVect>
   834e2:	8c e0 6f 60 00 20       	b.lwz      r7,0x40006f4(r0)
   834e8:	c4 c7 4a 80             	b.lbz      r6,0x152(r7)
   834ec:	8c e0 7f 60 00 20       	b.lwz      r7,0x40006fc(r0)
   834f2:	c4 e7 26 80             	b.lbz      r7,0x164(r7)
   834f6:	d2 cc 7e 8b             	b.bne      r6,r7,8320d <v6LP_Tick+0x9d9>
   834fa:	0c 90                   	b.j        8351e <v6LP_Tick+0xcea>
   834fc:	30 a1 10                	b.addi     r5,r1,0x8
   834ff:	00 66                   	b.movi     r3,0x6
   83501:	21 41 10                	b.sb       0x8(r1),r10
   83504:	00 80                   	b.movi     r4,0x0
   83506:	00 c8                   	b.movi     r6,0x1
   83508:	49 2d 22                	b.jal      947da <v6LP_ProcessStackEvent>
   8350b:	8c e0 7f 60 00 20       	b.lwz      r7,0x40006fc(r0)
   83511:	2c c7 44                	b.lwz      r6,0x20(r7)
   83514:	00 df                   	b.addi     r6,r6,-0x1
   83516:	2c c7 04                	b.sw       0x20(r7),r6
   83519:	4a bf 70                	b.jal      8710e <vFailedPacket.12088>
   8351c:	0c 80                   	b.j        83520 <v6LP_Tick+0xcec>
   8351e:	01 44                   	b.movi     r10,0x2
   83520:	8c e0 7f 60 00 20       	b.lwz      r7,0x40006fc(r0)
   83526:	2c e7 44                	b.lwz      r7,0x20(r7)
   83529:	41 07 cb                	b.bnei     r7,0x0,834fc <v6LP_Tick+0xcc8>
   8352c:	84 e0 67 50 00 20       	b.lbz      r7,0x4000ae6(r0)
   83532:	d0 00 7e b8             	b.beqi     r7,0x0,83709 <v6LP_Tick+0xed5>
   83536:	48 d7 88                	b.jal      87ce2 <eMiniMac_FrameInProgress>
   83539:	d0 40 30 b8             	b.bnei     r3,0x0,83709 <v6LP_Tick+0xed5>
   8353d:	8c 60 6a 00 00 20       	b.lwz      r3,0x4000054(r0)
   83543:	47 d1 18                	b.jalr     r3
   83546:	d0 60 3c 38             	b.bnei     r3,0x1,83709 <v6LP_Tick+0xed5>
   8354a:	8c e0 6f 60 00 20       	b.lwz      r7,0x40006f4(r0)
   83550:	80 00 67 50 00 20       	b.sb       0x4000ae6(r0),r0
   83556:	c5 67 f8 80             	b.lbz      r11,0x11f(r7)
   8355a:	8d 40 57 50 00 20       	b.lwz      r10,0x4000ae8(r0)
   83560:	cc f0 78 09             	b.lwz      r7,-0x6fe4(r16)
   83564:	94 e7 7f ff ff ff       	b.andi     r7,r7,0xfffffffe
   8356a:	cc f0 38 09             	b.sw       -0x6fe4(r16),r7
   8356e:	cc f0 44 09             	b.lwz      r7,-0x6fe0(r16)
   83572:	34 e7 80                	b.andi     r7,r7,0x1
   83575:	41 07 9f                	b.bnei     r7,0x0,8356e <v6LP_Tick+0xd3a>
   83578:	cc f0 48 09             	b.lwz      r7,-0x6ff0(r16)
   8357c:	94 e7 00 00 00 30       	b.andi     r7,r7,0xc000000
   83582:	cc f0 08 09             	b.sw       -0x6ff0(r16),r7
   83586:	8c e0 7f 60 00 20       	b.lwz      r7,0x40006fc(r0)
   8358c:	c4 e7 66 80             	b.lbz      r7,0x166(r7)
   83590:	40 07 f0                	b.beqi     r7,0x0,8359f <v6LP_Tick+0xd6b>
   83593:	cc f0 60 01             	b.lwz      r7,-0x7ffc(r16)
   83597:	34 e7 10                	b.andi     r7,r7,0x8
   8359a:	40 07 84                	b.beqi     r7,0x0,835bb <v6LP_Tick+0xd87>
   8359d:	0d 40                   	b.j        835a7 <v6LP_Tick+0xd73>
   8359f:	4b 0b 88                	b.jal      87ce2 <eMiniMac_FrameInProgress>
   835a2:	41 03 27                	b.bnei     r3,0x0,83586 <v6LP_Tick+0xd52>
   835a5:	0d df                   	b.j        83593 <v6LP_Tick+0xd5f>
   835a7:	cc f0 47 69             	b.lwz      r7,-0x6920(r16)
   835ab:	80 e0 5b 50 00 20       	b.sb       0x4000ada(r0),r7
   835b1:	cc f0 7b 69             	b.lwz      r7,-0x6924(r16)
   835b5:	88 e0 1b 50 00 20       	b.sh       0x4000ad8(r0),r7
   835bb:	00 60                   	b.movi     r3,0x0
   835bd:	4b d5 08                	b.jal      8786c <vAHI_TickTimerIntEnable>
   835c0:	00 60                   	b.movi     r3,0x0
   835c2:	4a 83 08                	b.jal      878c7 <vAHI_TickTimerConfigure>
   835c5:	d2 20 bb 80             	b.bleui    r11,0x1,835e2 <v6LP_Tick+0xdae>
   835c9:	8c e0 7f 60 00 20       	b.lwz      r7,0x40006fc(r0)
   835cf:	c0 07 26 80             	b.sb       0x164(r7),r0
   835d3:	cd 50 40 01             	b.lwz      r10,-0x8000(r16)
   835d7:	94 ea 00 00 00 80       	b.andi     r7,r10,0x1000000
   835dd:	40 07 d6                	b.beqi     r7,0x0,83648 <v6LP_Tick+0xe14>
   835e0:	0e 88                   	b.j        83625 <v6LP_Tick+0xdf1>
   835e2:	4b d6 a0                	b.jal      84b91 <vAHI_WakeTimerEnable.part.0.24222.constprop.95>
   835e5:	98 e0 00 00 00 20       	b.ori      r7,r0,0x4000000
   835eb:	cc f0 08 09             	b.sw       -0x6ff0(r16),r7
   835ef:	cc d0 48 09             	b.lwz      r6,-0x6ff0(r16)
   835f3:	94 c6 00 00 00 20       	b.andi     r6,r6,0x4000000
   835f9:	41 06 6f                	b.bnei     r6,0x0,835ef <v6LP_Tick+0xdbb>
   835fc:	d8 e0 0c 09             	b.addi     r7,r0,-0x6fd0
   83600:	08 f0                   	b.add      r7,r7,r16
   83602:	2c c7 00                	b.sw       0x0(r7),r6
   83605:	d8 e0 28 09             	b.addi     r7,r0,-0x6fec
   83609:	08 f0                   	b.add      r7,r7,r16
   8360b:	2d 47 00                	b.sw       0x0(r7),r10
   8360e:	cc f0 78 09             	b.lwz      r7,-0x6fe4(r16)
   83612:	38 e7 80                	b.ori      r7,r7,0x1
   83615:	cc f0 38 09             	b.sw       -0x6fe4(r16),r7
   83619:	cc f0 44 09             	b.lwz      r7,-0x6fe0(r16)
   8361d:	34 e7 80                	b.andi     r7,r7,0x1
   83620:	40 07 9f                	b.beqi     r7,0x0,83619 <v6LP_Tick+0xde5>
   83623:	0d 97                   	b.j        835c9 <v6LP_Tick+0xd95>
   83625:	00 60                   	b.movi     r3,0x0
   83627:	00 82                   	b.movi     r4,0x4
   83629:	49 53 08                	b.jal      87953 <vAHI_DioSetDirection>
   8362c:	00 60                   	b.movi     r3,0x0
   8362e:	00 82                   	b.movi     r4,0x4
   83630:	4b c3 08                	b.jal      8793f <vAHI_DioSetOutput>
   83633:	cc f0 7c 09             	b.lwz      r7,-0x6fc4(r16)
   83637:	38 e7 20                	b.ori      r7,r7,0x4
   8363a:	cc f0 3c 09             	b.sw       -0x6fc4(r16),r7
   8363e:	95 4a ff ff ff 7f       	b.andi     r10,r10,0xfeffffff
   83644:	cd 50 00 01             	b.sw       -0x8000(r16),r10
   83648:	94 ea 00 00 00 40       	b.andi     r7,r10,0x2000000
   8364e:	40 07 14                	b.beqi     r7,0x0,83676 <v6LP_Tick+0xe42>
   83651:	38 80 10                	b.ori      r4,r0,0x8
   83654:	00 60                   	b.movi     r3,0x0
   83656:	4a fd 08                	b.jal      87953 <vAHI_DioSetDirection>
   83659:	38 80 10                	b.ori      r4,r0,0x8
   8365c:	00 60                   	b.movi     r3,0x0
   8365e:	4a 1d 08                	b.jal      8793f <vAHI_DioSetOutput>
   83661:	cc f0 7c 09             	b.lwz      r7,-0x6fc4(r16)
   83665:	38 e7 10                	b.ori      r7,r7,0x8
   83668:	cc f0 3c 09             	b.sw       -0x6fc4(r16),r7
   8366c:	95 4a ff ff ff bf       	b.andi     r10,r10,0xfdffffff
   83672:	cd 50 00 01             	b.sw       -0x8000(r16),r10
   83676:	41 2b 08                	b.bnei     r11,0x4,83686 <v6LP_Tick+0xe52>
   83679:	cc f0 40 01             	b.lwz      r7,-0x8000(r16)
   8367d:	38 e7 c0                	b.ori      r7,r7,0x3
   83680:	cc f0 00 01             	b.sw       -0x8000(r16),r7
   83684:	0c 00                   	b.j        83684 <v6LP_Tick+0xe50>
   83686:	cc f0 5c 01             	b.lwz      r7,-0x7fc8(r16)
   8368a:	38 e7 10                	b.ori      r7,r7,0x8
   8368d:	cc f0 1c 01             	b.sw       -0x7fc8(r16),r7
   83691:	99 40 80 00 04 00       	b.ori      r10,r0,0x200001
   83697:	30 eb 7f                	b.addi     r7,r11,-0x2
   8369a:	3c e7 80                	b.sfleui   r7,0x1
   8369d:	35 6b bf                	b.andi     r11,r11,0xfd
   836a0:	00 e8                   	b.movi     r7,0x1
   836a2:	65 4a 3a                	b.cmov     r10,r10,r7
   836a5:	cc d0 4a 01             	b.lwz      r6,-0x7fb0(r16)
   836a9:	94 c6 fc 7f ff ff       	b.andi     r6,r6,0xfffffe3f
   836af:	41 0b a4                	b.bnei     r11,0x0,836d4 <v6LP_Tick+0xea0>
   836b2:	cc f0 40 01             	b.lwz      r7,-0x8000(r16)
   836b6:	98 c6 01 40 00 00       	b.ori      r6,r6,0x280
   836bc:	cc d0 0a 01             	b.sw       -0x7fb0(r16),r6
   836c0:	38 e7 04                	b.ori      r7,r7,0x20
   836c3:	cc f0 00 01             	b.sw       -0x8000(r16),r7
   836c7:	48 e0 10                	b.jal      856e3 <bAHI_SetClockRate.part.0.23652.constprop.37>
   836ca:	d8 e0 00 80             	b.addi     r7,r0,0x100
   836ce:	cc f0 17 01             	b.sw       -0x7f18(r16),r7
   836d2:	0c 90                   	b.j        836f6 <v6LP_Tick+0xec2>
   836d4:	98 c6 01 40 00 00       	b.ori      r6,r6,0x280
   836da:	cc f0 40 01             	b.lwz      r7,-0x8000(r16)
   836de:	d8 a0 00 40             	b.addi     r5,r0,0x200
   836e2:	38 e7 04                	b.ori      r7,r7,0x20
   836e5:	60 c6 2a                	b.xor      r6,r6,r5
   836e8:	cc d0 0a 01             	b.sw       -0x7fb0(r16),r6
   836ec:	38 c0 04                	b.ori      r6,r0,0x20
   836ef:	60 e7 32                	b.xor      r7,r7,r6
   836f2:	cc f0 00 01             	b.sw       -0x8000(r16),r7
   836f6:	cc f0 40 01             	b.lwz      r7,-0x8000(r16)
   836fa:	94 e7 ff ff fb ff       	b.andi     r7,r7,0xffdfffff
   83700:	61 47 51                	b.or       r10,r7,r10
   83703:	cd 50 00 01             	b.sw       -0x8000(r16),r10
   83707:	0c 00                   	b.j        83707 <v6LP_Tick+0xed3>
   83709:	8c e0 4c 60 00 20       	b.lwz      r7,0x4000630(r0)
   8370f:	60 ec 3d                	b.sub      r7,r12,r7
   83712:	9f 47 c4 2f 00 00       	b.sfleui   r7,0xf423
   83718:	47 2f 00                	b.bf       83727 <v6LP_Tick+0xef3>
   8371b:	8d 80 0c 60 00 20       	b.sw       0x4000630(r0),r12
   83721:	80 00 27 50 00 20       	b.sb       0x4000ae4(r0),r0
   83727:	47 be e6                	b.reti     0x7,0x67
	...

0008372c <iUDP_GetUDPheaderSize>:
   8372c:	3e 04 2c                	b.ff1      r5,r4
   8372f:	3e 03 34                	b.ff1      r6,r3
   83732:	00 bf                   	b.addi     r5,r5,-0x1
   83734:	00 df                   	b.addi     r6,r6,-0x1
   83736:	60 c5 31                	b.or       r6,r5,r6
   83739:	04 e3                   	b.mov      r7,r3
   8373b:	45 06 ac                	b.bltsi    r6,0x0,83770 <iUDP_GetUDPheaderSize+0x44>
   8373e:	38 c0 10                	b.ori      r6,r0,0x8
   83741:	20 c4 00                	b.sb       0x0(r4),r6
   83744:	28 c3 8c                	b.lhz      r6,0x30(r3)
   83747:	6c c6 c1                	b.srli     r6,r6,0x3
   8374a:	20 c4 00                	b.sb       0x0(r4),r6
   8374d:	28 c3 97                	b.lhz      r6,0xe8(r3)
   83750:	00 60                   	b.movi     r3,0x0
   83752:	34 c6 e0                	b.andi     r6,r6,0x7
   83755:	41 06 b8                	b.bnei     r6,0x0,83772 <iUDP_GetUDPheaderSize+0x46>
   83758:	28 e7 8c                	b.lhz      r7,0x30(r7)
   8375b:	34 c7 e0                	b.andi     r6,r7,0x7
   8375e:	41 06 10                	b.bnei     r6,0x0,83766 <iUDP_GetUDPheaderSize+0x3a>
   83761:	6c e7 c1                	b.srli     r7,r7,0x3
   83764:	0f 80                   	b.j        8376b <iUDP_GetUDPheaderSize+0x3f>
   83766:	00 f2                   	b.addi     r7,r7,0x4
   83768:	6c e7 c2                	b.srai     r7,r7,0x3
   8376b:	20 e4 00                	b.sb       0x0(r4),r7
   8376e:	0c 80                   	b.j        83772 <iUDP_GetUDPheaderSize+0x46>
   83770:	00 6f                   	b.movi     r3,-0x1
   83772:	47 d2 48                	b.jr       r9

00083775 <boIdSearchMatch.16296>:
   83775:	2c e4 50                	b.lwz      r7,0x8(r4)
   83778:	2c 63 40                	b.lwz      r3,0x0(r3)
   8377b:	60 67 1a                	b.xor      r3,r7,r3
   8377e:	3e 03 1c                	b.ff1      r3,r3
   83781:	00 7f                   	b.addi     r3,r3,-0x1
   83783:	6c 63 f9                	b.srli     r3,r3,0x1f
   83786:	47 d2 48                	b.jr       r9

00083789 <boPortSearchMatch.16292>:
   83789:	28 e4 b8                	b.lhz      r7,0x1c(r4)
   8378c:	28 63 80                	b.lhz      r3,0x0(r3)
   8378f:	60 67 1a                	b.xor      r3,r7,r3
   83792:	3e 03 1a                	b.exthz    r3,r3
   83795:	00 7f                   	b.addi     r3,r3,-0x1
   83797:	6c 63 f9                	b.srli     r3,r3,0x1f
   8379a:	47 d2 48                	b.jr       r9

0008379d <iWriteIPv6andDataHeaders>:
   8379d:	47 ae c0                	b.entri    0x7,0x3
   837a0:	20 01 e0                	b.sb       0x7(r1),r0
   837a3:	05 65                   	b.mov      r11,r5
   837a5:	05 c3                   	b.mov      r14,r3
   837a7:	05 a4                   	b.mov      r13,r4
   837a9:	05 46                   	b.mov      r10,r6
   837ab:	05 e7                   	b.mov      r15,r7
   837ad:	05 88                   	b.mov      r12,r8
   837af:	00 a0                   	b.movi     r5,0x0
   837b1:	d0 00 b5 90             	b.beqi     r11,0x0,8384b <iWriteIPv6andDataHeaders+0xae>
   837b5:	8c e0 59 70 00 20       	b.lwz      r7,0x4000e98(r0)
   837bb:	30 a1 a0                	b.addi     r5,r1,0x5
   837be:	04 86                   	b.mov      r4,r6
   837c0:	2c e7 74                	b.lwz      r7,0x2c(r7)
   837c3:	04 c8                   	b.mov      r6,r8
   837c5:	47 d1 38                	b.jalr     r7
   837c8:	24 81 a0                	b.lbz      r4,0x5(r1)
   837cb:	28 ec b8                	b.lhz      r7,0x1c(r12)
   837ce:	d3 8e 41 00             	b.bgeu     r7,r4,837d6 <iWriteIPv6andDataHeaders+0x39>
   837d2:	00 af                   	b.movi     r5,-0x1
   837d4:	0f b8                   	b.j        8384b <iWriteIPv6andDataHeaders+0xae>
   837d6:	8c e0 59 70 00 20       	b.lwz      r7,0x4000e98(r0)
   837dc:	08 8e                   	b.add      r4,r4,r14
   837de:	30 a1 60                	b.addi     r5,r1,0x6
   837e1:	30 c1 e0                	b.addi     r6,r1,0x7
   837e4:	04 6a                   	b.mov      r3,r10
   837e6:	2c e7 78                	b.lwz      r7,0x1c(r7)
   837e9:	47 d1 38                	b.jalr     r7
   837ec:	24 e1 60                	b.lbz      r7,0x6(r1)
   837ef:	24 c1 a0                	b.lbz      r6,0x5(r1)
   837f2:	28 ac b8                	b.lhz      r5,0x1c(r12)
   837f5:	60 87 34                	b.add      r4,r7,r6
   837f8:	d3 48 55 bf             	b.bgts     r4,r5,837d2 <iWriteIPv6andDataHeaders+0x35>
   837fc:	24 aa cf                	b.lbz      r5,0xf3(r10)
   837ff:	40 05 34                	b.beqi     r5,0x0,8382b <iWriteIPv6andDataHeaders+0x8e>
   83802:	40 8d d0                	b.beqi     r13,0x1,8380d <iWriteIPv6andDataHeaders+0x70>
   83805:	60 ab 35                	b.sub      r5,r11,r6
   83808:	60 a5 3d                	b.sub      r5,r5,r7
   8380b:	0f 40                   	b.j        83816 <iWriteIPv6andDataHeaders+0x79>
   8380d:	24 a1 e0                	b.lbz      r5,0x7(r1)
   83810:	60 ab 2d                	b.sub      r5,r11,r5
   83813:	30 a5 1b                	b.addi     r5,r5,-0x28
   83816:	24 8a 8f                	b.lbz      r4,0xf1(r10)
   83819:	3e 05 2a                	b.exthz    r5,r5
   8381c:	28 aa 57                	b.sh       0xea(r10),r5
   8381f:	3c 24 88                	b.sfnei    r4,0x11
   83822:	47 29 00                	b.bf       8382b <iWriteIPv6andDataHeaders+0x8e>
   83825:	30 a5 10                	b.addi     r5,r5,0x8
   83828:	28 aa 34                	b.sh       0x2c(r10),r5
   8382b:	08 e6                   	b.add      r7,r7,r6
   8382d:	00 a2                   	b.movi     r5,0x4
   8382f:	20 ef 00                	b.sb       0x0(r15),r7
   83832:	00 e8                   	b.movi     r7,0x1
   83834:	20 ea 3b                	b.sb       0xdc(r10),r7
   83837:	41 03 28                	b.bnei     r3,0x0,8384b <iWriteIPv6andDataHeaders+0xae>
   8383a:	8c e0 59 70 00 20       	b.lwz      r7,0x4000e98(r0)
   83840:	00 a4                   	b.movi     r5,0x2
   83842:	28 e7 b9                	b.lhz      r7,0x9c(r7)
   83845:	3d a7 58                	b.sfgeu    r7,r11
   83848:	64 a0 2a                	b.cmov     r5,r0,r5
   8384b:	04 65                   	b.mov      r3,r5
   8384d:	47 be c0                	b.reti     0x7,0x3

00083850 <iIPv6_CalculateIPv6AddressChecksum.1507>:
   83850:	3e 04 34                	b.ff1      r6,r4
   83853:	3e 03 3c                	b.ff1      r7,r3
   83856:	00 df                   	b.addi     r6,r6,-0x1
   83858:	00 ff                   	b.addi     r7,r7,-0x1
   8385a:	60 e6 39                	b.or       r7,r6,r7
   8385d:	42 07 28                	b.bgesi    r7,0x0,83871 <iIPv6_CalculateIPv6AddressChecksum.1507+0x21>
   83860:	8c e0 59 70 00 20       	b.lwz      r7,0x4000e98(r0)
   83866:	d8 c0 60 80             	b.addi     r6,r0,0x106
   8386a:	00 6f                   	b.movi     r3,-0x1
   8386c:	2c c7 32                	b.sw       0x4c(r7),r6
   8386f:	0f 90                   	b.j        83896 <iIPv6_CalculateIPv6AddressChecksum.1507+0x46>
   83871:	2c 04 00                	b.sw       0x0(r4),r0
   83874:	00 e0                   	b.movi     r7,0x0
   83876:	60 a3 3c                	b.add      r5,r3,r7
   83879:	00 f2                   	b.addi     r7,r7,0x4
   8387b:	3c 27 08                	b.sfnei    r7,0x10
   8387e:	29 05 80                	b.lhz      r8,0x0(r5)
   83881:	2c c4 40                	b.lwz      r6,0x0(r4)
   83884:	08 c8                   	b.add      r6,r6,r8
   83886:	2c c4 00                	b.sw       0x0(r4),r6
   83889:	28 a5 c0                	b.lhz      r5,0x2(r5)
   8388c:	08 c5                   	b.add      r6,r6,r5
   8388e:	2c c4 00                	b.sw       0x0(r4),r6
   83891:	47 2a 7f                	b.bf       83876 <iIPv6_CalculateIPv6AddressChecksum.1507+0x26>
   83894:	00 60                   	b.movi     r3,0x0
   83896:	47 d2 48                	b.jr       r9

00083899 <iIPv6_CalculateIPv6PseudoHeaderChecksum>:
   83899:	3e 05 34                	b.ff1      r6,r5
   8389c:	3e 03 3c                	b.ff1      r7,r3
   8389f:	00 df                   	b.addi     r6,r6,-0x1
   838a1:	00 ff                   	b.addi     r7,r7,-0x1
   838a3:	47 ac a0                	b.entri    0x3,0x5
   838a6:	60 e6 39                	b.or       r7,r6,r7
   838a9:	05 43                   	b.mov      r10,r3
   838ab:	05 64                   	b.mov      r11,r4
   838ad:	42 07 28                	b.bgesi    r7,0x0,838c1 <iIPv6_CalculateIPv6PseudoHeaderChecksum+0x28>
   838b0:	8c e0 59 70 00 20       	b.lwz      r7,0x4000e98(r0)
   838b6:	d8 c0 60 80             	b.addi     r6,r0,0x106
   838ba:	00 6f                   	b.movi     r3,-0x1
   838bc:	2c c7 32                	b.sw       0x4c(r7),r6
   838bf:	0d d0                   	b.j        838ed <iIPv6_CalculateIPv6PseudoHeaderChecksum+0x54>
   838c1:	30 81 10                	b.addi     r4,r1,0x8
   838c4:	30 63 10                	b.addi     r3,r3,0x8
   838c7:	2c a1 20                	b.sw       0x4(r1),r5
   838ca:	49 87 ff                	b.jal      83850 <iIPv6_CalculateIPv6AddressChecksum.1507>
   838cd:	30 6a 18                	b.addi     r3,r10,0x18
   838d0:	30 81 30                	b.addi     r4,r1,0xc
   838d3:	4a fb ff                	b.jal      83850 <iIPv6_CalculateIPv6AddressChecksum.1507>
   838d6:	2c c1 70                	b.lwz      r6,0xc(r1)
   838d9:	2c e1 50                	b.lwz      r7,0x8(r1)
   838dc:	2c a1 60                	b.lwz      r5,0x4(r1)
   838df:	08 e6                   	b.add      r7,r7,r6
   838e1:	00 60                   	b.movi     r3,0x0
   838e3:	24 ca 8f                	b.lbz      r6,0xf1(r10)
   838e6:	08 e6                   	b.add      r7,r7,r6
   838e8:	09 67                   	b.add      r11,r11,r7
   838ea:	2d 65 00                	b.sw       0x0(r5),r11
   838ed:	47 bc a0                	b.reti     0x3,0x5

000838f0 <boBufferByHandleSearchMatch.15447>:
   838f0:	2c a4 47                	b.lwz      r5,0xe0(r4)
   838f3:	2c c3 60                	b.lwz      r6,0x4(r3)
   838f6:	00 e0                   	b.movi     r7,0x0
   838f8:	d2 ca 66 80             	b.bne      r5,r6,8390e <boBufferByHandleSearchMatch.15447+0x1e>
   838fc:	24 a4 1f                	b.lbz      r5,0xf8(r4)
   838ff:	24 c3 00                	b.lbz      r6,0x0(r3)
   83902:	d2 cc 53 00             	b.bne      r6,r5,8390e <boBufferByHandleSearchMatch.15447+0x1e>
   83906:	00 e8                   	b.movi     r7,0x1
   83908:	41 06 60                	b.bnei     r6,0x0,8390e <boBufferByHandleSearchMatch.15447+0x1e>
   8390b:	24 e4 3b                	b.lbz      r7,0xdc(r4)
   8390e:	04 67                   	b.mov      r3,r7
   83910:	47 d2 48                	b.jr       r9

00083913 <boTagIdSearchMatch.15451>:
   83913:	28 c3 80                	b.lhz      r6,0x0(r3)
   83916:	24 e4 b7                	b.lbz      r7,0xed(r4)
   83919:	00 60                   	b.movi     r3,0x0
   8391b:	d2 ce 62 80             	b.bne      r7,r6,8392f <boTagIdSearchMatch.15451+0x1c>
   8391f:	24 64 9f                	b.lbz      r3,0xf9(r4)
   83922:	00 e8                   	b.movi     r7,0x1
   83924:	60 63 3a                	b.xor      r3,r3,r7
   83927:	3e 03 18                	b.extbz    r3,r3
   8392a:	00 7f                   	b.addi     r3,r3,-0x1
   8392c:	6c 63 f9                	b.srli     r3,r3,0x1f
   8392f:	47 d2 48                	b.jr       r9

00083932 <boBufferReadyToTXSearchMatch.15443>:
   83932:	24 e4 9f                	b.lbz      r7,0xf9(r4)
   83935:	00 60                   	b.movi     r3,0x0
   83937:	41 87 88                	b.bnei     r7,0x1,83948 <boBufferReadyToTXSearchMatch.15443+0x16>
   8393a:	24 64 db                	b.lbz      r3,0xdb(r4)
   8393d:	60 63 3a                	b.xor      r3,r3,r7
   83940:	3e 03 18                	b.extbz    r3,r3
   83943:	00 7f                   	b.addi     r3,r3,-0x1
   83945:	6c 63 f9                	b.srli     r3,r3,0x1f
   83948:	47 d2 48                	b.jr       r9

0008394b <boBufferByTagIdAndSrcAddrSearchMatch.15439>:
   8394b:	28 c3 80                	b.lhz      r6,0x0(r3)
   8394e:	28 a4 b7                	b.lhz      r5,0xec(r4)
   83951:	04 e3                   	b.mov      r7,r3
   83953:	00 60                   	b.movi     r3,0x0
   83955:	d2 ca 60 a0             	b.bne      r5,r6,839a5 <boBufferByTagIdAndSrcAddrSearchMatch.15439+0x5a>
   83959:	24 a4 1f                	b.lbz      r5,0xf8(r4)
   8395c:	24 c7 40                	b.lbz      r6,0x2(r7)
   8395f:	d2 ca 66 20             	b.bne      r5,r6,839a5 <boBufferByTagIdAndSrcAddrSearchMatch.15439+0x5a>
   83963:	2c e7 60                	b.lwz      r7,0x4(r7)
   83966:	24 c7 40                	b.lbz      r6,0x2(r7)
   83969:	41 c6 84                	b.bnei     r6,0x3,8398a <boBufferByTagIdAndSrcAddrSearchMatch.15439+0x3f>
   8396c:	24 c4 32                	b.lbz      r6,0x4c(r4)
   8396f:	41 86 6c                	b.bnei     r6,0x1,839a5 <boBufferByTagIdAndSrcAddrSearchMatch.15439+0x5a>
   83972:	2c a4 62                	b.lwz      r5,0x44(r4)
   83975:	2c c7 60                	b.lwz      r6,0x4(r7)
   83978:	d2 ca 6b 40             	b.bne      r5,r6,839a5 <boBufferByTagIdAndSrcAddrSearchMatch.15439+0x5a>
   8397c:	2c c4 52                	b.lwz      r6,0x48(r4)
   8397f:	2c e7 50                	b.lwz      r7,0x8(r7)
   83982:	d2 cc 7c 40             	b.bne      r6,r7,839a5 <boBufferByTagIdAndSrcAddrSearchMatch.15439+0x5a>
   83986:	00 68                   	b.movi     r3,0x1
   83988:	0e e0                   	b.j        839a5 <boBufferByTagIdAndSrcAddrSearchMatch.15439+0x5a>
   8398a:	41 46 d8                	b.bnei     r6,0x2,839a5 <boBufferByTagIdAndSrcAddrSearchMatch.15439+0x5a>
   8398d:	24 c4 32                	b.lbz      r6,0x4c(r4)
   83990:	41 06 a8                	b.bnei     r6,0x0,839a5 <boBufferByTagIdAndSrcAddrSearchMatch.15439+0x5a>
   83993:	28 a4 a2                	b.lhz      r5,0x44(r4)
   83996:	28 c7 80                	b.lhz      r6,0x0(r7)
   83999:	d2 ca 63 00             	b.bne      r5,r6,839a5 <boBufferByTagIdAndSrcAddrSearchMatch.15439+0x5a>
   8399d:	28 c4 e2                	b.lhz      r6,0x46(r4)
   839a0:	28 e7 a0                	b.lhz      r7,0x4(r7)
   839a3:	0f ef                   	b.j        83982 <boBufferByTagIdAndSrcAddrSearchMatch.15439+0x37>
   839a5:	47 d2 48                	b.jr       r9

000839a8 <boAddressSearchMatch.15435>:
   839a8:	d8 84 00 80             	b.addi     r4,r4,0x100
   839ac:	60 64 1a                	b.xor      r3,r4,r3
   839af:	3e 03 1c                	b.ff1      r3,r3
   839b2:	00 7f                   	b.addi     r3,r3,-0x1
   839b4:	6c 63 f9                	b.srli     r3,r3,0x1f
   839b7:	47 d2 48                	b.jr       r9

000839ba <eEUI_CompareMulticast.1556>:
   839ba:	47 aa 80                	b.entri    0x5,0x1
   839bd:	2d 63 40                	b.lwz      r11,0x0(r3)
   839c0:	6c cb 09                	b.srli     r6,r11,0x10
   839c3:	3e 06 39                	b.extbs    r7,r6
   839c6:	42 07 a0                	b.bgesi    r7,0x0,839cb <eEUI_CompareMulticast.1556+0x11>
   839c9:	0f ec                   	b.j        83aa8 <eEUI_CompareMulticast.1556+0xee>
   839cb:	34 a6 02                	b.andi     r5,r6,0x40
   839ce:	00 e6                   	b.movi     r7,0x6
   839d0:	d0 40 5d b0             	b.bnei     r5,0x0,83aab <eEUI_CompareMulticast.1556+0xf1>
   839d4:	35 46 f0                	b.andi     r10,r6,0xf
   839d7:	34 c6 0c                	b.andi     r6,r6,0x30
   839da:	38 e0 10                	b.ori      r7,r0,0x8
   839dd:	3c 06 04                	b.sfeqi    r6,0x20
   839e0:	47 2d 30                	b.bf       83aab <eEUI_CompareMulticast.1556+0xf1>
   839e3:	3c 06 0c                	b.sfeqi    r6,0x30
   839e6:	47 21 a0                	b.bf       83a3e <eEUI_CompareMulticast.1556+0x84>
   839e9:	3c 06 08                	b.sfeqi    r6,0x10
   839ec:	47 21 20                	b.bf       83a34 <eEUI_CompareMulticast.1556+0x7a>
   839ef:	95 6b ff ff 00 00       	b.andi     r11,r11,0xffff
   839f5:	d0 40 bc d0             	b.bnei     r11,0x0,83aa8 <eEUI_CompareMulticast.1556+0xee>
   839f9:	2c e3 60                	b.lwz      r7,0x4(r3)
   839fc:	d0 40 73 50             	b.bnei     r7,0x0,83aa8 <eEUI_CompareMulticast.1556+0xee>
   83a00:	2c e3 50                	b.lwz      r7,0x8(r3)
   83a03:	d0 40 7a 50             	b.bnei     r7,0x0,83aa8 <eEUI_CompareMulticast.1556+0xee>
   83a07:	2c e3 70                	b.lwz      r7,0xc(r3)
   83a0a:	40 47 e8                	b.beqi     r7,0x2,83a21 <eEUI_CompareMulticast.1556+0x67>
   83a0d:	3c 07 68                	b.sfeqi    r7,0x16
   83a10:	47 28 80                	b.bf       83a21 <eEUI_CompareMulticast.1556+0x67>
   83a13:	d0 60 7a 90             	b.bnei     r7,0x1,83aa8 <eEUI_CompareMulticast.1556+0xee>
   83a17:	01 5f                   	b.addi     r10,r10,-0x1
   83a19:	00 ea                   	b.movi     r7,0x5
   83a1b:	d1 e0 ab 10             	b.bgtui    r10,0x1,83aa8 <eEUI_CompareMulticast.1556+0xee>
   83a1f:	0c c4                   	b.j        83aab <eEUI_CompareMulticast.1556+0xf1>
   83a21:	8c e0 59 70 00 20       	b.lwz      r7,0x4000e98(r0)
   83a27:	24 e7 12                	b.lbz      r7,0x48(r7)
   83a2a:	41 87 7e                	b.bnei     r7,0x1,83aa8 <eEUI_CompareMulticast.1556+0xee>
   83a2d:	00 e6                   	b.movi     r7,0x6
   83a2f:	41 4a 9e                	b.bnei     r10,0x2,83aa8 <eEUI_CompareMulticast.1556+0xee>
   83a32:	0e 78                   	b.j        83aab <eEUI_CompareMulticast.1556+0xf1>
   83a34:	00 ee                   	b.movi     r7,0x7
   83a36:	d1 d0 aa e0             	b.bgtui    r10,0x2,83aab <eEUI_CompareMulticast.1556+0xf1>
   83a3a:	00 e2                   	b.movi     r7,0x4
   83a3c:	0f d8                   	b.j        83aab <eEUI_CompareMulticast.1556+0xf1>
   83a3e:	8c c0 59 70 00 20       	b.lwz      r6,0x4000e98(r0)
   83a44:	2d a3 60                	b.lwz      r13,0x4(r3)
   83a47:	2c e6 41                	b.lwz      r7,0x80(r6)
   83a4a:	2d 83 50                	b.lwz      r12,0x8(r3)
   83a4d:	61 ad 3a                	b.xor      r13,r13,r7
   83a50:	38 a0 02                	b.ori      r5,r0,0x40
   83a53:	00 60                   	b.movi     r3,0x0
   83a55:	2c e6 7e                	b.lwz      r7,0x7c(r6)
   83a58:	00 88                   	b.movi     r4,0x1
   83a5a:	61 8c 3a                	b.xor      r12,r12,r7
   83a5d:	34 eb ff                	b.andi     r7,r11,0xff
   83a60:	60 a5 3d                	b.sub      r5,r5,r7
   83a63:	4b 49 92                	b.jal      960ae <__ashldi3>
   83a66:	60 80 25                	b.sub      r4,r0,r4
   83a69:	3c 24 00                	b.sfnei    r4,0x0
   83a6c:	00 e8                   	b.movi     r7,0x1
   83a6e:	60 60 1d                	b.sub      r3,r0,r3
   83a71:	64 e7 02                	b.cmov     r7,r7,r0
   83a74:	60 e3 3d                	b.sub      r7,r3,r7
   83a77:	61 a7 68                	b.and      r13,r7,r13
   83a7a:	61 84 60                	b.and      r12,r4,r12
   83a7d:	60 8d 61                	b.or       r4,r13,r12
   83a80:	00 e6                   	b.movi     r7,0x6
   83a82:	41 04 94                	b.bnei     r4,0x0,83aab <eEUI_CompareMulticast.1556+0xf1>
   83a85:	38 c0 02                	b.ori      r6,r0,0x40
   83a88:	61 6b 32                	b.xor      r11,r11,r6
   83a8b:	3e 0b 58                	b.extbz    r11,r11
   83a8e:	01 7f                   	b.addi     r11,r11,-0x1
   83a90:	00 e8                   	b.movi     r7,0x1
   83a92:	3c ea 40                	b.sfleui   r10,0x2
   83a95:	6d 6b f9                	b.srli     r11,r11,0x1f
   83a98:	64 e7 02                	b.cmov     r7,r7,r0
   83a9b:	60 e7 59                	b.or       r7,r7,r11
   83a9e:	3e 07 38                	b.extbz    r7,r7
   83aa1:	41 07 99                	b.bnei     r7,0x0,83a3a <eEUI_CompareMulticast.1556+0x80>
   83aa4:	00 ee                   	b.movi     r7,0x7
   83aa6:	0e 80                   	b.j        83aab <eEUI_CompareMulticast.1556+0xf1>
   83aa8:	38 e0 10                	b.ori      r7,r0,0x8
   83aab:	04 67                   	b.mov      r3,r7
   83aad:	47 ba 80                	b.reti     0x5,0x1

00083ab0 <vHandleNwkCallback.14616>:
   83ab0:	8c e0 7c d0 00 20       	b.lwz      r7,0x4000b3c(r0)
   83ab6:	47 a8 80                	b.entri    0x1,0x1
   83ab9:	40 07 38                	b.beqi     r7,0x0,83ad5 <vHandleNwkCallback.14616+0x25>
   83abc:	3c e4 10                	b.sfleui   r4,0x8
   83abf:	47 2b 00                	b.bf       83acc <vHandleNwkCallback.14616+0x1c>
   83ac2:	00 91                   	b.addi     r4,r4,-0x8
   83ac4:	30 a5 10                	b.addi     r5,r5,0x8
   83ac7:	3e 04 20                	b.extbz    r4,r4
   83aca:	0d 80                   	b.j        83ad0 <vHandleNwkCallback.14616+0x20>
   83acc:	00 a0                   	b.movi     r5,0x0
   83ace:	00 80                   	b.movi     r4,0x0
   83ad0:	47 d1 38                	b.jalr     r7
   83ad3:	0c 80                   	b.j        83ad7 <vHandleNwkCallback.14616+0x27>
   83ad5:	00 68                   	b.movi     r3,0x1
   83ad7:	47 b8 80                	b.reti     0x1,0x1

00083ada <vQueueApi.13427>:
   83ada:	38 a0 28                	b.ori      r5,r0,0x14
   83add:	98 60 1a 70 00 20       	b.ori      r3,r0,0x4000e58
   83ae3:	47 a8 80                	b.entri    0x1,0x1
   83ae6:	d4 6e a3 ef             	b.jal      5c <memcpy>
   83aea:	47 b8 80                	b.reti     0x1,0x1

00083aed <vEstablishRoute_Backoff.12073>:
   83aed:	8c e0 6f 60 00 20       	b.lwz      r7,0x40006f4(r0)
   83af3:	00 c8                   	b.movi     r6,0x1
   83af5:	c0 c7 94 80             	b.sb       0x129(r7),r6
   83af9:	47 d2 48                	b.jr       r9

00083afc <vActiveScan_Backoff.12078>:
   83afc:	47 d2 48                	b.jr       r9

00083aff <vNed_StateTimeoutHandler>:
   83aff:	8c e0 6f 60 00 20       	b.lwz      r7,0x40006f4(r0)
   83b05:	00 c8                   	b.movi     r6,0x1
   83b07:	cc c7 32 80             	b.sw       0x14c(r7),r6
   83b0b:	47 d2 48                	b.jr       r9

00083b0e <vNed_PollPeriodHandler>:
   83b0e:	8c e0 6f 60 00 20       	b.lwz      r7,0x40006f4(r0)
   83b14:	00 c8                   	b.movi     r6,0x1
   83b16:	c0 c7 54 80             	b.sb       0x12a(r7),r6
   83b1a:	47 d2 48                	b.jr       r9

00083b1d <vNed_PollTimeoutHandler>:
   83b1d:	8c e0 6f 60 00 20       	b.lwz      r7,0x40006f4(r0)
   83b23:	c4 c7 b8 80             	b.lbz      r6,0x11d(r7)
   83b27:	41 86 a4                	b.bnei     r6,0x1,83b4c <vNed_PollTimeoutHandler+0x2f>
   83b2a:	c0 07 b8 80             	b.sb       0x11d(r7),r0
   83b2e:	8c e0 7f 60 00 20       	b.lwz      r7,0x40006fc(r0)
   83b34:	c4 c7 26 80             	b.lbz      r6,0x164(r7)
   83b38:	3c 06 b0                	b.sfeqi    r6,0xd
   83b3b:	47 29 00                	b.bf       83b44 <vNed_PollTimeoutHandler+0x27>
   83b3e:	3c 06 f0                	b.sfeqi    r6,0xf
   83b41:	47 3d 00                	b.bnf      83b4c <vNed_PollTimeoutHandler+0x2f>
   83b44:	2c c7 44                	b.lwz      r6,0x20(r7)
   83b47:	00 d8                   	b.addi     r6,r6,0x1
   83b49:	2c c7 04                	b.sw       0x20(r7),r6
   83b4c:	47 d2 48                	b.jr       r9

00083b4f <vNed_ScanTimeoutHandler>:
   83b4f:	8c e0 7f 60 00 20       	b.lwz      r7,0x40006fc(r0)
   83b55:	47 a8 80                	b.entri    0x1,0x1
   83b58:	c4 c7 26 80             	b.lbz      r6,0x164(r7)
   83b5c:	00 d7                   	b.addi     r6,r6,-0x2
   83b5e:	3e 06 30                	b.extbz    r6,r6
   83b61:	3c a6 30                	b.sfgtui   r6,0xc
   83b64:	47 28 e0                	b.bf       83bd5 <vNed_ScanTimeoutHandler+0x86>
   83b67:	6c c6 40                	b.slli     r6,r6,0x2
   83b6a:	90 c6 1e dc 10 00       	b.addi     r6,r6,0x83b78
   83b70:	2c c6 40                	b.lwz      r6,0x0(r6)
   83b73:	47 d2 30                	b.jr       r6
   83b76:	00 00                   	b.trap     0x0
   83b78:	00 08                   	b.trap     0x1
   83b7a:	3b ac 00                	b.ori      r29,r12,0x0
   83b7d:	08 3b                   	b.add      r1,r1,r27
   83b7f:	d5 00 08 3b             	b.j        ffe44b7f <OND_DEV_TYPE+0xf7e34b0b>
   83b83:	ac 00 08 3b d5 00       	b.mulas    r0,r0,r1,0x0
   83b89:	08 3b                   	b.add      r1,r1,r27
   83b8b:	d5 00 08 3b             	b.j        ffe44b8b <OND_DEV_TYPE+0xf7e34b17>
   83b8f:	b3 00 08 3b b7 00       	b.copdss   r24,r0,r1,0x76ee0
   83b95:	08 3b                   	b.add      r1,r1,r27
   83b97:	d5 00 08 3b             	b.j        ffe44b97 <OND_DEV_TYPE+0xf7e34b23>
   83b9b:	d5 00 08 3b             	b.j        ffe44b9b <OND_DEV_TYPE+0xf7e34b27>
   83b9f:	d5 00 08 3b             	b.j        ffe44b9f <OND_DEV_TYPE+0xf7e34b2b>
   83ba3:	d5 00 08 3b             	b.j        ffe44ba3 <OND_DEV_TYPE+0xf7e34b2f>
   83ba7:	d5 00 08 3b             	b.j        ffe44ba7 <OND_DEV_TYPE+0xf7e34b33>
   83bab:	bf                      	.word 0xbf
   83bac:	00 c8                   	b.movi     r6,0x1
   83bae:	20 c7 18                	b.sb       0x18(r7),r6
   83bb1:	0c 90                   	b.j        83bd5 <vNed_ScanTimeoutHandler+0x86>
   83bb3:	00 ca                   	b.movi     r6,0x5
   83bb5:	0c 80                   	b.j        83bb9 <vNed_ScanTimeoutHandler+0x6a>
   83bb7:	00 c6                   	b.movi     r6,0x6
   83bb9:	c0 c7 26 80             	b.sb       0x164(r7),r6
   83bbd:	0c 60                   	b.j        83bd5 <vNed_ScanTimeoutHandler+0x86>
   83bbf:	cc c7 79 80             	b.lwz      r6,0x19c(r7)
   83bc3:	40 06 48                	b.beqi     r6,0x0,83bd5 <vNed_ScanTimeoutHandler+0x86>
   83bc6:	c4 a7 45 80             	b.lbz      r5,0x1a2(r7)
   83bca:	cc 07 39 80             	b.sw       0x19c(r7),r0
   83bce:	c0 a7 26 80             	b.sb       0x164(r7),r5
   83bd2:	47 d1 30                	b.jalr     r6
   83bd5:	47 b8 80                	b.reti     0x1,0x1

00083bd8 <bOND_SafeToSleep.13415>:
   83bd8:	47 a8 80                	b.entri    0x1,0x1
   83bdb:	48 7c 44                	b.jal      8c4d3 <bJnc_IsStackRunning>
   83bde:	40 03 e8                	b.beqi     r3,0x0,83bf5 <bOND_SafeToSleep.13415+0x1d>
   83be1:	84 e0 11 70 00 20       	b.lbz      r7,0x4000e88(r0)
   83be7:	40 07 70                	b.beqi     r7,0x0,83bf5 <bOND_SafeToSleep.13415+0x1d>
   83bea:	84 e0 c2 70 00 20       	b.lbz      r7,0x4000e43(r0)
   83bf0:	00 60                   	b.movi     r3,0x0
   83bf2:	41 87 30                	b.bnei     r7,0x1,83bfe <bOND_SafeToSleep.13415+0x26>
   83bf5:	8c 60 7e 70 00 20       	b.lwz      r3,0x4000e7c(r0)
   83bfb:	47 d1 18                	b.jalr     r3
   83bfe:	47 b8 80                	b.reti     0x1,0x1

00083c01 <vScanOrAssociate_Backoff>:
   83c01:	47 a8 80                	b.entri    0x1,0x1
   83c04:	4a de 44                	b.jal      8c5f1 <vJnc_ClearScanListVect>
   83c07:	8c e0 7f 60 00 20       	b.lwz      r7,0x40006fc(r0)
   83c0d:	00 cc                   	b.movi     r6,0x3
   83c0f:	c0 c7 26 80             	b.sb       0x164(r7),r6
   83c13:	47 b8 80                	b.reti     0x1,0x1

00083c16 <u8GroupAddUnique.17248>:
   83c16:	47 a6 00                	b.entri    0x6,0x0
   83c19:	05 a3                   	b.mov      r13,r3
   83c1b:	05 c4                   	b.mov      r14,r4
   83c1d:	05 45                   	b.mov      r10,r5
   83c1f:	05 84                   	b.mov      r12,r4
   83c21:	01 60                   	b.movi     r11,0x0
   83c23:	0f a0                   	b.j        83c3a <u8GroupAddUnique.17248+0x24>
   83c25:	38 a0 08                	b.ori      r5,r0,0x10
   83c28:	04 8c                   	b.mov      r4,r12
   83c2a:	04 6d                   	b.mov      r3,r13
   83c2c:	31 8c 08                	b.addi     r12,r12,0x10
   83c2f:	49 f3 e2                	b.jal      95b6d <memcmp>
   83c32:	40 03 f8                	b.beqi     r3,0x0,83c51 <u8GroupAddUnique.17248+0x3b>
   83c35:	01 78                   	b.addi     r11,r11,0x1
   83c37:	3e 0b 58                	b.extbz    r11,r11
   83c3a:	d2 d6 ad 7f             	b.bne      r11,r10,83c25 <u8GroupAddUnique.17248+0xf>
   83c3e:	6c 6a 20                	b.slli     r3,r10,0x4
   83c41:	08 6e                   	b.add      r3,r3,r14
   83c43:	38 a0 08                	b.ori      r5,r0,0x10
   83c46:	01 58                   	b.addi     r10,r10,0x1
   83c48:	04 8d                   	b.mov      r4,r13
   83c4a:	3e 0a 50                	b.extbz    r10,r10
   83c4d:	d4 f0 23 ef             	b.jal      5c <memcpy>
   83c51:	04 6a                   	b.mov      r3,r10
   83c53:	47 b6 00                	b.reti     0x6,0x0

00083c56 <u8CompressAddrs.17233>:
   83c56:	47 ae e0                	b.entri    0x7,0x7
   83c59:	05 63                   	b.mov      r11,r3
   83c5b:	2c 81 08                	b.sw       0x10(r1),r4
   83c5e:	01 c0                   	b.movi     r14,0x0
   83c60:	2c a1 28                	b.sw       0x14(r1),r5
   83c63:	01 40                   	b.movi     r10,0x0
   83c65:	01 88                   	b.movi     r12,0x1
   83c67:	0f 94                   	b.j        83d0e <u8CompressAddrs.17233+0xb8>
   83c69:	60 cb 3c                	b.add      r6,r11,r7
   83c6c:	30 67 80                	b.addi     r3,r7,0x1
   83c6f:	08 6b                   	b.add      r3,r3,r11
   83c71:	38 a0 b0                	b.ori      r5,r0,0xd
   83c74:	25 a6 00                	b.lbz      r13,0x0(r6)
   83c77:	2c 81 50                	b.lwz      r4,0x8(r1)
   83c7a:	6d ad 80                	b.slli     r13,r13,0x1
   83c7d:	31 ad 70                	b.addi     r13,r13,0xe
   83c80:	09 a7                   	b.add      r13,r13,r7
   83c82:	3e 0d 68                	b.extbz    r13,r13
   83c85:	54 c1 00                	b.msw      0x0(r1),r6,0x0
   83c88:	4a 9d e2                	b.jal      95b6d <memcmp>
   83c8b:	50 c1 00                	b.mlwz     r6,0x0(r1),0x0
   83c8e:	41 03 5c                	b.bnei     r3,0x0,83cc8 <u8CompressAddrs.17233+0x72>
   83c91:	d3 9a aa 80             	b.bgeu     r13,r10,83ca6 <u8CompressAddrs.17233+0x50>
   83c95:	30 6d 40                	b.addi     r3,r13,0x2
   83c98:	08 6b                   	b.add      r3,r3,r11
   83c9a:	60 8b 6c                	b.add      r4,r11,r13
   83c9d:	60 aa 6d                	b.sub      r5,r10,r13
   83ca0:	4b 43 e2                	b.jal      95bab <memmove>
   83ca3:	50 c1 00                	b.mlwz     r6,0x0(r1),0x0
   83ca6:	24 af 00                	b.lbz      r5,0x0(r15)
   83ca9:	09 ab                   	b.add      r13,r13,r11
   83cab:	01 54                   	b.addi     r10,r10,0x2
   83cad:	3e 0a 50                	b.extbz    r10,r10
   83cb0:	20 ad 00                	b.sb       0x0(r13),r5
   83cb3:	24 af 80                	b.lbz      r5,0x1(r15)
   83cb6:	20 ad 80                	b.sb       0x1(r13),r5
   83cb9:	24 a6 00                	b.lbz      r5,0x0(r6)
   83cbc:	00 b8                   	b.addi     r5,r5,0x1
   83cbe:	20 a6 00                	b.sb       0x0(r6),r5
   83cc1:	00 c8                   	b.movi     r6,0x1
   83cc3:	2c c1 30                	b.sw       0xc(r1),r6
   83cc6:	0c 80                   	b.j        83cca <u8CompressAddrs.17233+0x74>
   83cc8:	04 ed                   	b.mov      r7,r13
   83cca:	2c a1 70                	b.lwz      r5,0xc(r1)
   83ccd:	3d ea 38                	b.sfgtu    r10,r7
   83cd0:	60 cc 2a                	b.xor      r6,r12,r5
   83cd3:	64 8c 02                	b.cmov     r4,r12,r0
   83cd6:	3e 06 28                	b.extbz    r5,r6
   83cd9:	60 c4 30                	b.and      r6,r4,r6
   83cdc:	3e 06 30                	b.extbz    r6,r6
   83cdf:	41 06 51                	b.bnei     r6,0x0,83c69 <u8CompressAddrs.17233+0x13>
   83ce2:	3d 2a 22                	b.sfltui   r10,0x44
   83ce5:	64 ec 02                	b.cmov     r7,r12,r0
   83ce8:	60 e5 38                	b.and      r7,r5,r7
   83ceb:	40 07 78                	b.beqi     r7,0x0,83d09 <u8CompressAddrs.17233+0xb3>
   83cee:	60 eb 54                	b.add      r7,r11,r10
   83cf1:	30 6a 80                	b.addi     r3,r10,0x1
   83cf4:	08 6b                   	b.add      r3,r3,r11
   83cf6:	38 a0 f0                	b.ori      r5,r0,0xf
   83cf9:	31 4a 08                	b.addi     r10,r10,0x10
   83cfc:	3e 0a 50                	b.extbz    r10,r10
   83cff:	2c 81 50                	b.lwz      r4,0x8(r1)
   83d02:	21 87 00                	b.sb       0x0(r7),r12
   83d05:	d4 ea c3 ef             	b.jal      5c <memcpy>
   83d09:	01 d8                   	b.addi     r14,r14,0x1
   83d0b:	3e 0e 70                	b.extbz    r14,r14
   83d0e:	2c e1 68                	b.lwz      r7,0x14(r1)
   83d11:	3d 2a 4a                	b.sfltui   r10,0x52
   83d14:	64 cc 02                	b.cmov     r6,r12,r0
   83d17:	3d e7 70                	b.sfgtu    r7,r14
   83d1a:	64 ec 02                	b.cmov     r7,r12,r0
   83d1d:	60 e6 38                	b.and      r7,r6,r7
   83d20:	3e 07 38                	b.extbz    r7,r7
   83d23:	40 07 d8                	b.beqi     r7,0x0,83d3e <u8CompressAddrs.17233+0xe8>
   83d26:	2c c1 48                	b.lwz      r6,0x10(r1)
   83d29:	6d 0e 20                	b.slli     r8,r14,0x4
   83d2c:	09 06                   	b.add      r8,r8,r6
   83d2e:	30 e8 80                	b.addi     r7,r8,0x1
   83d31:	31 e8 70                	b.addi     r15,r8,0xe
   83d34:	2c e1 10                	b.sw       0x8(r1),r7
   83d37:	00 e0                   	b.movi     r7,0x0
   83d39:	2c 01 30                	b.sw       0xc(r1),r0
   83d3c:	0d c7                   	b.j        83cca <u8CompressAddrs.17233+0x74>
   83d3e:	04 6a                   	b.mov      r3,r10
   83d40:	47 be e0                	b.reti     0x7,0x7

00083d43 <u8GetChangedButUnnotifiedGroups.16300>:
   83d43:	47 ae 80                	b.entri    0x7,0x1
   83d46:	2d 64 40                	b.lwz      r11,0x0(r4)
   83d49:	05 a4                   	b.mov      r13,r4
   83d4b:	61 6b 5b                	b.nand     r11,r11,r11
   83d4e:	05 e5                   	b.mov      r15,r5
   83d50:	61 6b 18                	b.and      r11,r11,r3
   83d53:	01 40                   	b.movi     r10,0x0
   83d55:	01 80                   	b.movi     r12,0x0
   83d57:	01 c8                   	b.movi     r14,0x1
   83d59:	0c b0                   	b.j        83d8d <u8GetChangedButUnnotifiedGroups.16300+0x4a>
   83d5b:	00 e8                   	b.movi     r7,0x1
   83d5d:	60 e7 66                	b.sll      r7,r7,r12
   83d60:	60 c7 58                	b.and      r6,r7,r11
   83d63:	40 06 14                	b.beqi     r6,0x0,83d8b <u8GetChangedButUnnotifiedGroups.16300+0x48>
   83d66:	2c cd 40                	b.lwz      r6,0x0(r13)
   83d69:	8c 80 6d 50 00 20       	b.lwz      r4,0x4000ab4(r0)
   83d6f:	61 6b 3a                	b.xor      r11,r11,r7
   83d72:	60 e6 39                	b.or       r7,r6,r7
   83d75:	6c 6a 20                	b.slli     r3,r10,0x4
   83d78:	08 6f                   	b.add      r3,r3,r15
   83d7a:	38 a0 08                	b.ori      r5,r0,0x10
   83d7d:	01 58                   	b.addi     r10,r10,0x1
   83d7f:	2c ed 00                	b.sw       0x0(r13),r7
   83d82:	6c ec 20                	b.slli     r7,r12,0x4
   83d85:	08 87                   	b.add      r4,r4,r7
   83d87:	d4 ab 43 ef             	b.jal      5c <memcpy>
   83d8b:	01 98                   	b.addi     r12,r12,0x1
   83d8d:	3e 0b 3c                	b.ff1      r7,r11
   83d90:	60 e0 3d                	b.sub      r7,r0,r7
   83d93:	3c ea c0                	b.sfleui   r10,0x3
   83d96:	6c e7 f9                	b.srli     r7,r7,0x1f
   83d99:	64 ce 02                	b.cmov     r6,r14,r0
   83d9c:	60 e7 30                	b.and      r7,r7,r6
   83d9f:	41 07 3d                	b.bnei     r7,0x0,83d5b <u8GetChangedButUnnotifiedGroups.16300+0x18>
   83da2:	3e 0a 18                	b.extbz    r3,r10
   83da5:	47 be 80                	b.reti     0x7,0x1

00083da8 <b6LP_HandleRxEvent>:
   83da8:	8c e0 59 70 00 20       	b.lwz      r7,0x4000e98(r0)
   83dae:	47 a8 80                	b.entri    0x1,0x1
   83db1:	2c e7 6c                	b.lwz      r7,0x34(r7)
   83db4:	47 d1 38                	b.jalr     r7
   83db7:	00 e8                   	b.movi     r7,0x1
   83db9:	60 63 3a                	b.xor      r3,r3,r7
   83dbc:	3e 03 1c                	b.ff1      r3,r3
   83dbf:	00 7f                   	b.addi     r3,r3,-0x1
   83dc1:	6c 63 f9                	b.srli     r3,r3,0x1f
   83dc4:	47 b8 80                	b.reti     0x1,0x1

00083dc7 <u16IPv6_Truncate32bitChecksumTo16bit>:
   83dc7:	0d 40                   	b.j        83dd1 <u16IPv6_Truncate32bitChecksumTo16bit+0xa>
   83dc9:	94 63 ff ff 00 00       	b.andi     r3,r3,0xffff
   83dcf:	08 67                   	b.add      r3,r3,r7
   83dd1:	6c e3 09                	b.srli     r7,r3,0x10
   83dd4:	41 07 af                	b.bnei     r7,0x0,83dc9 <u16IPv6_Truncate32bitChecksumTo16bit+0x2>
   83dd7:	98 e0 ff ff 00 00       	b.ori      r7,r0,0xffff
   83ddd:	60 63 1b                	b.nand     r3,r3,r3
   83de0:	3e 03 1a                	b.exthz    r3,r3
   83de3:	3c 23 00                	b.sfnei    r3,0x0
   83de6:	64 63 3a                	b.cmov     r3,r3,r7
   83de9:	47 d2 48                	b.jr       r9

00083dec <u32IPv6_CalculatePayloadDataChecksum>:
   83dec:	6d 04 81                	b.srli     r8,r4,0x1
   83def:	47 ac 80                	b.entri    0x3,0x1
   83df2:	34 84 80                	b.andi     r4,r4,0x1
   83df5:	30 c3 80                	b.addi     r6,r3,0x1
   83df8:	00 a0                   	b.movi     r5,0x0
   83dfa:	00 e0                   	b.movi     r7,0x0
   83dfc:	0d a0                   	b.j        83e12 <u32IPv6_CalculatePayloadDataChecksum+0x26>
   83dfe:	c5 46 bf ff             	b.lbz      r10,-0x3(r6)
   83e02:	c5 66 7f ff             	b.lbz      r11,-0x2(r6)
   83e06:	6d 4a 10                	b.slli     r10,r10,0x8
