
c:/NXP/bstudio_nxp/workspace2/JN-AN-1190-JenNet-IP-Application-Template/Binary/0x11111111s_DeviceTemplate_DR1174_EndDevice_JN5168_DEBUG.elf:     file format elf32-ba


Disassembly of section .vsr_handlers:

00080050 <_exception_external_interrupt>:
   80050:	30 21 0d                	b.addi     r1,r1,-0x50
   80053:	2c 61 30                	b.sw       0xc(r1),r3
   80056:	2d 41 14                	b.sw       0x28(r1),r10
   80059:	a8 60 04 00 00 00       	b.mfspr    r3,r0,0x20
   8005f:	2c 61 12                	b.sw       0x48(r1),r3
   80062:	a8 60 02 00 00 00       	b.mfspr    r3,r0,0x40
   80068:	2c 61 22                	b.sw       0x44(r1),r3
   8006b:	a8 60 08 12 00 00       	b.mfspr    r3,r0,0x4810
   80071:	2c 61 32                	b.sw       0x4c(r1),r3
   80074:	a8 60 88 12 00 00       	b.mfspr    r3,r0,0x4811
   8007a:	a8 60 08 12 00 01       	b.mtspr    r0,r3,0x4810
   80080:	a9 40 c8 12 00 00       	b.mfspr    r10,r0,0x4813
   80086:	04 01                   	b.ei       
   80088:	2c 41 10                	b.sw       0x8(r1),r2
   8008b:	2c 81 08                	b.sw       0x10(r1),r4
   8008e:	2c a1 28                	b.sw       0x14(r1),r5
   80091:	2c c1 18                	b.sw       0x18(r1),r6
   80094:	2c e1 38                	b.sw       0x1c(r1),r7
   80097:	2d 01 04                	b.sw       0x20(r1),r8
   8009a:	2d 21 24                	b.sw       0x24(r1),r9
   8009d:	d2 94 00 40             	b.beq      r10,r0,800bd <_exception_external_interrupt+0x6d>
   800a1:	3e 0a 24                	b.ff1      r4,r10
   800a4:	61 4a 27                	b.srl      r10,r10,r4
   800a7:	61 4a 26                	b.sll      r10,r10,r4
   800aa:	00 9f                   	b.addi     r4,r4,-0x1
   800ac:	6c e4 40                	b.slli     r7,r4,0x2
   800af:	8c e7 56 b0 00 20       	b.lwz      r7,0x4000d68(r7)
   800b5:	60 60 09                	b.or       r3,r0,r1
   800b8:	47 d1 38                	b.jalr     r7
   800bb:	0d 1f                   	b.j        8009d <_exception_external_interrupt+0x4d>
   800bd:	2c 41 50                	b.lwz      r2,0x8(r1)
   800c0:	2c 61 70                	b.lwz      r3,0xc(r1)
   800c3:	2c a1 68                	b.lwz      r5,0x14(r1)
   800c6:	2c c1 58                	b.lwz      r6,0x18(r1)
   800c9:	2c e1 78                	b.lwz      r7,0x1c(r1)
   800cc:	2d 01 44                	b.lwz      r8,0x20(r1)
   800cf:	2d 21 64                	b.lwz      r9,0x24(r1)
   800d2:	2d 41 54                	b.lwz      r10,0x28(r1)
   800d5:	04 02                   	b.di       
   800d7:	2c 81 62                	b.lwz      r4,0x44(r1)
   800da:	a8 80 02 00 00 01       	b.mtspr    r0,r4,0x40
   800e0:	2c 81 52                	b.lwz      r4,0x48(r1)
   800e3:	a8 80 04 00 00 01       	b.mtspr    r0,r4,0x20
   800e9:	2c 81 72                	b.lwz      r4,0x4c(r1)
   800ec:	a8 80 08 12 00 01       	b.mtspr    r0,r4,0x4810
   800f2:	2c 81 48                	b.lwz      r4,0x10(r1)
   800f5:	30 21 0a                	b.addi     r1,r1,0x50

000800f8 <_default_vsr_dummy>:
   800f8:	04 00                   	b.rfe      

Disassembly of section .text:

00080978 <Device_vInit>:
   80978:	8c 00 12 e0 00 20       	b.sw       0x4000748(r0),r0
   8097e:	47 ae a2                	b.entri    0x7,0x45
   80981:	80 00 9c e0 00 20       	b.sb       0x4000739(r0),r0
   80987:	05 43                   	b.mov      r10,r3
   80989:	8c 00 09 e0 00 20       	b.sw       0x4000790(r0),r0
   8098f:	4a 75 28                	b.jal      85c48 <bAHI_Clock32MHzStable>
   80992:	40 03 bf                	b.beqi     r3,0x0,8098f <Device_vInit+0x17>
   80995:	00 ea                   	b.movi     r7,0x5
   80997:	80 e0 0a 00 00 20       	b.sb       0x4000050(r0),r7
   8099d:	98 e0 80 be 10 00       	b.ori      r7,r0,0x87d01
   809a3:	8c e0 39 e0 00 20       	b.sw       0x400079c(r0),r7
   809a9:	98 e0 77 1e 10 00       	b.ori      r7,r0,0x878ee
   809af:	8c e0 3f c0 00 20       	b.sw       0x40003fc(r0),r7
   809b5:	98 e0 7d 1e 10 00       	b.ori      r7,r0,0x878be
   809bb:	8c e0 1f c0 00 20       	b.sw       0x40003f8(r0),r7
   809c1:	98 e0 ef 1c 90 00       	b.ori      r7,r0,0x938f7
   809c7:	8c e0 05 e0 00 20       	b.sw       0x40007a0(r0),r7
   809cd:	98 e0 16 1e 10 00       	b.ori      r7,r0,0x87868
   809d3:	8c e0 25 e0 00 20       	b.sw       0x40007a4(r0),r7
   809d9:	80 00 00 20 00 20       	b.sb       0x4000400(r0),r0
   809df:	49 13 38                	b.jal      87d01 <DBG_vUartInitHardware>
   809e2:	cc f0 40 09             	b.lwz      r7,-0x7000(r16)
   809e6:	98 e7 00 00 00 10       	b.ori      r7,r7,0x8000000
   809ec:	cc f0 00 09             	b.sw       -0x7000(r16),r7
   809f0:	00 60                   	b.movi     r3,0x0
   809f2:	00 84                   	b.movi     r4,0x2
   809f4:	48 3a 28                	b.jal      85b64 <vAHI_UartSetBaudDivisor.part.1.23877>
   809f7:	d8 c0 04 0d             	b.addi     r6,r0,-0x4fe0
   809fb:	04 e6                   	b.mov      r7,r6
   809fd:	08 f0                   	b.add      r7,r7,r16
   809ff:	08 d0                   	b.add      r6,r6,r16
   80a01:	2c c6 40                	b.lwz      r6,0x0(r6)
   80a04:	94 c6 0f ff ff ff       	b.andi     r6,r6,0xfffffff0
   80a0a:	38 c6 10                	b.ori      r6,r6,0x8
   80a0d:	2c c7 00                	b.sw       0x0(r7),r6
   80a10:	8c e0 46 b0 00 20       	b.lwz      r7,0x4000d60(r0)
   80a16:	41 07 38                	b.bnei     r7,0x0,80a32 <Device_vInit+0xba>
   80a19:	38 80 0b                	b.ori      r4,r0,0xd0
   80a1c:	00 60                   	b.movi     r3,0x0
   80a1e:	00 a8                   	b.movi     r5,0x1
   80a20:	4a c1 c8                	b.jal      8582d <pvHeap_Alloc>
   80a23:	8c 60 06 b0 00 20       	b.sw       0x4000d60(r0),r3
   80a29:	40 03 90                	b.beqi     r3,0x0,80a32 <Device_vInit+0xba>
   80a2c:	20 03 92                	b.sb       0x49(r3),r0
   80a2f:	20 03 12                	b.sb       0x48(r3),r0
   80a32:	98 c0 ef e0 90 00       	b.ori      r6,r0,0x907f7
   80a38:	98 e0 ab e0 90 00       	b.ori      r7,r0,0x907d5
   80a3e:	8c c0 10 20 00 20       	b.sw       0x4000408(r0),r6
   80a44:	8c c0 30 20 00 20       	b.sw       0x400040c(r0),r6
   80a4a:	98 c0 c8 11 10 00       	b.ori      r6,r0,0x88813
   80a50:	8c e0 02 90 00 20       	b.sw       0x4000940(r0),r7
   80a56:	8c e0 20 20 00 20       	b.sw       0x4000404(r0),r7
   80a5c:	8c e0 08 20 00 20       	b.sw       0x4000410(r0),r7
   80a62:	8c e0 28 20 00 20       	b.sw       0x4000414(r0),r7
   80a68:	8c c0 18 20 00 20       	b.sw       0x4000418(r0),r6
   80a6e:	8c c0 38 20 00 20       	b.sw       0x400041c(r0),r6
   80a74:	8c c0 04 20 00 20       	b.sw       0x4000420(r0),r6
   80a7a:	8c e0 24 20 00 20       	b.sw       0x4000424(r0),r7
   80a80:	4b 71 c8                	b.jal      858bb <u32AHI_Init>
   80a83:	d8 60 00 10             	b.addi     r3,r0,0x800
   80a87:	00 80                   	b.movi     r4,0x0
   80a89:	48 19 28                	b.jal      85ce9 <vAHI_DioSetDirection>
   80a8c:	cc f0 70 09             	b.lwz      r7,-0x6ff4(r16)
   80a90:	98 e7 00 10 00 00       	b.ori      r7,r7,0x800
   80a96:	cc f0 30 09             	b.sw       -0x6ff4(r16),r7
   80a9a:	41 0a 3a                	b.bnei     r10,0x0,80af6 <Device_vInit+0x17e>
   80a9d:	8c e0 62 c0 00 20       	b.lwz      r7,0x4000344(r0)
   80aa3:	8c e0 0d a0 00 20       	b.sw       0x40005b0(r0),r7
   80aa9:	8c e0 15 e0 00 20       	b.sw       0x40007a8(r0),r7
   80aaf:	38 c1 00                	b.ori      r6,r1,0x0
   80ab2:	98 a0 86 e9 40 00       	b.ori      r5,r0,0x29761
   80ab8:	0f 80                   	b.j        80abf <Device_vInit+0x147>
   80aba:	2c a7 00                	b.sw       0x0(r7),r5
   80abd:	00 f2                   	b.addi     r7,r7,0x4
   80abf:	d3 cc 7d ff             	b.bgtu     r6,r7,80aba <Device_vInit+0x142>
   80ac3:	8c e0 35 e0 00 20       	b.sw       0x40007ac(r0),r7
   80ac9:	00 6f                   	b.movi     r3,-0x1
   80acb:	8c e0 6a 00 00 20       	b.lwz      r7,0x4000054(r0)
   80ad1:	00 80                   	b.movi     r4,0x0
   80ad3:	8c e0 14 20 00 20       	b.sw       0x4000428(r0),r7
   80ad9:	98 e0 53 8a 10 00       	b.ori      r7,r0,0x851ca
   80adf:	8c e0 2a 00 00 20       	b.sw       0x4000054(r0),r7
   80ae5:	48 81 28                	b.jal      85ce9 <vAHI_DioSetDirection>
   80ae8:	cc f0 7c 09             	b.lwz      r7,-0x6fc4(r16)
   80aec:	94 e7 00 00 0f ff       	b.andi     r7,r7,0xfff00000
   80af2:	cc f0 3c 09             	b.sw       -0x6fc4(r16),r7
   80af6:	00 e8                   	b.movi     r7,0x1
   80af8:	80 e0 34 20 00 20       	b.sb       0x400042c(r0),r7
   80afe:	41 0a ec                	b.bnei     r10,0x0,80b35 <Device_vInit+0x1bd>
   80b01:	4a 22 c8                	b.jal      85812 <vAHI_WakeTimerStop.part.3.24142.constprop.41>
   80b04:	4b fb c8                	b.jal      85a83 <u8AHI_WakeTimerFiredStatus>
   80b07:	4a 03 b8                	b.jal      88208 <u32AHI_WakeTimerCalibrate>
   80b0a:	04 83                   	b.mov      r4,r3
   80b0c:	98 60 00 02 9a ce       	b.ori      r3,r0,0x73594000
   80b12:	49 38 aa                	b.jal      95f84 <__udivsi3>
   80b15:	04 a3                   	b.mov      r5,r3
   80b17:	8c 60 24 80 00 20       	b.sw       0x4000124(r0),r3
   80b1d:	00 68                   	b.movi     r3,0x1
   80b1f:	2c a1 10                	b.sw       0x8(r1),r5
   80b22:	8c 00 04 80 00 20       	b.sw       0x4000120(r0),r0
   80b28:	4b 1a 48                	b.jal      8548b <vAHI_WakeTimerEnable.part.0.24128.constprop.96>
   80b2b:	2c a1 50                	b.lwz      r5,0x8(r1)
   80b2e:	00 68                   	b.movi     r3,0x1
   80b30:	00 80                   	b.movi     r4,0x0
   80b32:	49 67 c8                	b.jal      85acc <vAHI_WakeTimerStartLarge.part.2.24137>
   80b35:	38 e0 02                	b.ori      r7,r0,0x40
   80b38:	98 60 34 90 10 00       	b.ori      r3,r0,0x8092c
   80b3e:	8c e0 29 e0 00 20       	b.sw       0x4000794(r0),r7
   80b44:	38 e0 7c                	b.ori      r7,r0,0x3e
   80b47:	80 e0 19 e0 00 20       	b.sb       0x4000798(r0),r7
   80b4d:	80 e0 94 80 00 20       	b.sb       0x4000129(r0),r7
   80b53:	80 00 14 80 00 20       	b.sb       0x4000128(r0),r0
   80b59:	8c 00 0c 20 00 20       	b.sw       0x4000430(r0),r0
   80b5f:	80 00 32 e0 00 20       	b.sb       0x400074c(r0),r0
   80b65:	4a 08 82                	b.jal      90fa6 <dbg_vPrintfImplNoneVerbose>
   80b68:	98 60 3f 00 10 00       	b.ori      r3,r0,0x800fc
   80b6e:	48 70 82                	b.jal      90fa6 <dbg_vPrintfImplNoneVerbose>
   80b71:	98 80 32 e0 00 20       	b.ori      r4,r0,0x400074c
   80b77:	98 60 70 80 10 00       	b.ori      r3,r0,0x8010e
   80b7d:	04 aa                   	b.mov      r5,r10
   80b7f:	4b 90 82                	b.jal      90fa6 <dbg_vPrintfImplNoneVerbose>
   80b82:	00 68                   	b.movi     r3,0x1
   80b84:	4a 54 42                	b.jal      9142d <Node_vDebugIndent.part.3.1795>
   80b87:	98 60 44 80 10 00       	b.ori      r3,r0,0x80122
   80b8d:	98 80 32 e0 00 20       	b.ori      r4,r0,0x400074c
   80b93:	04 aa                   	b.mov      r5,r10
   80b95:	4a 20 82                	b.jal      90fa6 <dbg_vPrintfImplNoneVerbose>
   80b98:	a0 40 a1 7a 80 00       	b.bnei     r10,0x0,82180 <Device_vInit+0x1808>
   80b9e:	98 60 2c 80 10 00       	b.ori      r3,r0,0x80134
   80ba4:	98 80 32 e0 00 20       	b.ori      r4,r0,0x400074c
   80baa:	48 ff 02                	b.jal      90fa6 <dbg_vPrintfImplNoneVerbose>
   80bad:	00 68                   	b.movi     r3,0x1
   80baf:	49 f8 42                	b.jal      9142d <Node_vDebugIndent.part.3.1795>
   80bb2:	85 40 94 80 00 20       	b.lbz      r10,0x4000129(r0)
   80bb8:	6d 6a 60                	b.slli     r11,r10,0x6
   80bbb:	30 eb 30                	b.addi     r7,r11,0xc
   80bbe:	9f 47 03 f0 00 00       	b.sfleui   r7,0xfc0
   80bc4:	47 22 80                	b.bf       80bd8 <Device_vInit+0x260>
   80bc7:	31 8b 30                	b.addi     r12,r11,0xc
   80bca:	31 6b 18                	b.addi     r11,r11,0x18
   80bcd:	9e cb 03 f0 00 00       	b.sfgtui   r11,0xfc0
   80bd3:	47 2c c0                	b.bf       80c06 <Device_vInit+0x28e>
   80bd6:	0d f0                   	b.j        80c14 <Device_vInit+0x29c>
   80bd8:	00 68                   	b.movi     r3,0x1
   80bda:	48 ab 32                	b.jal      93f2e <bPDM_InitialiseEEPROM>
   80bdd:	38 e0 10                	b.ori      r7,r0,0x8
   80be0:	8d 60 21 00 00 80       	b.sw       0x1000084(r0),r11
   80be6:	8c e0 01 00 00 80       	b.sw       0x1000080(r0),r7
   80bec:	00 e0                   	b.movi     r7,0x0
   80bee:	8c a0 71 00 00 80       	b.lwz      r5,0x100008c(r0)
   80bf4:	30 c1 3e                	b.addi     r6,r1,0x7c
   80bf7:	08 c7                   	b.add      r6,r6,r7
   80bf9:	00 f8                   	b.addi     r7,r7,0x1
   80bfb:	3c 27 30                	b.sfnei    r7,0xc
   80bfe:	20 a6 00                	b.sb       0x0(r6),r5
   80c01:	47 2b 7f                	b.bf       80bee <Device_vInit+0x276>
   80c04:	0f 0f                   	b.j        80bc7 <Device_vInit+0x24f>
   80c06:	2c c1 41                	b.lwz      r6,0x80(r1)
   80c09:	9d 86 d3 c8 7a 5f       	b.sfeqi    r6,-0x5a1ec35
   80c0f:	47 34 e0                	b.bnf      80c81 <Device_vInit+0x309>
   80c12:	0e 30                   	b.j        80c43 <Device_vInit+0x2cb>
   80c14:	00 68                   	b.movi     r3,0x1
   80c16:	48 63 32                	b.jal      93f2e <bPDM_InitialiseEEPROM>
   80c19:	38 e0 10                	b.ori      r7,r0,0x8
   80c1c:	8d 80 21 00 00 80       	b.sw       0x1000084(r0),r12
   80c22:	8c e0 01 00 00 80       	b.sw       0x1000080(r0),r7
   80c28:	00 e0                   	b.movi     r7,0x0
   80c2a:	8c a0 71 00 00 80       	b.lwz      r5,0x100008c(r0)
   80c30:	d8 c1 11 00             	b.addi     r6,r1,0x88
   80c34:	08 c7                   	b.add      r6,r6,r7
   80c36:	00 f8                   	b.addi     r7,r7,0x1
   80c38:	3c 27 30                	b.sfnei    r7,0xc
   80c3b:	20 a6 00                	b.sb       0x0(r6),r5
   80c3e:	47 23 7f                	b.bf       80c2a <Device_vInit+0x2b2>
   80c41:	0e 8f                   	b.j        80c06 <Device_vInit+0x28e>
   80c43:	2c e1 61                	b.lwz      r7,0x84(r1)
   80c46:	9d c7 2e 88 80 11       	b.sfnei    r7,-0x77feee8c
   80c4c:	47 2a c0                	b.bf       80c81 <Device_vInit+0x309>
   80c4f:	2c a1 7e                	b.lwz      r5,0x7c(r1)
   80c52:	2c c1 31                	b.sw       0x8c(r1),r6
   80c55:	6c a5 80                	b.slli     r5,r5,0x1
   80c58:	38 80 30                	b.ori      r4,r0,0xc
   80c5b:	d8 c1 11 00             	b.addi     r6,r1,0x88
   80c5f:	04 6a                   	b.mov      r3,r10
   80c61:	2c a1 11                	b.sw       0x88(r1),r5
   80c64:	38 a0 30                	b.ori      r5,r0,0xc
   80c67:	01 68                   	b.movi     r11,0x1
   80c69:	2c e1 09                	b.sw       0x90(r1),r7
   80c6c:	2c 01 01                	b.sw       0x80(r1),r0
   80c6f:	48 38 b2                	b.jal      940df <bAHI_WriteEEPROM>
   80c72:	38 a0 30                	b.ori      r5,r0,0xc
   80c75:	30 c1 3e                	b.addi     r6,r1,0x7c
   80c78:	04 6a                   	b.mov      r3,r10
   80c7a:	00 80                   	b.movi     r4,0x0
   80c7c:	4b 18 b2                	b.jal      940df <bAHI_WriteEEPROM>
   80c7f:	0c a4                   	b.j        80d13 <Device_vInit+0x39b>
   80c81:	2c c1 71                	b.lwz      r6,0x8c(r1)
   80c84:	9d c6 d3 c8 7a 5f       	b.sfnei    r6,-0x5a1ec35
   80c8a:	47 23 c0                	b.bf       80cc6 <Device_vInit+0x34e>
   80c8d:	2c e1 49                	b.lwz      r7,0x90(r1)
   80c90:	9d c7 2e 88 80 11       	b.sfnei    r7,-0x77feee8c
   80c96:	47 20 c0                	b.bf       80cc6 <Device_vInit+0x34e>
   80c99:	2c a1 51                	b.lwz      r5,0x88(r1)
   80c9c:	2c c1 01                	b.sw       0x80(r1),r6
   80c9f:	6c a5 80                	b.slli     r5,r5,0x1
   80ca2:	30 c1 3e                	b.addi     r6,r1,0x7c
   80ca5:	00 80                   	b.movi     r4,0x0
   80ca7:	2c a1 3e                	b.sw       0x7c(r1),r5
   80caa:	38 a0 30                	b.ori      r5,r0,0xc
   80cad:	04 6a                   	b.mov      r3,r10
   80caf:	2c e1 21                	b.sw       0x84(r1),r7
   80cb2:	2c 01 31                	b.sw       0x8c(r1),r0
   80cb5:	49 50 b2                	b.jal      940df <bAHI_WriteEEPROM>
   80cb8:	04 6a                   	b.mov      r3,r10
   80cba:	38 80 30                	b.ori      r4,r0,0xc
   80cbd:	38 a0 30                	b.ori      r5,r0,0xc
   80cc0:	d8 c1 11 00             	b.addi     r6,r1,0x88
   80cc4:	0d 48                   	b.j        80d0e <Device_vInit+0x396>
   80cc6:	d9 81 0b 00             	b.addi     r12,r1,0xd0
   80cca:	38 a0 02                	b.ori      r5,r0,0x40
   80ccd:	04 6c                   	b.mov      r3,r12
   80ccf:	00 80                   	b.movi     r4,0x0
   80cd1:	01 60                   	b.movi     r11,0x0
   80cd3:	49 49 2a                	b.jal      95f1d <memset>
   80cd6:	38 a0 02                	b.ori      r5,r0,0x40
   80cd9:	04 6b                   	b.mov      r3,r11
   80cdb:	00 80                   	b.movi     r4,0x0
   80cdd:	04 cc                   	b.mov      r6,r12
   80cdf:	01 78                   	b.addi     r11,r11,0x1
   80ce1:	49 ff 32                	b.jal      940df <bAHI_WriteEEPROM>
   80ce4:	3e 0b 58                	b.extbz    r11,r11
   80ce7:	3c 2b fc                	b.sfnei    r11,0x3f
   80cea:	47 23 7f                	b.bf       80cd6 <Device_vInit+0x35e>
   80ced:	00 e7                   	b.movi     r7,-0x2
   80cef:	2c e1 3e                	b.sw       0x7c(r1),r7
   80cf2:	98 e0 d3 c8 7a 5f       	b.ori      r7,r0,0xfa5e13cb
   80cf8:	38 a0 30                	b.ori      r5,r0,0xc
   80cfb:	30 c1 3e                	b.addi     r6,r1,0x7c
   80cfe:	04 6a                   	b.mov      r3,r10
   80d00:	2c e1 01                	b.sw       0x80(r1),r7
   80d03:	98 e0 2e 88 80 11       	b.ori      r7,r0,0x88011174
   80d09:	00 80                   	b.movi     r4,0x0
   80d0b:	2c e1 21                	b.sw       0x84(r1),r7
   80d0e:	4a 2f 32                	b.jal      940df <bAHI_WriteEEPROM>
   80d11:	01 60                   	b.movi     r11,0x0
   80d13:	00 60                   	b.movi     r3,0x0
   80d15:	48 63 c8                	b.jal      85c2d <vAHI_TickTimerConfigure>
   80d18:	00 e0                   	b.movi     r7,0x0
   80d1a:	a8 e0 80 0a 00 01       	b.mtspr    r0,r7,0x5001
   80d20:	98 60 00 12 17 80       	b.ori      r3,r0,0x1e84800
   80d26:	49 c5 c8                	b.jal      85bb4 <vAHI_TickTimerInterval>
   80d29:	00 64                   	b.movi     r3,0x2
   80d2b:	49 03 c8                	b.jal      85c2d <vAHI_TickTimerConfigure>
   80d2e:	00 68                   	b.movi     r3,0x1
   80d30:	49 15 c8                	b.jal      85bd2 <vAHI_TickTimerIntEnable>
   80d33:	0e 80                   	b.j        80d38 <Device_vInit+0x3c0>
   80d35:	4a 6b c8                	b.jal      85c8e <vAHI_CpuDoze>
   80d38:	a8 e0 80 0a 00 00       	b.mfspr    r7,r0,0x5001
   80d3e:	9f 47 ff e2 17 80       	b.sfleui   r7,0x1e847ff
   80d44:	47 28 ff                	b.bf       80d35 <Device_vInit+0x3bd>
   80d47:	00 60                   	b.movi     r3,0x0
   80d49:	48 9d c8                	b.jal      85c2d <vAHI_TickTimerConfigure>
   80d4c:	41 0b 3c                	b.bnei     r11,0x0,80d88 <Device_vInit+0x410>
   80d4f:	2c e1 7e                	b.lwz      r7,0x7c(r1)
   80d52:	38 80 30                	b.ori      r4,r0,0xc
   80d55:	38 e7 80                	b.ori      r7,r7,0x1
   80d58:	38 a0 30                	b.ori      r5,r0,0xc
   80d5b:	d8 c1 11 00             	b.addi     r6,r1,0x88
   80d5f:	04 6a                   	b.mov      r3,r10
   80d61:	2c e1 11                	b.sw       0x88(r1),r7
   80d64:	2c e1 41                	b.lwz      r7,0x80(r1)
   80d67:	2c 01 01                	b.sw       0x80(r1),r0
   80d6a:	2c e1 31                	b.sw       0x8c(r1),r7
   80d6d:	2c e1 61                	b.lwz      r7,0x84(r1)
   80d70:	2c e1 09                	b.sw       0x90(r1),r7
   80d73:	48 db 32                	b.jal      940df <bAHI_WriteEEPROM>
   80d76:	38 a0 30                	b.ori      r5,r0,0xc
   80d79:	30 c1 3e                	b.addi     r6,r1,0x7c
   80d7c:	04 6a                   	b.mov      r3,r10
   80d7e:	00 80                   	b.movi     r4,0x0
   80d80:	4b eb 32                	b.jal      940df <bAHI_WriteEEPROM>
   80d83:	2c e1 51                	b.lwz      r7,0x88(r1)
   80d86:	0e 70                   	b.j        80dbf <Device_vInit+0x447>
   80d88:	2c e1 51                	b.lwz      r7,0x88(r1)
   80d8b:	38 a0 30                	b.ori      r5,r0,0xc
   80d8e:	38 e7 80                	b.ori      r7,r7,0x1
   80d91:	30 c1 3e                	b.addi     r6,r1,0x7c
   80d94:	00 80                   	b.movi     r4,0x0
   80d96:	2c e1 3e                	b.sw       0x7c(r1),r7
   80d99:	04 6a                   	b.mov      r3,r10
   80d9b:	2c e1 71                	b.lwz      r7,0x8c(r1)
   80d9e:	2c 01 31                	b.sw       0x8c(r1),r0
   80da1:	2c e1 01                	b.sw       0x80(r1),r7
   80da4:	2c e1 49                	b.lwz      r7,0x90(r1)
   80da7:	2c e1 21                	b.sw       0x84(r1),r7
   80daa:	4a b3 32                	b.jal      940df <bAHI_WriteEEPROM>
   80dad:	38 80 30                	b.ori      r4,r0,0xc
   80db0:	38 a0 30                	b.ori      r5,r0,0xc
   80db3:	d8 c1 11 00             	b.addi     r6,r1,0x88
   80db7:	04 6a                   	b.mov      r3,r10
   80db9:	49 93 32                	b.jal      940df <bAHI_WriteEEPROM>
   80dbc:	2c e1 7e                	b.lwz      r7,0x7c(r1)
   80dbf:	38 c0 88                	b.ori      r6,r0,0x11
   80dc2:	34 e7 f8                	b.andi     r7,r7,0x1f
   80dc5:	60 e7 32                	b.xor      r7,r7,r6
   80dc8:	3e 07 3c                	b.ff1      r7,r7
   80dcb:	00 ff                   	b.addi     r7,r7,-0x1
   80dcd:	6c e7 f9                	b.srli     r7,r7,0x1f
   80dd0:	00 68                   	b.movi     r3,0x1
   80dd2:	2c e1 08                	b.sw       0x10(r1),r7
   80dd5:	4b 95 82                	b.jal      9147c <Node_vDebugOutdent.part.4.1798>
   80dd8:	2c 81 48                	b.lwz      r4,0x10(r1)
   80ddb:	98 60 f4 10 10 00       	b.ori      r3,r0,0x8082f
   80de1:	4a 8e 02                	b.jal      90fa6 <dbg_vPrintfImplNoneVerbose>
   80de4:	98 80 32 e0 00 20       	b.ori      r4,r0,0x400074c
   80dea:	98 60 6a 80 10 00       	b.ori      r3,r0,0x80156
   80df0:	49 b6 02                	b.jal      90fa6 <dbg_vPrintfImplNoneVerbose>
   80df3:	00 68                   	b.movi     r3,0x1
   80df5:	48 71 82                	b.jal      9142d <Node_vDebugIndent.part.3.1795>
   80df8:	98 80 32 e0 00 20       	b.ori      r4,r0,0x400074c
   80dfe:	38 a0 0c                	b.ori      r5,r0,0x30
   80e01:	38 c0 98                	b.ori      r6,r0,0x19
   80e04:	98 60 d6 80 10 00       	b.ori      r3,r0,0x8016b
   80e0a:	48 e6 02                	b.jal      90fa6 <dbg_vPrintfImplNoneVerbose>
   80e0d:	00 68                   	b.movi     r3,0x1
   80e0f:	49 e1 82                	b.jal      9142d <Node_vDebugIndent.part.3.1795>
   80e12:	84 a0 19 e0 00 20       	b.lbz      r5,0x4000798(r0)
   80e18:	8c e0 69 e0 00 20       	b.lwz      r7,0x4000794(r0)
   80e1e:	2c a1 30                	b.sw       0xc(r1),r5
   80e21:	cc d0 60 01             	b.lwz      r6,-0x7ffc(r16)
   80e25:	34 c6 40                	b.andi     r6,r6,0x2
   80e28:	a0 40 60 c1 00 00       	b.bnei     r6,0x0,81658 <Device_vInit+0xce0>
   80e2e:	2c c1 70                	b.lwz      r6,0xc(r1)
   80e31:	3e 07 38                	b.extbz    r7,r7
   80e34:	00 df                   	b.addi     r6,r6,-0x1
   80e36:	30 a7 ff                	b.addi     r5,r7,-0x1
   80e39:	60 c5 31                	b.or       r6,r5,r6
   80e3c:	d1 40 65 7e             	b.bltsi    r6,0x0,81626 <Device_vInit+0xcae>
   80e40:	98 c0 3f e0 00 20       	b.ori      r6,r0,0x40007fc
   80e46:	38 80 38                	b.ori      r4,r0,0x1c
   80e49:	00 a8                   	b.movi     r5,0x1
   80e4b:	8c c0 2c 20 00 20       	b.sw       0x4000434(r0),r6
   80e51:	2c c1 70                	b.lwz      r6,0xc(r1)
   80e54:	8c 60 40 10 00 20       	b.lwz      r3,0x4000800(r0)
   80e5a:	64 86 23                	b.mul      r4,r6,r4
   80e5d:	80 e0 3f e0 00 20       	b.sb       0x40007fc(r0),r7
   80e63:	80 c0 bf e0 00 20       	b.sb       0x40007fd(r0),r6
   80e69:	80 c0 20 10 00 20       	b.sb       0x4000804(r0),r6
   80e6f:	49 f6 48                	b.jal      8582d <pvHeap_Alloc>
   80e72:	8d 40 6c 20 00 20       	b.lwz      r10,0x4000434(r0)
   80e78:	8c 60 00 10 00 20       	b.sw       0x4000800(r0),r3
   80e7e:	2c ea 60                	b.lwz      r7,0x4(r10)
   80e81:	d0 00 7a 5e             	b.beqi     r7,0x0,81626 <Device_vInit+0xcae>
   80e85:	24 8a 00                	b.lbz      r4,0x0(r10)
   80e88:	2c 6a 78                	b.lwz      r3,0x1c(r10)
   80e8b:	30 84 0f                	b.addi     r4,r4,-0x10
   80e8e:	00 a8                   	b.movi     r5,0x1
   80e90:	4a e6 48                	b.jal      8582d <pvHeap_Alloc>
   80e93:	2c 6a 38                	b.sw       0x1c(r10),r3
   80e96:	8d 40 6c 20 00 20       	b.lwz      r10,0x4000434(r0)
   80e9c:	2c ea 78                	b.lwz      r7,0x1c(r10)
   80e9f:	d0 00 7e 1e             	b.beqi     r7,0x0,81626 <Device_vInit+0xcae>
   80ea3:	2c 6a 44                	b.lwz      r3,0x20(r10)
   80ea6:	38 80 08                	b.ori      r4,r0,0x10
   80ea9:	00 a8                   	b.movi     r5,0x1
   80eab:	49 06 48                	b.jal      8582d <pvHeap_Alloc>
   80eae:	2c 6a 04                	b.sw       0x20(r10),r3
   80eb1:	8d 40 6c 20 00 20       	b.lwz      r10,0x4000434(r0)
   80eb7:	2c ea 44                	b.lwz      r7,0x20(r10)
   80eba:	d0 00 73 6e             	b.beqi     r7,0x0,81626 <Device_vInit+0xcae>
   80ebe:	2c 0a 30                	b.sw       0xc(r10),r0
   80ec1:	99 80 00 64 9a 82       	b.ori      r12,r0,0x41592600
   80ec7:	01 60                   	b.movi     r11,0x0
   80ec9:	2c 0a 08                	b.sw       0x10(r10),r0
   80ecc:	2c 0a 28                	b.sw       0x14(r10),r0
   80ecf:	2c 0a 18                	b.sw       0x18(r10),r0
   80ed2:	20 0a 21                	b.sb       0x84(r10),r0
   80ed5:	d8 81 05 00             	b.addi     r4,r1,0xa0
   80ed9:	3e 0b 18                	b.extbz    r3,r11
   80edc:	20 61 39                	b.sb       0x9c(r1),r3
   80edf:	4b f2 32                	b.jal      9401e <iPDM_ReadSegmentHeaderFromEEPROM>
   80ee2:	24 e1 d5                	b.lbz      r7,0xab(r1)
   80ee5:	3c 27 8c                	b.sfnei    r7,0x31
   80ee8:	47 29 80                	b.bf       80f01 <Device_vInit+0x589>
   80eeb:	2c e1 75                	b.lwz      r7,0xac(r1)
   80eee:	94 e7 00 ff ff ff       	b.andi     r7,r7,0xffffff00
   80ef4:	60 e7 62                	b.xor      r7,r7,r12
   80ef7:	3e 07 3c                	b.ff1      r7,r7
   80efa:	00 ff                   	b.addi     r7,r7,-0x1
   80efc:	6c e7 f9                	b.srli     r7,r7,0x1f
   80eff:	0c 80                   	b.j        80f03 <Device_vInit+0x58b>
   80f01:	00 e0                   	b.movi     r7,0x0
   80f03:	01 78                   	b.addi     r11,r11,0x1
   80f05:	a0 20 71 11 80 00       	b.beqi     r7,0x1,8278d <Device_vInit+0x1e15>
   80f0b:	24 ea 80                	b.lbz      r7,0x1(r10)
   80f0e:	d3 4e be 3f             	b.bgts     r7,r11,80ed5 <Device_vInit+0x55d>
   80f12:	01 60                   	b.movi     r11,0x0
   80f14:	01 aa                   	b.movi     r13,0x5
   80f16:	0d f0                   	b.j        80f54 <Device_vInit+0x5dc>
   80f18:	3e 0b 60                	b.extbz    r12,r11
   80f1b:	04 6c                   	b.mov      r3,r12
   80f1d:	49 db d8                	b.jal      87e8b <bPDM_IsEEPROMsegmentErased>
   80f20:	41 03 4c                	b.bnei     r3,0x0,80f52 <Device_vInit+0x5da>
   80f23:	4b 40 32                	b.jal      93f2e <bPDM_InitialiseEEPROM>
   80f26:	6c eb 60                	b.slli     r7,r11,0x6
   80f29:	04 6c                   	b.mov      r3,r12
   80f2b:	8c e0 21 00 00 80       	b.sw       0x1000084(r0),r7
   80f31:	8d a0 01 00 00 80       	b.sw       0x1000080(r0),r13
   80f37:	8c 00 11 00 00 80       	b.sw       0x1000088(r0),r0
   80f3d:	8c 00 11 00 00 80       	b.sw       0x1000088(r0),r0
   80f43:	8c 00 11 00 00 80       	b.sw       0x1000088(r0),r0
   80f49:	8c 00 11 00 00 80       	b.sw       0x1000088(r0),r0
   80f4f:	4a 17 d2                	b.jal      93ef0 <vPDM_WriteEEPROMfixSegmentData>
   80f52:	01 78                   	b.addi     r11,r11,0x1
   80f54:	24 ea 80                	b.lbz      r7,0x1(r10)
   80f57:	d3 4e b8 3f             	b.bgts     r7,r11,80f18 <Device_vInit+0x5a0>
   80f5b:	2c 0a 30                	b.sw       0xc(r10),r0
   80f5e:	39 80 38                	b.ori      r12,r0,0x1c
   80f61:	2c 0a 08                	b.sw       0x10(r10),r0
   80f64:	2c 0a 28                	b.sw       0x14(r10),r0
   80f67:	2c 0a 18                	b.sw       0x18(r10),r0
   80f6a:	01 40                   	b.movi     r10,0x0
   80f6c:	0c 30                   	b.j        80f9c <Device_vInit+0x624>
   80f6e:	65 6a 63                	b.mul      r11,r10,r12
   80f71:	2c c7 60                	b.lwz      r6,0x4(r7)
   80f74:	38 a0 08                	b.ori      r5,r0,0x10
   80f77:	08 cb                   	b.add      r6,r6,r11
   80f79:	00 80                   	b.movi     r4,0x0
   80f7b:	21 46 10                	b.sb       0x8(r6),r10
   80f7e:	01 58                   	b.addi     r10,r10,0x1
   80f80:	2c 67 60                	b.lwz      r3,0x4(r7)
   80f83:	08 6b                   	b.add      r3,r3,r11
   80f85:	30 63 30                	b.addi     r3,r3,0xc
   80f88:	4a a7 ca                	b.jal      95f1d <memset>
   80f8b:	8c 60 6c 20 00 20       	b.lwz      r3,0x4000434(r0)
   80f91:	2c 83 60                	b.lwz      r4,0x4(r3)
   80f94:	30 63 28                	b.addi     r3,r3,0x14
   80f97:	08 8b                   	b.add      r4,r4,r11
   80f99:	4a 97 4c                	b.jal      8db3e <vDLISTaddToTail>
   80f9c:	8c e0 6c 20 00 20       	b.lwz      r7,0x4000434(r0)
   80fa2:	24 c7 80                	b.lbz      r6,0x1(r7)
   80fa5:	d3 4c a9 3f             	b.bgts     r6,r10,80f6e <Device_vInit+0x5f6>
   80fa9:	20 c7 10                	b.sb       0x8(r7),r6
   80fac:	46 5e 60                	b.j        81626 <Device_vInit+0xcae>
   80faf:	65 eb 63                	b.mul      r15,r11,r12
   80fb2:	2c ee 60                	b.lwz      r7,0x4(r14)
   80fb5:	3e 0b 18                	b.extbz    r3,r11
   80fb8:	08 ef                   	b.add      r7,r7,r15
   80fba:	20 67 10                	b.sb       0x8(r7),r3
   80fbd:	2c 8e 60                	b.lwz      r4,0x4(r14)
   80fc0:	08 8f                   	b.add      r4,r4,r15
   80fc2:	30 84 30                	b.addi     r4,r4,0xc
   80fc5:	4a 68 32                	b.jal      9401e <iPDM_ReadSegmentHeaderFromEEPROM>
   80fc8:	2c ae 60                	b.lwz      r5,0x4(r14)
   80fcb:	61 45 7c                	b.add      r10,r5,r15
   80fce:	d0 00 a6 90             	b.beqi     r10,0x0,81064 <Device_vInit+0x6ec>
   80fd2:	24 ea e8                	b.lbz      r7,0x17(r10)
   80fd5:	41 07 28                	b.bnei     r7,0x0,80fe9 <Device_vInit+0x671>
   80fd8:	2c ea 58                	b.lwz      r7,0x18(r10)
   80fdb:	94 e7 00 ff ff ff       	b.andi     r7,r7,0xffffff00
   80fe1:	a0 40 73 31 80 00       	b.bnei     r7,0x0,828ad <Device_vInit+0x1f35>
   80fe7:	0f c4                   	b.j        81076 <Device_vInit+0x6fe>
   80fe9:	3c 27 8c                	b.sfnei    r7,0x31
   80fec:	d6 83 18 00             	b.bf       828ad <Device_vInit+0x1f35>
   80ff0:	2c ea 58                	b.lwz      r7,0x18(r10)
   80ff3:	94 e7 00 ff ff ff       	b.andi     r7,r7,0xffffff00
   80ff9:	9d 87 00 64 9a 82       	b.sfeqi    r7,0x41592600
   80fff:	47 2e e0                	b.bf       81076 <Device_vInit+0x6fe>
   81002:	46 d5 18                	b.j        828ad <Device_vInit+0x1f35>
   81005:	d2 8e 34 80             	b.beq      r7,r3,81017 <Device_vInit+0x69f>
   81009:	64 87 63                	b.mul      r4,r7,r12
   8100c:	08 85                   	b.add      r4,r4,r5
   8100e:	2c 84 70                	b.lwz      r4,0xc(r4)
   81011:	3d a6 20                	b.sfgeu    r6,r4
   81014:	64 c6 22                	b.cmov     r6,r6,r4
   81017:	00 f8                   	b.addi     r7,r7,0x1
   81019:	d3 50 73 7f             	b.bgts     r8,r7,81005 <Device_vInit+0x68d>
   8101d:	2c aa 70                	b.lwz      r5,0xc(r10)
   81020:	d8 e6 13 00             	b.addi     r7,r6,0xc8
   81024:	d3 8e 50 20             	b.bgeu     r7,r5,81064 <Device_vInit+0x6ec>
   81028:	00 d8                   	b.addi     r6,r6,0x1
   8102a:	00 88                   	b.movi     r4,0x1
   8102c:	2c ca 30                	b.sw       0xc(r10),r6
   8102f:	04 6a                   	b.mov      r3,r10
   81031:	4a c8 32                	b.jal      9407e <iPDM_SetVerifyBytesInFileSystemRecord>
   81034:	24 ca 10                	b.lbz      r6,0x8(r10)
   81037:	2c ea 70                	b.lwz      r7,0xc(r10)
   8103a:	6c c6 60                	b.slli     r6,r6,0x6
   8103d:	04 6a                   	b.mov      r3,r10
   8103f:	8c c0 21 00 00 80       	b.sw       0x1000084(r0),r6
   81045:	00 80                   	b.movi     r4,0x0
   81047:	8d a0 01 00 00 80       	b.sw       0x1000080(r0),r13
   8104d:	8c e0 11 00 00 80       	b.sw       0x1000088(r0),r7
   81053:	4b 50 32                	b.jal      9407e <iPDM_SetVerifyBytesInFileSystemRecord>
   81056:	2c ee 7a                	b.lwz      r7,0x5c(r14)
   81059:	40 07 d0                	b.beqi     r7,0x0,81064 <Device_vInit+0x6ec>
   8105c:	24 6a 10                	b.lbz      r3,0x8(r10)
   8105f:	00 8c                   	b.movi     r4,0x3
   81061:	47 d1 38                	b.jalr     r7
   81064:	8c a0 6c 20 00 20       	b.lwz      r5,0x4000434(r0)
   8106a:	00 80                   	b.movi     r4,0x0
   8106c:	2c 65 60                	b.lwz      r3,0x4(r5)
   8106f:	30 a5 28                	b.addi     r5,r5,0x14
   81072:	08 6f                   	b.add      r3,r3,r15
   81074:	0d b8                   	b.j        810ea <Device_vInit+0x772>
   81076:	8c a0 6c 20 00 20       	b.lwz      r5,0x4000434(r0)
   8107c:	2c 65 60                	b.lwz      r3,0x4(r5)
   8107f:	08 6f                   	b.add      r3,r3,r15
   81081:	24 e3 a8                	b.lbz      r7,0x15(r3)
   81084:	00 ff                   	b.addi     r7,r7,-0x1
   81086:	3e 07 38                	b.extbz    r7,r7
   81089:	3c a7 50                	b.sfgtui   r7,0xa
   8108c:	47 29 a0                	b.bf       810e5 <Device_vInit+0x76d>
   8108f:	6c e7 40                	b.slli     r7,r7,0x2
   81092:	90 e7 05 08 10 00       	b.addi     r7,r7,0x810a0
   81098:	2c e7 40                	b.lwz      r7,0x0(r7)
   8109b:	47 d2 38                	b.jr       r7
   8109e:	00 00                   	b.trap     0x0
   810a0:	00 08                   	b.trap     0x1
   810a2:	10                      	.word 0x10
   810a3:	cc 00 08 10             	b.sw       0x810(r0),r0
   810a7:	db 00 08 10             	b.addi     r24,r0,0x810
   810ab:	d1 00 08 10             	b.blesi    r0,0x0,8112c <Device_vInit+0x7b4>
   810af:	e0                      	.word 0xe0
   810b0:	00 08                   	b.trap     0x1
   810b2:	10                      	.word 0x10
   810b3:	e5                      	.word 0xe5
   810b4:	00 08                   	b.trap     0x1
   810b6:	10                      	.word 0x10
   810b7:	e0                      	.word 0xe0
   810b8:	00 08                   	b.trap     0x1
   810ba:	10                      	.word 0x10
   810bb:	e0                      	.word 0xe0
   810bc:	00 08                   	b.trap     0x1
   810be:	10                      	.word 0x10
   810bf:	d6 00 08 10             	b.bf       1020bf <_flash_data_start+0x6b92f>
   810c3:	d6 00 08 10             	b.bf       1020c3 <_flash_data_start+0x6b933>
   810c7:	d6 00 08 10             	b.bf       1020c7 <_flash_data_start+0x6b937>
   810cb:	d6 30 a5 24             	b.bf       2cb5d7 <_flash_data_start+0x234e47>
   810cf:	0e 60                   	b.j        810e8 <Device_vInit+0x770>
   810d1:	30 a5 3c                	b.addi     r5,r5,0x3c
   810d4:	0c a0                   	b.j        810e8 <Device_vInit+0x770>
   810d6:	30 a5 22                	b.addi     r5,r5,0x44
   810d9:	0f c0                   	b.j        810e8 <Device_vInit+0x770>
   810db:	30 a5 34                	b.addi     r5,r5,0x2c
   810de:	0d 40                   	b.j        810e8 <Device_vInit+0x770>
   810e0:	30 a5 2c                	b.addi     r5,r5,0x34
   810e3:	0e 80                   	b.j        810e8 <Device_vInit+0x770>
   810e5:	30 a5 28                	b.addi     r5,r5,0x14
   810e8:	00 80                   	b.movi     r4,0x0
   810ea:	01 78                   	b.addi     r11,r11,0x1
   810ec:	4a b6 04                	b.jal      892a1 <vPDM_AddFileSystemElementToListInAscendingWearCountOrder>
   810ef:	8d c0 6c 20 00 20       	b.lwz      r14,0x4000434(r0)
   810f5:	24 ee 80                	b.lbz      r7,0x1(r14)
   810f8:	d3 4e be d7             	b.bgts     r7,r11,80faf <Device_vInit+0x637>
   810fc:	2c 01 36                	b.sw       0x6c(r1),r0
   810ff:	2c 01 0e                	b.sw       0x70(r1),r0
   81102:	2c ee 7c                	b.lwz      r7,0x3c(r14)
   81105:	0c 3c                   	b.j        811f5 <Device_vInit+0x87d>
   81107:	28 67 88                	b.lhz      r3,0x10(r7)
   8110a:	30 e1 36                	b.addi     r7,r1,0x6c
   8110d:	38 a0 70                	b.ori      r5,r0,0xe
   81110:	30 c1 14                	b.addi     r6,r1,0x28
   81113:	31 0b 3c                	b.addi     r8,r11,0x3c
   81116:	00 84                   	b.movi     r4,0x2
   81118:	2c e1 00                	b.sw       0x0(r1),r7
   8111b:	30 e1 34                	b.addi     r7,r1,0x2c
   8111e:	4b b8 92                	b.jal      93595 <vPDM_MoveAllDataWithBufferIdFromListToList>
   81121:	2d 81 76                	b.lwz      r12,0x6c(r1)
   81124:	d0 00 c7 30             	b.beqi     r12,0x0,811f2 <Device_vInit+0x87a>
   81128:	01 c8                   	b.movi     r14,0x1
   8112a:	01 40                   	b.movi     r10,0x0
   8112c:	01 a0                   	b.movi     r13,0x0
   8112e:	8c e0 6c 20 00 20       	b.lwz      r7,0x4000434(r0)
   81134:	30 a1 0c                	b.addi     r5,r1,0x30
   81137:	04 6c                   	b.mov      r3,r12
   81139:	2c 87 78                	b.lwz      r4,0x1c(r7)
   8113c:	4a 21 d0                	b.jal      83f4d <iPDM_ReadUserDataFromFileSystemRecord>
   8113f:	2c 8b 78                	b.lwz      r4,0x1c(r11)
   81142:	24 e4 00                	b.lbz      r7,0x0(r4)
   81145:	00 f8                   	b.addi     r7,r7,0x1
   81147:	08 e4                   	b.add      r7,r7,r4
   81149:	24 c7 00                	b.lbz      r6,0x0(r7)
   8114c:	20 c1 04                	b.sb       0x20(r1),r6
   8114f:	24 e7 80                	b.lbz      r7,0x1(r7)
   81152:	20 e1 84                	b.sb       0x21(r1),r7
   81155:	28 e1 84                	b.lhz      r7,0x20(r1)
   81158:	d3 ce d4 80             	b.bgtu     r7,r13,8116a <Device_vInit+0x7f2>
   8115c:	3c 2e 80                	b.sfnei    r14,0x1
   8115f:	65 4a 62                	b.cmov     r10,r10,r12
   81162:	3c 2e 80                	b.sfnei    r14,0x1
   81165:	65 ad 3a                	b.cmov     r13,r13,r7
   81168:	0d 80                   	b.j        8116e <Device_vInit+0x7f6>
   8116a:	05 4c                   	b.mov      r10,r12
   8116c:	05 a7                   	b.mov      r13,r7
   8116e:	2d 8c 40                	b.lwz      r12,0x0(r12)
   81171:	01 c0                   	b.movi     r14,0x0
   81173:	41 0c dd                	b.bnei     r12,0x0,8112e <Device_vInit+0x7b6>
   81176:	30 a1 1c                	b.addi     r5,r1,0x38
   81179:	04 6a                   	b.mov      r3,r10
   8117b:	49 2e d0                	b.jal      83f4d <iPDM_ReadUserDataFromFileSystemRecord>
   8117e:	2c eb 78                	b.lwz      r7,0x1c(r11)
   81181:	24 61 1c                	b.lbz      r3,0x38(r1)
   81184:	25 a7 00                	b.lbz      r13,0x0(r7)
   81187:	30 cd 80                	b.addi     r6,r13,0x1
   8118a:	08 c7                   	b.add      r6,r6,r7
   8118c:	24 a6 00                	b.lbz      r5,0x0(r6)
   8118f:	20 a1 44                	b.sb       0x22(r1),r5
   81192:	24 c6 80                	b.lbz      r6,0x1(r6)
   81195:	20 c1 c4                	b.sb       0x23(r1),r6
   81198:	24 c7 00                	b.lbz      r6,0x0(r7)
   8119b:	40 06 5c                	b.beqi     r6,0x0,811d5 <Device_vInit+0x85d>
   8119e:	30 cd c0                	b.addi     r6,r13,0x3
   811a1:	3e 06 30                	b.extbz    r6,r6
   811a4:	08 e6                   	b.add      r7,r7,r6
   811a6:	00 a8                   	b.movi     r5,0x1
   811a8:	60 c7 64                	b.add      r6,r7,r12
   811ab:	24 c6 00                	b.lbz      r6,0x0(r6)
   811ae:	41 86 d0                	b.bnei     r6,0x1,811b9 <Device_vInit+0x841>
   811b1:	01 98                   	b.addi     r12,r12,0x1
   811b3:	00 80                   	b.movi     r4,0x0
   811b5:	00 c0                   	b.movi     r6,0x0
   811b7:	0d c0                   	b.j        811c5 <Device_vInit+0x84d>
   811b9:	3c 26 00                	b.sfnei    r6,0x0
   811bc:	64 80 2a                	b.cmov     r4,r0,r5
   811bf:	3c 26 00                	b.sfnei    r6,0x0
   811c2:	64 c5 02                	b.cmov     r6,r5,r0
   811c5:	60 86 21                	b.or       r4,r6,r4
   811c8:	40 04 90                	b.beqi     r4,0x0,811d1 <Device_vInit+0x859>
   811cb:	41 86 50                	b.bnei     r6,0x1,811d5 <Device_vInit+0x85d>
   811ce:	46 e7 a8                	b.j        827b5 <Device_vInit+0x1e3d>
   811d1:	d3 46 ce bf             	b.bgts     r3,r12,811a8 <Device_vInit+0x830>
   811d5:	38 80 70                	b.ori      r4,r0,0xe
   811d8:	30 a1 36                	b.addi     r5,r1,0x6c
   811db:	30 cb 30                	b.addi     r6,r11,0xc
   811de:	04 6a                   	b.mov      r3,r10
   811e0:	4b c2 04                	b.jal      892ef <vPDM_MoveFileRecordFromListToList>
   811e3:	38 60 70                	b.ori      r3,r0,0xe
   811e6:	30 81 1c                	b.addi     r4,r1,0x38
   811e9:	30 a1 36                	b.addi     r5,r1,0x6c
   811ec:	30 cb 28                	b.addi     r6,r11,0x14
   811ef:	48 44 12                	b.jal      93277 <vPDM_MoveAllDataFromListToList>
   811f2:	2c eb 7c                	b.lwz      r7,0x3c(r11)
   811f5:	8d 60 6c 20 00 20       	b.lwz      r11,0x4000434(r0)
   811fb:	d0 40 73 0f             	b.bnei     r7,0x0,81107 <Device_vInit+0x78f>
   811ff:	2c 01 36                	b.sw       0x6c(r1),r0
   81202:	2c 01 0e                	b.sw       0x70(r1),r0
   81205:	2c eb 6c                	b.lwz      r7,0x34(r11)
   81208:	0c b0                   	b.j        8123c <Device_vInit+0x8c4>
   8120a:	28 67 88                	b.lhz      r3,0x10(r7)
   8120d:	24 87 68                	b.lbz      r4,0x16(r7)
   81210:	31 41 36                	b.addi     r10,r1,0x6c
   81213:	30 e1 1c                	b.addi     r7,r1,0x38
   81216:	38 a0 70                	b.ori      r5,r0,0xe
   81219:	30 c1 0c                	b.addi     r6,r1,0x30
   8121c:	31 08 2c                	b.addi     r8,r8,0x34
   8121f:	2d 41 00                	b.sw       0x0(r1),r10
   81222:	4b 3b 12                	b.jal      93595 <vPDM_MoveAllDataWithBufferIdFromListToList>
   81225:	8c 80 6c 20 00 20       	b.lwz      r4,0x4000434(r0)
   8122b:	04 6a                   	b.mov      r3,r10
   8122d:	30 84 30                	b.addi     r4,r4,0xc
   81230:	49 f6 c2                	b.jal      91fee <iPDM_ReconstructReplacedDataTable>
   81233:	8c e0 6c 20 00 20       	b.lwz      r7,0x4000434(r0)
   81239:	2c e7 6c                	b.lwz      r7,0x34(r7)
   8123c:	8d 00 6c 20 00 20       	b.lwz      r8,0x4000434(r0)
   81242:	41 07 13                	b.bnei     r7,0x0,8120a <Device_vInit+0x892>
   81245:	2c 01 22                	b.sw       0x44(r1),r0
   81248:	2c 01 12                	b.sw       0x48(r1),r0
   8124b:	2d 48 74                	b.lwz      r10,0x2c(r8)
   8124e:	46 9d 40                	b.j        81507 <Device_vInit+0xb8f>
   81251:	28 6a 88                	b.lhz      r3,0x10(r10)
   81254:	24 8a 68                	b.lbz      r4,0x16(r10)
   81257:	30 e1 22                	b.addi     r7,r1,0x44
   8125a:	38 a0 70                	b.ori      r5,r0,0xe
   8125d:	30 c1 78                	b.addi     r6,r1,0x1e
   81260:	31 8b 34                	b.addi     r12,r11,0x2c
   81263:	05 0c                   	b.mov      r8,r12
   81265:	2c e1 00                	b.sw       0x0(r1),r7
   81268:	30 e1 f8                	b.addi     r7,r1,0x1f
   8126b:	49 53 12                	b.jal      93595 <vPDM_MoveAllDataWithBufferIdFromListToList>
   8126e:	8c c0 6c 20 00 20       	b.lwz      r6,0x4000434(r0)
   81274:	28 6a 88                	b.lhz      r3,0x10(r10)
   81277:	31 a1 0c                	b.addi     r13,r1,0x30
   8127a:	38 a0 ff                	b.ori      r5,r0,0xff
   8127d:	30 c6 30                	b.addi     r6,r6,0xc
   81280:	00 84                   	b.movi     r4,0x2
   81282:	04 ed                   	b.mov      r7,r13
   81284:	4a 17 70                	b.jal      84e25 <iPDM_SearchForBufferIdInList>
   81287:	41 03 88                	b.bnei     r3,0x0,81298 <Device_vInit+0x920>
   8128a:	28 6a 88                	b.lhz      r3,0x10(r10)
   8128d:	24 8a 68                	b.lbz      r4,0x16(r10)
   81290:	04 ac                   	b.mov      r5,r12
   81292:	48 d4 92                	b.jal      9373e <iPDM_DeleteAppendedSequence>
   81295:	46 96 40                	b.j        814fe <Device_vInit+0xb86>
   81298:	2d 41 62                	b.lwz      r10,0x44(r1)
   8129b:	2c 01 32                	b.sw       0x4c(r1),r0
   8129e:	2c 01 0a                	b.sw       0x50(r1),r0
   812a1:	2c 01 2a                	b.sw       0x54(r1),r0
   812a4:	2c 01 1a                	b.sw       0x58(r1),r0
   812a7:	2c 01 3a                	b.sw       0x5c(r1),r0
   812aa:	2c 01 06                	b.sw       0x60(r1),r0
   812ad:	2c 01 26                	b.sw       0x64(r1),r0
   812b0:	2c 01 16                	b.sw       0x68(r1),r0
   812b3:	2c 01 36                	b.sw       0x6c(r1),r0
   812b6:	2c 01 0e                	b.sw       0x70(r1),r0
   812b9:	d0 00 a4 10             	b.beqi     r10,0x0,8133b <Device_vInit+0x9c3>
   812bd:	01 80                   	b.movi     r12,0x0
   812bf:	20 01 1c                	b.sb       0x38(r1),r0
   812c2:	0c e0                   	b.j        812de <Device_vInit+0x966>
   812c4:	2c 61 4c                	b.lwz      r3,0x30(r1)
   812c7:	38 80 70                	b.ori      r4,r0,0xe
   812ca:	30 a1 22                	b.addi     r5,r1,0x44
   812cd:	30 c1 26                	b.addi     r6,r1,0x64
   812d0:	4b e0 04                	b.jal      892ef <vPDM_MoveFileRecordFromListToList>
   812d3:	24 e1 1c                	b.lbz      r7,0x38(r1)
   812d6:	2d 81 4c                	b.lwz      r12,0x30(r1)
   812d9:	00 f8                   	b.addi     r7,r7,0x1
   812db:	20 e1 1c                	b.sb       0x38(r1),r7
   812de:	28 6a 88                	b.lhz      r3,0x10(r10)
   812e1:	24 8a 68                	b.lbz      r4,0x16(r10)
   812e4:	24 aa c8                	b.lbz      r5,0x13(r10)
   812e7:	30 c1 22                	b.addi     r6,r1,0x44
   812ea:	04 ed                   	b.mov      r7,r13
   812ec:	4a 73 70                	b.jal      84e25 <iPDM_SearchForBufferIdInList>
   812ef:	40 03 ab                	b.beqi     r3,0x0,812c4 <Device_vInit+0x94c>
   812f2:	24 e1 1c                	b.lbz      r7,0x38(r1)
   812f5:	40 07 8c                	b.beqi     r7,0x0,81326 <Device_vInit+0x9ae>
   812f8:	40 87 b0                	b.beqi     r7,0x1,81305 <Device_vInit+0x98d>
   812fb:	30 61 26                	b.addi     r3,r1,0x64
   812fe:	04 8d                   	b.mov      r4,r13
   81300:	49 dd 70                	b.jal      84dee <iPDM_FilterDuplicateAppendedSegmentsOnList.6830>
   81303:	0e 80                   	b.j        81308 <Device_vInit+0x990>
   81305:	2d 81 0c                	b.sw       0x30(r1),r12
   81308:	2c 61 4c                	b.lwz      r3,0x30(r1)
   8130b:	38 80 70                	b.ori      r4,r0,0xe
   8130e:	30 a1 26                	b.addi     r5,r1,0x64
   81311:	30 c1 36                	b.addi     r6,r1,0x6c
   81314:	4b 6f f8                	b.jal      892ef <vPDM_MoveFileRecordFromListToList>
   81317:	38 60 70                	b.ori      r3,r0,0xe
   8131a:	30 81 1c                	b.addi     r4,r1,0x38
   8131d:	30 a1 26                	b.addi     r5,r1,0x64
   81320:	30 c1 32                	b.addi     r6,r1,0x4c
   81323:	48 ab e2                	b.jal      93277 <vPDM_MoveAllDataFromListToList>
   81326:	2d 41 62                	b.lwz      r10,0x44(r1)
   81329:	41 0a 69                	b.bnei     r10,0x0,812bf <Device_vInit+0x947>
   8132c:	38 60 70                	b.ori      r3,r0,0xe
   8132f:	30 81 1c                	b.addi     r4,r1,0x38
   81332:	30 a1 36                	b.addi     r5,r1,0x6c
   81335:	30 c1 22                	b.addi     r6,r1,0x44
   81338:	4b f3 e2                	b.jal      93277 <vPDM_MoveAllDataFromListToList>
   8133b:	2c e1 62                	b.lwz      r7,0x44(r1)
   8133e:	31 81 3a                	b.addi     r12,r1,0x5c
   81341:	38 a0 70                	b.ori      r5,r0,0xe
   81344:	30 c1 1c                	b.addi     r6,r1,0x38
   81347:	31 0b 24                	b.addi     r8,r11,0x24
   8134a:	28 67 88                	b.lhz      r3,0x10(r7)
   8134d:	24 87 68                	b.lbz      r4,0x16(r7)
   81350:	2d 81 00                	b.sw       0x0(r1),r12
   81353:	30 e1 34                	b.addi     r7,r1,0x2c
   81356:	4b f1 12                	b.jal      93595 <vPDM_MoveAllDataWithBufferIdFromListToList>
   81359:	2d 41 62                	b.lwz      r10,0x44(r1)
   8135c:	0f 90                   	b.j        81383 <Device_vInit+0xa0b>
   8135e:	28 6a 88                	b.lhz      r3,0x10(r10)
   81361:	24 8a 68                	b.lbz      r4,0x16(r10)
   81364:	24 aa c8                	b.lbz      r5,0x13(r10)
   81367:	30 e1 0c                	b.addi     r7,r1,0x30
   8136a:	04 cc                   	b.mov      r6,r12
   8136c:	4a 75 70                	b.jal      84e25 <iPDM_SearchForBufferIdInList>
   8136f:	41 03 88                	b.bnei     r3,0x0,81380 <Device_vInit+0xa08>
   81372:	2c 61 4c                	b.lwz      r3,0x30(r1)
   81375:	38 80 70                	b.ori      r4,r0,0xe
   81378:	30 c1 2a                	b.addi     r6,r1,0x54
   8137b:	04 ac                   	b.mov      r5,r12
   8137d:	49 3b f8                	b.jal      892ef <vPDM_MoveFileRecordFromListToList>
   81380:	2d 4a 40                	b.lwz      r10,0x0(r10)
   81383:	41 0a db                	b.bnei     r10,0x0,8135e <Device_vInit+0x9e6>
   81386:	38 60 70                	b.ori      r3,r0,0xe
   81389:	30 81 1c                	b.addi     r4,r1,0x38
   8138c:	30 c1 22                	b.addi     r6,r1,0x44
   8138f:	04 ac                   	b.mov      r5,r12
   81391:	49 9d e2                	b.jal      93277 <vPDM_MoveAllDataFromListToList>
   81394:	30 a1 22                	b.addi     r5,r1,0x44
   81397:	38 60 70                	b.ori      r3,r0,0xe
   8139a:	30 81 04                	b.addi     r4,r1,0x20
   8139d:	04 c5                   	b.mov      r6,r5
   8139f:	48 6d e2                	b.jal      93277 <vPDM_MoveAllDataFromListToList>
   813a2:	2c e1 62                	b.lwz      r7,0x44(r1)
   813a5:	30 c1 22                	b.addi     r6,r1,0x44
   813a8:	00 a0                   	b.movi     r5,0x0
   813aa:	28 67 88                	b.lhz      r3,0x10(r7)
   813ad:	24 87 68                	b.lbz      r4,0x16(r7)
   813b0:	2c e1 24                	b.sw       0x24(r1),r7
   813b3:	30 e1 14                	b.addi     r7,r1,0x28
   813b6:	4b d9 70                	b.jal      84e25 <iPDM_SearchForBufferIdInList>
   813b9:	d0 40 30 c8             	b.bnei     r3,0x0,814e9 <Device_vInit+0xb71>
   813bd:	2d 41 54                	b.lwz      r10,0x28(r1)
   813c0:	24 c1 04                	b.lbz      r6,0x20(r1)
   813c3:	24 aa 28                	b.lbz      r5,0x14(r10)
   813c6:	d3 ca 6c 48             	b.bgtu     r5,r6,814e9 <Device_vInit+0xb71>
   813ca:	2c e1 64                	b.lwz      r7,0x24(r1)
   813cd:	a3 cc 55 02 80 00       	b.bgtu     r6,r5,827d7 <Device_vInit+0x1e5f>
   813d3:	24 ca a8                	b.lbz      r6,0x15(r10)
   813d6:	a0 50 68 02 80 00       	b.bnei     r6,0x2,827d7 <Device_vInit+0x1e5f>
   813dc:	46 48 28                	b.j        827ee <Device_vInit+0x1e76>
   813df:	2c 61 74                	b.lwz      r3,0x2c(r1)
   813e2:	24 e3 a8                	b.lbz      r7,0x15(r3)
   813e5:	d0 50 72 30             	b.bnei     r7,0x2,814a9 <Device_vInit+0xb31>
   813e9:	24 e3 28                	b.lbz      r7,0x14(r3)
   813ec:	d0 20 7b d0             	b.beqi     r7,0x1,814a9 <Device_vInit+0xb31>
   813f0:	30 81 22                	b.addi     r4,r1,0x44
   813f3:	30 a1 32                	b.addi     r5,r1,0x4c
   813f6:	30 c1 2a                	b.addi     r6,r1,0x54
   813f9:	4b 38 12                	b.jal      9346c <iPDM_ReplaceSegmentFromJunkLists.5855>
   813fc:	d0 00 3b 50             	b.beqi     r3,0x0,814a9 <Device_vInit+0xb31>
   81400:	0e 5c                   	b.j        814e9 <Device_vInit+0xb71>
   81402:	2c e1 74                	b.lwz      r7,0x2c(r1)
   81405:	24 e7 a8                	b.lbz      r7,0x15(r7)
   81408:	a0 50 7c 02 80 00       	b.bnei     r7,0x2,8280b <Device_vInit+0x1e93>
   8140e:	2c e1 74                	b.lwz      r7,0x2c(r1)
   81411:	24 c7 28                	b.lbz      r6,0x14(r7)
   81414:	41 86 90                	b.bnei     r6,0x1,8141d <Device_vInit+0xaa5>
   81417:	2c e1 0c                	b.sw       0x30(r1),r7
   8141a:	46 74 28                	b.j        82848 <Device_vInit+0x1ed0>
   8141d:	24 a7 c8                	b.lbz      r5,0x13(r7)
   81420:	2c e1 64                	b.lwz      r7,0x24(r1)
   81423:	08 a6                   	b.add      r5,r5,r6
   81425:	3e 05 28                	b.extbz    r5,r5
   81428:	20 a1 1c                	b.sb       0x38(r1),r5
   8142b:	30 c1 22                	b.addi     r6,r1,0x44
   8142e:	00 bf                   	b.addi     r5,r5,-0x1
   81430:	3e 05 28                	b.extbz    r5,r5
   81433:	28 67 88                	b.lhz      r3,0x10(r7)
   81436:	24 87 68                	b.lbz      r4,0x16(r7)
   81439:	30 e1 0c                	b.addi     r7,r1,0x30
   8143c:	4a 5e 70                	b.jal      84e25 <iPDM_SearchForBufferIdInList>
   8143f:	a0 40 34 fc 80 00       	b.bnei     r3,0x0,82831 <Device_vInit+0x1eb9>
   81445:	46 c0 28                	b.j        82848 <Device_vInit+0x1ed0>
   81448:	30 81 22                	b.addi     r4,r1,0x44
   8144b:	30 a1 32                	b.addi     r5,r1,0x4c
   8144e:	30 c1 2a                	b.addi     r6,r1,0x54
   81451:	4b 60 12                	b.jal      9346c <iPDM_ReplaceSegmentFromJunkLists.5855>
   81454:	d0 40 3a 90             	b.bnei     r3,0x0,814e9 <Device_vInit+0xb71>
   81458:	2c e1 54                	b.lwz      r7,0x28(r1)
   8145b:	2d 81 62                	b.lwz      r12,0x44(r1)
   8145e:	24 e7 28                	b.lbz      r7,0x14(r7)
   81461:	20 e1 44                	b.sb       0x22(r1),r7
   81464:	40 0c a2                	b.beqi     r12,0x0,814a9 <Device_vInit+0xb31>
   81467:	98 80 c1 1c 90 00       	b.ori      r4,r0,0x93883
   8146d:	30 a1 44                	b.addi     r5,r1,0x22
   81470:	04 6c                   	b.mov      r3,r12
   81472:	4b ae 90                	b.jal      83a49 <psDLISTsearchForward>
   81475:	40 03 2c                	b.beqi     r3,0x0,814a9 <Device_vInit+0xb31>
   81478:	38 80 30                	b.ori      r4,r0,0xc
   8147b:	30 a1 22                	b.addi     r5,r1,0x44
   8147e:	30 c1 2a                	b.addi     r6,r1,0x54
   81481:	2d 83 40                	b.lwz      r12,0x0(r3)
   81484:	4b 59 f8                	b.jal      892ef <vPDM_MoveFileRecordFromListToList>
   81487:	0e ef                   	b.j        81464 <Device_vInit+0xaec>
   81489:	24 e3 a8                	b.lbz      r7,0x15(r3)
   8148c:	40 47 b8                	b.beqi     r7,0x2,814a9 <Device_vInit+0xb31>
   8148f:	30 c1 22                	b.addi     r6,r1,0x44
   81492:	30 e1 24                	b.addi     r7,r1,0x24
   81495:	00 a4                   	b.movi     r5,0x2
   81497:	4b fd 42                	b.jal      91f96 <iPDM_SegmentCopyAndAppendData.constprop.115>
   8149a:	2c 61 54                	b.lwz      r3,0x28(r1)
   8149d:	38 80 70                	b.ori      r4,r0,0xe
   814a0:	30 a1 22                	b.addi     r5,r1,0x44
   814a3:	30 c1 2a                	b.addi     r6,r1,0x54
   814a6:	4a 49 f8                	b.jal      892ef <vPDM_MoveFileRecordFromListToList>
   814a9:	8d 80 6c 20 00 20       	b.lwz      r12,0x4000434(r0)
   814af:	38 60 70                	b.ori      r3,r0,0xe
   814b2:	31 8c 28                	b.addi     r12,r12,0x14
   814b5:	30 81 0c                	b.addi     r4,r1,0x30
   814b8:	30 a1 32                	b.addi     r5,r1,0x4c
   814bb:	04 cc                   	b.mov      r6,r12
   814bd:	49 76 e2                	b.jal      93277 <vPDM_MoveAllDataFromListToList>
   814c0:	38 60 70                	b.ori      r3,r0,0xe
   814c3:	30 81 0c                	b.addi     r4,r1,0x30
   814c6:	30 a1 2a                	b.addi     r5,r1,0x54
   814c9:	04 cc                   	b.mov      r6,r12
   814cb:	48 d6 e2                	b.jal      93277 <vPDM_MoveAllDataFromListToList>
   814ce:	28 6a 88                	b.lhz      r3,0x10(r10)
   814d1:	24 8a 68                	b.lbz      r4,0x16(r10)
   814d4:	24 aa 28                	b.lbz      r5,0x14(r10)
   814d7:	30 c1 0c                	b.addi     r6,r1,0x30
   814da:	30 e1 1c                	b.addi     r7,r1,0x38
   814dd:	31 01 22                	b.addi     r8,r1,0x44
   814e0:	49 9d e2                	b.jal      933c6 <iPDM_VerifyDataSequenceWithBufferId>
   814e3:	30 cb 30                	b.addi     r6,r11,0xc
   814e6:	40 03 30                	b.beqi     r3,0x0,814f2 <Device_vInit+0xb7a>
   814e9:	8c c0 6c 20 00 20       	b.lwz      r6,0x4000434(r0)
   814ef:	30 c6 28                	b.addi     r6,r6,0x14
   814f2:	38 60 70                	b.ori      r3,r0,0xe
   814f5:	30 81 78                	b.addi     r4,r1,0x1e
   814f8:	30 a1 22                	b.addi     r5,r1,0x44
   814fb:	48 fa e2                	b.jal      93277 <vPDM_MoveAllDataFromListToList>
   814fe:	8c e0 6c 20 00 20       	b.lwz      r7,0x4000434(r0)
   81504:	2d 47 74                	b.lwz      r10,0x2c(r7)
   81507:	8d 60 6c 20 00 20       	b.lwz      r11,0x4000434(r0)
   8150d:	d0 40 a2 2b             	b.bnei     r10,0x0,81251 <Device_vInit+0x8d9>
   81511:	2c 01 36                	b.sw       0x6c(r1),r0
   81514:	2c 01 0e                	b.sw       0x70(r1),r0
   81517:	2d 4b 62                	b.lwz      r10,0x44(r11)
   8151a:	0c 68                   	b.j        81572 <Device_vInit+0xbfa>
   8151c:	28 6a 88                	b.lhz      r3,0x10(r10)
   8151f:	24 8a 68                	b.lbz      r4,0x16(r10)
   81522:	31 81 36                	b.addi     r12,r1,0x6c
   81525:	30 e1 1c                	b.addi     r7,r1,0x38
   81528:	31 0b 22                	b.addi     r8,r11,0x44
   8152b:	38 a0 70                	b.ori      r5,r0,0xe
   8152e:	30 c1 0c                	b.addi     r6,r1,0x30
   81531:	2d 81 00                	b.sw       0x0(r1),r12
   81534:	4a 18 12                	b.jal      93595 <vPDM_MoveAllDataWithBufferIdFromListToList>
   81537:	8d 60 6c 20 00 20       	b.lwz      r11,0x4000434(r0)
   8153d:	04 6c                   	b.mov      r3,r12
   8153f:	4a 1c d2                	b.jal      94220 <iPDM_ReconstructValidImageBitmap>
   81542:	30 eb 30                	b.addi     r7,r11,0xc
   81545:	40 03 30                	b.beqi     r3,0x0,81551 <Device_vInit+0xbd9>
   81548:	8c e0 6c 20 00 20       	b.lwz      r7,0x4000434(r0)
   8154e:	30 e7 28                	b.addi     r7,r7,0x14
   81551:	28 6a 88                	b.lhz      r3,0x10(r10)
   81554:	24 8a 68                	b.lbz      r4,0x16(r10)
   81557:	38 a0 70                	b.ori      r5,r0,0xe
   8155a:	30 c1 0c                	b.addi     r6,r1,0x30
   8155d:	31 01 36                	b.addi     r8,r1,0x6c
   81560:	2c e1 00                	b.sw       0x0(r1),r7
   81563:	30 e1 1c                	b.addi     r7,r1,0x38
   81566:	4b d0 12                	b.jal      93595 <vPDM_MoveAllDataWithBufferIdFromListToList>
   81569:	8c e0 6c 20 00 20       	b.lwz      r7,0x4000434(r0)
   8156f:	2d 47 62                	b.lwz      r10,0x44(r7)
   81572:	8d 60 6c 20 00 20       	b.lwz      r11,0x4000434(r0)
   81578:	41 0a 25                	b.bnei     r10,0x0,8151c <Device_vInit+0xba4>
   8157b:	2d 4b 64                	b.lwz      r10,0x24(r11)
   8157e:	31 cb 30                	b.addi     r14,r11,0xc
   81581:	0c 64                   	b.j        81619 <Device_vInit+0xca1>
   81583:	28 6a 88                	b.lhz      r3,0x10(r10)
   81586:	38 a0 ff                	b.ori      r5,r0,0xff
   81589:	30 e1 0c                	b.addi     r7,r1,0x30
   8158c:	00 84                   	b.movi     r4,0x2
   8158e:	04 ce                   	b.mov      r6,r14
   81590:	4a a4 70                	b.jal      84e25 <iPDM_SearchForBufferIdInList>
   81593:	3e 03 1c                	b.ff1      r3,r3
   81596:	31 e3 ff                	b.addi     r15,r3,-0x1
   81599:	6d ef f9                	b.srli     r15,r15,0x1f
   8159c:	3e 0f 38                	b.extbz    r7,r15
   8159f:	28 6a 88                	b.lhz      r3,0x10(r10)
   815a2:	24 8a 68                	b.lbz      r4,0x16(r10)
   815a5:	2c e1 28                	b.sw       0x14(r1),r7
   815a8:	31 8b 24                	b.addi     r12,r11,0x24
   815ab:	30 e1 1c                	b.addi     r7,r1,0x38
   815ae:	30 c1 14                	b.addi     r6,r1,0x28
   815b1:	00 a0                   	b.movi     r5,0x0
   815b3:	05 0c                   	b.mov      r8,r12
   815b5:	4a 21 e2                	b.jal      933c6 <iPDM_VerifyDataSequenceWithBufferId>
   815b8:	3e 03 1c                	b.ff1      r3,r3
   815bb:	60 e0 1d                	b.sub      r7,r0,r3
   815be:	6c e7 f9                	b.srli     r7,r7,0x1f
   815c1:	61 e7 79                	b.or       r15,r7,r15
   815c4:	05 ae                   	b.mov      r13,r14
   815c6:	3e 0f 78                	b.extbz    r15,r15
   815c9:	41 0f b0                	b.bnei     r15,0x0,815d6 <Device_vInit+0xc5e>
   815cc:	24 c1 14                	b.lbz      r6,0x28(r1)
   815cf:	24 e1 1c                	b.lbz      r7,0x38(r1)
   815d2:	d2 8c 7b 40             	b.beq      r6,r7,815ff <Device_vInit+0xc87>
   815d6:	2c a1 68                	b.lwz      r5,0x14(r1)
   815d9:	31 ab 28                	b.addi     r13,r11,0x14
   815dc:	40 05 c4                	b.beqi     r5,0x0,815ff <Device_vInit+0xc87>
   815df:	28 6a 88                	b.lhz      r3,0x10(r10)
   815e2:	24 8a 68                	b.lbz      r4,0x16(r10)
   815e5:	30 e1 34                	b.addi     r7,r1,0x2c
   815e8:	00 a0                   	b.movi     r5,0x0
   815ea:	04 cc                   	b.mov      r6,r12
   815ec:	4a 70 70                	b.jal      84e25 <iPDM_SearchForBufferIdInList>
   815ef:	41 03 08                	b.bnei     r3,0x0,815ff <Device_vInit+0xc87>
   815f2:	2c 61 74                	b.lwz      r3,0x2c(r1)
   815f5:	38 80 30                	b.ori      r4,r0,0xc
   815f8:	04 ac                   	b.mov      r5,r12
   815fa:	04 cd                   	b.mov      r6,r13
   815fc:	4b 3c f8                	b.jal      892ef <vPDM_MoveFileRecordFromListToList>
   815ff:	28 6a 88                	b.lhz      r3,0x10(r10)
   81602:	24 8a 68                	b.lbz      r4,0x16(r10)
   81605:	38 a0 70                	b.ori      r5,r0,0xe
   81608:	30 c1 14                	b.addi     r6,r1,0x28
   8160b:	30 e1 1c                	b.addi     r7,r1,0x38
   8160e:	05 0c                   	b.mov      r8,r12
   81610:	2d a1 00                	b.sw       0x0(r1),r13
   81613:	49 07 e2                	b.jal      93595 <vPDM_MoveAllDataWithBufferIdFromListToList>
   81616:	2d 4b 64                	b.lwz      r10,0x24(r11)
   81619:	d0 40 a5 6f             	b.bnei     r10,0x0,81583 <Device_vInit+0xc0b>
   8161d:	4b b6 58                	b.jal      87fd4 <vPDM_DeleteUsedSegmentsOnDeallocList>
   81620:	4b 37 b0                	b.jal      84dd3 <u8PDM_CalculateFileSystemCapacity>
   81623:	20 6b 10                	b.sb       0x8(r11),r3
   81626:	8d 40 6c 20 00 20       	b.lwz      r10,0x4000434(r0)
   8162c:	00 e8                   	b.movi     r7,0x1
   8162e:	2c c1 70                	b.lwz      r6,0xc(r1)
   81631:	2c ea 32                	b.sw       0x4c(r10),r7
   81634:	98 e0 05 61 80 00       	b.ori      r7,r0,0x186a0
   8163a:	2c ea 06                	b.sw       0x60(r10),r7
   8163d:	20 ca 2a                	b.sb       0x54(r10),r6
   81640:	28 0a 1a                	b.sh       0x58(r10),r0
   81643:	2c 0a 0a                	b.sw       0x50(r10),r0
   81646:	2c 0a 3a                	b.sw       0x5c(r10),r0
   81649:	49 47 b0                	b.jal      84dd3 <u8PDM_CalculateFileSystemCapacity>
   8164c:	24 ea 80                	b.lbz      r7,0x1(r10)
   8164f:	60 67 1d                	b.sub      r3,r7,r3
   81652:	3e 03 38                	b.extbz    r7,r3
   81655:	28 ea 6a                	b.sh       0x56(r10),r7
   81658:	98 60 0d e0 00 20       	b.ori      r3,r0,0x40007b0
   8165e:	98 80 ff ff 00 00       	b.ori      r4,r0,0xffff
   81664:	98 a0 13 e0 00 20       	b.ori      r5,r0,0x40007c8
   8166a:	38 c0 10                	b.ori      r6,r0,0x8
   8166d:	4b e2 70                	b.jal      84f8c <PDM_eLoadRecord.constprop.126>
   81670:	84 e0 0d e0 00 20       	b.lbz      r7,0x40007b0(r0)
   81676:	41 47 de                	b.bnei     r7,0x2,816f1 <Device_vInit+0xd79>
   81679:	8c e0 53 e0 00 20       	b.lwz      r7,0x40007c8(r0)
   8167f:	9d 87 2e 88 80 11       	b.sfeqi    r7,-0x77feee8c
   81685:	47 29 10                	b.bf       8170e <Device_vInit+0xd96>
   81688:	8c e0 6c 20 00 20       	b.lwz      r7,0x4000434(r0)
   8168e:	2c 67 72                	b.lwz      r3,0x4c(r7)
   81691:	40 03 60                	b.beqi     r3,0x0,81697 <Device_vInit+0xd1f>
   81694:	4a 71 6c                	b.jal      8f0cd <OS_eEnterCriticalSection>
   81697:	8c e0 6c 20 00 20       	b.lwz      r7,0x4000434(r0)
   8169d:	2d 47 4a                	b.lwz      r10,0x50(r7)
   816a0:	0e 20                   	b.j        816b1 <Device_vInit+0xd39>
   816a2:	2d 6a 48                	b.lwz      r11,0x10(r10)
   816a5:	38 a0 18                	b.ori      r5,r0,0x18
   816a8:	04 6a                   	b.mov      r3,r10
   816aa:	00 80                   	b.movi     r4,0x0
   816ac:	05 4b                   	b.mov      r10,r11
   816ae:	4b d8 4a                	b.jal      95f1d <memset>
   816b1:	40 0a d0                	b.beqi     r10,0x0,816bc <Device_vInit+0xd44>
   816b4:	04 6a                   	b.mov      r3,r10
   816b6:	4b 85 52                	b.jal      9413d <bPDM_IsDescriptorValid>
   816b9:	40 83 97                	b.beqi     r3,0x1,816a2 <Device_vInit+0xd2a>
   816bc:	8d 40 6c 20 00 20       	b.lwz      r10,0x4000434(r0)
   816c2:	2c 0a 0a                	b.sw       0x50(r10),r0
   816c5:	28 0a 6a                	b.sh       0x56(r10),r0
   816c8:	28 0a 1a                	b.sh       0x58(r10),r0
   816cb:	4a 42 58                	b.jal      87fd4 <vPDM_DeleteUsedSegmentsOnDeallocList>
   816ce:	38 60 30                	b.ori      r3,r0,0xc
   816d1:	30 81 1c                	b.addi     r4,r1,0x38
   816d4:	30 aa 30                	b.addi     r5,r10,0xc
   816d7:	30 ca 28                	b.addi     r6,r10,0x14
   816da:	4a e7 62                	b.jal      93277 <vPDM_MoveAllDataFromListToList>
   816dd:	24 ea 80                	b.lbz      r7,0x1(r10)
   816e0:	2c 6a 72                	b.lwz      r3,0x4c(r10)
   816e3:	20 ea 10                	b.sb       0x8(r10),r7
   816e6:	40 03 60                	b.beqi     r3,0x0,816ec <Device_vInit+0xd74>
   816e9:	48 2e 6c                	b.jal      8f0b9 <OS_eExitCriticalSection>
   816ec:	4a b6 88                	b.jal      85ca1 <vAHI_SwReset>
   816ef:	0f e0                   	b.j        8170e <Device_vInit+0xd96>
   816f1:	98 e0 2e 88 80 11       	b.ori      r7,r0,0x88011174
   816f7:	98 60 0d e0 00 20       	b.ori      r3,r0,0x40007b0
   816fd:	8c e0 13 e0 00 20       	b.sw       0x40007c8(r0),r7
   81703:	00 ef                   	b.movi     r7,-0x1
   81705:	8c e0 33 e0 00 20       	b.sw       0x40007cc(r0),r7
   8170b:	48 33 42                	b.jal      9223b <PDM_vSaveRecord>
   8170e:	98 80 00 ff 00 00       	b.ori      r4,r0,0xff00
   81714:	98 a0 25 20 00 20       	b.ori      r5,r0,0x40004a4
   8171a:	38 c0 08                	b.ori      r6,r0,0x10
   8171d:	98 60 31 20 00 20       	b.ori      r3,r0,0x400048c
   81723:	8c 60 36 a0 00 20       	b.sw       0x400056c(r0),r3
   81729:	4b 18 70                	b.jal      84f8c <PDM_eLoadRecord.constprop.126>
   8172c:	98 e0 3e 20 00 20       	b.ori      r7,r0,0x400047c
   81732:	8c e0 2d a0 00 20       	b.sw       0x40005b4(r0),r7
   81738:	98 e0 34 80 00 20       	b.ori      r7,r0,0x400012c
   8173e:	8c e0 3e 20 00 20       	b.sw       0x400047c(r0),r7
   81744:	98 e0 0b e0 00 20       	b.ori      r7,r0,0x40007d0
   8174a:	8c e0 14 e0 00 20       	b.sw       0x4000728(r0),r7
   81750:	38 e0 0c                	b.ori      r7,r0,0x30
   81753:	80 e0 07 e0 00 20       	b.sb       0x40007e0(r0),r7
   81759:	d8 e0 00 01             	b.addi     r7,r0,-0x8000
   8175d:	88 e0 2f e0 00 20       	b.sh       0x40007f4(r0),r7
   81763:	38 e0 98                	b.ori      r7,r0,0x19
   81766:	80 e0 1f e0 00 20       	b.sb       0x40007f8(r0),r7
   8176c:	00 e2                   	b.movi     r7,0x4
   8176e:	80 e0 9f e0 00 20       	b.sb       0x40007f9(r0),r7
   81774:	8c e0 53 00 00 40       	b.lwz      r7,0x20000c8(r0)
   8177a:	8c 00 0b e0 00 20       	b.sw       0x40007d0(r0),r0
   81780:	94 e7 ff ff f3 ff       	b.andi     r7,r7,0xffcfffff
   81786:	8c e0 13 00 00 40       	b.sw       0x20000c8(r0),r7
   8178c:	00 ef                   	b.movi     r7,-0x1
   8178e:	88 00 6f e0 00 20       	b.sh       0x40007f6(r0),r0
   81794:	80 e0 5f e0 00 20       	b.sb       0x40007fa(r0),r7
   8179a:	49 13 bc                	b.jal      90ebc <MibAdcStatus_vStart>
   8179d:	98 e0 1c 20 00 20       	b.ori      r7,r0,0x4000438
   817a3:	98 80 11 7f 00 00       	b.ori      r4,r0,0xfe88
   817a9:	98 a0 2a 20 00 20       	b.ori      r5,r0,0x4000454
   817af:	38 c0 08                	b.ori      r6,r0,0x10
   817b2:	98 60 3c 20 00 20       	b.ori      r3,r0,0x400043c
   817b8:	8c e0 0c e0 00 20       	b.sw       0x4000730(r0),r7
   817be:	98 e0 3a 80 00 20       	b.ori      r7,r0,0x400015c
   817c4:	8c e0 1c 20 00 20       	b.sw       0x4000438(r0),r7
   817ca:	00 e8                   	b.movi     r7,0x1
   817cc:	80 e0 56 20 00 20       	b.sb       0x400046a(r0),r7
   817d2:	49 77 b0                	b.jal      84f8c <PDM_eLoadRecord.constprop.126>
   817d5:	8c e0 4c e0 00 20       	b.lwz      r7,0x4000730(r0)
   817db:	98 80 d1 7f 00 00       	b.ori      r4,r0,0xfe8b
   817e1:	98 60 0a 60 00 20       	b.ori      r3,r0,0x4000650
   817e7:	50 a7 04                	b.mlwz     r5,0x20(r7),0x0
   817ea:	08 c5                   	b.add      r6,r6,r5
   817ec:	98 a0 16 60 00 20       	b.ori      r5,r0,0x4000668
   817f2:	2c c7 34                	b.sw       0x2c(r7),r6
   817f5:	2c c7 1c                	b.sw       0x38(r7),r6
   817f8:	2c c7 54                	b.lwz      r6,0x28(r7)
   817fb:	2c c7 2c                	b.sw       0x34(r7),r6
   817fe:	d8 c6 00 08             	b.addi     r6,r6,0x1000
   81802:	2c c7 14                	b.sw       0x28(r7),r6
   81805:	38 c0 2e                	b.ori      r6,r0,0x74
   81808:	48 87 b0                	b.jal      84f8c <PDM_eLoadRecord.constprop.126>
   8180b:	00 68                   	b.movi     r3,0x1
   8180d:	4b d8 fc                	b.jal      9147c <Node_vDebugOutdent.part.4.1798>
   81810:	00 68                   	b.movi     r3,0x1
   81812:	49 58 fc                	b.jal      9147c <Node_vDebugOutdent.part.4.1798>
   81815:	98 60 51 80 10 00       	b.ori      r3,r0,0x8018a
   8181b:	4b 47 bc                	b.jal      90fa6 <dbg_vPrintfImplNoneVerbose>
   8181e:	00 60                   	b.movi     r3,0x0
   81820:	00 82                   	b.movi     r4,0x4
   81822:	4b 8c 88                	b.jal      85ce9 <vAHI_DioSetDirection>
   81825:	00 62                   	b.movi     r3,0x4
   81827:	00 80                   	b.movi     r4,0x0
   81829:	4a 44 88                	b.jal      85cb2 <vAHI_DioSetOutput>
   8182c:	cc 90 50 05             	b.lwz      r4,-0x5ff8(r16)
   81830:	98 60 a9 80 10 00       	b.ori      r3,r0,0x80195
   81836:	48 3b bc                	b.jal      90fa6 <dbg_vPrintfImplNoneVerbose>
   81839:	2c e1 48                	b.lwz      r7,0x10(r1)
   8183c:	40 07 10                	b.beqi     r7,0x0,81844 <Device_vInit+0xecc>
   8183f:	00 68                   	b.movi     r3,0x1
   81841:	49 2b 52                	b.jal      94393 <Device_vReset>
   81844:	98 80 32 e0 00 20       	b.ori      r4,r0,0x400074c
   8184a:	98 60 65 80 10 00       	b.ori      r3,r0,0x801a6
   81850:	49 ab bc                	b.jal      90fa6 <dbg_vPrintfImplNoneVerbose>
   81853:	00 68                   	b.movi     r3,0x1
   81855:	48 6f 7c                	b.jal      9142d <Node_vDebugIndent.part.3.1795>
   81858:	98 60 dd 80 10 00       	b.ori      r3,r0,0x801bb
   8185e:	98 80 32 e0 00 20       	b.ori      r4,r0,0x400074c
   81864:	49 0b bc                	b.jal      90fa6 <dbg_vPrintfImplNoneVerbose>
   81867:	00 68                   	b.movi     r3,0x1
   81869:	48 8f 7c                	b.jal      9142d <Node_vDebugIndent.part.3.1795>
   8186c:	98 e0 40 00 17 01       	b.ori      r7,r0,0x80e80002
   81872:	98 c0 cb d0 20 bf       	b.ori      r6,r0,0xfd040bd3
   81878:	8c e0 37 60 00 20       	b.sw       0x40006ec(r0),r7
   8187e:	98 e0 00 1f ff e0       	b.ori      r7,r0,0x7fff800
   81884:	8c e0 0f 60 00 20       	b.sw       0x40006f0(r0),r7
   8188a:	00 ef                   	b.movi     r7,-0x1
   8188c:	88 e0 2f 60 00 20       	b.sh       0x40006f4(r0),r7
   81892:	00 e2                   	b.movi     r7,0x4
   81894:	88 e0 1f 60 00 20       	b.sh       0x40006f8(r0),r7
   8189a:	00 ec                   	b.movi     r7,0x3
   8189c:	80 e0 df 60 00 20       	b.sb       0x40006fb(r0),r7
   818a2:	38 e0 08                	b.ori      r7,r0,0x10
   818a5:	80 e0 20 e0 00 20       	b.sb       0x4000704(r0),r7
   818ab:	80 e0 a0 e0 00 20       	b.sb       0x4000705(r0),r7
   818b1:	80 e0 60 e0 00 20       	b.sb       0x4000706(r0),r7
   818b7:	80 e0 e0 e0 00 20       	b.sb       0x4000707(r0),r7
   818bd:	d8 e0 8a e0             	b.addi     r7,r0,0x751
   818c1:	8c c0 17 60 00 20       	b.sw       0x40006e8(r0),r6
   818c7:	98 c0 2e 88 80 11       	b.ori      r6,r0,0x88011174
   818cd:	88 e0 10 e0 00 20       	b.sh       0x4000708(r0),r7
   818d3:	98 e0 73 80 10 00       	b.ori      r7,r0,0x801ce
   818d9:	8c c0 00 e0 00 20       	b.sw       0x4000700(r0),r6
   818df:	8c e0 30 e0 00 20       	b.sw       0x400070c(r0),r7
   818e5:	d8 e0 ca e0             	b.addi     r7,r0,0x753
   818e9:	84 c0 16 60 00 20       	b.lbz      r6,0x4000668(r0)
   818ef:	88 e0 08 e0 00 20       	b.sh       0x4000710(r0),r7
   818f5:	00 e4                   	b.movi     r7,0x2
   818f7:	88 00 6f 60 00 20       	b.sh       0x40006f6(r0),r0
   818fd:	80 e0 5f 60 00 20       	b.sb       0x40006fa(r0),r7
   81903:	30 e6 af                	b.addi     r7,r6,-0xb
   81906:	3c a7 f0                	b.sfgtui   r7,0xf
   81909:	47 29 40                	b.bf       81932 <Device_vInit+0xfba>
   8190c:	88 e0 d6 60 00 20       	b.lhz      r7,0x400066a(r0)
   81912:	30 a7 ff                	b.addi     r5,r7,-0x1
   81915:	3e 05 2a                	b.exthz    r5,r5
   81918:	9e c5 bf ff 00 00       	b.sfgtui   r5,0xfffd
   8191e:	47 22 80                	b.bf       81932 <Device_vInit+0xfba>
   81921:	00 a8                   	b.movi     r5,0x1
   81923:	60 c5 36                	b.sll      r6,r5,r6
   81926:	8c c0 0f 60 00 20       	b.sw       0x40006f0(r0),r6
   8192c:	88 e0 2f 60 00 20       	b.sh       0x40006f4(r0),r7
   81932:	8c 00 3f 60 00 20       	b.sw       0x40006fc(r0),r0
   81938:	48 23 08                	b.jal      85c48 <bAHI_Clock32MHzStable>
   8193b:	40 03 bf                	b.beqi     r3,0x0,81938 <Device_vInit+0xfc0>
   8193e:	8c e0 77 60 00 20       	b.lwz      r7,0x40006ec(r0)
   81944:	8c c0 57 60 00 20       	b.lwz      r6,0x40006e8(r0)
   8194a:	2c e1 2b                	b.sw       0xd4(r1),r7
   8194d:	38 80 0b                	b.ori      r4,r0,0xd0
   81950:	00 a8                   	b.movi     r5,0x1
   81952:	8c e0 4f 60 00 20       	b.lwz      r7,0x40006f0(r0)
   81958:	8c 60 46 b0 00 20       	b.lwz      r3,0x4000d60(r0)
   8195e:	2c e1 1b                	b.sw       0xd8(r1),r7
   81961:	88 e0 af 60 00 20       	b.lhz      r7,0x40006f4(r0)
   81967:	2c c1 0b                	b.sw       0xd0(r1),r6
   8196a:	28 e1 3b                	b.sh       0xdc(r1),r7
   8196d:	88 e0 ef 60 00 20       	b.lhz      r7,0x40006f6(r0)
   81973:	28 e1 7b                	b.sh       0xde(r1),r7
   81976:	88 e0 9f 60 00 20       	b.lhz      r7,0x40006f8(r0)
   8197c:	28 e1 07                	b.sh       0xe0(r1),r7
   8197f:	84 e0 5f 60 00 20       	b.lbz      r7,0x40006fa(r0)
   81985:	20 e1 47                	b.sb       0xe2(r1),r7
   81988:	84 e0 df 60 00 20       	b.lbz      r7,0x40006fb(r0)
   8198e:	20 e1 c7                	b.sb       0xe3(r1),r7
   81991:	00 e4                   	b.movi     r7,0x2
   81993:	20 e1 27                	b.sb       0xe4(r1),r7
   81996:	8c e0 7f 60 00 20       	b.lwz      r7,0x40006fc(r0)
   8199c:	2c e1 17                	b.sw       0xe8(r1),r7
   8199f:	88 e0 88 e0 00 20       	b.lhz      r7,0x4000710(r0)
   819a5:	28 e1 0f                	b.sh       0xf0(r1),r7
   819a8:	4a 85 f0                	b.jal      8582d <pvHeap_Alloc>
   819ab:	8c 60 06 b0 00 20       	b.sw       0x4000d60(r0),r3
   819b1:	a0 00 36 f7 00 00       	b.beqi     r3,0x0,828a7 <Device_vInit+0x1f2f>
   819b7:	2c e1 5b                	b.lwz      r7,0xd8(r1)
   819ba:	3c a7 f8                	b.sfgtui   r7,0x1f
   819bd:	47 2d 00                	b.bf       819c8 <Device_vInit+0x1050>
   819c0:	00 c8                   	b.movi     r6,0x1
   819c2:	60 e6 3e                	b.sll      r7,r6,r7
   819c5:	2c e1 1b                	b.sw       0xd8(r1),r7
   819c8:	2c e1 5b                	b.lwz      r7,0xd8(r1)
   819cb:	94 e7 00 1f ff e0       	b.andi     r7,r7,0x7fff800
   819d1:	2c e1 1b                	b.sw       0xd8(r1),r7
   819d4:	41 07 b0                	b.bnei     r7,0x0,819e1 <Device_vInit+0x1069>
   819d7:	d8 e0 80 04             	b.addi     r7,r0,0x2001
   819db:	2c e3 32                	b.sw       0x4c(r3),r7
   819de:	46 93 70                	b.j        828a7 <Device_vInit+0x1f2f>
   819e1:	98 e0 03 0e 10 00       	b.ori      r7,r0,0x870c0
   819e7:	00 a0                   	b.movi     r5,0x0
   819e9:	2c e3 00                	b.sw       0x0(r3),r7
   819ec:	98 e0 e8 4e 10 00       	b.ori      r7,r0,0x87217
   819f2:	2c e3 20                	b.sw       0x4(r3),r7
   819f5:	98 e0 bc 93 10 00       	b.ori      r7,r0,0x8c93d
   819fb:	2c e3 10                	b.sw       0x8(r3),r7
   819fe:	98 e0 38 06 10 00       	b.ori      r7,r0,0x8601c
   81a04:	2c e3 30                	b.sw       0xc(r3),r7
   81a07:	98 e0 99 36 10 00       	b.ori      r7,r0,0x86c99
   81a0d:	2c e3 08                	b.sw       0x10(r3),r7
   81a10:	98 e0 ac 36 10 00       	b.ori      r7,r0,0x86c35
   81a16:	2c e3 28                	b.sw       0x14(r3),r7
   81a19:	98 e0 66 76 10 00       	b.ori      r7,r0,0x86e66
   81a1f:	2c e3 18                	b.sw       0x18(r3),r7
   81a22:	98 e0 ee f6 10 00       	b.ori      r7,r0,0x86f77
   81a28:	2c e3 38                	b.sw       0x1c(r3),r7
   81a2b:	98 e0 2d 6c 10 00       	b.ori      r7,r0,0x836b4
   81a31:	2c e3 14                	b.sw       0x28(r3),r7
   81a34:	98 e0 bc 9e 10 00       	b.ori      r7,r0,0x8793d
   81a3a:	2c e3 34                	b.sw       0x2c(r3),r7
   81a3d:	98 e0 9f 36 10 00       	b.ori      r7,r0,0x86cf9
   81a43:	2c e3 0c                	b.sw       0x30(r3),r7
   81a46:	98 e0 17 ba 90 00       	b.ori      r7,r0,0x95de8
   81a4c:	2c e3 24                	b.sw       0x24(r3),r7
   81a4f:	98 e0 15 f1 10 00       	b.ori      r7,r0,0x88fa8
   81a55:	2c e3 2c                	b.sw       0x34(r3),r7
   81a58:	98 e0 04 fa 10 00       	b.ori      r7,r0,0x85f20
   81a5e:	2c e3 1c                	b.sw       0x38(r3),r7
   81a61:	98 e0 75 18 90 00       	b.ori      r7,r0,0x918ae
   81a67:	2c e3 3c                	b.sw       0x3c(r3),r7
   81a6a:	98 e0 c4 f3 10 00       	b.ori      r7,r0,0x8cf23
   81a70:	2c e3 02                	b.sw       0x40(r3),r7
   81a73:	98 e0 f5 7a 10 00       	b.ori      r7,r0,0x85eaf
   81a79:	2c e3 22                	b.sw       0x44(r3),r7
   81a7c:	00 e4                   	b.movi     r7,0x2
   81a7e:	20 e3 92                	b.sb       0x49(r3),r7
   81a81:	24 e1 47                	b.lbz      r7,0xe2(r1)
   81a84:	84 80 8c c0 00 20       	b.lbz      r4,0x4000331(r0)
   81a8a:	00 f8                   	b.addi     r7,r7,0x1
   81a8c:	6c 84 c0                	b.slli     r4,r4,0x3
   81a8f:	20 e1 47                	b.sb       0xe2(r1),r7
   81a92:	24 e1 c7                	b.lbz      r7,0xe3(r1)
   81a95:	20 e3 12                	b.sb       0x48(r3),r7
   81a98:	8c 60 72 90 00 20       	b.lwz      r3,0x400094c(r0)
   81a9e:	4b c6 f0                	b.jal      8582d <pvHeap_Alloc>
   81aa1:	84 80 0c c0 00 20       	b.lbz      r4,0x4000330(r0)
   81aa7:	38 e0 31                	b.ori      r7,r0,0x8c
   81aaa:	00 a0                   	b.movi     r5,0x0
   81aac:	64 84 3b                	b.mul      r4,r4,r7
   81aaf:	8c 60 32 90 00 20       	b.sw       0x400094c(r0),r3
   81ab5:	8c 60 62 90 00 20       	b.lwz      r3,0x4000944(r0)
   81abb:	49 3a f0                	b.jal      8582d <pvHeap_Alloc>
   81abe:	84 80 cc c0 00 20       	b.lbz      r4,0x4000333(r0)
   81ac4:	80 00 0a 90 00 20       	b.sb       0x4000950(r0),r0
   81aca:	38 e0 1d                	b.ori      r7,r0,0xb8
   81acd:	00 a0                   	b.movi     r5,0x0
   81acf:	80 00 8a 90 00 20       	b.sb       0x4000951(r0),r0
   81ad5:	64 84 3b                	b.mul      r4,r4,r7
   81ad8:	8c 60 22 90 00 20       	b.sw       0x4000944(r0),r3
   81ade:	8c 60 71 10 00 20       	b.lwz      r3,0x400088c(r0)
   81ae4:	80 00 12 90 00 20       	b.sb       0x4000948(r0),r0
   81aea:	80 00 92 90 00 20       	b.sb       0x4000949(r0),r0
   81af0:	8c 00 18 a0 00 20       	b.sw       0x4000518(r0),r0
   81af6:	8c 00 28 a0 00 20       	b.sw       0x4000514(r0),r0
   81afc:	4a 32 f0                	b.jal      8582d <pvHeap_Alloc>
   81aff:	84 a0 cc c0 00 20       	b.lbz      r5,0x4000333(r0)
   81b05:	8c 60 31 10 00 20       	b.sw       0x400088c(r0),r3
   81b0b:	30 85 ff                	b.addi     r4,r5,-0x1
   81b0e:	d8 e3 1d 00             	b.addi     r7,r3,0xb8
   81b12:	00 c0                   	b.movi     r6,0x0
   81b14:	0c c0                   	b.j        81b20 <Device_vInit+0x11a8>
   81b16:	cc e7 12 ff             	b.sw       -0xb8(r7),r7
   81b1a:	00 d8                   	b.addi     r6,r6,0x1
   81b1c:	d8 e7 1d 00             	b.addi     r7,r7,0xb8
   81b20:	d3 48 66 ff             	b.bgts     r4,r6,81b16 <Device_vInit+0x119e>
   81b24:	38 e0 1d                	b.ori      r7,r0,0xb8
   81b27:	00 bf                   	b.addi     r5,r5,-0x1
   81b29:	64 a5 3b                	b.mul      r5,r5,r7
   81b2c:	98 e0 09 10 00 20       	b.ori      r7,r0,0x4000890
   81b32:	08 a3                   	b.add      r5,r5,r3
   81b34:	2c 05 00                	b.sw       0x0(r5),r0
   81b37:	8c 60 3a a0 00 20       	b.sw       0x400055c(r0),r3
   81b3d:	00 6e                   	b.movi     r3,0x7
   81b3f:	8c e0 1a a0 00 20       	b.sw       0x4000558(r0),r7
   81b45:	48 52 c2                	b.jal      9286d <vMiniMac_Init>
   81b48:	8d 40 46 b0 00 20       	b.lwz      r10,0x4000d60(r0)
   81b4e:	38 e0 3c                	b.ori      r7,r0,0x3c
   81b51:	38 80 2a                	b.ori      r4,r0,0x54
   81b54:	00 a0                   	b.movi     r5,0x0
   81b56:	20 ea f9                	b.sb       0x9f(r10),r7
   81b59:	00 ef                   	b.movi     r7,-0x1
   81b5b:	2c 0a 32                	b.sw       0x4c(r10),r0
   81b5e:	20 ea 79                	b.sb       0x9e(r10),r7
   81b61:	2c 0a 15                	b.sw       0xa8(r10),r0
   81b64:	25 81 47                	b.lbz      r12,0xe2(r1)
   81b67:	2c 6a 4a                	b.lwz      r3,0x50(r10)
   81b6a:	64 8c 23                	b.mul      r4,r12,r4
   81b6d:	48 0c f0                	b.jal      8582d <pvHeap_Alloc>
   81b70:	84 e0 4c c0 00 20       	b.lbz      r7,0x4000332(r0)
   81b76:	2c 6a 0a                	b.sw       0x50(r10),r3
   81b79:	3c e7 04                	b.sfleui   r7,0x20
   81b7c:	47 23 00                	b.bf       81b88 <Device_vInit+0x1210>
   81b7f:	38 e0 04                	b.ori      r7,r0,0x20
   81b82:	80 e0 4c c0 00 20       	b.sb       0x4000332(r0),r7
   81b88:	84 80 4c c0 00 20       	b.lbz      r4,0x4000332(r0)
   81b8e:	8c 60 6a 90 00 20       	b.lwz      r3,0x4000954(r0)
   81b94:	6c 84 20                	b.slli     r4,r4,0x4
   81b97:	00 a0                   	b.movi     r5,0x0
   81b99:	48 a4 f0                	b.jal      8582d <pvHeap_Alloc>
   81b9c:	8c e0 46 b0 00 20       	b.lwz      r7,0x4000d60(r0)
   81ba2:	8c 60 2a 90 00 20       	b.sw       0x4000954(r0),r3
   81ba8:	01 40                   	b.movi     r10,0x0
   81baa:	8c 00 34 a0 00 20       	b.sw       0x400052c(r0),r0
   81bb0:	39 a0 2a                	b.ori      r13,r0,0x54
   81bb3:	01 cf                   	b.movi     r14,-0x1
   81bb5:	8c 00 14 a0 00 20       	b.sw       0x4000528(r0),r0
   81bbb:	8c 00 24 a0 00 20       	b.sw       0x4000524(r0),r0
   81bc1:	8c 00 04 a0 00 20       	b.sw       0x4000520(r0),r0
   81bc7:	8c 00 38 a0 00 20       	b.sw       0x400051c(r0),r0
   81bcd:	2c 07 2a                	b.sw       0x54(r7),r0
   81bd0:	2c 07 1a                	b.sw       0x58(r7),r0
   81bd3:	2c 07 3a                	b.sw       0x5c(r7),r0
   81bd6:	2c 07 06                	b.sw       0x60(r7),r0
   81bd9:	21 87 26                	b.sb       0x64(r7),r12
   81bdc:	0c c8                   	b.j        81c28 <Device_vInit+0x12b0>
   81bde:	8c 60 46 b0 00 20       	b.lwz      r3,0x4000d60(r0)
   81be4:	65 6a 6b                	b.mul      r11,r10,r13
   81be7:	2c 83 4a                	b.lwz      r4,0x50(r3)
   81bea:	30 63 3a                	b.addi     r3,r3,0x5c
   81bed:	08 8b                   	b.add      r4,r4,r11
   81bef:	4b cb f4                	b.jal      8db3e <vDLISTaddToTail>
   81bf2:	8c c0 46 b0 00 20       	b.lwz      r6,0x4000d60(r0)
   81bf8:	00 a8                   	b.movi     r5,0x1
   81bfa:	2c e6 4a                	b.lwz      r7,0x50(r6)
   81bfd:	08 eb                   	b.add      r7,r7,r11
   81bff:	20 07 1c                	b.sb       0x38(r7),r0
   81c02:	2d 47 10                	b.sw       0x8(r7),r10
   81c05:	01 58                   	b.addi     r10,r10,0x1
   81c07:	2c 07 30                	b.sw       0xc(r7),r0
   81c0a:	2c 07 08                	b.sw       0x10(r7),r0
   81c0d:	2c 07 28                	b.sw       0x14(r7),r0
   81c10:	2c e6 4a                	b.lwz      r7,0x50(r6)
   81c13:	08 eb                   	b.add      r7,r7,r11
   81c15:	21 c7 5c                	b.sb       0x3a(r7),r14
   81c18:	2c e6 4a                	b.lwz      r7,0x50(r6)
   81c1b:	08 eb                   	b.add      r7,r7,r11
   81c1d:	20 a7 9c                	b.sb       0x39(r7),r5
   81c20:	2c e6 4a                	b.lwz      r7,0x50(r6)
   81c23:	09 67                   	b.add      r11,r11,r7
   81c25:	2c 0b 0a                	b.sw       0x50(r11),r0
   81c28:	3e 0a 38                	b.extbz    r7,r10
   81c2b:	d3 d8 7c df             	b.bgtu     r12,r7,81bde <Device_vInit+0x1266>
   81c2f:	01 40                   	b.movi     r10,0x0
   81c31:	0d 60                   	b.j        81c4b <Device_vInit+0x12d3>
   81c33:	8c 60 6a 90 00 20       	b.lwz      r3,0x4000954(r0)
   81c39:	6c ea 20                	b.slli     r7,r10,0x4
   81c3c:	08 67                   	b.add      r3,r3,r7
   81c3e:	38 a0 08                	b.ori      r5,r0,0x10
   81c41:	01 58                   	b.addi     r10,r10,0x1
   81c43:	00 80                   	b.movi     r4,0x0
   81c45:	3e 0a 50                	b.extbz    r10,r10
   81c48:	4a ad 0a                	b.jal      95f1d <memset>
   81c4b:	84 e0 4c c0 00 20       	b.lbz      r7,0x4000332(r0)
   81c51:	d3 ce a4 7f             	b.bgtu     r7,r10,81c33 <Device_vInit+0x12bb>
   81c55:	8c e0 6c a0 00 20       	b.lwz      r7,0x4000534(r0)
   81c5b:	8c 60 46 b0 00 20       	b.lwz      r3,0x4000d60(r0)
   81c61:	2c e1 1e                	b.sw       0x78(r1),r7
   81c64:	d8 63 31 00             	b.addi     r3,r3,0x8c
   81c68:	30 81 2e                	b.addi     r4,r1,0x74
   81c6b:	8c e0 4c a0 00 20       	b.lwz      r7,0x4000530(r0)
   81c71:	2c e1 2e                	b.sw       0x74(r1),r7
   81c74:	4b 51 c8                	b.jal      86a9f <i6LP_DefCreateInterfaceIdFrom64>
   81c77:	8c e0 46 b0 00 20       	b.lwz      r7,0x4000d60(r0)
   81c7d:	d8 a0 00 a0             	b.addi     r5,r0,0x500
   81c81:	2c c7 71                	b.lwz      r6,0x8c(r7)
   81c84:	28 07 19                	b.sh       0x98(r7),r0
   81c87:	2c c7 21                	b.sw       0x84(r7),r6
   81c8a:	2c c7 49                	b.lwz      r6,0x90(r7)
   81c8d:	20 07 05                	b.sb       0xa0(r7),r0
   81c90:	2c c7 11                	b.sw       0x88(r7),r6
   81c93:	38 c0 02                	b.ori      r6,r0,0x40
   81c96:	20 c7 69                	b.sb       0x96(r7),r6
   81c99:	24 c7 12                	b.lbz      r6,0x48(r7)
   81c9c:	28 07 25                	b.sh       0xa4(r7),r0
   81c9f:	3c 06 80                	b.sfeqi    r6,0x1
   81ca2:	64 c6 02                	b.cmov     r6,r6,r0
   81ca5:	20 c7 33                	b.sb       0xcc(r7),r6
   81ca8:	38 c0 0a                	b.ori      r6,r0,0x50
   81cab:	20 c7 65                	b.sb       0xa6(r7),r6
   81cae:	28 c1 fb                	b.lhz      r6,0xde(r1)
   81cb1:	2c 07 23                	b.sw       0xc4(r7),r0
   81cb4:	3c 26 00                	b.sfnei    r6,0x0
   81cb7:	64 c6 2a                	b.cmov     r6,r6,r5
   81cba:	d8 a6 00 ff             	b.addi     r5,r6,-0x100
   81cbe:	9e c5 00 20 00 00       	b.sfgtui   r5,0x400
   81cc4:	2c 07 13                	b.sw       0xc8(r7),r0
   81cc7:	d6 85 d0 00             	b.bf       82868 <Device_vInit+0x1ef0>
   81ccb:	28 c7 39                	b.sh       0x9c(r7),r6
   81cce:	28 61 87                	b.lhz      r3,0xe0(r1)
   81cd1:	2c e7 64                	b.lwz      r7,0x24(r7)
   81cd4:	47 d1 38                	b.jalr     r7
   81cd7:	42 03 88                	b.bgesi    r3,0x0,81ce8 <Device_vInit+0x1370>
   81cda:	98 c0 80 81 00 00       	b.ori      r6,r0,0x8101
   81ce0:	8c e0 46 b0 00 20       	b.lwz      r7,0x4000d60(r0)
   81ce6:	0f b2                   	b.j        81e1d <Device_vInit+0x14a5>
   81ce8:	8c e0 46 b0 00 20       	b.lwz      r7,0x4000d60(r0)
   81cee:	28 c1 bb                	b.lhz      r6,0xdc(r1)
   81cf1:	2c a1 4b                	b.lwz      r5,0xd0(r1)
   81cf4:	28 c7 19                	b.sh       0x98(r7),r6
   81cf7:	98 60 dc a0 00 20       	b.ori      r3,r0,0x400053b
   81cfd:	30 81 1c                	b.addi     r4,r1,0x38
   81d00:	2c c1 6b                	b.lwz      r6,0xd4(r1)
   81d03:	2c a7 01                	b.sw       0x80(r7),r5
   81d06:	2c c7 3e                	b.sw       0x7c(r7),r6
   81d09:	2c a1 1c                	b.sw       0x38(r1),r5
   81d0c:	38 a0 10                	b.ori      r5,r0,0x8
   81d0f:	2c c1 3c                	b.sw       0x3c(r1),r6
   81d12:	d4 52 c7 ef             	b.jal      5c <memcpy>
   81d16:	84 e0 5c a0 00 20       	b.lbz      r7,0x400053a(r0)
   81d1c:	d1 f8 7b 00             	b.bgtui    r7,0x7,81d29 <Device_vInit+0x13b1>
   81d20:	38 e0 10                	b.ori      r7,r0,0x8
   81d23:	80 e0 5c a0 00 20       	b.sb       0x400053a(r0),r7
   81d29:	8c e0 78 80 00 20       	b.lwz      r7,0x400011c(r0)
   81d2f:	d0 7e 7e 60             	b.bnei     r7,-0x1,81d96 <Device_vInit+0x141e>
   81d33:	4b 24 92                	b.jal      941c6 <i6LP_DefSocket.constprop.103>
   81d36:	29 61 8f                	b.lhz      r11,0xf0(r1)
   81d39:	8c 60 38 80 00 20       	b.sw       0x400011c(r0),r3
   81d3f:	05 43                   	b.mov      r10,r3
   81d41:	89 60 2a a0 00 20       	b.sh       0x4000554(r0),r11
   81d47:	d0 3e 3f 20             	b.beqi     r3,-0x1,81d96 <Device_vInit+0x141e>
   81d4b:	d8 61 0d 00             	b.addi     r3,r1,0xb0
   81d4f:	00 80                   	b.movi     r4,0x0
   81d51:	4b 59 dc                	b.jal      90bbc <i6LP_DefGetOwnDeviceAddress>
   81d54:	d8 81 0d 00             	b.addi     r4,r1,0xb0
   81d58:	04 6a                   	b.mov      r3,r10
   81d5a:	29 61 2d                	b.sh       0xb4(r1),r11
   81d5d:	4a f1 e0                	b.jal      83b9a <i6LP_DefBind.constprop.104>
   81d60:	d0 7e 33 00             	b.bnei     r3,-0x1,81d6c <Device_vInit+0x13f4>
   81d64:	8c 60 38 80 00 20       	b.sw       0x400011c(r0),r3
   81d6a:	0c d0                   	b.j        81d96 <Device_vInit+0x141e>
   81d6c:	8c e0 46 b0 00 20       	b.lwz      r7,0x4000d60(r0)
   81d72:	24 c7 26                	b.lbz      r6,0x64(r7)
   81d75:	d3 4c ab 00             	b.bgts     r6,r10,81d82 <Device_vInit+0x140a>
   81d79:	d8 c0 98 58             	b.addi     r6,r0,0x1a19
   81d7d:	2c c7 32                	b.sw       0x4c(r7),r6
   81d80:	0d a0                   	b.j        81d96 <Device_vInit+0x141e>
   81d82:	38 c0 2a                	b.ori      r6,r0,0x54
   81d85:	2c e7 4a                	b.lwz      r7,0x50(r7)
   81d88:	65 4a 33                	b.mul      r10,r10,r6
   81d8b:	09 47                   	b.add      r10,r10,r7
   81d8d:	98 e0 ed f7 10 00       	b.ori      r7,r0,0x8efb7
   81d93:	2c ea 3c                	b.sw       0x3c(r10),r7
   81d96:	8c e0 46 b0 00 20       	b.lwz      r7,0x4000d60(r0)
   81d9c:	d8 c0 80 84             	b.addi     r6,r0,0x2101
   81da0:	25 67 92                	b.lbz      r11,0x49(r7)
   81da3:	41 4b 5e                	b.bnei     r11,0x2,81e1d <Device_vInit+0x14a5>
   81da6:	24 c1 c7                	b.lbz      r6,0xe3(r1)
   81da9:	40 06 76                	b.beqi     r6,0x0,81e17 <Device_vInit+0x149f>
   81dac:	d2 10 69 00             	b.bleui    r6,0x2,81db5 <Device_vInit+0x143d>
   81db0:	41 c6 e6                	b.bnei     r6,0x3,81e17 <Device_vInit+0x149f>
   81db3:	0e d0                   	b.j        81de0 <Device_vInit+0x1468>
   81db5:	d8 61 0b 00             	b.addi     r3,r1,0xd0
   81db9:	49 85 92                	b.jal      9443f <vJnc_JenNetInitVariablesVect>
   81dbc:	00 62                   	b.movi     r3,0x4
   81dbe:	00 80                   	b.movi     r4,0x0
   81dc0:	00 a0                   	b.movi     r5,0x0
   81dc2:	49 d8 74                	b.jal      8d630 <vJIP_StackEvent>
   81dc5:	48 56 c2                	b.jal      92b6d <vJnc_InitSystemVect.constprop.76>
   81dc8:	00 e8                   	b.movi     r7,0x1
   81dca:	80 e0 1a 90 00 20       	b.sb       0x4000958(r0),r7
   81dd0:	00 68                   	b.movi     r3,0x1
   81dd2:	24 e1 c7                	b.lbz      r7,0xe3(r1)
   81dd5:	40 87 a0                	b.beqi     r7,0x1,81dda <Device_vInit+0x1462>
   81dd8:	00 60                   	b.movi     r3,0x0
   81dda:	48 d7 0c                	b.jal      8e186 <vApi_Start_CRVect>
   81ddd:	46 a9 50                	b.j        82872 <Device_vInit+0x1efa>
   81de0:	d8 61 0b 00             	b.addi     r3,r1,0xd0
   81de4:	4b 69 92                	b.jal      9443f <vJnc_JenNetInitVariablesVect>
   81de7:	00 62                   	b.movi     r3,0x4
   81de9:	00 80                   	b.movi     r4,0x0
   81deb:	00 a0                   	b.movi     r5,0x0
   81ded:	4b 08 74                	b.jal      8d630 <vJIP_StackEvent>
   81df0:	4a fa c2                	b.jal      92b6d <vJnc_InitSystemVect.constprop.76>
   81df3:	8d 40 62 e0 00 20       	b.lwz      r10,0x4000744(r0)
   81df9:	c1 6a a6 80             	b.sb       0x165(r10),r11
   81dfd:	4b b9 b0                	b.jal      85474 <vAHI_StartRandomNumberGenerator.constprop.98>
   81e00:	4a a9 f0                	b.jal      85c55 <bAHI_RndNumPoll>
   81e03:	40 03 bf                	b.beqi     r3,0x0,81e00 <Device_vInit+0x1488>
   81e06:	cc f0 63 01             	b.lwz      r7,-0x7f3c(r16)
   81e0a:	c0 ea 01 80             	b.sb       0x180(r10),r7
   81e0e:	00 ec                   	b.movi     r7,0x3
   81e10:	c0 ea 26 80             	b.sb       0x164(r10),r7
   81e14:	46 7a 50                	b.j        82872 <Device_vInit+0x1efa>
   81e17:	d8 c0 80 a0             	b.addi     r6,r0,0x501
   81e1b:	0d 00                   	b.j        81e1d <Device_vInit+0x14a5>
   81e1d:	2c c7 32                	b.sw       0x4c(r7),r6
   81e20:	46 e1 50                	b.j        828a7 <Device_vInit+0x1f2f>
   81e23:	4a a7 c4                	b.jal      8adb8 <eCreateSocket.6902>
   81e26:	05 63                   	b.mov      r11,r3
   81e28:	d0 40 36 f8             	b.bnei     r3,0x0,8201e <Device_vInit+0x16a6>
   81e2c:	85 80 20 e0 00 20       	b.lbz      r12,0x4000704(r0)
   81e32:	38 80 28                	b.ori      r4,r0,0x14
   81e35:	00 a8                   	b.movi     r5,0x1
   81e37:	8c 60 67 20 00 20       	b.lwz      r3,0x40004e4(r0)
   81e3d:	64 8c 23                	b.mul      r4,r12,r4
   81e40:	85 60 60 e0 00 20       	b.lbz      r11,0x4000706(r0)
   81e46:	85 40 a0 e0 00 20       	b.lbz      r10,0x4000705(r0)
   81e4c:	4a 1e 70                	b.jal      8582d <pvHeap_Alloc>
   81e4f:	8c 60 27 20 00 20       	b.sw       0x40004e4(r0),r3
   81e55:	41 03 d0                	b.bnei     r3,0x0,81e60 <Device_vInit+0x14e8>
   81e58:	80 00 07 20 00 20       	b.sb       0x40004e0(r0),r0
   81e5e:	0e f0                   	b.j        81e9b <Device_vInit+0x1523>
   81e60:	8c 60 7b 20 00 20       	b.lwz      r3,0x40004dc(r0)
   81e66:	6c 8a c0                	b.slli     r4,r10,0x3
   81e69:	00 a8                   	b.movi     r5,0x1
   81e6b:	49 0e 70                	b.jal      8582d <pvHeap_Alloc>
   81e6e:	8c 60 3b 20 00 20       	b.sw       0x40004dc(r0),r3
   81e74:	41 03 d0                	b.bnei     r3,0x0,81e7f <Device_vInit+0x1507>
   81e77:	81 80 07 20 00 20       	b.sb       0x40004e0(r0),r12
   81e7d:	0d e0                   	b.j        81e9b <Device_vInit+0x1523>
   81e7f:	81 40 1b 20 00 20       	b.sb       0x40004d8(r0),r10
   81e85:	00 e0                   	b.movi     r7,0x0
   81e87:	00 cf                   	b.movi     r6,-0x1
   81e89:	0c c0                   	b.j        81e95 <Device_vInit+0x151d>
   81e8b:	6c a7 c0                	b.slli     r5,r7,0x3
   81e8e:	08 a3                   	b.add      r5,r5,r3
   81e90:	00 f8                   	b.addi     r7,r7,0x1
   81e92:	20 c5 00                	b.sb       0x0(r5),r6
   81e95:	d3 54 76 ff             	b.bgts     r10,r7,81e8b <Device_vInit+0x1513>
   81e99:	0d ef                   	b.j        81e77 <Device_vInit+0x14ff>
   81e9b:	38 80 30                	b.ori      r4,r0,0xc
   81e9e:	00 a8                   	b.movi     r5,0x1
   81ea0:	8c 60 61 10 00 20       	b.lwz      r3,0x4000884(r0)
   81ea6:	64 8b 23                	b.mul      r4,r11,r4
   81ea9:	01 40                   	b.movi     r10,0x0
   81eab:	49 06 70                	b.jal      8582d <pvHeap_Alloc>
   81eae:	39 a0 30                	b.ori      r13,r0,0xc
   81eb1:	05 83                   	b.mov      r12,r3
   81eb3:	8c 60 21 10 00 20       	b.sw       0x4000884(r0),r3
   81eb9:	8c 00 0b 20 00 20       	b.sw       0x40004d0(r0),r0
   81ebf:	8c 00 2b 20 00 20       	b.sw       0x40004d4(r0),r0
   81ec5:	8c 00 13 20 00 20       	b.sw       0x40004c8(r0),r0
   81ecb:	8c 00 33 20 00 20       	b.sw       0x40004cc(r0),r0
   81ed1:	0d 20                   	b.j        81ee3 <Device_vInit+0x156b>
   81ed3:	64 8a 6b                	b.mul      r4,r10,r13
   81ed6:	98 60 13 20 00 20       	b.ori      r3,r0,0x40004c8
   81edc:	08 8c                   	b.add      r4,r4,r12
   81ede:	01 58                   	b.addi     r10,r10,0x1
   81ee0:	49 e8 f4                	b.jal      8db3e <vDLISTaddToTail>
   81ee3:	d3 56 a0 ff             	b.bgts     r11,r10,81ed3 <Device_vInit+0x155b>
   81ee7:	8c e0 5a 00 00 20       	b.lwz      r7,0x4000058(r0)
   81eed:	84 80 e0 e0 00 20       	b.lbz      r4,0x4000707(r0)
   81ef3:	98 c0 c8 7c 90 00       	b.ori      r6,r0,0x93e13
   81ef9:	8c e0 23 20 00 20       	b.sw       0x40004c4(r0),r7
   81eff:	98 e0 a5 7a 10 00       	b.ori      r7,r0,0x85ea5
   81f05:	8c c0 1a 00 00 20       	b.sw       0x4000058(r0),r6
   81f0b:	8c e0 3d 20 00 20       	b.sw       0x40004bc(r0),r7
   81f11:	8c 00 03 20 00 20       	b.sw       0x40004c0(r0),r0
   81f17:	80 80 26 a0 00 20       	b.sb       0x4000564(r0),r4
   81f1d:	8d 40 70 e0 00 20       	b.lwz      r10,0x400070c(r0)
   81f23:	40 04 68                	b.beqi     r4,0x0,81f39 <Device_vInit+0x15c1>
   81f26:	8c 60 6b 80 00 20       	b.lwz      r3,0x40001d4(r0)
   81f2c:	00 98                   	b.addi     r4,r4,0x1
   81f2e:	00 a8                   	b.movi     r5,0x1
   81f30:	4a fc 70                	b.jal      8582d <pvHeap_Alloc>
   81f33:	8c 60 2b 80 00 20       	b.sw       0x40001d4(r0),r3
   81f39:	98 60 35 80 00 20       	b.ori      r3,r0,0x40001ac
   81f3f:	8d 40 27 80 00 20       	b.sw       0x40001e4(r0),r10
   81f45:	48 08 a4                	b.jal      8b385 <eJIP_RegisterMib>
   81f48:	8c e0 6b 80 00 20       	b.lwz      r7,0x40001d4(r0)
   81f4e:	41 07 08                	b.bnei     r7,0x0,81f5e <Device_vInit+0x15e6>
   81f51:	98 60 35 80 00 20       	b.ori      r3,r0,0x40001ac
   81f57:	00 88                   	b.movi     r4,0x1
   81f59:	00 a0                   	b.movi     r5,0x0
   81f5b:	48 4e cc                	b.jal      8ed23 <vJIP_SetEnabled>
   81f5e:	8c e0 67 80 00 20       	b.lwz      r7,0x40001e4(r0)
   81f64:	41 07 08                	b.bnei     r7,0x0,81f74 <Device_vInit+0x15fc>
   81f67:	98 60 35 80 00 20       	b.ori      r3,r0,0x40001ac
   81f6d:	00 84                   	b.movi     r4,0x2
   81f6f:	00 a0                   	b.movi     r5,0x0
   81f71:	49 36 cc                	b.jal      8ed23 <vJIP_SetEnabled>
   81f74:	8c e0 46 b0 00 20       	b.lwz      r7,0x4000d60(r0)
   81f7a:	98 60 17 20 00 20       	b.ori      r3,r0,0x40004e8
   81f80:	38 a0 18                	b.ori      r5,r0,0x18
   81f83:	00 80                   	b.movi     r4,0x0
   81f85:	25 47 12                	b.lbz      r10,0x48(r7)
   81f88:	4a a7 f2                	b.jal      95f1d <memset>
   81f8b:	40 0a 30                	b.beqi     r10,0x0,81f97 <Device_vInit+0x161f>
   81f8e:	30 ea ff                	b.addi     r7,r10,-0x1
   81f91:	8c e0 17 20 00 20       	b.sw       0x40004e8(r0),r7
   81f97:	98 60 3a 00 00 20       	b.ori      r3,r0,0x400005c
   81f9d:	48 5f 24                	b.jal      8b385 <eJIP_RegisterMib>
   81fa0:	00 e8                   	b.movi     r7,0x1
   81fa2:	61 4a 3a                	b.xor      r10,r10,r7
   81fa5:	3e 0a 50                	b.extbz    r10,r10
   81fa8:	60 a0 55                	b.sub      r5,r0,r10
   81fab:	98 60 3a 00 00 20       	b.ori      r3,r0,0x400005c
   81fb1:	6c a5 f9                	b.srli     r5,r5,0x1f
   81fb4:	00 88                   	b.movi     r4,0x1
   81fb6:	4a da cc                	b.jal      8ed23 <vJIP_SetEnabled>
   81fb9:	30 aa ff                	b.addi     r5,r10,-0x1
   81fbc:	6c a5 f9                	b.srli     r5,r5,0x1f
   81fbf:	98 60 3a 00 00 20       	b.ori      r3,r0,0x400005c
   81fc5:	00 82                   	b.movi     r4,0x4
   81fc7:	48 ea cc                	b.jal      8ed23 <vJIP_SetEnabled>
   81fca:	88 e0 90 e0 00 20       	b.lhz      r7,0x4000708(r0)
   81fd0:	00 80                   	b.movi     r4,0x0
   81fd2:	88 e0 11 10 00 20       	b.sh       0x4000888(r0),r7
   81fd8:	00 60                   	b.movi     r3,0x0
   81fda:	4b a6 cc                	b.jal      8ed71 <vNetworkModule_Update>
   81fdd:	98 60 3f 80 00 20       	b.ori      r3,r0,0x40001fc
   81fe3:	49 17 24                	b.jal      8b385 <eJIP_RegisterMib>
   81fe6:	98 60 32 40 00 20       	b.ori      r3,r0,0x400024c
   81fec:	4a 67 24                	b.jal      8b385 <eJIP_RegisterMib>
   81fef:	00 ef                   	b.movi     r7,-0x1
   81ff1:	98 60 37 00 00 20       	b.ori      r3,r0,0x40000ec
   81ff7:	01 60                   	b.movi     r11,0x0
   81ff9:	80 e0 90 a0 00 20       	b.sb       0x4000509(r0),r7
   81fff:	8d 40 40 e0 00 20       	b.lwz      r10,0x4000700(r0)
   82005:	48 07 24                	b.jal      8b385 <eJIP_RegisterMib>
   82008:	8c c0 40 e0 00 20       	b.lwz      r6,0x4000700(r0)
   8200e:	8c e0 62 e0 00 20       	b.lwz      r7,0x4000744(r0)
   82014:	8d 40 30 a0 00 20       	b.sw       0x400050c(r0),r10
   8201a:	cc c7 21 80             	b.sw       0x184(r7),r6
   8201e:	8c e0 46 b0 00 20       	b.lwz      r7,0x4000d60(r0)
   82024:	00 c8                   	b.movi     r6,0x1
   82026:	20 c7 f9                	b.sb       0x9f(r7),r6
   82029:	4a a2 10                	b.jal      8413e <vMiniMac_SetHighPowerMode.constprop.106>
   8202c:	cc f0 60 05             	b.lwz      r7,-0x5ffc(r16)
   82030:	cc f0 20 05             	b.sw       -0x5ffc(r16),r7
   82034:	00 e4                   	b.movi     r7,0x2
   82036:	8d 80 76 a0 00 20       	b.lwz      r12,0x400056c(r0)
   8203c:	8c e0 12 e0 00 20       	b.sw       0x4000748(r0),r7
   82042:	98 e0 6d e2 10 00       	b.ori      r7,r0,0x847b6
   82048:	8c e0 06 a0 00 20       	b.sw       0x4000560(r0),r7
   8204e:	24 ec 18                	b.lbz      r7,0x18(r12)
   82051:	d0 40 7f 50             	b.bnei     r7,0x0,82100 <Device_vInit+0x1788>
   82055:	98 80 0c c0 10 00       	b.ori      r4,r0,0x80330
   8205b:	38 a0 88                	b.ori      r5,r0,0x11
   8205e:	d8 61 29 00             	b.addi     r3,r1,0x94
   82062:	d4 5f fb ef             	b.jal      5c <memcpy>
   82066:	4a b4 a8                	b.jal      8751b <pvAppApiDefGetMacAddrLocation>
   82069:	38 a0 10                	b.ori      r5,r0,0x8
   8206c:	31 ac 18                	b.addi     r13,r12,0x18
   8206f:	98 80 2b 80 10 00       	b.ori      r4,r0,0x801d4
   82075:	05 43                   	b.mov      r10,r3
   82077:	04 6d                   	b.mov      r3,r13
   82079:	d4 c7 fb ef             	b.jal      5c <memcpy>
   8207d:	20 0c 04                	b.sb       0x20(r12),r0
   82080:	04 6d                   	b.mov      r3,r13
   82082:	49 0d f2                	b.jal      95f44 <strlen>
   82085:	38 c0 04                	b.ori      r6,r0,0x20
   82088:	3e 03 18                	b.extbz    r3,r3
   8208b:	60 ec 1c                	b.add      r7,r12,r3
   8208e:	d8 a1 08 80             	b.addi     r5,r1,0x110
   82092:	04 6c                   	b.mov      r3,r12
   82094:	20 c7 18                	b.sb       0x18(r7),r6
   82097:	2c ca 60                	b.lwz      r6,0x4(r10)
   8209a:	6c c6 29                	b.srli     r6,r6,0x14
   8209d:	34 c6 f0                	b.andi     r6,r6,0xf
   820a0:	08 c5                   	b.add      r6,r6,r5
   820a2:	c4 c6 21 ff             	b.lbz      r6,-0x7c(r6)
   820a6:	20 c7 98                	b.sb       0x19(r7),r6
   820a9:	28 ca a0                	b.lhz      r6,0x4(r10)
   820ac:	34 c6 f0                	b.andi     r6,r6,0xf
   820af:	08 c5                   	b.add      r6,r6,r5
   820b1:	c4 c6 21 ff             	b.lbz      r6,-0x7c(r6)
   820b5:	20 c7 58                	b.sb       0x1a(r7),r6
   820b8:	2c ca 60                	b.lwz      r6,0x4(r10)
   820bb:	6c c6 31                	b.srli     r6,r6,0xc
   820be:	34 c6 f0                	b.andi     r6,r6,0xf
   820c1:	08 c5                   	b.add      r6,r6,r5
   820c3:	c4 c6 21 ff             	b.lbz      r6,-0x7c(r6)
   820c7:	20 c7 d8                	b.sb       0x1b(r7),r6
   820ca:	2c ca 60                	b.lwz      r6,0x4(r10)
   820cd:	6c c6 11                	b.srli     r6,r6,0x8
   820d0:	34 c6 f0                	b.andi     r6,r6,0xf
   820d3:	08 c5                   	b.add      r6,r6,r5
   820d5:	c4 c6 21 ff             	b.lbz      r6,-0x7c(r6)
   820d9:	20 c7 38                	b.sb       0x1c(r7),r6
   820dc:	2c ca 60                	b.lwz      r6,0x4(r10)
   820df:	6c c6 21                	b.srli     r6,r6,0x4
   820e2:	34 c6 f0                	b.andi     r6,r6,0xf
   820e5:	08 c5                   	b.add      r6,r6,r5
   820e7:	c4 c6 21 ff             	b.lbz      r6,-0x7c(r6)
   820eb:	20 c7 b8                	b.sb       0x1d(r7),r6
   820ee:	2c ca 60                	b.lwz      r6,0x4(r10)
   820f1:	34 c6 f0                	b.andi     r6,r6,0xf
   820f4:	08 c5                   	b.add      r6,r6,r5
   820f6:	c4 c6 21 ff             	b.lbz      r6,-0x7c(r6)
   820fa:	20 c7 78                	b.sb       0x1e(r7),r6
   820fd:	49 f2 02                	b.jal      9223b <PDM_vSaveRecord>
   82100:	8c 80 76 a0 00 20       	b.lwz      r4,0x400056c(r0)
   82106:	8d 40 6b 80 00 20       	b.lwz      r10,0x40001d4(r0)
   8210c:	30 84 18                	b.addi     r4,r4,0x18
   8210f:	40 0a 84                	b.beqi     r10,0x0,82130 <Device_vInit+0x17b8>
   82112:	85 80 26 a0 00 20       	b.lbz      r12,0x4000564(r0)
   82118:	04 6a                   	b.mov      r3,r10
   8211a:	04 ac                   	b.mov      r5,r12
   8211c:	09 4c                   	b.add      r10,r10,r12
   8211e:	48 71 f2                	b.jal      95f56 <strncpy>
   82121:	98 60 35 80 00 20       	b.ori      r3,r0,0x40001ac
   82127:	00 88                   	b.movi     r4,0x1
   82129:	c0 0a ff ff             	b.sb       -0x1(r10),r0
   8212d:	49 10 cc                	b.jal      8ed4f <vJIP_NotifyChanged>
   82130:	98 e0 e1 82 90 00       	b.ori      r7,r0,0x94187
   82136:	8c e0 16 a0 00 20       	b.sw       0x4000568(r0),r7
   8213c:	8c e0 6d a0 00 20       	b.lwz      r7,0x40005b4(r0)
   82142:	2c 67 40                	b.lwz      r3,0x0(r7)
   82145:	48 09 24                	b.jal      8b385 <eJIP_RegisterMib>
   82148:	8d 40 4c e0 00 20       	b.lwz      r10,0x4000730(r0)
   8214e:	2c 6a 40                	b.lwz      r3,0x0(r10)
   82151:	48 b1 24                	b.jal      8b385 <eJIP_RegisterMib>
   82154:	00 e8                   	b.movi     r7,0x1
   82156:	98 60 3d 40 00 20       	b.ori      r3,r0,0x40002bc
   8215c:	20 ea 0c                	b.sb       0x30(r10),r7
   8215f:	49 91 24                	b.jal      8b385 <eJIP_RegisterMib>
   82162:	98 60 0a 60 00 20       	b.ori      r3,r0,0x4000650
   82168:	4b 2c 02                	b.jal      9223b <PDM_vSaveRecord>
   8216b:	00 68                   	b.movi     r3,0x1
   8216d:	4b c3 3c                	b.jal      9147c <Node_vDebugOutdent.part.4.1798>
   82170:	00 68                   	b.movi     r3,0x1
   82172:	49 43 3c                	b.jal      9147c <Node_vDebugOutdent.part.4.1798>
   82175:	98 60 bb 80 10 00       	b.ori      r3,r0,0x801dd
   8217b:	04 8b                   	b.mov      r4,r11
   8217d:	4a 51 dc                	b.jal      90fa6 <dbg_vPrintfImplNoneVerbose>
   82180:	98 80 32 e0 00 20       	b.ori      r4,r0,0x400074c
   82186:	98 60 87 80 10 00       	b.ori      r3,r0,0x801e1
   8218c:	49 61 dc                	b.jal      90fa6 <dbg_vPrintfImplNoneVerbose>
   8218f:	00 68                   	b.movi     r3,0x1
   82191:	48 e5 3c                	b.jal      9142d <Node_vDebugIndent.part.3.1795>
   82194:	00 60                   	b.movi     r3,0x0
   82196:	80 00 3c e0 00 20       	b.sb       0x400073c(r0),r0
   8219c:	00 80                   	b.movi     r4,0x0
   8219e:	01 6f                   	b.movi     r11,-0x1
   821a0:	49 23 70                	b.jal      85cb2 <vAHI_DioSetOutput>
   821a3:	46 ff 20                	b.j        826a2 <Device_vInit+0x1d2a>
   821a6:	84 e0 38 e0 00 20       	b.lbz      r7,0x400071c(r0)
   821ac:	41 87 58                	b.bnei     r7,0x1,821c6 <Device_vInit+0x184e>
   821af:	98 80 31 60 00 20       	b.ori      r4,r0,0x400068c
   821b5:	00 68                   	b.movi     r3,0x1
   821b7:	80 00 38 e0 00 20       	b.sb       0x400071c(r0),r0
   821bd:	89 60 01 a0 00 20       	b.sh       0x4000580(r0),r11
   821c3:	49 a4 24                	b.jal      8b259 <vApi_SetNwkKey>
   821c6:	84 e0 dc e0 00 20       	b.lbz      r7,0x400073b(r0)
   821cc:	3e 07 38                	b.extbz    r7,r7
   821cf:	40 07 ea                	b.beqi     r7,0x0,82226 <Device_vInit+0x18ae>
   821d2:	84 c0 34 e0 00 20       	b.lbz      r6,0x400072c(r0)
   821d8:	80 00 dc e0 00 20       	b.sb       0x400073b(r0),r0
   821de:	8c e0 75 a0 00 20       	b.lwz      r7,0x40005ac(r0)
   821e4:	40 06 9c                	b.beqi     r6,0x0,8221d <Device_vInit+0x18a5>
   821e7:	8c c0 42 e0 00 20       	b.lwz      r6,0x4000740(r0)
   821ed:	34 e7 f0                	b.andi     r7,r7,0xf
   821f0:	c8 c6 8a 80             	b.lhz      r6,0x150(r6)
   821f4:	34 c6 80                	b.andi     r6,r6,0x1
   821f7:	41 06 04                	b.bnei     r6,0x0,82217 <Device_vInit+0x189f>
   821fa:	3c a7 d0                	b.sfgtui   r7,0xb
   821fd:	47 2b 00                	b.bf       8220a <Device_vInit+0x1892>
   82200:	00 60                   	b.movi     r3,0x0
   82202:	98 80 00 00 40 00       	b.ori      r4,r0,0x20000
   82208:	0d 40                   	b.j        82212 <Device_vInit+0x189a>
   8220a:	98 60 00 00 40 00       	b.ori      r3,r0,0x20000
   82210:	00 80                   	b.movi     r4,0x0
   82212:	48 15 70                	b.jal      85cb2 <vAHI_DioSetOutput>
   82215:	0e 20                   	b.j        82226 <Device_vInit+0x18ae>
   82217:	d2 38 79 7f             	b.bleui    r7,0x7,82200 <Device_vInit+0x1888>
   8221b:	0f df                   	b.j        8220a <Device_vInit+0x1892>
   8221d:	34 e7 f0                	b.andi     r7,r7,0xf
   82220:	d1 f0 75 7f             	b.bgtui    r7,0x3,8220a <Device_vInit+0x1892>
   82224:	0c ef                   	b.j        82200 <Device_vInit+0x1888>
   82226:	84 e0 5c e0 00 20       	b.lbz      r7,0x400073a(r0)
   8222c:	3e 07 38                	b.extbz    r7,r7
   8222f:	d0 00 7a 14             	b.beqi     r7,0x0,824b4 <Device_vInit+0x1b3c>
   82233:	8d 40 6c e0 00 20       	b.lwz      r10,0x4000734(r0)
   82239:	d8 80 0e e8             	b.addi     r4,r0,0x1770
   8223d:	04 6a                   	b.mov      r3,r10
   8223f:	80 00 5c e0 00 20       	b.sb       0x400073a(r0),r0
   82245:	4b 3b f2                	b.jal      961b8 <__umodsi3>
   82248:	d8 80 0e e8             	b.addi     r4,r0,0x1770
   8224c:	05 83                   	b.mov      r12,r3
   8224e:	04 6a                   	b.mov      r3,r10
   82250:	48 b2 f2                	b.jal      95f84 <__udivsi3>
   82253:	d8 80 0e e8             	b.addi     r4,r0,0x1770
   82257:	05 43                   	b.mov      r10,r3
   82259:	4b eb f2                	b.jal      961b8 <__umodsi3>
   8225c:	d8 80 0e e8             	b.addi     r4,r0,0x1770
   82260:	05 a3                   	b.mov      r13,r3
   82262:	04 6a                   	b.mov      r3,r10
   82264:	48 12 f2                	b.jal      95f84 <__udivsi3>
   82267:	05 43                   	b.mov      r10,r3
   82269:	98 60 cf 80 10 00       	b.ori      r3,r0,0x801f3
   8226f:	04 cc                   	b.mov      r6,r12
   82271:	04 8a                   	b.mov      r4,r10
   82273:	04 ad                   	b.mov      r5,r13
   82275:	4a 32 dc                	b.jal      90fa6 <dbg_vPrintfImplNoneVerbose>
   82278:	3e 0d 34                	b.ff1      r6,r13
   8227b:	3e 0a 3c                	b.ff1      r7,r10
   8227e:	00 df                   	b.addi     r6,r6,-0x1
   82280:	00 ff                   	b.addi     r7,r7,-0x1
   82282:	6c e7 f9                	b.srli     r7,r7,0x1f
   82285:	6c c6 f9                	b.srli     r6,r6,0x1f
   82288:	60 c6 38                	b.and      r6,r6,r7
   8228b:	00 e8                   	b.movi     r7,0x1
   8228d:	60 ec 3a                	b.xor      r7,r12,r7
   82290:	3e 07 3c                	b.ff1      r7,r7
   82293:	00 ff                   	b.addi     r7,r7,-0x1
   82295:	6c e7 f9                	b.srli     r7,r7,0x1f
   82298:	60 e7 30                	b.and      r7,r7,r6
   8229b:	40 07 3c                	b.beqi     r7,0x0,822d7 <Device_vInit+0x195f>
   8229e:	98 80 00 01 00 00       	b.ori      r4,r0,0x8000
   822a4:	00 60                   	b.movi     r3,0x0
   822a6:	4b 09 70                	b.jal      85ce9 <vAHI_DioSetDirection>
   822a9:	98 80 00 01 00 00       	b.ori      r4,r0,0x8000
   822af:	00 60                   	b.movi     r3,0x0
   822b1:	4a 01 70                	b.jal      85cb2 <vAHI_DioSetOutput>
   822b4:	98 80 00 00 40 00       	b.ori      r4,r0,0x20000
   822ba:	00 60                   	b.movi     r3,0x0
   822bc:	4a d1 70                	b.jal      85ce9 <vAHI_DioSetDirection>
   822bf:	98 80 00 00 40 00       	b.ori      r4,r0,0x20000
   822c5:	00 60                   	b.movi     r3,0x0
   822c7:	4b 5e 70                	b.jal      85cb2 <vAHI_DioSetOutput>
   822ca:	cc 90 50 05             	b.lwz      r4,-0x5ff8(r16)
   822ce:	98 60 a9 80 10 00       	b.ori      r3,r0,0x80195
   822d4:	49 2c dc                	b.jal      90fa6 <dbg_vPrintfImplNoneVerbose>
   822d7:	98 60 cf 80 10 00       	b.ori      r3,r0,0x801f3
   822dd:	04 8a                   	b.mov      r4,r10
   822df:	04 cc                   	b.mov      r6,r12
   822e1:	04 ad                   	b.mov      r5,r13
   822e3:	4b 0c dc                	b.jal      90fa6 <dbg_vPrintfImplNoneVerbose>
   822e6:	38 e0 30                	b.ori      r7,r0,0xc
   822e9:	61 8d 61                	b.or       r12,r13,r12
   822ec:	61 4a 3a                	b.xor      r10,r10,r7
   822ef:	3e 0c 64                	b.ff1      r12,r12
   822f2:	3e 0a 54                	b.ff1      r10,r10
   822f5:	01 9f                   	b.addi     r12,r12,-0x1
   822f7:	01 5f                   	b.addi     r10,r10,-0x1
   822f9:	61 4c 50                	b.and      r10,r12,r10
   822fc:	42 0a 34                	b.bgesi    r10,0x0,82328 <Device_vInit+0x19b0>
   822ff:	00 60                   	b.movi     r3,0x0
   82301:	00 82                   	b.movi     r4,0x4
   82303:	49 9e 70                	b.jal      85ce9 <vAHI_DioSetDirection>
   82306:	00 60                   	b.movi     r3,0x0
   82308:	00 82                   	b.movi     r4,0x4
   8230a:	48 56 70                	b.jal      85cb2 <vAHI_DioSetOutput>
   8230d:	00 60                   	b.movi     r3,0x0
   8230f:	00 82                   	b.movi     r4,0x4
   82311:	48 6e 70                	b.jal      85ce9 <vAHI_DioSetDirection>
   82314:	00 60                   	b.movi     r3,0x0
   82316:	00 82                   	b.movi     r4,0x4
   82318:	49 66 70                	b.jal      85cb2 <vAHI_DioSetOutput>
   8231b:	cc 90 50 05             	b.lwz      r4,-0x5ff8(r16)
   8231f:	98 60 a9 80 10 00       	b.ori      r3,r0,0x80195
   82325:	4a 04 dc                	b.jal      90fa6 <dbg_vPrintfImplNoneVerbose>
   82328:	8c c0 4d a0 00 20       	b.lwz      r6,0x40005b0(r0)
   8232e:	8c e0 75 e0 00 20       	b.lwz      r7,0x40007ac(r0)
   82334:	0c 80                   	b.j        82338 <Device_vInit+0x19c0>
   82336:	00 f3                   	b.addi     r7,r7,-0x4
   82338:	2c a7 40                	b.lwz      r5,0x0(r7)
   8233b:	9d c5 86 e9 40 00       	b.sfnei    r5,0x29761
   82341:	47 2b 80                	b.bf       8235e <Device_vInit+0x19e6>
   82344:	8c e0 35 e0 00 20       	b.sw       0x40007ac(r0),r7
   8234a:	8c e0 6d a0 00 20       	b.lwz      r7,0x40005b4(r0)
   82350:	8d 40 6c e0 00 20       	b.lwz      r10,0x4000734(r0)
   82356:	2c c7 70                	b.lwz      r6,0xc(r7)
   82359:	41 06 d0                	b.bnei     r6,0x0,82364 <Device_vInit+0x19ec>
   8235c:	0f e0                   	b.j        8237b <Device_vInit+0x1a03>
   8235e:	d3 ce 61 bf             	b.bgtu     r7,r6,82336 <Device_vInit+0x19be>
   82362:	0d 1f                   	b.j        82344 <Device_vInit+0x19cc>
   82364:	d3 cc a8 80             	b.bgtu     r6,r10,82375 <Device_vInit+0x19fd>
   82368:	2c 07 30                	b.sw       0xc(r7),r0
   8236b:	00 68                   	b.movi     r3,0x1
   8236d:	28 07 60                	b.sh       0x6(r7),r0
   82370:	4b 10 12                	b.jal      94393 <Device_vReset>
   82373:	0c 40                   	b.j        8237b <Device_vInit+0x1a03>
   82375:	60 c6 55                	b.sub      r6,r6,r10
   82378:	28 c7 60                	b.sh       0x6(r7),r6
   8237b:	8c e0 6d a0 00 20       	b.lwz      r7,0x40005b4(r0)
   82381:	2c c7 50                	b.lwz      r6,0x8(r7)
   82384:	40 06 58                	b.beqi     r6,0x0,8239e <Device_vInit+0x1a26>
   82387:	d3 cc a8 80             	b.bgtu     r6,r10,82398 <Device_vInit+0x1a20>
   8238b:	2c 07 10                	b.sw       0x8(r7),r0
   8238e:	00 60                   	b.movi     r3,0x0
   82390:	28 07 20                	b.sh       0x4(r7),r0
   82393:	48 00 12                	b.jal      94393 <Device_vReset>
   82396:	0c 40                   	b.j        8239e <Device_vInit+0x1a26>
   82398:	61 46 55                	b.sub      r10,r6,r10
   8239b:	29 47 20                	b.sh       0x4(r7),r10
   8239e:	8d 40 4c e0 00 20       	b.lwz      r10,0x4000730(r0)
   823a4:	8c c0 6c e0 00 20       	b.lwz      r6,0x4000734(r0)
   823aa:	2c ea 7c                	b.lwz      r7,0x3c(r10)
   823ad:	2c ca 3c                	b.sw       0x3c(r10),r6
   823b0:	60 e6 3d                	b.sub      r7,r6,r7
   823b3:	24 ca 4c                	b.lbz      r6,0x32(r10)
   823b6:	40 06 84                	b.beqi     r6,0x0,823d7 <Device_vInit+0x1a5f>
   823b9:	8c a0 4b a0 00 20       	b.lwz      r5,0x40005d0(r0)
   823bf:	2c ca 6c                	b.lwz      r6,0x34(r10)
   823c2:	d3 8c 5a 80             	b.bgeu     r6,r5,823d7 <Device_vInit+0x1a5f>
   823c6:	60 c5 35                	b.sub      r6,r5,r6
   823c9:	9f 46 ff f0 00 00       	b.sfleui   r6,0xfff
   823cf:	47 21 00                	b.bf       823d7 <Device_vInit+0x1a5f>
   823d2:	00 c8                   	b.movi     r6,0x1
   823d4:	20 ca 0c                	b.sb       0x30(r10),r6
   823d7:	2c ca 74                	b.lwz      r6,0x2c(r10)
   823da:	2c aa 5c                	b.lwz      r5,0x38(r10)
   823dd:	08 c7                   	b.add      r6,r6,r7
   823df:	2c ca 34                	b.sw       0x2c(r10),r6
   823e2:	60 c6 2d                	b.sub      r6,r6,r5
   823e5:	9f 46 08 70 00 00       	b.sfleui   r6,0xe10
   823eb:	47 28 80                	b.bf       823fc <Device_vInit+0x1a84>
   823ee:	00 c8                   	b.movi     r6,0x1
   823f0:	20 ca 0c                	b.sb       0x30(r10),r6
   823f3:	2c ca 42                	b.lwz      r6,0x40(r10)
   823f6:	38 c6 80                	b.ori      r6,r6,0x1
   823f9:	2c ca 02                	b.sw       0x40(r10),r6
   823fc:	24 ca 8c                	b.lbz      r6,0x31(r10)
   823ff:	40 06 b8                	b.beqi     r6,0x0,8241c <Device_vInit+0x1aa4>
   82402:	2c 6a 44                	b.lwz      r3,0x20(r10)
   82405:	d8 80 08 70             	b.addi     r4,r0,0xe10
   82409:	08 67                   	b.add      r3,r3,r7
   8240b:	2c 6a 04                	b.sw       0x20(r10),r3
   8240e:	49 56 f2                	b.jal      961b8 <__umodsi3>
   82411:	41 03 64                	b.bnei     r3,0x0,82437 <Device_vInit+0x1abf>
   82414:	2c ea 42                	b.lwz      r7,0x40(r10)
   82417:	38 e7 20                	b.ori      r7,r7,0x4
   8241a:	0d 60                   	b.j        82434 <Device_vInit+0x1abc>
   8241c:	2c 6a 64                	b.lwz      r3,0x24(r10)
   8241f:	d8 80 08 70             	b.addi     r4,r0,0xe10
   82423:	08 67                   	b.add      r3,r3,r7
   82425:	2c 6a 24                	b.sw       0x24(r10),r3
   82428:	48 26 f2                	b.jal      961b8 <__umodsi3>
   8242b:	41 03 30                	b.bnei     r3,0x0,82437 <Device_vInit+0x1abf>
   8242e:	2c ea 42                	b.lwz      r7,0x40(r10)
   82431:	38 e7 10                	b.ori      r7,r7,0x8
   82434:	2c ea 02                	b.sw       0x40(r10),r7
   82437:	24 ea 0c                	b.lbz      r7,0x30(r10)
   8243a:	40 07 78                	b.beqi     r7,0x0,82458 <Device_vInit+0x1ae0>
   8243d:	8c e0 4b a0 00 20       	b.lwz      r7,0x40005d0(r0)
   82443:	20 0a 0c                	b.sb       0x30(r10),r0
   82446:	30 6a 20                	b.addi     r3,r10,0x4
   82449:	2c ea 14                	b.sw       0x28(r10),r7
   8244c:	2c ea 2c                	b.sw       0x34(r10),r7
   8244f:	2c ea 74                	b.lwz      r7,0x2c(r10)
   82452:	2c ea 1c                	b.sw       0x38(r10),r7
   82455:	49 9e fc                	b.jal      9223b <PDM_vSaveRecord>
   82458:	8c e0 44 e0 00 20       	b.lwz      r7,0x4000720(r0)
   8245e:	8c c0 6c e0 00 20       	b.lwz      r6,0x4000734(r0)
   82464:	40 07 e2                	b.beqi     r7,0x0,824ab <Device_vInit+0x1b33>
   82467:	d3 ce 6d c0             	b.bgtu     r7,r6,824a2 <Device_vInit+0x1b2a>
   8246b:	00 60                   	b.movi     r3,0x0
   8246d:	8c 00 04 e0 00 20       	b.sw       0x4000720(r0),r0
   82473:	88 00 3b 60 00 20       	b.sh       0x40006dc(r0),r0
   82479:	8c 00 36 60 00 20       	b.sw       0x400066c(r0),r0
   8247f:	8c 00 0e 60 00 20       	b.sw       0x4000670(r0),r0
   82485:	8c 00 2e 60 00 20       	b.sw       0x4000674(r0),r0
   8248b:	8c 00 1e 60 00 20       	b.sw       0x4000678(r0),r0
   82491:	80 00 16 60 00 20       	b.sb       0x4000668(r0),r0
   82497:	88 00 56 60 00 20       	b.sh       0x400066a(r0),r0
   8249d:	49 bd e2                	b.jal      94393 <Device_vReset>
   824a0:	0f 40                   	b.j        824ab <Device_vInit+0x1b33>
   824a2:	60 e7 35                	b.sub      r7,r7,r6
   824a5:	88 e0 3b 60 00 20       	b.sh       0x40006dc(r0),r7
   824ab:	98 60 e8 40 10 00       	b.ori      r3,r0,0x80217
   824b1:	4a bd 5c                	b.jal      90fa6 <dbg_vPrintfImplNoneVerbose>
   824b4:	8c e0 52 e0 00 20       	b.lwz      r7,0x4000748(r0)
   824ba:	d0 60 72 b0             	b.bnei     r7,0x1,8258e <Device_vInit+0x1c16>
   824be:	49 47 b0                	b.jal      85c48 <bAHI_Clock32MHzStable>
   824c1:	40 03 bf                	b.beqi     r3,0x0,824be <Device_vInit+0x1b46>
   824c4:	49 cb 30                	b.jal      85812 <vAHI_WakeTimerStop.part.3.24142.constprop.41>
   824c7:	48 f6 b0                	b.jal      85a83 <u8AHI_WakeTimerFiredStatus>
   824ca:	49 f2 e8                	b.jal      88208 <u32AHI_WakeTimerCalibrate>
   824cd:	04 83                   	b.mov      r4,r3
   824cf:	98 60 00 02 9a ce       	b.ori      r3,r0,0x73594000
   824d5:	4b d5 72                	b.jal      95f84 <__udivsi3>
   824d8:	8c 60 24 80 00 20       	b.sw       0x4000124(r0),r3
   824de:	cc f0 60 05             	b.lwz      r7,-0x5ffc(r16)
   824e2:	cc f0 20 05             	b.sw       -0x5ffc(r16),r7
   824e6:	00 e4                   	b.movi     r7,0x2
   824e8:	98 60 94 40 10 00       	b.ori      r3,r0,0x80229
   824ee:	98 80 32 e0 00 20       	b.ori      r4,r0,0x400074c
   824f4:	8c e0 12 e0 00 20       	b.sw       0x4000748(r0),r7
   824fa:	8c 00 04 80 00 20       	b.sw       0x4000120(r0),r0
   82500:	49 95 5c                	b.jal      90fa6 <dbg_vPrintfImplNoneVerbose>
   82503:	98 60 fc 40 10 00       	b.ori      r3,r0,0x8023f
   82509:	98 80 32 e0 00 20       	b.ori      r4,r0,0x400074c
   8250f:	4b a5 5c                	b.jal      90fa6 <dbg_vPrintfImplNoneVerbose>
   82512:	8c e0 46 b0 00 20       	b.lwz      r7,0x4000d60(r0)
   82518:	24 e7 12                	b.lbz      r7,0x48(r7)
   8251b:	41 c7 6c                	b.bnei     r7,0x3,82551 <Device_vInit+0x1bd9>
   8251e:	48 bd 30                	b.jal      85812 <vAHI_WakeTimerStop.part.3.24142.constprop.41>
   82521:	49 1a b0                	b.jal      85a83 <u8AHI_WakeTimerFiredStatus>
   82524:	4b a7 30                	b.jal      858bb <u32AHI_Init>
   82527:	8d 40 62 e0 00 20       	b.lwz      r10,0x4000744(r0)
   8252d:	c4 6a e6 80             	b.lbz      r3,0x167(r10)
   82531:	48 cd 9c                	b.jal      90bfd <vHWTimerInitVect>
   82534:	28 ea b8                	b.lhz      r7,0x1c(r10)
   82537:	00 f8                   	b.addi     r7,r7,0x1
   82539:	28 ea 38                	b.sh       0x1c(r10),r7
   8253c:	4a c0 0c                	b.jal      8e549 <vApi_Resume>
   8253f:	8c e0 62 e0 00 20       	b.lwz      r7,0x4000744(r0)
   82545:	c4 e7 26 80             	b.lbz      r7,0x164(r7)
   82549:	3c 27 b0                	b.sfnei    r7,0xd
   8254c:	47 29 40                	b.bf       82575 <Device_vInit+0x1bfd>
   8254f:	0f 60                   	b.j        8256a <Device_vInit+0x1bf2>
   82551:	4a 0d 30                	b.jal      85812 <vAHI_WakeTimerStop.part.3.24142.constprop.41>
   82554:	4b d2 b0                	b.jal      85a83 <u8AHI_WakeTimerFiredStatus>
   82557:	48 9b 30                	b.jal      858bb <u32AHI_Init>
   8255a:	8c e0 62 e0 00 20       	b.lwz      r7,0x4000744(r0)
   82560:	c4 67 e6 80             	b.lbz      r3,0x167(r7)
   82564:	4a 65 9c                	b.jal      90bfd <vHWTimerInitVect>
   82567:	49 1f f4                	b.jal      8e549 <vApi_Resume>
   8256a:	98 80 00 00 00 20       	b.ori      r4,r0,0x4000000
   82570:	00 64                   	b.movi     r3,0x2
   82572:	49 f6 3c                	b.jal      91730 <Node_vSysCtrlEvent>
   82575:	00 e8                   	b.movi     r7,0x1
   82577:	80 e0 9c e0 00 20       	b.sb       0x4000739(r0),r7
   8257d:	4a 0f 60                	b.jal      8413e <vMiniMac_SetHighPowerMode.constprop.106>
   82580:	8c e0 54 e0 00 20       	b.lwz      r7,0x4000728(r0)
   82586:	00 cf                   	b.movi     r6,-0x1
   82588:	20 c7 54                	b.sb       0x2a(r7),r6
   8258b:	4a 32 5c                	b.jal      90ebc <MibAdcStatus_vStart>
   8258e:	84 e0 9c e0 00 20       	b.lbz      r7,0x4000739(r0)
   82594:	3e 07 38                	b.extbz    r7,r7
   82597:	d0 00 79 b0             	b.beqi     r7,0x0,82670 <Device_vInit+0x1cf8>
   8259b:	8d 40 4c e0 00 20       	b.lwz      r10,0x4000730(r0)
   825a1:	80 00 9c e0 00 20       	b.sb       0x4000739(r0),r0
   825a7:	2c ca 42                	b.lwz      r6,0x40(r10)
   825aa:	34 e6 f0                	b.andi     r7,r6,0xf
   825ad:	d0 00 71 90             	b.beqi     r7,0x0,82645 <Device_vInit+0x1ccd>
   825b1:	8c e0 52 e0 00 20       	b.lwz      r7,0x4000748(r0)
   825b7:	2d aa 40                	b.lwz      r13,0x0(r10)
   825ba:	d0 50 7d 10             	b.bnei     r7,0x2,82645 <Device_vInit+0x1ccd>
   825be:	84 e0 34 e0 00 20       	b.lbz      r7,0x400072c(r0)
   825c4:	d0 00 78 10             	b.beqi     r7,0x0,82645 <Device_vInit+0x1ccd>
   825c8:	2c ad 60                	b.lwz      r5,0x4(r13)
   825cb:	38 e0 f0                	b.ori      r7,r0,0xf
   825ce:	98 60 26 40 10 00       	b.ori      r3,r0,0x80264
   825d4:	98 80 32 e0 00 20       	b.ori      r4,r0,0x400074c
   825da:	01 02                   	b.movi     r8,0x4
   825dc:	49 4e 5c                	b.jal      90fa6 <dbg_vPrintfImplNoneVerbose>
   825df:	00 68                   	b.movi     r3,0x1
   825e1:	48 c9 dc                	b.jal      9142d <Node_vDebugIndent.part.3.1795>
   825e4:	2c ea 42                	b.lwz      r7,0x40(r10)
   825e7:	34 c7 80                	b.andi     r6,r7,0x1
   825ea:	41 06 78                	b.bnei     r6,0x0,82608 <Device_vInit+0x1c90>
   825ed:	34 c7 40                	b.andi     r6,r7,0x2
   825f0:	41 06 04                	b.bnei     r6,0x0,82610 <Device_vInit+0x1c98>
   825f3:	34 c7 20                	b.andi     r6,r7,0x4
   825f6:	41 06 44                	b.bnei     r6,0x0,82618 <Device_vInit+0x1ca0>
   825f9:	34 c7 10                	b.andi     r6,r7,0x8
   825fc:	40 06 22                	b.beqi     r6,0x0,82640 <Device_vInit+0x1cc8>
   825ff:	38 a0 10                	b.ori      r5,r0,0x8
   82602:	00 cc                   	b.movi     r6,0x3
   82604:	01 8c                   	b.movi     r12,0x3
   82606:	0c 60                   	b.j        8261e <Device_vInit+0x1ca6>
   82608:	00 a8                   	b.movi     r5,0x1
   8260a:	00 c0                   	b.movi     r6,0x0
   8260c:	01 80                   	b.movi     r12,0x0
   8260e:	0c 20                   	b.j        8261e <Device_vInit+0x1ca6>
   82610:	00 a4                   	b.movi     r5,0x2
   82612:	00 c8                   	b.movi     r6,0x1
   82614:	01 88                   	b.movi     r12,0x1
   82616:	0c 40                   	b.j        8261e <Device_vInit+0x1ca6>
   82618:	00 a2                   	b.movi     r5,0x4
   8261a:	00 c4                   	b.movi     r6,0x2
   8261c:	01 84                   	b.movi     r12,0x2
   8261e:	60 a5 2b                	b.nand     r5,r5,r5
   82621:	60 e5 38                	b.and      r7,r5,r7
   82624:	98 60 49 40 10 00       	b.ori      r3,r0,0x80292
   8262a:	98 80 32 e0 00 20       	b.ori      r4,r0,0x400074c
   82630:	2c ad 60                	b.lwz      r5,0x4(r13)
   82633:	2c ea 02                	b.sw       0x40(r10),r7
   82636:	48 3a 5c                	b.jal      90fa6 <dbg_vPrintfImplNoneVerbose>
   82639:	04 6d                   	b.mov      r3,r13
   8263b:	04 8c                   	b.mov      r4,r12
   8263d:	49 23 8c                	b.jal      8ed4f <vJIP_NotifyChanged>
   82640:	00 68                   	b.movi     r3,0x1
   82642:	49 71 dc                	b.jal      9147c <Node_vDebugOutdent.part.4.1798>
   82645:	84 c0 1c e0 00 20       	b.lbz      r6,0x4000738(r0)
   8264b:	84 e0 1c 90 00 20       	b.lbz      r7,0x4000938(r0)
   82651:	d2 8e 6f 80             	b.beq      r7,r6,82670 <Device_vInit+0x1cf8>
   82655:	8c a0 6c e0 00 20       	b.lwz      r5,0x4000734(r0)
   8265b:	98 60 0d 40 10 00       	b.ori      r3,r0,0x802b0
   82661:	98 80 32 e0 00 20       	b.ori      r4,r0,0x400074c
   82667:	80 c0 1c 90 00 20       	b.sb       0x4000938(r0),r6
   8266d:	4a 72 5c                	b.jal      90fa6 <dbg_vPrintfImplNoneVerbose>
   82670:	8c e0 52 e0 00 20       	b.lwz      r7,0x4000748(r0)
   82676:	41 47 60                	b.bnei     r7,0x2,8267c <Device_vInit+0x1d04>
   82679:	4b 09 00                	b.jal      828bc <v6LP_Tick>
   8267c:	8c e0 52 e0 00 20       	b.lwz      r7,0x4000748(r0)
   82682:	41 07 28                	b.bnei     r7,0x0,82696 <Device_vInit+0x1d1e>
   82685:	00 e8                   	b.movi     r7,0x1
   82687:	00 60                   	b.movi     r3,0x0
   82689:	80 e0 3c e0 00 20       	b.sb       0x400073c(r0),r7
   8268f:	00 80                   	b.movi     r4,0x0
   82691:	4a 11 b0                	b.jal      85cb2 <vAHI_DioSetOutput>
   82694:	0d c0                   	b.j        826a2 <Device_vInit+0x1d2a>
   82696:	84 e0 3c e0 00 20       	b.lbz      r7,0x400073c(r0)
   8269c:	41 07 60                	b.bnei     r7,0x0,826a2 <Device_vInit+0x1d2a>
   8269f:	4b de b0                	b.jal      85c8e <vAHI_CpuDoze>
   826a2:	84 e0 3c e0 00 20       	b.lbz      r7,0x400073c(r0)
   826a8:	d0 00 77 f5             	b.beqi     r7,0x0,821a6 <Device_vInit+0x182e>
   826ac:	00 68                   	b.movi     r3,0x1
   826ae:	49 ce dc                	b.jal      9147c <Node_vDebugOutdent.part.4.1798>
   826b1:	98 80 32 e0 00 20       	b.ori      r4,r0,0x400074c
   826b7:	98 60 93 40 10 00       	b.ori      r3,r0,0x802c9
   826bd:	4a 5c 5c                	b.jal      90fa6 <dbg_vPrintfImplNoneVerbose>
   826c0:	00 68                   	b.movi     r3,0x1
   826c2:	4b 5a dc                	b.jal      9142d <Node_vDebugIndent.part.3.1795>
   826c5:	98 80 32 e0 00 20       	b.ori      r4,r0,0x400074c
   826cb:	98 60 3b 40 10 00       	b.ori      r3,r0,0x802dc
   826d1:	4a ac 5c                	b.jal      90fa6 <dbg_vPrintfImplNoneVerbose>
   826d4:	00 68                   	b.movi     r3,0x1
   826d6:	4b aa dc                	b.jal      9142d <Node_vDebugIndent.part.3.1795>
   826d9:	00 60                   	b.movi     r3,0x0
   826db:	00 80                   	b.movi     r4,0x0
   826dd:	4a ae b0                	b.jal      85cb2 <vAHI_DioSetOutput>
   826e0:	8c e0 52 e0 00 20       	b.lwz      r7,0x4000748(r0)
   826e6:	41 47 72                	b.bnei     r7,0x2,82734 <Device_vInit+0x1dbc>
   826e9:	98 60 b7 40 10 00       	b.ori      r3,r0,0x802ed
   826ef:	98 80 32 e0 00 20       	b.ori      r4,r0,0x400074c
   826f5:	98 a0 00 90 bc 00       	b.ori      r5,r0,0x3d0900
   826fb:	99 40 00 04 85 e0       	b.ori      r10,r0,0x7a12000
   82701:	4a 94 5c                	b.jal      90fa6 <dbg_vPrintfImplNoneVerbose>
   82704:	30 61 2c                	b.addi     r3,r1,0x34
   82707:	4a 0a d0                	b.jal      85448 <vMicroIntEnableOnly.constprop.108>
   8270a:	8c e0 62 e0 00 20       	b.lwz      r7,0x4000744(r0)
   82710:	c4 e7 26 80             	b.lbz      r7,0x164(r7)
   82714:	3c 07 f0                	b.sfeqi    r7,0xf
   82717:	47 24 80                	b.bf       82729 <Device_vInit+0x1db1>
   8271a:	8c e0 42 e0 00 20       	b.lwz      r7,0x4000740(r0)
   82720:	00 60                   	b.movi     r3,0x0
   82722:	cd 47 04 80             	b.sw       0x120(r7),r10
   82726:	4b 75 24                	b.jal      8b9e1 <vApi_Sleep>
   82729:	4b 26 00                	b.jal      828bc <v6LP_Tick>
   8272c:	30 61 2c                	b.addi     r3,r1,0x34
   8272f:	49 c9 30                	b.jal      8597d <vMicroIntRestoreState>
   82732:	0d 2f                   	b.j        82704 <Device_vInit+0x1d8c>
   82734:	cc f0 44 09             	b.lwz      r7,-0x6fe0(r16)
   82738:	34 e7 80                	b.andi     r7,r7,0x1
   8273b:	40 07 7c                	b.beqi     r7,0x0,82779 <Device_vInit+0x1e01>
   8273e:	00 60                   	b.movi     r3,0x0
   82740:	4b ab 30                	b.jal      85a97 <u64AHI_WakeTimerReadLarge.part.5.24148>
   82743:	9e c3 ff 80 00 00       	b.sfgtui   r3,0x1ff
   82749:	47 2a 80                	b.bf       8275e <Device_vInit+0x1de6>
   8274c:	9d c3 ff 80 00 00       	b.sfnei    r3,0x1ff
   82752:	47 2e 40                	b.bf       82779 <Device_vInit+0x1e01>
   82755:	9e c4 7f f4 44 9f       	b.sfgtui   r4,-0x6ddd002
   8275b:	47 37 80                	b.bnf      82779 <Device_vInit+0x1e01>
   8275e:	98 a0 00 02 42 f0       	b.ori      r5,r0,0xf424000
   82764:	00 60                   	b.movi     r3,0x0
   82766:	00 80                   	b.movi     r4,0x0
   82768:	48 9b 30                	b.jal      85acc <vAHI_WakeTimerStartLarge.part.2.24137>
   8276b:	8c e0 7c 90 00 20       	b.lwz      r7,0x400093c(r0)
   82771:	00 f8                   	b.addi     r7,r7,0x1
   82773:	8c e0 3c 90 00 20       	b.sw       0x400093c(r0),r7
   82779:	98 60 b0 c0 10 00       	b.ori      r3,r0,0x8030d
   8277f:	98 80 32 e0 00 20       	b.ori      r4,r0,0x400074c
   82785:	4a 10 5c                	b.jal      90fa6 <dbg_vPrintfImplNoneVerbose>
   82788:	00 60                   	b.movi     r3,0x0
   8278a:	49 0a bc                	b.jal      91ccc <vAHI_Sleep>
   8278d:	2c 0a 24                	b.sw       0x24(r10),r0
   82790:	01 60                   	b.movi     r11,0x0
   82792:	2c 0a 14                	b.sw       0x28(r10),r0
   82795:	39 80 38                	b.ori      r12,r0,0x1c
   82798:	01 aa                   	b.movi     r13,0x5
   8279a:	2c 0a 34                	b.sw       0x2c(r10),r0
   8279d:	2c 0a 0c                	b.sw       0x30(r10),r0
   827a0:	2c 0a 2c                	b.sw       0x34(r10),r0
   827a3:	2c 0a 1c                	b.sw       0x38(r10),r0
   827a6:	2c 0a 3c                	b.sw       0x3c(r10),r0
   827a9:	2c 0a 02                	b.sw       0x40(r10),r0
   827ac:	2c 0a 22                	b.sw       0x44(r10),r0
   827af:	2c 0a 12                	b.sw       0x48(r10),r0
   827b2:	46 bc 97                	b.j        810ef <Device_vInit+0x777>
   827b5:	04 6a                   	b.mov      r3,r10
   827b7:	00 88                   	b.movi     r4,0x1
   827b9:	4a 8c 62                	b.jal      9407e <iPDM_SetVerifyBytesInFileSystemRecord>
   827bc:	24 6a 10                	b.lbz      r3,0x8(r10)
   827bf:	31 ad c8                	b.addi     r13,r13,0x13
   827c2:	60 8d 64                	b.add      r4,r13,r12
   827c5:	3e 04 20                	b.extbz    r4,r4
   827c8:	00 a8                   	b.movi     r5,0x1
   827ca:	49 81 a2                	b.jal      93dd0 <vPDM_WriteByteIntoEEPROM>
   827cd:	04 6a                   	b.mov      r3,r10
   827cf:	00 80                   	b.movi     r4,0x0
   827d1:	4a d4 62                	b.jal      9407e <iPDM_SetVerifyBytesInFileSystemRecord>
   827d4:	46 80 57                	b.j        811d5 <Device_vInit+0x85d>
   827d7:	28 67 88                	b.lhz      r3,0x10(r7)
   827da:	24 87 68                	b.lbz      r4,0x16(r7)
   827dd:	30 c1 22                	b.addi     r6,r1,0x44
   827e0:	30 e1 34                	b.addi     r7,r1,0x2c
   827e3:	49 09 90                	b.jal      84e25 <iPDM_SearchForBufferIdInList>
   827e6:	a0 00 33 83 7f ff       	b.beqi     r3,0x0,81402 <Device_vInit+0xa8a>
   827ec:	0f e0                   	b.j        8280b <Device_vInit+0x1e93>
   827ee:	28 67 88                	b.lhz      r3,0x10(r7)
   827f1:	24 87 68                	b.lbz      r4,0x16(r7)
   827f4:	00 bf                   	b.addi     r5,r5,-0x1
   827f6:	30 c1 22                	b.addi     r6,r1,0x44
   827f9:	30 e1 34                	b.addi     r7,r1,0x2c
   827fc:	3e 05 28                	b.extbz    r5,r5
   827ff:	49 91 90                	b.jal      84e25 <iPDM_SearchForBufferIdInList>
   82802:	a0 00 3b bd 7f ff       	b.beqi     r3,0x0,813df <Device_vInit+0xa67>
   82808:	46 87 37                	b.j        814e9 <Device_vInit+0xb71>
   8280b:	2c c1 54                	b.lwz      r6,0x28(r1)
   8280e:	2c e1 64                	b.lwz      r7,0x24(r1)
   82811:	24 a6 28                	b.lbz      r5,0x14(r6)
   82814:	28 67 88                	b.lhz      r3,0x10(r7)
   82817:	24 87 68                	b.lbz      r4,0x16(r7)
   8281a:	00 bf                   	b.addi     r5,r5,-0x1
   8281c:	30 c1 22                	b.addi     r6,r1,0x44
   8281f:	30 e1 34                	b.addi     r7,r1,0x2c
   82822:	3e 05 28                	b.extbz    r5,r5
   82825:	48 01 90                	b.jal      84e25 <iPDM_SearchForBufferIdInList>
   82828:	a0 00 36 7d 7f ff       	b.beqi     r3,0x0,8140e <Device_vInit+0xa96>
   8282e:	46 dd 37                	b.j        814e9 <Device_vInit+0xb71>
   82831:	2c e1 54                	b.lwz      r7,0x28(r1)
   82834:	2c 61 74                	b.lwz      r3,0x2c(r1)
   82837:	24 e7 28                	b.lbz      r7,0x14(r7)
   8283a:	24 c3 c8                	b.lbz      r6,0x13(r3)
   8283d:	00 ff                   	b.addi     r7,r7,-0x1
   8283f:	a2 cc 79 83 7f ff       	b.bne      r6,r7,81458 <Device_vInit+0xae0>
   82845:	46 c0 37                	b.j        81448 <Device_vInit+0xad0>
   82848:	38 60 70                	b.ori      r3,r0,0xe
   8284b:	30 81 1c                	b.addi     r4,r1,0x38
   8284e:	30 a1 22                	b.addi     r5,r1,0x44
   82851:	04 c5                   	b.mov      r6,r5
   82853:	48 91 42                	b.jal      93277 <vPDM_MoveAllDataFromListToList>
   82856:	2c 61 54                	b.lwz      r3,0x28(r1)
   82859:	24 81 1c                	b.lbz      r4,0x38(r1)
   8285c:	24 e3 28                	b.lbz      r7,0x14(r3)
   8285f:	a2 ce 40 c3 7f ff       	b.bne      r7,r4,8148f <Device_vInit+0xb17>
   82865:	46 24 37                	b.j        81489 <Device_vInit+0xb11>
   82868:	d8 c0 40 c0             	b.addi     r6,r0,0x302
   8286c:	2c c7 32                	b.sw       0x4c(r7),r6
   8286f:	46 d6 2f                	b.j        81cda <Device_vInit+0x1362>
   82872:	8c e0 42 e0 00 20       	b.lwz      r7,0x4000740(r0)
   82878:	98 c0 5c a0 00 20       	b.ori      r6,r0,0x400053a
   8287e:	cc c7 12 80             	b.sw       0x148(r7),r6
   82882:	98 c0 cc 46 10 00       	b.ori      r6,r0,0x86233
   82888:	88 60 90 e0 00 20       	b.lhz      r3,0x4000708(r0)
   8288e:	cc c7 02 80             	b.sw       0x140(r7),r6
   82892:	84 e0 df 60 00 20       	b.lbz      r7,0x40006fb(r0)
   82898:	88 60 1c a0 00 20       	b.sh       0x4000538(r0),r3
   8289e:	a0 60 77 1a ff ff       	b.bnei     r7,0x1,81e2c <Device_vInit+0x14b4>
   828a4:	46 fe af                	b.j        81e23 <Device_vInit+0x14ab>
   828a7:	39 60 ff                	b.ori      r11,r0,0xff
   828aa:	46 2e ef                	b.j        8201e <Device_vInit+0x16a6>
   828ad:	24 6a 10                	b.lbz      r3,0x8(r10)
   828b0:	25 0e 80                	b.lbz      r8,0x1(r14)
   828b3:	00 c0                   	b.movi     r6,0x0
   828b5:	00 e0                   	b.movi     r7,0x0
   828b7:	46 46 e7                	b.j        81019 <Device_vInit+0x6a1>
	...

000828bc <v6LP_Tick>:
   828bc:	47 ae e6                	b.entri    0x7,0x67
   828bf:	cd 90 64 29             	b.lwz      r12,-0x6bdc(r16)
   828c3:	8c c0 58 a0 00 20       	b.lwz      r6,0x4000518(r0)
   828c9:	88 e0 dc c0 00 20       	b.lhz      r7,0x400033a(r0)
   828cf:	60 cc 35                	b.sub      r6,r12,r6
   828d2:	a3 ce 6f db 00 00       	b.bgtu     r7,r6,83691 <v6LP_Tick+0xdd5>
   828d8:	8d 80 18 a0 00 20       	b.sw       0x4000518(r0),r12
   828de:	0f f0                   	b.j        8291d <v6LP_Tick+0x61>
   828e0:	84 c0 8a 90 00 20       	b.lbz      r6,0x4000951(r0)
   828e6:	8c e0 72 90 00 20       	b.lwz      r7,0x400094c(r0)
   828ec:	3e 06 30                	b.extbz    r6,r6
   828ef:	6c c6 c0                	b.slli     r6,r6,0x3
   828f2:	08 c7                   	b.add      r6,r6,r7
   828f4:	2c e6 40                	b.lwz      r7,0x0(r6)
   828f7:	40 07 90                	b.beqi     r7,0x0,82900 <v6LP_Tick+0x44>
   828fa:	2c 66 60                	b.lwz      r3,0x4(r6)
   828fd:	47 d1 38                	b.jalr     r7
   82900:	84 e0 8a 90 00 20       	b.lbz      r7,0x4000951(r0)
   82906:	84 c0 8c c0 00 20       	b.lbz      r6,0x4000331(r0)
   8290c:	00 f8                   	b.addi     r7,r7,0x1
   8290e:	3e 07 38                	b.extbz    r7,r7
   82911:	3d e6 38                	b.sfgtu    r6,r7
   82914:	64 e7 02                	b.cmov     r7,r7,r0
   82917:	80 e0 8a 90 00 20       	b.sb       0x4000951(r0),r7
   8291d:	84 c0 8a 90 00 20       	b.lbz      r6,0x4000951(r0)
   82923:	84 e0 0a 90 00 20       	b.lbz      r7,0x4000950(r0)
   82929:	3e 06 30                	b.extbz    r6,r6
   8292c:	3e 07 38                	b.extbz    r7,r7
   8292f:	d2 cc 78 df             	b.bne      r6,r7,828e0 <v6LP_Tick+0x24>
   82933:	46 f2 a0                	b.j        82e82 <v6LP_Tick+0x5c6>
   82936:	85 40 92 90 00 20       	b.lbz      r10,0x4000949(r0)
   8293c:	38 e0 31                	b.ori      r7,r0,0x8c
   8293f:	3e 0a 50                	b.extbz    r10,r10
   82942:	65 4a 3b                	b.mul      r10,r10,r7
   82945:	8c e0 62 90 00 20       	b.lwz      r7,0x4000944(r0)
   8294b:	09 47                   	b.add      r10,r10,r7
   8294d:	24 ea 51                	b.lbz      r7,0x8a(r10)
   82950:	24 8a 11                	b.lbz      r4,0x88(r10)
   82953:	80 e0 1c e0 00 20       	b.sb       0x4000738(r0),r7
   82959:	3c 04 88                	b.sfeqi    r4,0x11
   8295c:	24 ea d1                	b.lbz      r7,0x8b(r10)
   8295f:	25 6a 91                	b.lbz      r11,0x89(r10)
   82962:	80 e0 91 90 00 20       	b.sb       0x4000989(r0),r7
   82968:	47 24 d0                	b.bf       82a1a <v6LP_Tick+0x15e>
   8296b:	3c a4 88                	b.sfgtui   r4,0x11
   8296e:	47 2f c0                	b.bf       829ad <v6LP_Tick+0xf1>
   82971:	3c 04 90                	b.sfeqi    r4,0x9
   82974:	47 2c 10                	b.bf       829f7 <v6LP_Tick+0x13b>
   82977:	3c a4 90                	b.sfgtui   r4,0x9
   8297a:	47 20 80                	b.bf       8298a <v6LP_Tick+0xce>
   8297d:	d0 20 47 b0             	b.beqi     r4,0x1,82a5b <v6LP_Tick+0x19f>
   82981:	40 04 6e                	b.beqi     r4,0x0,829f7 <v6LP_Tick+0x13b>
   82984:	d0 58 48 72             	b.bnei     r4,0x6,82e65 <v6LP_Tick+0x5a9>
   82988:	0f 42                   	b.j        82a93 <v6LP_Tick+0x1d7>
   8298a:	3c 04 b0                	b.sfeqi    r4,0xd
   8298d:	47 20 c4                	b.bf       82bbd <v6LP_Tick+0x301>
   82990:	3c a4 b0                	b.sfgtui   r4,0xd
   82993:	47 2d 00                	b.bf       8299e <v6LP_Tick+0xe2>
   82996:	3c 04 50                	b.sfeqi    r4,0xa
   82999:	47 33 32                	b.bnf      82e65 <v6LP_Tick+0x5a9>
   8299c:	0c 12                   	b.j        82abc <v6LP_Tick+0x200>
   8299e:	3c 04 70                	b.sfeqi    r4,0xe
   829a1:	47 24 14                	b.bf       82c23 <v6LP_Tick+0x367>
   829a4:	3c 04 f0                	b.sfeqi    r4,0xf
   829a7:	47 37 d2                	b.bnf      82e65 <v6LP_Tick+0x5a9>
   829aa:	46 c8 40                	b.j        82bbd <v6LP_Tick+0x301>
   829ad:	3c 04 98                	b.sfeqi    r4,0x19
   829b0:	47 25 52                	b.bf       82e5a <v6LP_Tick+0x59e>
   829b3:	3c a4 98                	b.sfgtui   r4,0x19
   829b6:	47 21 80                	b.bf       829ce <v6LP_Tick+0x112>
   829b9:	3c 04 a8                	b.sfeqi    r4,0x15
   829bc:	47 25 e4                	b.bf       82c36 <v6LP_Tick+0x37a>
   829bf:	3d 24 a8                	b.sfltui   r4,0x15
   829c2:	47 2d f8                	b.bf       82bbd <v6LP_Tick+0x301>
   829c5:	3c 04 e8                	b.sfeqi    r4,0x17
   829c8:	47 3b 92                	b.bnf      82e65 <v6LP_Tick+0x5a9>
   829cb:	46 dd 40                	b.j        82c86 <v6LP_Tick+0x3ca>
   829ce:	3c 04 0a                	b.sfeqi    r4,0x50
   829d1:	47 25 d4                	b.bf       82c8b <v6LP_Tick+0x3cf>
   829d4:	3c a4 0a                	b.sfgtui   r4,0x50
   829d7:	47 23 00                	b.bf       829e3 <v6LP_Tick+0x127>
   829da:	3c 04 58                	b.sfeqi    r4,0x1a
   829dd:	47 31 12                	b.bnf      82e65 <v6LP_Tick+0x5a9>
   829e0:	46 3a 40                	b.j        82c3c <v6LP_Tick+0x380>
   829e3:	9d 84 7f 00 00 00       	b.sfeqi    r4,0xfe
   829e9:	47 22 d0                	b.bf       82a9d <v6LP_Tick+0x1e1>
   829ec:	9d 84 ff 00 00 00       	b.sfeqi    r4,0xff
   829f2:	47 3c e2                	b.bnf      82e65 <v6LP_Tick+0x5a9>
   829f5:	0e b4                   	b.j        82aaa <v6LP_Tick+0x1ee>
   829f7:	30 ea 10                	b.addi     r7,r10,0x8
   829fa:	d8 61 21 00             	b.addi     r3,r1,0x84
   829fe:	2c e1 39                	b.sw       0x9c(r1),r7
   82a01:	00 ec                   	b.movi     r7,0x3
   82a03:	20 e1 61                	b.sb       0x86(r1),r7
   82a06:	2c ea 40                	b.lwz      r7,0x0(r10)
   82a09:	29 61 05                	b.sh       0xa0(r1),r11
   82a0c:	2c e1 11                	b.sw       0x88(r1),r7
   82a0f:	2c ea 60                	b.lwz      r7,0x4(r10)
   82a12:	20 01 49                	b.sb       0x92(r1),r0
   82a15:	2c e1 31                	b.sw       0x8c(r1),r7
   82a18:	0e b8                   	b.j        82a8d <v6LP_Tick+0x1d1>
   82a1a:	30 ea d8                	b.addi     r7,r10,0x1b
   82a1d:	31 6b b7                	b.addi     r11,r11,-0x13
   82a20:	30 8a d0                	b.addi     r4,r10,0xb
   82a23:	38 a0 10                	b.ori      r5,r0,0x8
   82a26:	30 61 16                	b.addi     r3,r1,0x68
   82a29:	29 61 01                	b.sh       0x80(r1),r11
   82a2c:	01 6c                   	b.movi     r11,0x3
   82a2e:	2c e1 3e                	b.sw       0x7c(r1),r7
   82a31:	21 61 66                	b.sb       0x66(r1),r11
   82a34:	d4 14 6b ef             	b.jal      5c <memcpy>
   82a38:	30 61 2e                	b.addi     r3,r1,0x74
   82a3b:	30 8a c8                	b.addi     r4,r10,0x13
   82a3e:	38 a0 10                	b.ori      r5,r0,0x8
   82a41:	21 61 4e                	b.sb       0x72(r1),r11
   82a44:	d4 18 6b ef             	b.jal      5c <memcpy>
   82a48:	30 61 26                	b.addi     r3,r1,0x64
   82a4b:	4b 7d f0                	b.jal      86946 <b6LP_HandleRxEvent>
   82a4e:	d0 40 3e 82             	b.bnei     r3,0x0,82e65 <v6LP_Tick+0x5a9>
   82a52:	30 61 2e                	b.addi     r3,r1,0x74
   82a55:	49 4d ac                	b.jal      9011f <ePAR_SendFindNode>
   82a58:	46 b0 20                	b.j        82e65 <v6LP_Tick+0x5a9>
   82a5b:	30 ea 10                	b.addi     r7,r10,0x8
   82a5e:	30 61 22                	b.addi     r3,r1,0x44
   82a61:	2c e1 3a                	b.sw       0x5c(r1),r7
   82a64:	00 ec                   	b.movi     r7,0x3
   82a66:	20 e1 62                	b.sb       0x46(r1),r7
   82a69:	2c ca 40                	b.lwz      r6,0x0(r10)
   82a6c:	29 61 06                	b.sh       0x60(r1),r11
   82a6f:	2c c1 12                	b.sw       0x48(r1),r6
   82a72:	2c ca 60                	b.lwz      r6,0x4(r10)
   82a75:	20 e1 4a                	b.sb       0x52(r1),r7
   82a78:	8c e0 6c a0 00 20       	b.lwz      r7,0x4000534(r0)
   82a7e:	2c c1 32                	b.sw       0x4c(r1),r6
   82a81:	2c e1 1a                	b.sw       0x58(r1),r7
   82a84:	8c e0 4c a0 00 20       	b.lwz      r7,0x4000530(r0)
   82a8a:	2c e1 2a                	b.sw       0x54(r1),r7
   82a8d:	4a 75 f0                	b.jal      86946 <b6LP_HandleRxEvent>
   82a90:	46 ab c0                	b.j        82e65 <v6LP_Tick+0x5a9>
   82a93:	00 66                   	b.movi     r3,0x6
   82a95:	30 8a 10                	b.addi     r4,r10,0x8
   82a98:	00 a8                   	b.movi     r5,0x1
   82a9a:	46 13 c0                	b.j        82e62 <v6LP_Tick+0x5a6>
   82a9d:	24 ea 10                	b.lbz      r7,0x8(r10)
   82aa0:	30 61 20                	b.addi     r3,r1,0x4
   82aa3:	00 80                   	b.movi     r4,0x0
   82aa5:	20 e1 20                	b.sb       0x4(r1),r7
   82aa8:	0d c0                   	b.j        82ab6 <v6LP_Tick+0x1fa>
   82aaa:	24 ea 10                	b.lbz      r7,0x8(r10)
   82aad:	30 61 20                	b.addi     r3,r1,0x4
   82ab0:	38 80 47                	b.ori      r4,r0,0xe2
   82ab3:	20 e1 20                	b.sb       0x4(r1),r7
   82ab6:	49 ac 54                	b.jal      8d38c <vHandleTxEvent>
   82ab9:	46 35 c0                	b.j        82e65 <v6LP_Tick+0x5a9>
   82abc:	04 61                   	b.mov      r3,r1
   82abe:	4a 28 20                	b.jal      83b0f <iIPv6_SearchForBufferReadyToTX>
   82ac1:	41 03 48                	b.bnei     r3,0x0,82ad3 <v6LP_Tick+0x217>
   82ac4:	8c e0 46 b0 00 20       	b.lwz      r7,0x4000d60(r0)
   82aca:	2c 61 40                	b.lwz      r3,0x0(r1)
   82acd:	2c e7 60                	b.lwz      r7,0x4(r7)
   82ad0:	47 d1 38                	b.jalr     r7
   82ad3:	84 80 9c c0 00 20       	b.lbz      r4,0x4000339(r0)
   82ad9:	8c 60 49 90 00 20       	b.lwz      r3,0x4000990(r0)
   82adf:	98 e0 89 7a 10 00       	b.ori      r7,r0,0x85e91
   82ae5:	6c 84 20                	b.slli     r4,r4,0x4
   82ae8:	00 a0                   	b.movi     r5,0x0
   82aea:	8c e0 16 90 00 20       	b.sw       0x4000968(r0),r7
   82af0:	8c 00 36 90 00 20       	b.sw       0x400096c(r0),r0
   82af6:	80 00 0e 90 00 20       	b.sb       0x4000970(r0),r0
   82afc:	4a 32 d0                	b.jal      8582d <pvHeap_Alloc>
   82aff:	84 e0 29 90 00 20       	b.lbz      r7,0x4000994(r0)
   82b05:	8c 60 09 90 00 20       	b.sw       0x4000990(r0),r3
   82b0b:	41 07 14                	b.bnei     r7,0x0,82b33 <v6LP_Tick+0x277>
   82b0e:	00 e8                   	b.movi     r7,0x1
   82b10:	80 e0 29 90 00 20       	b.sb       0x4000994(r0),r7
   82b16:	8c e0 42 e0 00 20       	b.lwz      r7,0x4000740(r0)
   82b1c:	40 07 e8                	b.beqi     r7,0x0,82b33 <v6LP_Tick+0x277>
   82b1f:	cc c7 5c 80             	b.lwz      r6,0x138(r7)
   82b23:	8c c0 3a 90 00 20       	b.sw       0x400095c(r0),r6
   82b29:	98 c0 6f 66 10 00       	b.ori      r6,r0,0x866f6
   82b2f:	cc c7 1c 80             	b.sw       0x138(r7),r6
   82b33:	84 80 1c c0 00 20       	b.lbz      r4,0x4000338(r0)
   82b39:	98 e0 24 2f 00 00       	b.ori      r7,r0,0xf424
   82b3f:	98 60 06 90 00 20       	b.ori      r3,r0,0x4000960
   82b45:	64 84 3b                	b.mul      r4,r4,r7
   82b48:	4b bb 74                	b.jal      8e6bf <TSV_eStart>
   82b4b:	28 ea d8                	b.lhz      r7,0x1a(r10)
   82b4e:	8d a0 46 b0 00 20       	b.lwz      r13,0x4000d60(r0)
   82b54:	00 60                   	b.movi     r3,0x0
   82b56:	28 ed 19                	b.sh       0x98(r13),r7
   82b59:	24 ed 12                	b.lbz      r7,0x48(r13)
   82b5c:	40 87 9a                	b.beqi     r7,0x1,82bb5 <v6LP_Tick+0x2f9>
   82b5f:	2c 8a 44                	b.lwz      r4,0x20(r10)
   82b62:	40 04 a2                	b.beqi     r4,0x0,82ba7 <v6LP_Tick+0x2eb>
   82b65:	24 e4 00                	b.lbz      r7,0x0(r4)
   82b68:	d2 38 7f c0             	b.bleui    r7,0x7,82ba7 <v6LP_Tick+0x2eb>
   82b6c:	00 98                   	b.addi     r4,r4,0x1
   82b6e:	38 a0 10                	b.ori      r5,r0,0x8
   82b71:	30 61 10                	b.addi     r3,r1,0x8
   82b74:	d4 17 2b ef             	b.jal      5c <memcpy>
   82b78:	50 c1 10                	b.mlwz     r6,0x8(r1),0x0
   82b7b:	98 60 dc a0 00 20       	b.ori      r3,r0,0x400053b
   82b81:	30 81 08                	b.addi     r4,r1,0x10
   82b84:	38 a0 10                	b.ori      r5,r0,0x8
   82b87:	2c ed 3e                	b.sw       0x7c(r13),r7
   82b8a:	2c cd 01                	b.sw       0x80(r13),r6
   82b8d:	54 c1 08                	b.msw      0x10(r1),r6,0x0
   82b90:	d4 33 2b ef             	b.jal      5c <memcpy>
   82b94:	84 e0 5c a0 00 20       	b.lbz      r7,0x400053a(r0)
   82b9a:	d1 f8 7b 00             	b.bgtui    r7,0x7,82ba7 <v6LP_Tick+0x2eb>
   82b9e:	38 e0 10                	b.ori      r7,r0,0x8
   82ba1:	80 e0 5c a0 00 20       	b.sb       0x400053a(r0),r7
   82ba7:	88 60 9c a0 00 20       	b.lhz      r3,0x4000538(r0)
   82bad:	4b 41 04                	b.jal      8adb8 <eCreateSocket.6902>
   82bb0:	4b eb 74                	b.jal      8e70f <vStartTrapTimer>
   82bb3:	00 68                   	b.movi     r3,0x1
   82bb5:	30 8a 10                	b.addi     r4,r10,0x8
   82bb8:	04 ab                   	b.mov      r5,r11
   82bba:	46 15 40                	b.j        82e62 <v6LP_Tick+0x5a6>
   82bbd:	2c ea 40                	b.lwz      r7,0x0(r10)
   82bc0:	30 84 cf                	b.addi     r4,r4,-0xd
   82bc3:	3e 04 20                	b.extbz    r4,r4
   82bc6:	2c e1 24                	b.sw       0x24(r1),r7
   82bc9:	90 84 1d 60 10 00       	b.addi     r4,r4,0x806b8
   82bcf:	2c ea 60                	b.lwz      r7,0x4(r10)
   82bd2:	2c e1 14                	b.sw       0x28(r1),r7
   82bd5:	00 e7                   	b.movi     r7,-0x2
   82bd7:	28 e1 0c                	b.sh       0x30(r1),r7
   82bda:	2c ea 50                	b.lwz      r7,0x8(r10)
   82bdd:	25 44 00                	b.lbz      r10,0x0(r4)
   82be0:	2c e1 34                	b.sw       0x2c(r1),r7
   82be3:	3c aa 50                	b.sfgtui   r10,0xa
   82be6:	47 24 c0                	b.bf       82c18 <v6LP_Tick+0x35c>
   82be9:	00 c8                   	b.movi     r6,0x1
   82beb:	3e 0a 39                	b.extbs    r7,r10
   82bee:	60 e6 3e                	b.sll      r7,r6,r7
   82bf1:	94 c7 31 a0 00 00       	b.andi     r6,r7,0x58c
   82bf7:	41 06 d0                	b.bnei     r6,0x0,82c02 <v6LP_Tick+0x346>
   82bfa:	34 e7 40                	b.andi     r7,r7,0x2
   82bfd:	41 07 f0                	b.bnei     r7,0x0,82c0c <v6LP_Tick+0x350>
   82c00:	0c 60                   	b.j        82c18 <v6LP_Tick+0x35c>
   82c02:	30 81 24                	b.addi     r4,r1,0x24
   82c05:	04 6a                   	b.mov      r3,r10
   82c07:	49 5a 0c                	b.jal      8ed71 <vNetworkModule_Update>
   82c0a:	0d c0                   	b.j        82c18 <v6LP_Tick+0x35c>
   82c0c:	88 60 9c a0 00 20       	b.lhz      r3,0x4000538(r0)
   82c12:	49 96 04                	b.jal      8adb8 <eCreateSocket.6902>
   82c15:	49 7d 74                	b.jal      8e70f <vStartTrapTimer>
   82c18:	04 6a                   	b.mov      r3,r10
   82c1a:	30 81 24                	b.addi     r4,r1,0x24
   82c1d:	38 a0 08                	b.ori      r5,r0,0x10
   82c20:	46 42 40                	b.j        82e62 <v6LP_Tick+0x5a6>
   82c23:	8c e0 46 b0 00 20       	b.lwz      r7,0x4000d60(r0)
   82c29:	2c e7 63                	b.lwz      r7,0xc4(r7)
   82c2c:	40 07 60                	b.beqi     r7,0x0,82c32 <v6LP_Tick+0x376>
   82c2f:	47 d1 38                	b.jalr     r7
   82c32:	00 6a                   	b.movi     r3,0x5
   82c34:	0e 07                   	b.j        82bb5 <v6LP_Tick+0x2f9>
   82c36:	38 60 90                	b.ori      r3,r0,0x9
   82c39:	46 24 40                	b.j        82e5d <v6LP_Tick+0x5a1>
   82c3c:	88 e0 aa a0 00 20       	b.lhz      r7,0x4000554(r0)
   82c42:	2c 01 25                	b.sw       0xa4(r1),r0
   82c45:	04 61                   	b.mov      r3,r1
   82c47:	2c 01 0d                	b.sw       0xb0(r1),r0
   82c4a:	2c 01 2d                	b.sw       0xb4(r1),r0
   82c4d:	2c 01 1d                	b.sw       0xb8(r1),r0
   82c50:	2c 01 3d                	b.sw       0xbc(r1),r0
   82c53:	28 e1 15                	b.sh       0xa8(r1),r7
   82c56:	4b bd 14                	b.jal      8cf4d <i6LP_DefGetDataBuffer>
   82c59:	d0 40 33 04             	b.bnei     r3,0x0,82e65 <v6LP_Tick+0x5a9>
   82c5d:	2c 61 40                	b.lwz      r3,0x0(r1)
   82c60:	38 a0 10                	b.ori      r5,r0,0x8
   82c63:	04 8a                   	b.mov      r4,r10
   82c65:	20 03 00                	b.sb       0x0(r3),r0
   82c68:	20 03 80                	b.sb       0x1(r3),r0
   82c6b:	00 74                   	b.addi     r3,r3,0x2
   82c6d:	d4 f7 cb ef             	b.jal      5c <memcpy>
   82c71:	2c 81 40                	b.lwz      r4,0x0(r1)
   82c74:	8c 60 78 80 00 20       	b.lwz      r3,0x400011c(r0)
   82c7a:	38 a0 50                	b.ori      r5,r0,0xa
   82c7d:	d8 c1 25 00             	b.addi     r6,r1,0xa4
   82c81:	48 25 98                	b.jal      89311 <i6LP_DefSendTo.constprop.31>
   82c84:	0e 1e                   	b.j        82e65 <v6LP_Tick+0x5a9>
   82c86:	38 60 30                	b.ori      r3,r0,0xc
   82c89:	0c ae                   	b.j        82e5d <v6LP_Tick+0x5a1>
   82c8b:	24 ea c8                	b.lbz      r7,0x13(r10)
   82c8e:	30 cb 2f                	b.addi     r6,r11,-0xc
   82c91:	31 aa 10                	b.addi     r13,r10,0x8
   82c94:	3e 06 30                	b.extbz    r6,r6
   82c97:	40 67 22                	b.beqi     r7,0x6,82cdb <v6LP_Tick+0x41f>
   82c9a:	d1 d8 7b 00             	b.bgtui    r7,0x6,82ca7 <v6LP_Tick+0x3eb>
   82c9e:	40 47 b8                	b.beqi     r7,0x2,82cbb <v6LP_Tick+0x3ff>
   82ca1:	d0 48 72 38             	b.bnei     r7,0x4,82e65 <v6LP_Tick+0x5a9>
   82ca5:	0d b0                   	b.j        82cdb <v6LP_Tick+0x41f>
   82ca7:	9d 87 21 00 00 00       	b.sfeqi    r7,0x84
   82cad:	47 27 c8                	b.bf       82deb <v6LP_Tick+0x52f>
   82cb0:	9d 87 61 00 00 00       	b.sfeqi    r7,0x86
   82cb6:	47 3f 58                	b.bnf      82e65 <v6LP_Tick+0x5a9>
   82cb9:	0d 32                   	b.j        82deb <v6LP_Tick+0x52f>
   82cbb:	8c 60 49 90 00 20       	b.lwz      r3,0x4000990(r0)
   82cc1:	84 a0 0e 90 00 20       	b.lbz      r5,0x4000970(r0)
   82cc7:	84 e0 9c c0 00 20       	b.lbz      r7,0x4000339(r0)
   82ccd:	30 8a 28                	b.addi     r4,r10,0x14
   82cd0:	49 e5 70                	b.jal      8676e <u8DecompressAddrs.17159>
   82cd3:	80 60 0e 90 00 20       	b.sb       0x4000970(r0),r3
   82cd9:	0c c6                   	b.j        82e65 <v6LP_Tick+0x5a9>
   82cdb:	8c e0 46 b0 00 20       	b.lwz      r7,0x4000d60(r0)
   82ce1:	24 e7 12                	b.lbz      r7,0x48(r7)
   82ce4:	d0 60 70 f0             	b.bnei     r7,0x1,82dd4 <v6LP_Tick+0x518>
   82ce8:	d9 c1 23 00             	b.addi     r14,r1,0xc4
   82cec:	30 8a 28                	b.addi     r4,r10,0x14
   82cef:	04 6e                   	b.mov      r3,r14
   82cf1:	00 a0                   	b.movi     r5,0x0
   82cf3:	00 e2                   	b.movi     r7,0x4
   82cf5:	4a 79 70                	b.jal      8676e <u8DecompressAddrs.17159>
   82cf8:	05 63                   	b.mov      r11,r3
   82cfa:	d0 00 3d 68             	b.beqi     r3,0x0,82e65 <v6LP_Tick+0x5a9>
   82cfe:	24 ea c8                	b.lbz      r7,0x13(r10)
   82d01:	41 27 5c                	b.bnei     r7,0x4,82d3b <v6LP_Tick+0x47f>
   82d04:	0d 60                   	b.j        82d1e <v6LP_Tick+0x462>
   82d06:	6c 6d 20                	b.slli     r3,r13,0x4
   82d09:	08 6e                   	b.add      r3,r3,r14
   82d0b:	01 b8                   	b.addi     r13,r13,0x1
   82d0d:	8c 80 49 90 00 20       	b.lwz      r4,0x4000990(r0)
   82d13:	4b 61 70                	b.jal      8672e <u8GroupAddUnique.17154>
   82d16:	80 60 0e 90 00 20       	b.sb       0x4000970(r0),r3
   82d1c:	0c 80                   	b.j        82d20 <v6LP_Tick+0x464>
   82d1e:	01 a0                   	b.movi     r13,0x0
   82d20:	84 a0 0e 90 00 20       	b.lbz      r5,0x4000970(r0)
   82d26:	84 e0 9c c0 00 20       	b.lbz      r7,0x4000339(r0)
   82d2c:	d3 8a 71 00             	b.bgeu     r5,r7,82d34 <v6LP_Tick+0x478>
   82d30:	d3 56 d6 bf             	b.bgts     r11,r13,82d06 <v6LP_Tick+0x44a>
   82d34:	00 e8                   	b.movi     r7,0x1
   82d36:	20 e1 82                	b.sb       0x41(r1),r7
   82d39:	0e 80                   	b.j        82d3e <v6LP_Tick+0x482>
   82d3b:	20 01 82                	b.sb       0x41(r1),r0
   82d3e:	24 aa c8                	b.lbz      r5,0x13(r10)
   82d41:	d9 a1 23 00             	b.addi     r13,r1,0xc4
   82d45:	04 8b                   	b.mov      r4,r11
   82d47:	04 6d                   	b.mov      r3,r13
   82d49:	48 a5 d8                	b.jal      89bdd <bGenerateMLDv2.17134>
   82d4c:	31 ca d0                	b.addi     r14,r10,0xb
   82d4f:	38 a0 10                	b.ori      r5,r0,0x8
   82d52:	30 61 2c                	b.addi     r3,r1,0x34
   82d55:	04 8e                   	b.mov      r4,r14
   82d57:	d4 a0 cb ef             	b.jal      5c <memcpy>
   82d5b:	38 60 d0                	b.ori      r3,r0,0xb
   82d5e:	30 81 2c                	b.addi     r4,r1,0x34
   82d61:	38 a0 08                	b.ori      r5,r0,0x10
   82d64:	2d a1 3c                	b.sw       0x3c(r1),r13
   82d67:	21 61 02                	b.sb       0x40(r1),r11
   82d6a:	49 8c 54                	b.jal      8d630 <vJIP_StackEvent>
   82d6d:	38 e0 04                	b.ori      r7,r0,0x20
   82d70:	38 a0 10                	b.ori      r5,r0,0x8
   82d73:	30 61 38                	b.addi     r3,r1,0x1c
   82d76:	04 8e                   	b.mov      r4,r14
   82d78:	c0 e1 22 80             	b.sb       0x144(r1),r7
   82d7c:	38 e0 0a                	b.ori      r7,r0,0x50
   82d7f:	c0 e1 62 80             	b.sb       0x146(r1),r7
   82d83:	24 ea c8                	b.lbz      r7,0x13(r10)
   82d86:	30 e7 01                	b.addi     r7,r7,-0x80
   82d89:	c0 e1 f2 80             	b.sb       0x14f(r1),r7
   82d8d:	d4 f3 4b ef             	b.jal      5c <memcpy>
   82d91:	2c e1 78                	b.lwz      r7,0x1c(r1)
   82d94:	98 80 0c a0 00 20       	b.ori      r4,r0,0x4000530
   82d9a:	38 a0 10                	b.ori      r5,r0,0x8
   82d9d:	04 6e                   	b.mov      r3,r14
   82d9f:	cc e1 0a 80             	b.sw       0x150(r1),r7
   82da3:	2c e1 44                	b.lwz      r7,0x20(r1)
   82da6:	cc e1 2a 80             	b.sw       0x154(r1),r7
   82daa:	d4 4d 4b ef             	b.jal      5c <memcpy>
   82dae:	d8 61 1a 80             	b.addi     r3,r1,0x158
   82db2:	04 8d                   	b.mov      r4,r13
   82db4:	04 ab                   	b.mov      r5,r11
   82db6:	49 f1 70                	b.jal      867f4 <u8CompressAddrs.17139>
   82db9:	30 e3 28                	b.addi     r7,r3,0x14
   82dbc:	00 80                   	b.movi     r4,0x0
   82dbe:	8c 60 62 e0 00 20       	b.lwz      r3,0x4000744(r0)
   82dc4:	30 a1 38                	b.addi     r5,r1,0x1c
   82dc7:	d8 63 19 80             	b.addi     r3,r3,0x198
   82dcb:	d8 c1 22 80             	b.addi     r6,r1,0x144
   82dcf:	3e 07 3a                	b.exthz    r7,r7
   82dd2:	0f 04                   	b.j        82e55 <v6LP_Tick+0x599>
   82dd4:	8c 60 62 e0 00 20       	b.lwz      r3,0x4000744(r0)
   82dda:	00 80                   	b.movi     r4,0x0
   82ddc:	d8 63 19 80             	b.addi     r3,r3,0x198
   82de0:	00 a0                   	b.movi     r5,0x0
   82de2:	04 cd                   	b.mov      r6,r13
   82de4:	04 eb                   	b.mov      r7,r11
   82de6:	48 93 cc                	b.jal      8fd0a <eNwk_TransmitPacketVect>
   82de9:	0c f8                   	b.j        82e65 <v6LP_Tick+0x5a9>
   82deb:	30 61 38                	b.addi     r3,r1,0x1c
   82dee:	30 8a 28                	b.addi     r4,r10,0x14
   82df1:	38 a0 10                	b.ori      r5,r0,0x8
   82df4:	d4 16 4b ef             	b.jal      5c <memcpy>
   82df8:	8c e0 6c a0 00 20       	b.lwz      r7,0x4000534(r0)
   82dfe:	2c c1 44                	b.lwz      r6,0x20(r1)
   82e01:	d2 cc 78 20             	b.bne      r6,r7,82e42 <v6LP_Tick+0x586>
   82e05:	8c e0 4c a0 00 20       	b.lwz      r7,0x4000530(r0)
   82e0b:	2c c1 78                	b.lwz      r6,0x1c(r1)
   82e0e:	d2 cc 72 c0             	b.bne      r6,r7,82e42 <v6LP_Tick+0x586>
   82e12:	30 8a 38                	b.addi     r4,r10,0x1c
   82e15:	30 cb 37                	b.addi     r6,r11,-0x14
   82e18:	d8 61 23 00             	b.addi     r3,r1,0xc4
   82e1c:	00 a0                   	b.movi     r5,0x0
   82e1e:	3e 06 30                	b.extbz    r6,r6
   82e21:	00 e2                   	b.movi     r7,0x4
   82e23:	4b 4a 70                	b.jal      8676e <u8DecompressAddrs.17159>
   82e26:	24 aa c8                	b.lbz      r5,0x13(r10)
   82e29:	30 e0 21                	b.addi     r7,r0,-0x7c
   82e2c:	60 a5 3a                	b.xor      r5,r5,r7
   82e2f:	3e 05 28                	b.extbz    r5,r5
   82e32:	00 bf                   	b.addi     r5,r5,-0x1
   82e34:	04 83                   	b.mov      r4,r3
   82e36:	6c a5 f9                	b.srli     r5,r5,0x1f
   82e39:	d8 61 23 00             	b.addi     r3,r1,0xc4
   82e3d:	4b 53 20                	b.jal      84168 <v6LP_SocketGroupChangeAcked>
   82e40:	0e 90                   	b.j        82e65 <v6LP_Tick+0x5a9>
   82e42:	8c 60 62 e0 00 20       	b.lwz      r3,0x4000744(r0)
   82e48:	30 a1 38                	b.addi     r5,r1,0x1c
   82e4b:	d8 63 19 80             	b.addi     r3,r3,0x198
   82e4f:	04 8a                   	b.mov      r4,r10
   82e51:	04 cd                   	b.mov      r6,r13
   82e53:	04 eb                   	b.mov      r7,r11
   82e55:	4b d0 a8                	b.jal      88284 <ePAR_RoutePacketVect>
   82e58:	0e c0                   	b.j        82e65 <v6LP_Tick+0x5a9>
   82e5a:	38 60 b0                	b.ori      r3,r0,0xd
   82e5d:	38 a0 10                	b.ori      r5,r0,0x8
   82e60:	04 8a                   	b.mov      r4,r10
   82e62:	49 cf 94                	b.jal      8d630 <vJIP_StackEvent>
   82e65:	84 e0 92 90 00 20       	b.lbz      r7,0x4000949(r0)
   82e6b:	84 c0 0c c0 00 20       	b.lbz      r6,0x4000330(r0)
   82e71:	00 f8                   	b.addi     r7,r7,0x1
   82e73:	3e 07 38                	b.extbz    r7,r7
   82e76:	3d e6 38                	b.sfgtu    r6,r7
   82e79:	64 e7 02                	b.cmov     r7,r7,r0
   82e7c:	80 e0 92 90 00 20       	b.sb       0x4000949(r0),r7
   82e82:	84 c0 92 90 00 20       	b.lbz      r6,0x4000949(r0)
   82e88:	84 e0 12 90 00 20       	b.lbz      r7,0x4000948(r0)
   82e8e:	3e 06 30                	b.extbz    r6,r6
   82e91:	3e 07 38                	b.extbz    r7,r7
   82e94:	d2 cc 74 55             	b.bne      r6,r7,82936 <v6LP_Tick+0x7a>
   82e98:	30 61 20                	b.addi     r3,r1,0x4
   82e9b:	4a d6 90                	b.jal      85448 <vMicroIntEnableOnly.constprop.108>
   82e9e:	8c e0 64 a0 00 20       	b.lwz      r7,0x4000524(r0)
   82ea4:	40 07 44                	b.beqi     r7,0x0,82ec6 <v6LP_Tick+0x60a>
   82ea7:	8c c0 7c c0 00 20       	b.lwz      r6,0x400033c(r0)
   82ead:	60 ec 3d                	b.sub      r7,r12,r7
   82eb0:	d3 cc 76 80             	b.bgtu     r6,r7,82ec6 <v6LP_Tick+0x60a>
   82eb4:	8c 00 04 a0 00 20       	b.sw       0x4000520(r0),r0
   82eba:	8c 00 38 a0 00 20       	b.sw       0x400051c(r0),r0
   82ec0:	8c 00 24 a0 00 20       	b.sw       0x4000524(r0),r0
   82ec6:	8c e0 44 a0 00 20       	b.lwz      r7,0x4000520(r0)
   82ecc:	8c 60 74 a0 00 20       	b.lwz      r3,0x400052c(r0)
   82ed2:	8c c0 78 a0 00 20       	b.lwz      r6,0x400051c(r0)
   82ed8:	60 e7 18                	b.and      r7,r7,r3
   82edb:	3c 2c 00                	b.sfnei    r12,0x0
   82ede:	8c e0 04 a0 00 20       	b.sw       0x4000520(r0),r7
   82ee4:	98 80 04 a0 00 20       	b.ori      r4,r0,0x4000520
   82eea:	d8 a1 20 80             	b.addi     r5,r1,0x104
   82eee:	01 e8                   	b.movi     r15,0x1
   82ef0:	8c e0 54 a0 00 20       	b.lwz      r7,0x4000528(r0)
   82ef6:	65 ec 7a                	b.cmov     r15,r12,r15
   82ef9:	60 e6 38                	b.and      r7,r6,r7
   82efc:	01 68                   	b.movi     r11,0x1
   82efe:	8c e0 38 a0 00 20       	b.sw       0x400051c(r0),r7
   82f04:	4a ee 70                	b.jal      868e1 <u8GetChangedButUnnotifiedGroups.16206>
   82f07:	05 43                   	b.mov      r10,r3
   82f09:	41 03 04                	b.bnei     r3,0x0,82f29 <v6LP_Tick+0x66d>
   82f0c:	8c 60 54 a0 00 20       	b.lwz      r3,0x4000528(r0)
   82f12:	98 80 38 a0 00 20       	b.ori      r4,r0,0x400051c
   82f18:	d8 a1 20 80             	b.addi     r5,r1,0x104
   82f1c:	4a 8e 70                	b.jal      868e1 <u8GetChangedButUnnotifiedGroups.16206>
   82f1f:	01 64                   	b.movi     r11,0x2
   82f21:	3c 03 00                	b.sfeqi    r3,0x0
   82f24:	65 6b 02                	b.cmov     r11,r11,r0
   82f27:	05 43                   	b.mov      r10,r3
   82f29:	30 61 20                	b.addi     r3,r1,0x4
   82f2c:	4a 29 50                	b.jal      8597d <vMicroIntRestoreState>
   82f2f:	d0 10 bc 10             	b.beqi     r11,0x2,82fb2 <v6LP_Tick+0x6f6>
   82f33:	00 e2                   	b.movi     r7,0x4
   82f35:	3c 0b 00                	b.sfeqi    r11,0x0
   82f38:	00 a6                   	b.movi     r5,0x6
   82f3a:	64 a5 3a                	b.cmov     r5,r5,r7
   82f3d:	01 a8                   	b.movi     r13,0x1
   82f3f:	8c e0 42 e0 00 20       	b.lwz      r7,0x4000740(r0)
   82f45:	c8 e7 8a 80             	b.lhz      r7,0x150(r7)
   82f49:	34 e7 80                	b.andi     r7,r7,0x1
   82f4c:	41 07 54                	b.bnei     r7,0x0,82f76 <v6LP_Tick+0x6ba>
   82f4f:	8c e0 46 b0 00 20       	b.lwz      r7,0x4000d60(r0)
   82f55:	d8 61 20 80             	b.addi     r3,r1,0x104
   82f59:	04 8a                   	b.mov      r4,r10
   82f5b:	24 e7 12                	b.lbz      r7,0x48(r7)
   82f5e:	41 87 c8                	b.bnei     r7,0x1,82f71 <v6LP_Tick+0x6b5>
   82f61:	48 f8 d8                	b.jal      89bdd <bGenerateMLDv2.17134>
   82f64:	d8 61 20 80             	b.addi     r3,r1,0x104
   82f68:	04 8a                   	b.mov      r4,r10
   82f6a:	04 ab                   	b.mov      r5,r11
   82f6c:	48 fe 20                	b.jal      84168 <v6LP_SocketGroupChangeAcked>
   82f6f:	0e 80                   	b.j        82f74 <v6LP_Tick+0x6b8>
   82f71:	48 5d 2c                	b.jal      90259 <bGenerateJenNetGcastInfo.17144>
   82f74:	01 a0                   	b.movi     r13,0x0
   82f76:	d9 c1 20 80             	b.addi     r14,r1,0x104
   82f7a:	38 60 d0                	b.ori      r3,r0,0xb
   82f7d:	30 81 2c                	b.addi     r4,r1,0x34
   82f80:	38 a0 08                	b.ori      r5,r0,0x10
   82f83:	2c 01 2c                	b.sw       0x34(r1),r0
   82f86:	2c 01 1c                	b.sw       0x38(r1),r0
   82f89:	2d c1 3c                	b.sw       0x3c(r1),r14
   82f8c:	21 41 02                	b.sb       0x40(r1),r10
   82f8f:	21 61 82                	b.sb       0x41(r1),r11
   82f92:	49 e5 94                	b.jal      8d630 <vJIP_StackEvent>
   82f95:	41 0d 30                	b.bnei     r13,0x0,82fa1 <v6LP_Tick+0x6e5>
   82f98:	8c e0 7c c0 00 20       	b.lwz      r7,0x400033c(r0)
   82f9e:	41 07 70                	b.bnei     r7,0x0,82fac <v6LP_Tick+0x6f0>
   82fa1:	04 6e                   	b.mov      r3,r14
   82fa3:	04 8a                   	b.mov      r4,r10
   82fa5:	04 ab                   	b.mov      r5,r11
   82fa7:	4a 0e 20                	b.jal      84168 <v6LP_SocketGroupChangeAcked>
   82faa:	0c 40                   	b.j        82fb2 <v6LP_Tick+0x6f6>
   82fac:	8d e0 24 a0 00 20       	b.sw       0x4000524(r0),r15
   82fb2:	84 e0 21 90 00 20       	b.lbz      r7,0x4000984(r0)
   82fb8:	40 07 d8                	b.beqi     r7,0x0,82fd3 <v6LP_Tick+0x717>
   82fbb:	84 60 a1 90 00 20       	b.lbz      r3,0x4000985(r0)
   82fc1:	84 80 61 90 00 20       	b.lbz      r4,0x4000986(r0)
   82fc7:	49 20 34                	b.jal      8dfd9 <bJnc_ResetStackVect>
   82fca:	41 83 90                	b.bnei     r3,0x1,82fd3 <v6LP_Tick+0x717>
   82fcd:	80 00 21 90 00 20       	b.sb       0x4000984(r0),r0
   82fd3:	8c e0 41 90 00 20       	b.lwz      r7,0x4000980(r0)
   82fd9:	24 e7 00                	b.lbz      r7,0x0(r7)
   82fdc:	d0 40 7b 54             	b.bnei     r7,0x0,83289 <v6LP_Tick+0x9cd>
   82fe0:	99 60 1f ed 00 00       	b.ori      r11,r0,0xb7f8
   82fe6:	01 48                   	b.movi     r10,0x1
   82fe8:	8c e0 62 e0 00 20       	b.lwz      r7,0x4000744(r0)
   82fee:	84 a0 2c c0 00 20       	b.lbz      r5,0x4000334(r0)
   82ff4:	c4 c7 26 80             	b.lbz      r6,0x164(r7)
   82ff8:	d2 8a 65 00             	b.beq      r5,r6,83002 <v6LP_Tick+0x746>
   82ffc:	80 c0 2c c0 00 20       	b.sb       0x4000334(r0),r6
   83002:	30 a6 ff                	b.addi     r5,r6,-0x1
   83005:	3e 05 28                	b.extbz    r5,r5
   83008:	3c a5 08                	b.sfgtui   r5,0x10
   8300b:	47 2e 64                	b.bf       83272 <v6LP_Tick+0x9b6>
   8300e:	6c a5 40                	b.slli     r5,r5,0x2
   83011:	90 a5 04 0c 10 00       	b.addi     r5,r5,0x83020
   83017:	2c a5 40                	b.lwz      r5,0x0(r5)
   8301a:	47 d2 28                	b.jr       r5
   8301d:	00 00                   	b.trap     0x0
   8301f:	00 00                   	b.trap     0x0
   83021:	08 30                   	b.add      r1,r1,r16
   83023:	64 00 08                	b.sra      r0,r0,r1
   83026:	30 8f 00                	b.addi     r4,r15,0x0
   83029:	08 30                   	b.add      r1,r1,r16
   8302b:	fe                      	.word 0xfe
   8302c:	00 08                   	b.trap     0x1
   8302e:	31 8a 00                	b.addi     r12,r10,0x0
   83031:	08 31                   	b.add      r1,r1,r17
   83033:	c2 00 08 31             	b.sb       -0x73f0(r0),r16
   83037:	c2 00 08 31             	b.sb       -0x73f0(r0),r16
   8303b:	d0 00 08 31             	b.beqi     r0,0x0,828fc <v6LP_Tick+0x40>
   8303f:	d0 00 08 31             	b.beqi     r0,0x0,82900 <v6LP_Tick+0x44>
   83043:	e8                      	.word 0xe8
   83044:	00 08                   	b.trap     0x1
   83046:	31 ed 00                	b.addi     r15,r13,0x0
   83049:	08 32                   	b.add      r1,r1,r18
   8304b:	03 00                   	b.movi     r24,0x0
   8304d:	08 32                   	b.add      r1,r1,r18
   8304f:	1a                      	.word 0x1a
   83050:	00 08                   	b.trap     0x1
   83052:	32 72 00                	b.addi     r19,r18,0x0
   83055:	08 32                   	b.add      r1,r1,r18
   83057:	72 00 08                	f.add.s    r16,r0,r1
   8305a:	32 3f 00                	b.addi     r17,r31,0x0
   8305d:	08 30                   	b.add      r1,r1,r16
   8305f:	a1 00 08 30 e4 00       	b.blesi    r0,0x0,aa120 <_flash_data_start+0x13990>
   83065:	68 48 1a                	b.mulhu    r2,r8,r3
   83068:	60 41 03                	b.nand     r2,r1,r0
   8306b:	08 8c                   	b.add      r4,r4,r12
   8306d:	e0                      	.word 0xe0
   8306e:	62 e0 00                	b.and      r23,r0,r0
   83071:	20 00 c4                	b.sb       0x23(r0),r0
   83074:	2c 07 17                	b.sw       0xe8(r7),r0
   83077:	0f 5a                   	b.j        831e2 <v6LP_Tick+0x926>
   83079:	8c e0 42 e0 00 20       	b.lwz      r7,0x4000740(r0)
   8307f:	00 60                   	b.movi     r3,0x0
   83081:	c4 e7 30 80             	b.lbz      r7,0x10c(r7)
   83085:	00 88                   	b.movi     r4,0x1
   83087:	3c a7 10                	b.sfgtui   r7,0x8
   8308a:	47 2e 70                	b.bf       83171 <v6LP_Tick+0x8b5>
   8308d:	0e 9e                   	b.j        83272 <v6LP_Tick+0x9b6>
   8308f:	2c c7 57                	b.lwz      r6,0xe8(r7)
   83092:	9f 46 34 80 00 00       	b.sfleui   r6,0x12c
   83098:	47 25 b8                	b.bf       83272 <v6LP_Tick+0x9b6>
   8309b:	c1 47 26 80             	b.sb       0x164(r7),r10
   8309f:	0f 2e                   	b.j        83272 <v6LP_Tick+0x9b6>
   830a1:	84 60 6e 90 00 20       	b.lbz      r3,0x4000976(r0)
   830a7:	4b c4 20                	b.jal      84136 <vMiniMac_PLME_SetReq_Channel>
   830aa:	88 60 ae 90 00 20       	b.lhz      r3,0x4000974(r0)
   830b0:	49 5c 90                	b.jal      8559a <vMiniMac_MLME_SetReq_PanId>
   830b3:	8d c0 62 e0 00 20       	b.lwz      r14,0x4000744(r0)
   830b9:	48 5c 44                	b.jal      8b9a1 <rand>
   830bc:	8c e0 5e 90 00 20       	b.lwz      r7,0x4000978(r0)
   830c2:	29 a7 90                	b.lhz      r13,0x8(r7)
   830c5:	28 87 d0                	b.lhz      r4,0xa(r7)
   830c8:	60 84 6d                	b.sub      r4,r4,r13
   830cb:	00 98                   	b.addi     r4,r4,0x1
   830cd:	4b 65 32                	b.jal      96368 <__modsi3>
   830d0:	8c e0 62 e0 00 20       	b.lwz      r7,0x4000744(r0)
   830d6:	08 6d                   	b.add      r3,r3,r13
   830d8:	38 c0 88                	b.ori      r6,r0,0x11
   830db:	c8 6e 05 80             	b.sh       0x1a0(r14),r3
   830df:	2c 07 17                	b.sw       0xe8(r7),r0
   830e2:	0c 02                   	b.j        831e2 <v6LP_Tick+0x926>
   830e4:	c8 c7 85 80             	b.lhz      r6,0x1a0(r7)
   830e8:	2c a7 57                	b.lwz      r5,0xe8(r7)
   830eb:	d3 8c 5e 18             	b.bgeu     r6,r5,83272 <v6LP_Tick+0x9b6>
   830ef:	c8 67 ee 80             	b.lhz      r3,0x176(r7)
   830f3:	80 00 ee 90 00 20       	b.sb       0x4000977(r0),r0
   830f9:	4a 14 90                	b.jal      8559a <vMiniMac_MLME_SetReq_PanId>
   830fc:	0c f4                   	b.j        831b8 <v6LP_Tick+0x8fc>
   830fe:	c4 c7 a6 80             	b.lbz      r6,0x165(r7)
   83102:	41 06 14                	b.bnei     r6,0x0,8312a <v6LP_Tick+0x86e>
   83105:	8c c0 42 e0 00 20       	b.lwz      r6,0x4000740(r0)
   8310b:	c4 a6 58 80             	b.lbz      r5,0x11a(r6)
   8310f:	41 05 d8                	b.bnei     r5,0x0,8312a <v6LP_Tick+0x86e>
   83112:	8c e0 5e 90 00 20       	b.lwz      r7,0x4000978(r0)
   83118:	c1 46 58 80             	b.sb       0x11a(r6),r10
   8311c:	98 a0 f4 f5 10 00       	b.ori      r5,r0,0x8af2f
   83122:	28 67 90                	b.lhz      r3,0x8(r7)
   83125:	28 87 d0                	b.lhz      r4,0xa(r7)
   83128:	0e dc                   	b.j        83215 <v6LP_Tick+0x959>
   8312a:	84 c0 ee 90 00 20       	b.lbz      r6,0x4000977(r0)
   83130:	40 06 10                	b.beqi     r6,0x0,83138 <v6LP_Tick+0x87c>
   83133:	38 c0 08                	b.ori      r6,r0,0x10
   83136:	0c d4                   	b.j        831e2 <v6LP_Tick+0x926>
   83138:	8c e0 42 e0 00 20       	b.lwz      r7,0x4000740(r0)
   8313e:	c4 c7 08 80             	b.lbz      r6,0x110(r7)
   83142:	40 06 84                	b.beqi     r6,0x0,83163 <v6LP_Tick+0x8a7>
   83145:	88 c0 81 a0 00 20       	b.lhz      r6,0x4000580(r0)
   8314b:	9f 46 ff 00 00 00       	b.sfleui   r6,0xff
   83151:	47 24 80                	b.bf       83163 <v6LP_Tick+0x8a7>
   83154:	84 c0 6e 90 00 20       	b.lbz      r6,0x4000976(r0)
   8315a:	40 06 90                	b.beqi     r6,0x0,83163 <v6LP_Tick+0x8a7>
   8315d:	81 40 ee 90 00 20       	b.sb       0x4000977(r0),r10
   83163:	c4 e7 30 80             	b.lbz      r7,0x10c(r7)
   83167:	00 60                   	b.movi     r3,0x0
   83169:	3c e7 10                	b.sfleui   r7,0x8
   8316c:	47 25 00                	b.bf       83176 <v6LP_Tick+0x8ba>
   8316f:	00 8c                   	b.movi     r4,0x3
   83171:	48 59 d4                	b.jal      8dfd9 <bJnc_ResetStackVect>
   83174:	0d fc                   	b.j        83272 <v6LP_Tick+0x9b6>
   83176:	48 28 60                	b.jal      849c6 <eJnc_StartScanVect>
   83179:	d0 40 39 f0             	b.bnei     r3,0x0,83272 <v6LP_Tick+0x9b6>
   8317d:	8c e0 62 e0 00 20       	b.lwz      r7,0x4000744(r0)
   83183:	00 c2                   	b.movi     r6,0x4
   83185:	2c 07 17                	b.sw       0xe8(r7),r0
   83188:	0d 68                   	b.j        831e2 <v6LP_Tick+0x926>
   8318a:	2c e7 57                	b.lwz      r7,0xe8(r7)
   8318d:	9f 47 34 80 00 00       	b.sfleui   r7,0x12c
   83193:	47 2f b0                	b.bf       83272 <v6LP_Tick+0x9b6>
   83196:	8c e0 42 e0 00 20       	b.lwz      r7,0x4000740(r0)
   8319c:	cc e7 74 80             	b.lwz      r7,0x12c(r7)
   831a0:	40 07 a8                	b.beqi     r7,0x0,831b5 <v6LP_Tick+0x8f9>
   831a3:	00 60                   	b.movi     r3,0x0
   831a5:	00 80                   	b.movi     r4,0x0
   831a7:	00 a0                   	b.movi     r5,0x0
   831a9:	47 d1 38                	b.jalr     r7
   831ac:	40 03 90                	b.beqi     r3,0x0,831b5 <v6LP_Tick+0x8f9>
   831af:	00 60                   	b.movi     r3,0x0
   831b1:	00 80                   	b.movi     r4,0x0
   831b3:	0d f7                   	b.j        83171 <v6LP_Tick+0x8b5>
   831b5:	4a 4e 44                	b.jal      8bb7e <vJnc_ClearScanListVect>
   831b8:	00 cc                   	b.movi     r6,0x3
   831ba:	8c e0 62 e0 00 20       	b.lwz      r7,0x4000744(r0)
   831c0:	0d 10                   	b.j        831e2 <v6LP_Tick+0x926>
   831c2:	4b 79 34                	b.jal      8e43d <bJnc_StartAssociateVect>
   831c5:	8c e0 62 e0 00 20       	b.lwz      r7,0x4000744(r0)
   831cb:	2c 07 17                	b.sw       0xe8(r7),r0
   831ce:	0c 94                   	b.j        83272 <v6LP_Tick+0x9b6>
   831d0:	2c a7 57                	b.lwz      r5,0xe8(r7)
   831d3:	3c e5 26                	b.sfleui   r5,0x64
   831d6:	47 23 90                	b.bf       83272 <v6LP_Tick+0x9b6>
   831d9:	41 e6 e0                	b.bnei     r6,0x7,831e0 <v6LP_Tick+0x924>
   831dc:	00 ca                   	b.movi     r6,0x5
   831de:	0c 80                   	b.j        831e2 <v6LP_Tick+0x926>
   831e0:	00 c6                   	b.movi     r6,0x6
   831e2:	c0 c7 26 80             	b.sb       0x164(r7),r6
   831e6:	0c c4                   	b.j        83272 <v6LP_Tick+0x9b6>
   831e8:	4b ea 2c                	b.jal      90347 <vStartCoordVect>
   831eb:	0f 84                   	b.j        83272 <v6LP_Tick+0x9b6>
   831ed:	49 6a 2c                	b.jal      90347 <vStartCoordVect>
   831f0:	8c e0 62 e0 00 20       	b.lwz      r7,0x4000744(r0)
   831f6:	00 68                   	b.movi     r3,0x1
   831f8:	c8 87 9e 80             	b.lhz      r4,0x178(r7)
   831fc:	00 a0                   	b.movi     r5,0x0
   831fe:	49 94 d4                	b.jal      8dea4 <vNwk_RouteEstablishedVect>
   83201:	0e 38                   	b.j        83272 <v6LP_Tick+0x9b6>
   83203:	8c e0 5e 90 00 20       	b.lwz      r7,0x4000978(r0)
   83209:	98 a0 a1 7b 10 00       	b.ori      r5,r0,0x8de85
   8320f:	28 67 b0                	b.lhz      r3,0xc(r7)
   83212:	28 87 f0                	b.lhz      r4,0xe(r7)
   83215:	48 e1 ac                	b.jal      90831 <vJnc_BackOffVect>
   83218:	0d 68                   	b.j        83272 <v6LP_Tick+0x9b6>
   8321a:	2c e7 57                	b.lwz      r7,0xe8(r7)
   8321d:	3c e7 26                	b.sfleui   r7,0x64
   83220:	47 24 a0                	b.bf       83272 <v6LP_Tick+0x9b6>
   83223:	4a 29 10                	b.jal      85474 <vAHI_StartRandomNumberGenerator.constprop.98>
   83226:	4b d1 50                	b.jal      85c55 <bAHI_RndNumPoll>
   83229:	40 03 bf                	b.beqi     r3,0x0,83226 <v6LP_Tick+0x96a>
   8322c:	8c e0 62 e0 00 20       	b.lwz      r7,0x4000744(r0)
   83232:	cc d0 63 01             	b.lwz      r6,-0x7f3c(r16)
   83236:	c0 c7 01 80             	b.sb       0x180(r7),r6
   8323a:	38 c0 d0                	b.ori      r6,r0,0xb
   8323d:	0e 97                   	b.j        831e2 <v6LP_Tick+0x926>
   8323f:	8c e0 42 e0 00 20       	b.lwz      r7,0x4000740(r0)
   83245:	cc c7 78 80             	b.lwz      r6,0x11c(r7)
   83249:	94 c6 00 ff ff 00       	b.andi     r6,r6,0xffff00
   8324f:	41 06 c8                	b.bnei     r6,0x0,83262 <v6LP_Tick+0x9a6>
   83252:	cc e7 44 80             	b.lwz      r7,0x120(r7)
   83256:	81 40 51 90 00 20       	b.sb       0x400098a(r0),r10
   8325c:	8c e0 31 90 00 20       	b.sw       0x400098c(r0),r7
   83262:	8c e0 7d 08 00 40       	b.lwz      r7,0x20010bc(r0)
   83268:	34 e7 08                	b.andi     r7,r7,0x10
   8326b:	40 07 e0                	b.beqi     r7,0x0,83272 <v6LP_Tick+0x9b6>
   8326e:	cd 70 2d 01             	b.sw       -0x7f4c(r16),r11
   83272:	8c e0 62 e0 00 20       	b.lwz      r7,0x4000744(r0)
   83278:	84 c0 2c c0 00 20       	b.lbz      r6,0x4000334(r0)
   8327e:	c4 e7 26 80             	b.lbz      r7,0x164(r7)
   83282:	d2 cc 76 6b             	b.bne      r6,r7,82fe8 <v6LP_Tick+0x72c>
   83286:	46 74 c0                	b.j        835b4 <v6LP_Tick+0xcf8>
   83289:	99 60 92 75 10 00       	b.ori      r11,r0,0x8ae49
   8328f:	99 40 99 75 10 00       	b.ori      r10,r0,0x8ae99
   83295:	8c e0 62 e0 00 20       	b.lwz      r7,0x4000744(r0)
   8329b:	c4 c7 26 80             	b.lbz      r6,0x164(r7)
   8329f:	8c e0 42 e0 00 20       	b.lwz      r7,0x4000740(r0)
   832a5:	41 06 84                	b.bnei     r6,0x0,832c6 <v6LP_Tick+0xa0a>
   832a8:	c4 e7 4a 80             	b.lbz      r7,0x152(r7)
   832ac:	d0 00 71 0c             	b.beqi     r7,0x0,835b4 <v6LP_Tick+0xcf8>
   832b0:	00 62                   	b.movi     r3,0x4
   832b2:	48 d2 04                	b.jal      8b3de <iNed_StopTimerVect>
   832b5:	8c e0 42 e0 00 20       	b.lwz      r7,0x4000740(r0)
   832bb:	cc 07 32 80             	b.sw       0x14c(r7),r0
   832bf:	c0 07 4a 80             	b.sb       0x152(r7),r0
   832c3:	46 8f 40                	b.j        835b4 <v6LP_Tick+0xcf8>
   832c6:	cc e7 72 80             	b.lwz      r7,0x14c(r7)
   832ca:	40 07 60                	b.beqi     r7,0x0,832d0 <v6LP_Tick+0xa14>
   832cd:	48 ae 50                	b.jal      85ca1 <vAHI_SwReset>
   832d0:	8c e0 42 e0 00 20       	b.lwz      r7,0x4000740(r0)
   832d6:	c4 c7 94 80             	b.lbz      r6,0x129(r7)
   832da:	41 86 50                	b.bnei     r6,0x1,832e4 <v6LP_Tick+0xa28>
   832dd:	c0 07 94 80             	b.sb       0x129(r7),r0
   832e1:	49 30 fc                	b.jal      92f13 <eApi_PollForData>
   832e4:	8c a0 42 e0 00 20       	b.lwz      r5,0x4000740(r0)
   832ea:	8c c0 62 e0 00 20       	b.lwz      r6,0x4000744(r0)
   832f0:	c4 85 4a 80             	b.lbz      r4,0x152(r5)
   832f4:	c4 e6 26 80             	b.lbz      r7,0x164(r6)
   832f8:	d2 88 71 20             	b.beq      r4,r7,83340 <v6LP_Tick+0xa84>
   832fc:	c0 e5 4a 80             	b.sb       0x152(r5),r7
   83300:	3c 07 b0                	b.sfeqi    r7,0xd
   83303:	47 25 00                	b.bf       8330d <v6LP_Tick+0xa51>
   83306:	cd a6 65 80             	b.lwz      r13,0x1a4(r6)
   8330a:	41 0d 28                	b.bnei     r13,0x0,8331e <v6LP_Tick+0xa62>
   8330d:	00 62                   	b.movi     r3,0x4
   8330f:	4b cc 04                	b.jal      8b3de <iNed_StopTimerVect>
   83312:	8c e0 42 e0 00 20       	b.lwz      r7,0x4000740(r0)
   83318:	cc 07 32 80             	b.sw       0x14c(r7),r0
   8331c:	0c 90                   	b.j        83340 <v6LP_Tick+0xa84>
   8331e:	49 d0 04                	b.jal      8b34c <vInterrupt_Suspend>
   83321:	8c e0 42 e0 00 20       	b.lwz      r7,0x4000740(r0)
   83327:	cc c7 5a 80             	b.lwz      r6,0x158(r7)
   8332b:	09 a6                   	b.add      r13,r13,r6
   8332d:	cd a7 39 80             	b.sw       0x19c(r7),r13
   83331:	cc 07 05 80             	b.sw       0x1a0(r7),r0
   83335:	cd 67 25 80             	b.sw       0x1a4(r7),r11
   83339:	cc 07 15 80             	b.sw       0x1a8(r7),r0
   8333d:	49 6f f8                	b.jal      8b317 <vInterrupt_Resume>
   83340:	8c e0 62 e0 00 20       	b.lwz      r7,0x4000744(r0)
   83346:	c4 c7 26 80             	b.lbz      r6,0x164(r7)
   8334a:	3c a6 f0                	b.sfgtui   r6,0xf
   8334d:	47 26 84                	b.bf       83563 <v6LP_Tick+0xca7>
   83350:	6c c6 40                	b.slli     r6,r6,0x2
   83353:	90 c6 06 cc 10 00       	b.addi     r6,r6,0x83360
   83359:	2c c6 40                	b.lwz      r6,0x0(r6)
   8335c:	47 d2 30                	b.jr       r6
   8335f:	00 00                   	b.trap     0x0
   83361:	08 35                   	b.add      r1,r1,r21
   83363:	6a 00 08                	b.subb     r16,r0,r1
   83366:	35 63 00                	b.andi     r11,r3,0x0
   83369:	08 35                   	b.add      r1,r1,r21
   8336b:	63 00 08                	b.and      r24,r0,r1
   8336e:	33 a0 00                	b.addi     r29,r0,0x0
   83371:	08 34                   	b.add      r1,r1,r20
   83373:	14                      	.word 0x14
   83374:	00 08                   	b.trap     0x1
   83376:	34 28 00                	b.andi     r1,r8,0x0
   83379:	08 34                   	b.add      r1,r1,r20
   8337b:	28 00 08                	b.sh       0x10(r0),r0
   8337e:	35 6a 00                	b.andi     r11,r10,0x0
   83381:	08 35                   	b.add      r1,r1,r21
   83383:	6a 00 08                	b.subb     r16,r0,r1
   83386:	35 63 00                	b.andi     r11,r3,0x0
   83389:	08 35                   	b.add      r1,r1,r21
   8338b:	63 00 08                	b.and      r24,r0,r1
   8338e:	34 55 00                	b.andi     r2,r21,0x0
   83391:	08 34                   	b.add      r1,r1,r20
   83393:	64 00 08                	b.sra      r0,r0,r1
   83396:	34 af 00                	b.andi     r5,r15,0x0
   83399:	08 34                   	b.add      r1,r1,r20
   8339b:	c6 00 08 35             	b.lbz      r16,-0x53f0(r0)
   8339f:	11                      	.word 0x11
   833a0:	24 e7 18                	b.lbz      r7,0x18(r7)
   833a3:	40 07 82                	b.beqi     r7,0x0,833e4 <v6LP_Tick+0xb28>
   833a6:	8c e0 42 e0 00 20       	b.lwz      r7,0x4000740(r0)
   833ac:	cc e7 74 80             	b.lwz      r7,0x12c(r7)
   833b0:	40 07 a8                	b.beqi     r7,0x0,833c5 <v6LP_Tick+0xb09>
   833b3:	00 60                   	b.movi     r3,0x0
   833b5:	00 80                   	b.movi     r4,0x0
   833b7:	00 a0                   	b.movi     r5,0x0
   833b9:	47 d1 38                	b.jalr     r7
   833bc:	40 03 90                	b.beqi     r3,0x0,833c5 <v6LP_Tick+0xb09>
   833bf:	00 60                   	b.movi     r3,0x0
   833c1:	00 80                   	b.movi     r4,0x0
   833c3:	0c 96                   	b.j        83567 <v6LP_Tick+0xcab>
   833c5:	8c e0 62 e0 00 20       	b.lwz      r7,0x4000744(r0)
   833cb:	38 80 50                	b.ori      r4,r0,0xa
   833ce:	2c 67 68                	b.lwz      r3,0x14(r7)
   833d1:	20 07 18                	b.sb       0x18(r7),r0
   833d4:	48 37 52                	b.jal      95f84 <__udivsi3>
   833d7:	98 a0 62 75 10 00       	b.ori      r5,r0,0x8ae46
   833dd:	3e 03 1a                	b.exthz    r3,r3
   833e0:	04 83                   	b.mov      r4,r3
   833e2:	0c 4c                   	b.j        834aa <v6LP_Tick+0xbee>
   833e4:	00 60                   	b.movi     r3,0x0
   833e6:	48 1e a0                	b.jal      849c6 <eJnc_StartScanVect>
   833e9:	d0 40 35 e8             	b.bnei     r3,0x0,83563 <v6LP_Tick+0xca7>
   833ed:	8c e0 62 e0 00 20       	b.lwz      r7,0x4000744(r0)
   833f3:	00 c2                   	b.movi     r6,0x4
   833f5:	20 07 18                	b.sb       0x18(r7),r0
   833f8:	c0 c7 26 80             	b.sb       0x164(r7),r6
   833fc:	2d a7 48                	b.lwz      r13,0x10(r7)
   833ff:	4a cb f8                	b.jal      8b34c <vInterrupt_Suspend>
   83402:	8c e0 42 e0 00 20       	b.lwz      r7,0x4000740(r0)
   83408:	cc c7 5a 80             	b.lwz      r6,0x158(r7)
   8340c:	09 a6                   	b.add      r13,r13,r6
   8340e:	cd a7 3a 80             	b.sw       0x15c(r7),r13
   83412:	0d 30                   	b.j        83444 <v6LP_Tick+0xb88>
   83414:	24 e7 18                	b.lbz      r7,0x18(r7)
   83417:	d0 00 7c a8             	b.beqi     r7,0x0,8356a <v6LP_Tick+0xcae>
   8341b:	4b 1b 84                	b.jal      8bb7e <vJnc_ClearScanListVect>
   8341e:	00 cc                   	b.movi     r6,0x3
   83420:	8c e0 62 e0 00 20       	b.lwz      r7,0x4000744(r0)
   83426:	0d e8                   	b.j        83484 <v6LP_Tick+0xbc8>
   83428:	4a a0 34                	b.jal      8e43d <bJnc_StartAssociateVect>
   8342b:	d0 00 3f c8             	b.beqi     r3,0x0,8356a <v6LP_Tick+0xcae>
   8342f:	4a e3 f8                	b.jal      8b34c <vInterrupt_Suspend>
   83432:	8c e0 42 e0 00 20       	b.lwz      r7,0x4000740(r0)
   83438:	cc c7 5a 80             	b.lwz      r6,0x158(r7)
   8343c:	d8 c6 17 c0             	b.addi     r6,r6,0x3e8
   83440:	cc c7 3a 80             	b.sw       0x15c(r7),r6
   83444:	cc 07 06 80             	b.sw       0x160(r7),r0
   83448:	cd 47 26 80             	b.sw       0x164(r7),r10
   8344c:	cc 07 16 80             	b.sw       0x168(r7),r0
   83450:	4b 8d f8                	b.jal      8b317 <vInterrupt_Resume>
   83453:	0f a2                   	b.j        8356a <v6LP_Tick+0xcae>
   83455:	38 c0 30                	b.ori      r6,r0,0xc
   83458:	20 07 10                	b.sb       0x8(r7),r0
   8345b:	c0 c7 26 80             	b.sb       0x164(r7),r6
   8345f:	49 2c 54                	b.jal      8dd31 <vJnc_SendEstablishRouteVect.constprop.39>
   83462:	0c 42                   	b.j        8356a <v6LP_Tick+0xcae>
   83464:	24 e7 10                	b.lbz      r7,0x8(r7)
   83467:	40 07 c4                	b.beqi     r7,0x0,8348a <v6LP_Tick+0xbce>
   8346a:	49 40 10                	b.jal      85474 <vAHI_StartRandomNumberGenerator.constprop.98>
   8346d:	48 5f 90                	b.jal      85c55 <bAHI_RndNumPoll>
   83470:	40 03 bf                	b.beqi     r3,0x0,8346d <v6LP_Tick+0xbb1>
   83473:	8c e0 62 e0 00 20       	b.lwz      r7,0x4000744(r0)
   83479:	cc d0 63 01             	b.lwz      r6,-0x7f3c(r16)
   8347d:	c0 c7 01 80             	b.sb       0x180(r7),r6
   83481:	38 c0 d0                	b.ori      r6,r0,0xb
   83484:	c0 c7 26 80             	b.sb       0x164(r7),r6
   83488:	0d 1c                   	b.j        8356a <v6LP_Tick+0xcae>
   8348a:	8c e0 42 e0 00 20       	b.lwz      r7,0x4000740(r0)
   83490:	c4 e7 b8 80             	b.lbz      r7,0x11d(r7)
   83494:	d0 40 76 b0             	b.bnei     r7,0x0,8356a <v6LP_Tick+0xcae>
   83498:	8c e0 5e 90 00 20       	b.lwz      r7,0x4000978(r0)
   8349e:	98 a0 ec 75 10 00       	b.ori      r5,r0,0x8ae37
   834a4:	28 67 b0                	b.lhz      r3,0xc(r7)
   834a7:	28 87 f0                	b.lhz      r4,0xe(r7)
   834aa:	4b 87 2c                	b.jal      90831 <vJnc_BackOffVect>
   834ad:	0e f4                   	b.j        8356a <v6LP_Tick+0xcae>
   834af:	8c e0 42 e0 00 20       	b.lwz      r7,0x4000740(r0)
   834b5:	c4 c7 54 80             	b.lbz      r6,0x12a(r7)
   834b9:	d0 00 68 d0             	b.beqi     r6,0x0,8356a <v6LP_Tick+0xcae>
   834bd:	c0 07 54 80             	b.sb       0x12a(r7),r0
   834c1:	49 29 7c                	b.jal      92f13 <eApi_PollForData>
   834c4:	0d 94                   	b.j        8356a <v6LP_Tick+0xcae>
   834c6:	8c c0 41 90 00 20       	b.lwz      r6,0x4000980(r0)
   834cc:	24 c6 2c                	b.lbz      r6,0x34(r6)
   834cf:	d0 00 6d 90             	b.beqi     r6,0x0,8356a <v6LP_Tick+0xcae>
   834d3:	c4 c7 45 80             	b.lbz      r6,0x1a2(r7)
   834d7:	8c e0 42 e0 00 20       	b.lwz      r7,0x4000740(r0)
   834dd:	00 60                   	b.movi     r3,0x0
   834df:	c0 c7 d8 80             	b.sb       0x11b(r7),r6
   834e3:	4b 7d f8                	b.jal      8b3de <iNed_StopTimerVect>
   834e6:	00 68                   	b.movi     r3,0x1
   834e8:	49 bd f8                	b.jal      8b3de <iNed_StopTimerVect>
   834eb:	00 64                   	b.movi     r3,0x2
   834ed:	4a 3d f8                	b.jal      8b3de <iNed_StopTimerVect>
   834f0:	8c e0 62 e0 00 20       	b.lwz      r7,0x4000744(r0)
   834f6:	c8 c7 85 80             	b.lhz      r6,0x1a0(r7)
   834fa:	d8 e0 02 80             	b.addi     r7,r0,0x140
   834fe:	64 e6 3b                	b.mul      r7,r6,r7
   83501:	8c e0 31 90 00 20       	b.sw       0x400098c(r0),r7
   83507:	00 e8                   	b.movi     r7,0x1
   83509:	80 e0 51 90 00 20       	b.sb       0x400098a(r0),r7
   8350f:	0f 68                   	b.j        8356a <v6LP_Tick+0xcae>
   83511:	8c e0 42 e0 00 20       	b.lwz      r7,0x4000740(r0)
   83517:	cc e7 78 80             	b.lwz      r7,0x11c(r7)
   8351b:	94 e7 00 ff ff 00       	b.andi     r7,r7,0xffff00
   83521:	41 07 54                	b.bnei     r7,0x0,8354b <v6LP_Tick+0xc8f>
   83524:	00 60                   	b.movi     r3,0x0
   83526:	48 75 f8                	b.jal      8b3de <iNed_StopTimerVect>
   83529:	00 68                   	b.movi     r3,0x1
   8352b:	4b 35 f8                	b.jal      8b3de <iNed_StopTimerVect>
   8352e:	00 64                   	b.movi     r3,0x2
   83530:	49 d5 f8                	b.jal      8b3de <iNed_StopTimerVect>
   83533:	8c e0 42 e0 00 20       	b.lwz      r7,0x4000740(r0)
   83539:	cc e7 44 80             	b.lwz      r7,0x120(r7)
   8353d:	8c e0 31 90 00 20       	b.sw       0x400098c(r0),r7
   83543:	00 e8                   	b.movi     r7,0x1
   83545:	80 e0 51 90 00 20       	b.sb       0x400098a(r0),r7
   8354b:	8c e0 7d 08 00 40       	b.lwz      r7,0x20010bc(r0)
   83551:	34 e7 08                	b.andi     r7,r7,0x10
   83554:	40 07 68                	b.beqi     r7,0x0,8356a <v6LP_Tick+0xcae>
   83557:	98 e0 1f ed 00 00       	b.ori      r7,r0,0xb7f8
   8355d:	cc f0 2d 01             	b.sw       -0x7f4c(r16),r7
   83561:	0e 40                   	b.j        8356a <v6LP_Tick+0xcae>
   83563:	00 60                   	b.movi     r3,0x0
   83565:	00 8c                   	b.movi     r4,0x3
   83567:	49 39 54                	b.jal      8dfd9 <bJnc_ResetStackVect>
   8356a:	8c e0 42 e0 00 20       	b.lwz      r7,0x4000740(r0)
   83570:	c4 c7 4a 80             	b.lbz      r6,0x152(r7)
   83574:	8c e0 62 e0 00 20       	b.lwz      r7,0x4000744(r0)
   8357a:	c4 e7 26 80             	b.lbz      r7,0x164(r7)
   8357e:	d2 cc 7e 8b             	b.bne      r6,r7,83295 <v6LP_Tick+0x9d9>
   83582:	0c 90                   	b.j        835a6 <v6LP_Tick+0xcea>
   83584:	30 a1 10                	b.addi     r5,r1,0x8
   83587:	00 66                   	b.movi     r3,0x6
   83589:	21 41 10                	b.sb       0x8(r1),r10
   8358c:	00 80                   	b.movi     r4,0x0
   8358e:	00 c8                   	b.movi     r6,0x1
   83590:	49 94 30                	b.jal      86636 <v6LP_ProcessStackEvent>
   83593:	8c e0 62 e0 00 20       	b.lwz      r7,0x4000744(r0)
   83599:	2c c7 44                	b.lwz      r6,0x20(r7)
   8359c:	00 df                   	b.addi     r6,r6,-0x1
   8359e:	2c c7 04                	b.sw       0x20(r7),r6
   835a1:	48 2d 20                	b.jal      84871 <vFailedPacket.11994>
   835a4:	0c 80                   	b.j        835a8 <v6LP_Tick+0xcec>
   835a6:	01 44                   	b.movi     r10,0x2
   835a8:	8c e0 62 e0 00 20       	b.lwz      r7,0x4000744(r0)
   835ae:	2c e7 44                	b.lwz      r7,0x20(r7)
   835b1:	41 07 cb                	b.bnei     r7,0x0,83584 <v6LP_Tick+0xcc8>
   835b4:	84 e0 51 90 00 20       	b.lbz      r7,0x400098a(r0)
   835ba:	d0 00 7e b0             	b.beqi     r7,0x0,83691 <v6LP_Tick+0xdd5>
   835be:	49 40 08                	b.jal      875c8 <eMiniMac_FrameInProgress>
   835c1:	d0 40 30 b0             	b.bnei     r3,0x0,83691 <v6LP_Tick+0xdd5>
   835c5:	8c 60 5a 00 00 20       	b.lwz      r3,0x4000058(r0)
   835cb:	47 d1 18                	b.jalr     r3
   835ce:	d0 60 3c 30             	b.bnei     r3,0x1,83691 <v6LP_Tick+0xdd5>
   835d2:	8c e0 42 e0 00 20       	b.lwz      r7,0x4000740(r0)
   835d8:	80 00 51 90 00 20       	b.sb       0x400098a(r0),r0
   835de:	c5 47 f8 80             	b.lbz      r10,0x11f(r7)
   835e2:	8d 60 71 90 00 20       	b.lwz      r11,0x400098c(r0)
   835e8:	49 51 10                	b.jal      85812 <vAHI_WakeTimerStop.part.3.24142.constprop.41>
   835eb:	48 64 90                	b.jal      85a83 <u8AHI_WakeTimerFiredStatus>
   835ee:	8c e0 62 e0 00 20       	b.lwz      r7,0x4000744(r0)
   835f4:	c4 e7 66 80             	b.lbz      r7,0x166(r7)
   835f8:	40 07 f0                	b.beqi     r7,0x0,83607 <v6LP_Tick+0xd4b>
   835fb:	cc f0 60 01             	b.lwz      r7,-0x7ffc(r16)
   835ff:	34 e7 10                	b.andi     r7,r7,0x8
   83602:	40 07 84                	b.beqi     r7,0x0,83623 <v6LP_Tick+0xd67>
   83605:	0d 40                   	b.j        8360f <v6LP_Tick+0xd53>
   83607:	4a 0f f0                	b.jal      875c8 <eMiniMac_FrameInProgress>
   8360a:	41 03 27                	b.bnei     r3,0x0,835ee <v6LP_Tick+0xd32>
   8360d:	0d df                   	b.j        835fb <v6LP_Tick+0xd3f>
   8360f:	cc f0 47 69             	b.lwz      r7,-0x6920(r16)
   83613:	80 e0 7e 90 00 20       	b.sb       0x400097e(r0),r7
   83619:	cc f0 7b 69             	b.lwz      r7,-0x6924(r16)
   8361d:	88 e0 3e 90 00 20       	b.sh       0x400097c(r0),r7
   83623:	00 60                   	b.movi     r3,0x0
   83625:	4a d6 90                	b.jal      85bd2 <vAHI_TickTimerIntEnable>
   83628:	00 60                   	b.movi     r3,0x0
   8362a:	4b 01 90                	b.jal      85c2d <vAHI_TickTimerConfigure>
   8362d:	8c e0 46 a0 00 20       	b.lwz      r7,0x4000560(r0)
   83633:	40 07 60                	b.beqi     r7,0x0,83639 <v6LP_Tick+0xd7d>
   83636:	47 d1 38                	b.jalr     r7
   83639:	d2 20 ac 80             	b.bleui    r10,0x1,8364c <v6LP_Tick+0xd90>
   8363d:	8c e0 62 e0 00 20       	b.lwz      r7,0x4000744(r0)
   83643:	04 6a                   	b.mov      r3,r10
   83645:	c0 07 26 80             	b.sb       0x164(r7),r0
   83649:	4b 05 9c                	b.jal      91ccc <vAHI_Sleep>
   8364c:	00 60                   	b.movi     r3,0x0
   8364e:	4a f1 e0                	b.jal      8548b <vAHI_WakeTimerEnable.part.0.24128.constprop.96>
   83651:	98 e0 00 00 00 20       	b.ori      r7,r0,0x4000000
   83657:	cc f0 08 09             	b.sw       -0x6ff0(r16),r7
   8365b:	cc d0 48 09             	b.lwz      r6,-0x6ff0(r16)
   8365f:	94 c6 00 00 00 20       	b.andi     r6,r6,0x4000000
   83665:	41 06 6f                	b.bnei     r6,0x0,8365b <v6LP_Tick+0xd9f>
   83668:	d8 e0 0c 09             	b.addi     r7,r0,-0x6fd0
   8366c:	08 f0                   	b.add      r7,r7,r16
   8366e:	2c c7 00                	b.sw       0x0(r7),r6
   83671:	d8 e0 28 09             	b.addi     r7,r0,-0x6fec
   83675:	08 f0                   	b.add      r7,r7,r16
   83677:	2d 67 00                	b.sw       0x0(r7),r11
   8367a:	cc f0 78 09             	b.lwz      r7,-0x6fe4(r16)
   8367e:	38 e7 80                	b.ori      r7,r7,0x1
   83681:	cc f0 38 09             	b.sw       -0x6fe4(r16),r7
   83685:	cc f0 44 09             	b.lwz      r7,-0x6fe0(r16)
   83689:	34 e7 80                	b.andi     r7,r7,0x1
   8368c:	40 07 9f                	b.beqi     r7,0x0,83685 <v6LP_Tick+0xdc9>
   8368f:	0d d7                   	b.j        8363d <v6LP_Tick+0xd81>
   83691:	8c e0 68 a0 00 20       	b.lwz      r7,0x4000514(r0)
   83697:	60 ec 3d                	b.sub      r7,r12,r7
   8369a:	9f 47 c4 2f 00 00       	b.sfleui   r7,0xf423
   836a0:	47 2f 00                	b.bf       836af <v6LP_Tick+0xdf3>
   836a3:	8d 80 28 a0 00 20       	b.sw       0x4000514(r0),r12
   836a9:	80 00 11 90 00 20       	b.sb       0x4000988(r0),r0
   836af:	47 be e6                	b.reti     0x7,0x67
	...

000836b4 <iIPv6_CompressIPv6packet>:
   836b4:	47 ae e0                	b.entri    0x7,0x7
   836b7:	05 43                   	b.mov      r10,r3
   836b9:	41 03 a8                	b.bnei     r3,0x0,836ce <iIPv6_CompressIPv6packet+0x1a>
   836bc:	8c e0 46 b0 00 20       	b.lwz      r7,0x4000d60(r0)
   836c2:	d8 c0 a0 80             	b.addi     r6,r0,0x105
   836c6:	00 6f                   	b.movi     r3,-0x1
   836c8:	2c c7 32                	b.sw       0x4c(r7),r6
   836cb:	46 de c0                	b.j        83a46 <iIPv6_CompressIPv6packet+0x392>
   836ce:	24 e3 0f                	b.lbz      r7,0xf0(r3)
   836d1:	20 03 cf                	b.sb       0xf3(r3),r0
   836d4:	28 03 17                	b.sh       0xe8(r3),r0
   836d7:	41 07 b6                	b.bnei     r7,0x0,83744 <iIPv6_CompressIPv6packet+0x90>
   836da:	2c e3 67                	b.lwz      r7,0xe4(r3)
   836dd:	41 07 e6                	b.bnei     r7,0x0,83744 <iIPv6_CompressIPv6packet+0x90>
   836e0:	38 e0 10                	b.ori      r7,r0,0x8
   836e3:	00 c0                   	b.movi     r6,0x0
   836e5:	20 e3 cf                	b.sb       0xf3(r3),r7
   836e8:	38 e0 18                	b.ori      r7,r0,0x18
   836eb:	28 e3 17                	b.sh       0xe8(r3),r7
   836ee:	2c e3 50                	b.lwz      r7,0x8(r3)
   836f1:	9d c7 00 00 01 7f       	b.sfnei    r7,-0x1800000
   836f7:	47 27 00                	b.bf       83705 <iIPv6_CompressIPv6packet+0x51>
   836fa:	2c c3 70                	b.lwz      r6,0xc(r3)
   836fd:	3e 06 34                	b.ff1      r6,r6
   83700:	00 df                   	b.addi     r6,r6,-0x1
   83702:	6c c6 f9                	b.srli     r6,r6,0x1f
   83705:	2c 6a 48                	b.lwz      r3,0x10(r10)
   83708:	98 e0 00 00 00 40       	b.ori      r7,r0,0x2000000
   8370e:	60 63 3a                	b.xor      r3,r3,r7
   83711:	00 e0                   	b.movi     r7,0x0
   83713:	8c a0 6c a0 00 20       	b.lwz      r5,0x4000534(r0)
   83719:	8c 80 4c a0 00 20       	b.lwz      r4,0x4000530(r0)
   8371f:	d2 ca 34 80             	b.bne      r5,r3,83731 <iIPv6_CompressIPv6packet+0x7d>
   83723:	2c ea 68                	b.lwz      r7,0x14(r10)
   83726:	60 e4 3a                	b.xor      r7,r4,r7
   83729:	3e 07 3c                	b.ff1      r7,r7
   8372c:	00 ff                   	b.addi     r7,r7,-0x1
   8372e:	6c e7 f9                	b.srli     r7,r7,0x1f
   83731:	00 68                   	b.movi     r3,0x1
   83733:	2c 8a 22                	b.sw       0x44(r10),r4
   83736:	39 60 01                	b.ori      r11,r0,0x80
   83739:	20 6a 32                	b.sb       0x4c(r10),r3
   8373c:	2c aa 12                	b.sw       0x48(r10),r5
   8373f:	41 06 28                	b.bnei     r6,0x0,83753 <iIPv6_CompressIPv6packet+0x9f>
   83742:	0e 40                   	b.j        8374b <iIPv6_CompressIPv6packet+0x97>
   83744:	d8 e0 12 80             	b.addi     r7,r0,0x148
   83748:	46 f1 40                	b.j        839d7 <iIPv6_CompressIPv6packet+0x323>
   8374b:	38 c0 1a                	b.ori      r6,r0,0x58
   8374e:	01 60                   	b.movi     r11,0x0
   83750:	28 ca 17                	b.sh       0xe8(r10),r6
   83753:	40 07 d0                	b.beqi     r7,0x0,8375e <iIPv6_CompressIPv6packet+0xaa>
   83756:	39 6b 02                	b.ori      r11,r11,0x40
   83759:	3e 0b 58                	b.extbz    r11,r11
   8375c:	0f 40                   	b.j        83767 <iIPv6_CompressIPv6packet+0xb3>
   8375e:	28 ea 97                	b.lhz      r7,0xe8(r10)
   83761:	30 e7 02                	b.addi     r7,r7,0x40
   83764:	28 ea 17                	b.sh       0xe8(r10),r7
   83767:	8c e0 46 b0 00 20       	b.lwz      r7,0x4000d60(r0)
   8376d:	2c ca 58                	b.lwz      r6,0x18(r10)
   83770:	2c 87 41                	b.lwz      r4,0x80(r7)
   83773:	00 a0                   	b.movi     r5,0x0
   83775:	d2 c8 6a 80             	b.bne      r4,r6,8378a <iIPv6_CompressIPv6packet+0xd6>
   83779:	2c 87 7e                	b.lwz      r4,0x7c(r7)
   8377c:	2c aa 78                	b.lwz      r5,0x1c(r10)
   8377f:	60 a4 2a                	b.xor      r5,r4,r5
   83782:	3e 05 2c                	b.ff1      r5,r5
   83785:	00 bf                   	b.addi     r5,r5,-0x1
   83787:	6c a5 f9                	b.srli     r5,r5,0x1f
   8378a:	41 06 b4                	b.bnei     r6,0x0,837b7 <iIPv6_CompressIPv6packet+0x103>
   8378d:	2c 8a 78                	b.lwz      r4,0x1c(r10)
   83790:	41 04 e4                	b.bnei     r4,0x0,837b7 <iIPv6_CompressIPv6packet+0x103>
   83793:	2c 8a 44                	b.lwz      r4,0x20(r10)
   83796:	41 04 84                	b.bnei     r4,0x0,837b7 <iIPv6_CompressIPv6packet+0x103>
   83799:	2c 8a 64                	b.lwz      r4,0x24(r10)
   8379c:	41 04 d8                	b.bnei     r4,0x0,837b7 <iIPv6_CompressIPv6packet+0x103>
   8379f:	24 e7 92                	b.lbz      r7,0x49(r7)
   837a2:	41 47 70                	b.bnei     r7,0x2,837b0 <iIPv6_CompressIPv6packet+0xfc>
   837a5:	00 e8                   	b.movi     r7,0x1
   837a7:	2c 0a 0a                	b.sw       0x50(r10),r0
   837aa:	20 ea 1a                	b.sb       0x58(r10),r7
   837ad:	2c 0a 2a                	b.sw       0x54(r10),r0
   837b0:	00 e8                   	b.movi     r7,0x1
   837b2:	20 ea 9a                	b.sb       0x59(r10),r7
   837b5:	0e ce                   	b.j        83982 <iIPv6_CompressIPv6packet+0x2ce>
   837b7:	6c 86 19                	b.srli     r4,r6,0x18
   837ba:	9d 84 ff 00 00 00       	b.sfeqi    r4,0xff
   837c0:	20 0a 9a                	b.sb       0x59(r10),r0
   837c3:	47 23 00                	b.bf       837cf <iIPv6_CompressIPv6packet+0x11b>
   837c6:	84 80 59 90 00 20       	b.lbz      r4,0x400099a(r0)
   837cc:	40 04 28                	b.beqi     r4,0x0,837e0 <iIPv6_CompressIPv6packet+0x12c>
   837cf:	20 0a 1a                	b.sb       0x58(r10),r0
   837d2:	28 e7 99                	b.lhz      r7,0x98(r7)
   837d5:	28 ea 0a                	b.sh       0x50(r10),r7
   837d8:	00 ef                   	b.movi     r7,-0x1
   837da:	28 ea 4a                	b.sh       0x52(r10),r7
   837dd:	46 6a 40                	b.j        83a33 <iIPv6_CompressIPv6packet+0x37f>
   837e0:	01 c0                   	b.movi     r14,0x0
   837e2:	9d c6 00 00 01 7f       	b.sfnei    r6,-0x1800000
   837e8:	47 27 00                	b.bf       837f6 <iIPv6_CompressIPv6packet+0x142>
   837eb:	2d ca 78                	b.lwz      r14,0x1c(r10)
   837ee:	3e 0e 74                	b.ff1      r14,r14
   837f1:	01 df                   	b.addi     r14,r14,-0x1
   837f3:	6d ce f9                	b.srli     r14,r14,0x1f
   837f6:	60 8e 29                	b.or       r4,r14,r5
   837f9:	2c ca 44                	b.lwz      r6,0x20(r10)
   837fc:	2c aa 64                	b.lwz      r5,0x24(r10)
   837ff:	d0 00 4f 68             	b.beqi     r4,0x0,8396e <iIPv6_CompressIPv6packet+0x2ba>
   83803:	94 86 00 00 00 40       	b.andi     r4,r6,0x2000000
   83809:	41 04 34                	b.bnei     r4,0x0,83835 <iIPv6_CompressIPv6packet+0x181>
   8380c:	94 86 ff ff 00 00       	b.andi     r4,r6,0xffff
   83812:	9d c4 ff 00 00 00       	b.sfnei    r4,0xff
   83818:	47 26 a8                	b.bf       8396e <iIPv6_CompressIPv6packet+0x2ba>
   8381b:	6c 85 09                	b.srli     r4,r5,0x10
   8381e:	9d c4 00 7f 00 00       	b.sfnei    r4,0xfe00
   83824:	47 25 28                	b.bf       8396e <iIPv6_CompressIPv6packet+0x2ba>
   83827:	20 0a 1a                	b.sb       0x58(r10),r0
   8382a:	28 e7 99                	b.lhz      r7,0x98(r7)
   8382d:	28 aa 4a                	b.sh       0x52(r10),r5
   83830:	28 ea 0a                	b.sh       0x50(r10),r7
   83833:	0c ca                   	b.j        8397f <iIPv6_CompressIPv6packet+0x2cb>
   83835:	00 88                   	b.movi     r4,0x1
   83837:	20 8a 1a                	b.sb       0x58(r10),r4
   8383a:	98 80 00 00 00 40       	b.ori      r4,r0,0x2000000
   83840:	60 c6 22                	b.xor      r6,r6,r4
   83843:	54 aa 0a                	b.msw      0x50(r10),r5,0x0
   83846:	24 e7 92                	b.lbz      r7,0x49(r7)
   83849:	d0 50 76 c8             	b.bnei     r7,0x2,8397f <iIPv6_CompressIPv6packet+0x2cb>
   8384d:	84 c0 11 90 00 20       	b.lbz      r6,0x4000988(r0)
   83853:	84 e0 02 c0 00 20       	b.lbz      r7,0x4000340(r0)
   83859:	d3 8c 76 48             	b.bgeu     r6,r7,8397f <iIPv6_CompressIPv6packet+0x2cb>
   8385d:	30 61 28                	b.addi     r3,r1,0x14
   83860:	48 5f 60                	b.jal      85448 <vMicroIntEnableOnly.constprop.108>
   83863:	8d 20 62 e0 00 20       	b.lwz      r9,0x4000744(r0)
   83869:	31 8a 0a                	b.addi     r12,r10,0x50
   8386c:	00 e0                   	b.movi     r7,0x0
   8386e:	28 a9 9f                	b.lhz      r5,0xf8(r9)
   83871:	8d 00 41 90 00 20       	b.lwz      r8,0x4000980(r0)
   83877:	04 c5                   	b.mov      r6,r5
   83879:	0c 50                   	b.j        838a1 <iIPv6_CompressIPv6packet+0x1ed>
   8387b:	2c 68 54                	b.lwz      r3,0x28(r8)
   8387e:	6c 87 20                	b.slli     r4,r7,0x4
   83881:	08 83                   	b.add      r4,r4,r3
   83883:	2d a4 60                	b.lwz      r13,0x4(r4)
   83886:	2c 6c 60                	b.lwz      r3,0x4(r12)
   83889:	d2 da 36 80             	b.bne      r13,r3,8389f <iIPv6_CompressIPv6packet+0x1eb>
   8388d:	2c 64 40                	b.lwz      r3,0x0(r4)
   83890:	2c 8c 40                	b.lwz      r4,0x0(r12)
   83893:	d2 c6 43 00             	b.bne      r3,r4,8389f <iIPv6_CompressIPv6packet+0x1eb>
   83897:	30 61 28                	b.addi     r3,r1,0x14
   8389a:	4b 1c 10                	b.jal      8597d <vMicroIntRestoreState>
   8389d:	0d 1c                   	b.j        8397f <iIPv6_CompressIPv6packet+0x2cb>
   8389f:	00 f8                   	b.addi     r7,r7,0x1
   838a1:	d3 4a 75 bf             	b.bgts     r5,r7,8387b <iIPv6_CompressIPv6packet+0x1c7>
   838a5:	8c e0 5e 90 00 20       	b.lwz      r7,0x4000978(r0)
   838ab:	00 80                   	b.movi     r4,0x0
   838ad:	24 e7 00                	b.lbz      r7,0x0(r7)
   838b0:	01 ac                   	b.movi     r13,0x3
   838b2:	2c e1 30                	b.sw       0xc(r1),r7
   838b5:	8c e0 55 50 00 20       	b.lwz      r7,0x4000aa8(r0)
   838bb:	0d 48                   	b.j        83905 <iIPv6_CompressIPv6packet+0x251>
   838bd:	2d e7 60                	b.lwz      r15,0x4(r7)
   838c0:	2c 6c 60                	b.lwz      r3,0x4(r12)
   838c3:	d2 de 3b c0             	b.bne      r15,r3,83900 <iIPv6_CompressIPv6packet+0x24c>
   838c7:	2d e7 40                	b.lwz      r15,0x0(r7)
   838ca:	2c 6c 40                	b.lwz      r3,0x0(r12)
   838cd:	d2 de 3c c0             	b.bne      r15,r3,83900 <iIPv6_CompressIPv6packet+0x24c>
   838d1:	24 67 90                	b.lbz      r3,0x9(r7)
   838d4:	40 43 c3                	b.beqi     r3,0x2,83897 <iIPv6_CompressIPv6packet+0x1e3>
   838d7:	01 e8                   	b.movi     r15,0x1
   838d9:	61 e3 7a                	b.xor      r15,r3,r15
   838dc:	21 e1 d0                	b.sb       0xb(r1),r15
   838df:	3e 0f 78                	b.extbz    r15,r15
   838e2:	01 ff                   	b.addi     r15,r15,-0x1
   838e4:	2d e1 20                	b.sw       0x4(r1),r15
   838e7:	01 e2                   	b.movi     r15,0x4
   838e9:	60 63 7a                	b.xor      r3,r3,r15
   838ec:	3e 03 18                	b.extbz    r3,r3
   838ef:	31 e3 ff                	b.addi     r15,r3,-0x1
   838f2:	2c 61 60                	b.lwz      r3,0x4(r1)
   838f5:	61 e3 79                	b.or       r15,r3,r15
   838f8:	3c 4f 00                	b.sfgesi   r15,0x0
   838fb:	01 e2                   	b.movi     r15,0x4
   838fd:	65 ad 7a                	b.cmov     r13,r13,r15
   83900:	00 98                   	b.addi     r4,r4,0x1
   83902:	30 e7 04                	b.addi     r7,r7,0x20
   83905:	2c 61 70                	b.lwz      r3,0xc(r1)
   83908:	d3 46 4a df             	b.bgts     r3,r4,838bd <iIPv6_CompressIPv6packet+0x209>
   8390c:	41 cd ac                	b.bnei     r13,0x3,83941 <iIPv6_CompressIPv6packet+0x28d>
   8390f:	28 89 df                	b.lhz      r4,0xfa(r9)
   83912:	6c a5 20                	b.slli     r5,r5,0x4
   83915:	0c 50                   	b.j        8393d <iIPv6_CompressIPv6packet+0x289>
   83917:	2c e8 54                	b.lwz      r7,0x28(r8)
   8391a:	2c 6c 60                	b.lwz      r3,0x4(r12)
   8391d:	08 e5                   	b.add      r7,r7,r5
   8391f:	2d 27 60                	b.lwz      r9,0x4(r7)
   83922:	d2 d2 36 80             	b.bne      r9,r3,83938 <iIPv6_CompressIPv6packet+0x284>
   83926:	2c 67 40                	b.lwz      r3,0x0(r7)
   83929:	2c ec 40                	b.lwz      r7,0x0(r12)
   8392c:	d2 c6 73 00             	b.bne      r3,r7,83938 <iIPv6_CompressIPv6packet+0x284>
   83930:	30 61 28                	b.addi     r3,r1,0x14
   83933:	49 48 10                	b.jal      8597d <vMicroIntRestoreState>
   83936:	0c a0                   	b.j        8394a <iIPv6_CompressIPv6packet+0x296>
   83938:	00 d8                   	b.addi     r6,r6,0x1
   8393a:	30 a5 08                	b.addi     r5,r5,0x10
   8393d:	d3 48 65 bf             	b.bgts     r4,r6,83917 <iIPv6_CompressIPv6packet+0x263>
   83941:	30 61 28                	b.addi     r3,r1,0x14
   83944:	4a 70 10                	b.jal      8597d <vMicroIntRestoreState>
   83947:	41 2d 1c                	b.bnei     r13,0x4,8397f <iIPv6_CompressIPv6packet+0x2cb>
   8394a:	8c e0 46 b0 00 20       	b.lwz      r7,0x4000d60(r0)
   83950:	20 0a 1a                	b.sb       0x58(r10),r0
   83953:	28 e7 99                	b.lhz      r7,0x98(r7)
   83956:	28 ea 0a                	b.sh       0x50(r10),r7
   83959:	00 ef                   	b.movi     r7,-0x1
   8395b:	28 ea 4a                	b.sh       0x52(r10),r7
   8395e:	84 e0 11 90 00 20       	b.lbz      r7,0x4000988(r0)
   83964:	00 f8                   	b.addi     r7,r7,0x1
   83966:	80 e0 11 90 00 20       	b.sb       0x4000988(r0),r7
   8396c:	0f 8c                   	b.j        83a33 <iIPv6_CompressIPv6packet+0x37f>
   8396e:	00 e8                   	b.movi     r7,0x1
   83970:	20 ea 1a                	b.sb       0x58(r10),r7
   83973:	98 e0 00 00 00 40       	b.ori      r7,r0,0x2000000
   83979:	60 c6 3a                	b.xor      r6,r6,r7
   8397c:	54 aa 0a                	b.msw      0x50(r10),r5,0x0
   8397f:	40 0e d0                	b.beqi     r14,0x0,8398a <iIPv6_CompressIPv6packet+0x2d6>
   83982:	39 6b 04                	b.ori      r11,r11,0x20
   83985:	3e 0b 58                	b.extbz    r11,r11
   83988:	0f 20                   	b.j        8399b <iIPv6_CompressIPv6packet+0x2e7>
   8398a:	00 e8                   	b.movi     r7,0x1
   8398c:	28 ca 97                	b.lhz      r6,0xe8(r10)
   8398f:	30 a6 02                	b.addi     r5,r6,0x40
   83992:	3e 05 2a                	b.exthz    r5,r5
   83995:	40 07 70                	b.beqi     r7,0x0,839a3 <iIPv6_CompressIPv6packet+0x2ef>
   83998:	28 aa 17                	b.sh       0xe8(r10),r5
   8399b:	39 6b 08                	b.ori      r11,r11,0x10
   8399e:	3e 0b 58                	b.extbz    r11,r11
   839a1:	0e 40                   	b.j        839aa <iIPv6_CompressIPv6packet+0x2f6>
   839a3:	d8 c6 01 00             	b.addi     r6,r6,0x80
   839a7:	28 ca 17                	b.sh       0xe8(r10),r6
   839aa:	24 ea cf                	b.lbz      r7,0xf3(r10)
   839ad:	61 67 59                	b.or       r11,r7,r11
   839b0:	24 ea 8f                	b.lbz      r7,0xf1(r10)
   839b3:	21 6a cf                	b.sb       0xf3(r10),r11
   839b6:	3c 07 88                	b.sfeqi    r7,0x11
   839b9:	47 2d 00                	b.bf       839c4 <iIPv6_CompressIPv6packet+0x310>
   839bc:	3c 07 5c                	b.sfeqi    r7,0x3a
   839bf:	47 34 80                	b.bnf      839d1 <iIPv6_CompressIPv6packet+0x31d>
   839c2:	0f 80                   	b.j        839c9 <iIPv6_CompressIPv6packet+0x315>
   839c4:	39 6b 40                	b.ori      r11,r11,0x2
   839c7:	0e 80                   	b.j        839cc <iIPv6_CompressIPv6packet+0x318>
   839c9:	39 6b 20                	b.ori      r11,r11,0x4
   839cc:	21 6a cf                	b.sb       0xf3(r10),r11
   839cf:	0f 40                   	b.j        839da <iIPv6_CompressIPv6packet+0x326>
   839d1:	28 ea 97                	b.lhz      r7,0xe8(r10)
   839d4:	30 e7 10                	b.addi     r7,r7,0x8
   839d7:	28 ea 17                	b.sh       0xe8(r10),r7
   839da:	24 ea cf                	b.lbz      r7,0xf3(r10)
   839dd:	00 60                   	b.movi     r3,0x0
   839df:	40 07 e6                	b.beqi     r7,0x0,83a46 <iIPv6_CompressIPv6packet+0x392>
   839e2:	24 ca 8f                	b.lbz      r6,0xf1(r10)
   839e5:	3c 06 88                	b.sfeqi    r6,0x11
   839e8:	47 37 a0                	b.bnf      83a46 <iIPv6_CompressIPv6packet+0x392>
   839eb:	28 aa d4                	b.lhz      r5,0x2a(r10)
   839ee:	20 0a 4c                	b.sb       0x32(r10),r0
   839f1:	d8 a5 0a f0             	b.addi     r5,r5,0xf50
   839f5:	3e 05 2a                	b.exthz    r5,r5
   839f8:	28 0a 0c                	b.sh       0x30(r10),r0
   839fb:	3c a5 f0                	b.sfgtui   r5,0xf
   839fe:	28 ca 94                	b.lhz      r6,0x28(r10)
   83a01:	47 20 80                	b.bf       83a11 <iIPv6_CompressIPv6packet+0x35d>
   83a04:	0f 30                   	b.j        83a37 <iIPv6_CompressIPv6packet+0x383>
   83a06:	30 c0 03                	b.addi     r6,r0,-0x40
   83a09:	20 ca 4c                	b.sb       0x32(r10),r6
   83a0c:	38 c0 10                	b.ori      r6,r0,0x8
   83a0f:	0e 80                   	b.j        83a14 <iIPv6_CompressIPv6packet+0x360>
   83a11:	38 c0 04                	b.ori      r6,r0,0x20
   83a14:	28 ca 0c                	b.sh       0x30(r10),r6
   83a17:	38 e7 80                	b.ori      r7,r7,0x1
   83a1a:	00 60                   	b.movi     r3,0x0
   83a1c:	28 ca 8c                	b.lhz      r6,0x30(r10)
   83a1f:	20 ea cf                	b.sb       0xf3(r10),r7
   83a22:	30 c6 08                	b.addi     r6,r6,0x10
   83a25:	28 ca 0c                	b.sh       0x30(r10),r6
   83a28:	24 ca 4c                	b.lbz      r6,0x32(r10)
   83a2b:	38 c6 04                	b.ori      r6,r6,0x20
   83a2e:	20 ca 4c                	b.sb       0x32(r10),r6
   83a31:	0e a0                   	b.j        83a46 <iIPv6_CompressIPv6packet+0x392>
   83a33:	00 e0                   	b.movi     r7,0x0
   83a35:	0f ab                   	b.j        8398c <iIPv6_CompressIPv6packet+0x2d8>
   83a37:	d8 c6 0a f0             	b.addi     r6,r6,0xf50
   83a3b:	3e 06 32                	b.exthz    r6,r6
   83a3e:	3c e6 f0                	b.sfleui   r6,0xf
   83a41:	47 30 bf                	b.bnf      83a11 <iIPv6_CompressIPv6packet+0x35d>
   83a44:	0d 0f                   	b.j        83a06 <iIPv6_CompressIPv6packet+0x352>
   83a46:	47 be e0                	b.reti     0x7,0x7

00083a49 <psDLISTsearchForward>:
   83a49:	47 ac c0                	b.entri    0x3,0x3
   83a4c:	05 43                   	b.mov      r10,r3
   83a4e:	05 64                   	b.mov      r11,r4
   83a50:	41 0a e0                	b.bnei     r10,0x0,83a57 <psDLISTsearchForward+0xe>
   83a53:	01 40                   	b.movi     r10,0x0
   83a55:	0f a0                   	b.j        83a6c <psDLISTsearchForward+0x23>
   83a57:	04 65                   	b.mov      r3,r5
   83a59:	2c a1 20                	b.sw       0x4(r1),r5
   83a5c:	04 8a                   	b.mov      r4,r10
   83a5e:	47 d1 58                	b.jalr     r11
   83a61:	2c a1 60                	b.lwz      r5,0x4(r1)
   83a64:	40 83 10                	b.beqi     r3,0x1,83a6c <psDLISTsearchForward+0x23>
   83a67:	2d 4a 40                	b.lwz      r10,0x0(r10)
   83a6a:	0d 9f                   	b.j        83a50 <psDLISTsearchForward+0x7>
   83a6c:	04 6a                   	b.mov      r3,r10
   83a6e:	47 bc c0                	b.reti     0x3,0x3

00083a71 <iPDM_SearchForSpecificSegmentInList>:
   83a71:	47 a8 a0                	b.entri    0x1,0x5
   83a74:	28 61 10                	b.sh       0x8(r1),r3
   83a77:	2c 67 40                	b.lwz      r3,0x0(r7)
   83a7a:	20 81 50                	b.sb       0xa(r1),r4
   83a7d:	20 c1 30                	b.sb       0xc(r1),r6
   83a80:	20 a1 d0                	b.sb       0xb(r1),r5
   83a83:	2c 68 00                	b.sw       0x0(r8),r3
   83a86:	40 03 44                	b.beqi     r3,0x0,83aa8 <iPDM_SearchForSpecificSegmentInList+0x37>
   83a89:	98 80 29 1c 90 00       	b.ori      r4,r0,0x93894
   83a8f:	30 a1 10                	b.addi     r5,r1,0x8
   83a92:	2d 01 20                	b.sw       0x4(r1),r8
   83a95:	48 b7 ff                	b.jal      83a49 <psDLISTsearchForward>
   83a98:	2d 01 60                	b.lwz      r8,0x4(r1)
   83a9b:	3c 03 00                	b.sfeqi    r3,0x0
   83a9e:	2c 68 00                	b.sw       0x0(r8),r3
   83aa1:	00 6f                   	b.movi     r3,-0x1
   83aa3:	64 63 02                	b.cmov     r3,r3,r0
   83aa6:	0c 80                   	b.j        83aaa <iPDM_SearchForSpecificSegmentInList+0x39>
   83aa8:	00 6f                   	b.movi     r3,-0x1
   83aaa:	47 b8 a0                	b.reti     0x1,0x5

00083aad <iIPv6_SearchForBufferByAddress>:
   83aad:	3e 04 34                	b.ff1      r6,r4
   83ab0:	3e 03 3c                	b.ff1      r7,r3
   83ab3:	00 df                   	b.addi     r6,r6,-0x1
   83ab5:	00 ff                   	b.addi     r7,r7,-0x1
   83ab7:	47 a4 20                	b.entri    0x2,0x4
   83aba:	60 e6 39                	b.or       r7,r6,r7
   83abd:	04 a3                   	b.mov      r5,r3
   83abf:	05 44                   	b.mov      r10,r4
   83ac1:	42 07 48                	b.bgesi    r7,0x0,83ad3 <iIPv6_SearchForBufferByAddress+0x26>
   83ac4:	8c e0 46 b0 00 20       	b.lwz      r7,0x4000d60(r0)
   83aca:	d8 c0 90 80             	b.addi     r6,r0,0x109
   83ace:	2c c7 32                	b.sw       0x4c(r7),r6
   83ad1:	0e 70                   	b.j        83b0a <iIPv6_SearchForBufferByAddress+0x5d>
   83ad3:	30 61 30                	b.addi     r3,r1,0xc
   83ad6:	2c a1 20                	b.sw       0x4(r1),r5
   83ad9:	4b da 60                	b.jal      85448 <vMicroIntEnableOnly.constprop.108>
   83adc:	8c e0 46 b0 00 20       	b.lwz      r7,0x4000d60(r0)
   83ae2:	2c a1 60                	b.lwz      r5,0x4(r1)
   83ae5:	2c 67 56                	b.lwz      r3,0x68(r7)
   83ae8:	98 80 d4 86 10 00       	b.ori      r4,r0,0x8612b
   83aee:	2c 6a 00                	b.sw       0x0(r10),r3
   83af1:	48 6b ff                	b.jal      83a49 <psDLISTsearchForward>
   83af4:	2c 6a 00                	b.sw       0x0(r10),r3
   83af7:	40 03 b0                	b.beqi     r3,0x0,83b04 <iIPv6_SearchForBufferByAddress+0x57>
   83afa:	30 61 30                	b.addi     r3,r1,0xc
   83afd:	48 05 e0                	b.jal      8597d <vMicroIntRestoreState>
   83b00:	00 60                   	b.movi     r3,0x0
   83b02:	0d 40                   	b.j        83b0c <iIPv6_SearchForBufferByAddress+0x5f>
   83b04:	30 61 30                	b.addi     r3,r1,0xc
   83b07:	49 b9 e0                	b.jal      8597d <vMicroIntRestoreState>
   83b0a:	00 6f                   	b.movi     r3,-0x1
   83b0c:	47 b4 20                	b.reti     0x2,0x4

00083b0f <iIPv6_SearchForBufferReadyToTX>:
   83b0f:	47 a4 40                	b.entri    0x2,0x2
   83b12:	05 43                   	b.mov      r10,r3
   83b14:	41 03 28                	b.bnei     r3,0x0,83b28 <iIPv6_SearchForBufferReadyToTX+0x19>
   83b17:	8c e0 46 b0 00 20       	b.lwz      r7,0x4000d60(r0)
   83b1d:	d8 c0 90 80             	b.addi     r6,r0,0x109
   83b21:	01 4f                   	b.movi     r10,-0x1
   83b23:	2c c7 32                	b.sw       0x4c(r7),r6
   83b26:	0f 30                   	b.j        83b59 <iIPv6_SearchForBufferReadyToTX+0x4a>
   83b28:	2c 03 00                	b.sw       0x0(r3),r0
   83b2b:	30 61 20                	b.addi     r3,r1,0x4
   83b2e:	49 62 60                	b.jal      85448 <vMicroIntEnableOnly.constprop.108>
   83b31:	8c e0 46 b0 00 20       	b.lwz      r7,0x4000d60(r0)
   83b37:	98 80 ad 06 10 00       	b.ori      r4,r0,0x860b5
   83b3d:	00 a0                   	b.movi     r5,0x0
   83b3f:	2c 67 56                	b.lwz      r3,0x68(r7)
   83b42:	2c 6a 00                	b.sw       0x0(r10),r3
   83b45:	48 83 ff                	b.jal      83a49 <psDLISTsearchForward>
   83b48:	2c 6a 00                	b.sw       0x0(r10),r3
   83b4b:	3c 03 00                	b.sfeqi    r3,0x0
   83b4e:	30 61 20                	b.addi     r3,r1,0x4
   83b51:	01 4f                   	b.movi     r10,-0x1
   83b53:	65 4a 02                	b.cmov     r10,r10,r0
   83b56:	4b 91 e0                	b.jal      8597d <vMicroIntRestoreState>
   83b59:	04 6a                   	b.mov      r3,r10
   83b5b:	47 b4 40                	b.reti     0x2,0x2

00083b5e <iSearchForId>:
   83b5e:	47 a4 20                	b.entri    0x2,0x4
   83b61:	2c 61 20                	b.sw       0x4(r1),r3
   83b64:	30 61 30                	b.addi     r3,r1,0xc
   83b67:	05 44                   	b.mov      r10,r4
   83b69:	4b ec 60                	b.jal      85448 <vMicroIntEnableOnly.constprop.108>
   83b6c:	8c e0 46 b0 00 20       	b.lwz      r7,0x4000d60(r0)
   83b72:	98 80 1f 7a 10 00       	b.ori      r4,r0,0x85ef8
   83b78:	30 a1 20                	b.addi     r5,r1,0x4
   83b7b:	2c 67 6a                	b.lwz      r3,0x54(r7)
   83b7e:	2c 6a 00                	b.sw       0x0(r10),r3
   83b81:	48 4d ff                	b.jal      83a49 <psDLISTsearchForward>
   83b84:	3c 03 00                	b.sfeqi    r3,0x0
   83b87:	2c 6a 00                	b.sw       0x0(r10),r3
   83b8a:	30 61 30                	b.addi     r3,r1,0xc
   83b8d:	01 4f                   	b.movi     r10,-0x1
   83b8f:	65 4a 02                	b.cmov     r10,r10,r0
   83b92:	4b 5e e0                	b.jal      8597d <vMicroIntRestoreState>
   83b95:	04 6a                   	b.mov      r3,r10
   83b97:	47 b4 20                	b.reti     0x2,0x4

00083b9a <i6LP_DefBind.constprop.104>:
   83b9a:	8c e0 46 b0 00 20       	b.lwz      r7,0x4000d60(r0)
   83ba0:	47 ac c0                	b.entri    0x3,0x3
   83ba3:	24 c7 26                	b.lbz      r6,0x64(r7)
   83ba6:	2c 07 32                	b.sw       0x4c(r7),r0
   83ba9:	05 63                   	b.mov      r11,r3
   83bab:	05 44                   	b.mov      r10,r4
   83bad:	d3 06 6b 00             	b.bges     r3,r6,83bba <i6LP_DefBind.constprop.104+0x20>
   83bb1:	40 04 90                	b.beqi     r4,0x0,83bba <i6LP_DefBind.constprop.104+0x20>
   83bb4:	2c c4 40                	b.lwz      r6,0x0(r4)
   83bb7:	40 06 30                	b.beqi     r6,0x0,83bc3 <i6LP_DefBind.constprop.104+0x29>
   83bba:	d8 c0 08 80             	b.addi     r6,r0,0x110
   83bbe:	2c c7 32                	b.sw       0x4c(r7),r6
   83bc1:	0e 90                   	b.j        83be6 <i6LP_DefBind.constprop.104+0x4c>
   83bc3:	30 61 20                	b.addi     r3,r1,0x4
   83bc6:	49 04 60                	b.jal      85448 <vMicroIntEnableOnly.constprop.108>
   83bc9:	04 6b                   	b.mov      r3,r11
   83bcb:	04 81                   	b.mov      r4,r1
   83bcd:	4a 27 ff                	b.jal      83b5e <iSearchForId>
   83bd0:	40 03 58                	b.beqi     r3,0x0,83bea <i6LP_DefBind.constprop.104+0x50>
   83bd3:	8c e0 46 b0 00 20       	b.lwz      r7,0x4000d60(r0)
   83bd9:	d8 c0 08 98             	b.addi     r6,r0,0x1910
   83bdd:	30 61 20                	b.addi     r3,r1,0x4
   83be0:	2c c7 32                	b.sw       0x4c(r7),r6
   83be3:	49 66 e0                	b.jal      8597d <vMicroIntRestoreState>
   83be6:	00 6f                   	b.movi     r3,-0x1
   83be8:	0e 60                   	b.j        83c01 <i6LP_DefBind.constprop.104+0x67>
   83bea:	2c 61 40                	b.lwz      r3,0x0(r1)
   83bed:	38 a0 04                	b.ori      r5,r0,0x20
   83bf0:	30 63 18                	b.addi     r3,r3,0x18
   83bf3:	04 8a                   	b.mov      r4,r10
   83bf5:	d4 e6 23 ef             	b.jal      5c <memcpy>
   83bf9:	30 61 20                	b.addi     r3,r1,0x4
   83bfc:	4a 06 e0                	b.jal      8597d <vMicroIntRestoreState>
   83bff:	00 60                   	b.movi     r3,0x0
   83c01:	47 bc c0                	b.reti     0x3,0x3

00083c04 <iCheckSocketParameters.16357>:
   83c04:	8c e0 46 b0 00 20       	b.lwz      r7,0x4000d60(r0)
   83c0a:	47 a8 80                	b.entri    0x1,0x1
   83c0d:	24 a7 26                	b.lbz      r5,0x64(r7)
   83c10:	d3 06 5e 00             	b.bges     r3,r5,83c17 <iCheckSocketParameters.16357+0x13>
   83c14:	42 03 90                	b.bgesi    r3,0x0,83c1d <iCheckSocketParameters.16357+0x19>
   83c17:	d8 c0 18 58             	b.addi     r6,r0,0x1a18
   83c1b:	0c a0                   	b.j        83c2f <iCheckSocketParameters.16357+0x2b>
   83c1d:	4a 0b ff                	b.jal      83b5e <iSearchForId>
   83c20:	00 e0                   	b.movi     r7,0x0
   83c22:	40 03 48                	b.beqi     r3,0x0,83c34 <iCheckSocketParameters.16357+0x30>
   83c25:	8c e0 46 b0 00 20       	b.lwz      r7,0x4000d60(r0)
   83c2b:	d8 c0 18 98             	b.addi     r6,r0,0x1918
   83c2f:	2c c7 32                	b.sw       0x4c(r7),r6
   83c32:	00 ef                   	b.movi     r7,-0x1
   83c34:	04 67                   	b.mov      r3,r7
   83c36:	47 b8 80                	b.reti     0x1,0x1

00083c39 <i6LP_SocketRemoveGroupAddr>:
   83c39:	8c e0 46 b0 00 20       	b.lwz      r7,0x4000d60(r0)
   83c3f:	47 aa c0                	b.entri    0x5,0x3
   83c42:	2c 07 32                	b.sw       0x4c(r7),r0
   83c45:	05 64                   	b.mov      r11,r4
   83c47:	04 81                   	b.mov      r4,r1
   83c49:	4b 77 ff                	b.jal      83c04 <iCheckSocketParameters.16357>
   83c4c:	40 03 e0                	b.beqi     r3,0x0,83c53 <i6LP_SocketRemoveGroupAddr+0x1a>
   83c4f:	00 6f                   	b.movi     r3,-0x1
   83c51:	0e 14                   	b.j        83cf2 <i6LP_SocketRemoveGroupAddr+0xb9>
   83c53:	30 61 20                	b.addi     r3,r1,0x4
   83c56:	49 3f a0                	b.jal      85448 <vMicroIntEnableOnly.constprop.108>
   83c59:	01 40                   	b.movi     r10,0x0
   83c5b:	85 80 4c c0 00 20       	b.lbz      r12,0x4000332(r0)
   83c61:	8d a0 6a 90 00 20       	b.lwz      r13,0x4000954(r0)
   83c67:	0c a0                   	b.j        83c7b <i6LP_SocketRemoveGroupAddr+0x42>
   83c69:	6c 6a 20                	b.slli     r3,r10,0x4
   83c6c:	08 6d                   	b.add      r3,r3,r13
   83c6e:	38 a0 08                	b.ori      r5,r0,0x10
   83c71:	04 8b                   	b.mov      r4,r11
   83c73:	48 51 12                	b.jal      95e9b <memcmp>
   83c76:	40 03 6a                	b.beqi     r3,0x0,83ccc <i6LP_SocketRemoveGroupAddr+0x93>
   83c79:	01 58                   	b.addi     r10,r10,0x1
   83c7b:	d3 58 a7 7f             	b.bgts     r12,r10,83c69 <i6LP_SocketRemoveGroupAddr+0x30>
   83c7f:	01 4f                   	b.movi     r10,-0x1
   83c81:	0e f0                   	b.j        83cbe <i6LP_SocketRemoveGroupAddr+0x85>
   83c83:	65 87 43                	b.mul      r12,r7,r8
   83c86:	2d a5 4a                	b.lwz      r13,0x50(r5)
   83c89:	00 f8                   	b.addi     r7,r7,0x1
   83c8b:	09 8d                   	b.add      r12,r12,r13
   83c8d:	2d 8c 4a                	b.lwz      r12,0x50(r12)
   83c90:	60 c6 61                	b.or       r6,r6,r12
   83c93:	d3 56 70 ff             	b.bgts     r11,r7,83c83 <i6LP_SocketRemoveGroupAddr+0x4a>
   83c97:	60 c6 57                	b.srl      r6,r6,r10
   83c9a:	34 c6 80                	b.andi     r6,r6,0x1
   83c9d:	41 06 84                	b.bnei     r6,0x0,83cbe <i6LP_SocketRemoveGroupAddr+0x85>
   83ca0:	8c e0 54 a0 00 20       	b.lwz      r7,0x4000528(r0)
   83ca6:	60 63 39                	b.or       r3,r3,r7
   83ca9:	8c e0 74 a0 00 20       	b.lwz      r7,0x400052c(r0)
   83caf:	8c 60 14 a0 00 20       	b.sw       0x4000528(r0),r3
   83cb5:	60 84 38                	b.and      r4,r4,r7
   83cb8:	8c 80 34 a0 00 20       	b.sw       0x400052c(r0),r4
   83cbe:	30 61 20                	b.addi     r3,r1,0x4
   83cc1:	48 f4 e0                	b.jal      8597d <vMicroIntRestoreState>
   83cc4:	d0 3e ad 1f             	b.beqi     r10,-0x1,83c4f <i6LP_SocketRemoveGroupAddr+0x16>
   83cc8:	00 60                   	b.movi     r3,0x0
   83cca:	0c 50                   	b.j        83cf2 <i6LP_SocketRemoveGroupAddr+0xb9>
   83ccc:	2c e1 40                	b.lwz      r7,0x0(r1)
   83ccf:	00 68                   	b.movi     r3,0x1
   83cd1:	2c c7 4a                	b.lwz      r6,0x50(r7)
   83cd4:	60 63 56                	b.sll      r3,r3,r10
   83cd7:	60 83 1b                	b.nand     r4,r3,r3
   83cda:	60 c6 20                	b.and      r6,r6,r4
   83cdd:	39 00 2a                	b.ori      r8,r0,0x54
   83ce0:	8c a0 46 b0 00 20       	b.lwz      r5,0x4000d60(r0)
   83ce6:	2c c7 0a                	b.sw       0x50(r7),r6
   83ce9:	00 e0                   	b.movi     r7,0x0
   83ceb:	25 65 26                	b.lbz      r11,0x64(r5)
   83cee:	00 c0                   	b.movi     r6,0x0
   83cf0:	0f 17                   	b.j        83c93 <i6LP_SocketRemoveGroupAddr+0x5a>
   83cf2:	47 ba c0                	b.reti     0x5,0x3

00083cf5 <i6LP_SocketListGroupAddr>:
   83cf5:	8c e0 46 b0 00 20       	b.lwz      r7,0x4000d60(r0)
   83cfb:	47 a4 20                	b.entri    0x2,0x4
   83cfe:	2c 07 32                	b.sw       0x4c(r7),r0
   83d01:	05 44                   	b.mov      r10,r4
   83d03:	30 81 30                	b.addi     r4,r1,0xc
   83d06:	2c a1 20                	b.sw       0x4(r1),r5
   83d09:	4b 7d ff                	b.jal      83c04 <iCheckSocketParameters.16357>
   83d0c:	2c a1 60                	b.lwz      r5,0x4(r1)
   83d0f:	41 03 f2                	b.bnei     r3,0x0,83d5e <i6LP_SocketListGroupAddr+0x69>
   83d12:	84 e0 4c c0 00 20       	b.lbz      r7,0x4000332(r0)
   83d18:	d3 ce ac 80             	b.bgtu     r7,r10,83d2b <i6LP_SocketListGroupAddr+0x36>
   83d1c:	8c e0 46 b0 00 20       	b.lwz      r7,0x4000d60(r0)
   83d22:	d8 c0 f0 18             	b.addi     r6,r0,0x180f
   83d26:	2c c7 32                	b.sw       0x4c(r7),r6
   83d29:	0e b0                   	b.j        83d5e <i6LP_SocketListGroupAddr+0x69>
   83d2b:	2c e1 70                	b.lwz      r7,0xc(r1)
   83d2e:	2c e7 4a                	b.lwz      r7,0x50(r7)
   83d31:	60 e7 57                	b.srl      r7,r7,r10
   83d34:	34 e7 80                	b.andi     r7,r7,0x1
   83d37:	40 07 98                	b.beqi     r7,0x0,83d50 <i6LP_SocketListGroupAddr+0x5b>
   83d3a:	8c 80 6a 90 00 20       	b.lwz      r4,0x4000954(r0)
   83d40:	6d 4a 20                	b.slli     r10,r10,0x4
   83d43:	04 65                   	b.mov      r3,r5
   83d45:	08 8a                   	b.add      r4,r4,r10
   83d47:	38 a0 08                	b.ori      r5,r0,0x10
   83d4a:	d4 48 c3 ef             	b.jal      5c <memcpy>
   83d4e:	0c c0                   	b.j        83d5a <i6LP_SocketListGroupAddr+0x65>
   83d50:	04 65                   	b.mov      r3,r5
   83d52:	38 a0 08                	b.ori      r5,r0,0x10
   83d55:	00 80                   	b.movi     r4,0x0
   83d57:	49 8e 12                	b.jal      95f1d <memset>
   83d5a:	00 60                   	b.movi     r3,0x0
   83d5c:	0c 80                   	b.j        83d60 <i6LP_SocketListGroupAddr+0x6b>
   83d5e:	00 6f                   	b.movi     r3,-0x1
   83d60:	47 b4 20                	b.reti     0x2,0x4

00083d63 <vGetGroupTable.8601>:
   83d63:	47 ae d0                	b.entri    0x7,0xb
   83d66:	2c 61 20                	b.sw       0x4(r1),r3
   83d69:	05 65                   	b.mov      r11,r5
   83d6b:	2c 01 00                	b.sw       0x0(r1),r0
   83d6e:	01 a0                   	b.movi     r13,0x0
   83d70:	01 c0                   	b.movi     r14,0x0
   83d72:	01 e0                   	b.movi     r15,0x0
   83d74:	01 40                   	b.movi     r10,0x0
   83d76:	01 80                   	b.movi     r12,0x0
   83d78:	8c 60 57 c0 00 20       	b.lwz      r3,0x40003e8(r0)
   83d7e:	30 a1 18                	b.addi     r5,r1,0x18
   83d81:	3e 0e 20                	b.extbz    r4,r14
   83d84:	4a 3b ff                	b.jal      83cf5 <i6LP_SocketListGroupAddr>
   83d87:	d0 40 3c 10             	b.bnei     r3,0x0,83e0a <vGetGroupTable.8601+0xa7>
   83d8b:	24 e1 98                	b.lbz      r7,0x19(r1)
   83d8e:	30 a1 50                	b.addi     r5,r1,0xa
   83d91:	39 00 88                	b.ori      r8,r0,0x11
   83d94:	00 c4                   	b.movi     r6,0x2
   83d96:	20 e1 90                	b.sb       0x9(r1),r7
   83d99:	00 e0                   	b.movi     r7,0x0
   83d9b:	30 81 18                	b.addi     r4,r1,0x18
   83d9e:	08 86                   	b.add      r4,r4,r6
   83da0:	24 84 00                	b.lbz      r4,0x0(r4)
   83da3:	60 64 39                	b.or       r3,r4,r7
   83da6:	40 03 c8                	b.beqi     r3,0x0,83db9 <vGetGroupTable.8601+0x56>
   83da9:	20 85 00                	b.sb       0x0(r5),r4
   83dac:	00 b8                   	b.addi     r5,r5,0x1
   83dae:	41 07 f0                	b.bnei     r7,0x0,83dbd <vGetGroupTable.8601+0x5a>
   83db1:	61 a8 35                	b.sub      r13,r8,r6
   83db4:	3e 0d 68                	b.extbz    r13,r13
   83db7:	0d 80                   	b.j        83dbd <vGetGroupTable.8601+0x5a>
   83db9:	00 e0                   	b.movi     r7,0x0
   83dbb:	0c 80                   	b.j        83dbf <vGetGroupTable.8601+0x5c>
   83dbd:	00 e8                   	b.movi     r7,0x1
   83dbf:	00 d8                   	b.addi     r6,r6,0x1
   83dc1:	3c 26 08                	b.sfnei    r6,0x10
   83dc4:	47 2e bf                	b.bf       83d9b <vGetGroupTable.8601+0x38>
   83dc7:	40 07 c2                	b.beqi     r7,0x0,83e0a <vGetGroupTable.8601+0xa7>
   83dca:	28 eb 80                	b.lhz      r7,0x0(r11)
   83dcd:	d3 ce a0 40             	b.bgtu     r7,r10,83ded <vGetGroupTable.8601+0x8a>
   83dd1:	24 eb 40                	b.lbz      r7,0x2(r11)
   83dd4:	d3 98 79 80             	b.bgeu     r12,r7,83ded <vGetGroupTable.8601+0x8a>
   83dd8:	2c 61 60                	b.lwz      r3,0x4(r1)
   83ddb:	30 81 90                	b.addi     r4,r1,0x9
   83dde:	04 ad                   	b.mov      r5,r13
   83de0:	04 ca                   	b.mov      r6,r10
   83de2:	4a 8a fc                	b.jal      93b27 <eJIP_PacketAddData>
   83de5:	41 03 10                	b.bnei     r3,0x0,83ded <vGetGroupTable.8601+0x8a>
   83de8:	01 98                   	b.addi     r12,r12,0x1
   83dea:	2d 41 00                	b.sw       0x0(r1),r10
   83ded:	2c c1 78                	b.lwz      r6,0x1c(r1)
   83df0:	2c e1 58                	b.lwz      r7,0x18(r1)
   83df3:	01 58                   	b.addi     r10,r10,0x1
   83df5:	60 e6 3a                	b.xor      r7,r6,r7
   83df8:	2c c1 44                	b.lwz      r6,0x20(r1)
   83dfb:	60 e7 32                	b.xor      r7,r7,r6
   83dfe:	2c c1 64                	b.lwz      r6,0x24(r1)
   83e01:	60 e7 32                	b.xor      r7,r7,r6
   83e04:	61 e7 7a                	b.xor      r15,r7,r15
   83e07:	6d ef 83                	b.rori     r15,r15,0x1
   83e0a:	01 d8                   	b.addi     r14,r14,0x1
   83e0c:	3c 2e 04                	b.sfnei    r14,0x20
   83e0f:	47 29 6f                	b.bf       83d78 <vGetGroupTable.8601+0x15>
   83e12:	94 ef ff ff 00 00       	b.andi     r7,r15,0xffff
   83e18:	6d ef 09                	b.srli     r15,r15,0x10
   83e1b:	61 ef 3a                	b.xor      r15,r15,r7
   83e1e:	41 0c 88                	b.bnei     r12,0x0,83e2f <vGetGroupTable.8601+0xcc>
   83e21:	24 eb 40                	b.lbz      r7,0x2(r11)
   83e24:	3e 0a 52                	b.exthz    r10,r10
   83e27:	3c 07 00                	b.sfeqi    r7,0x0
   83e2a:	65 4a 02                	b.cmov     r10,r10,r0
   83e2d:	0e c0                   	b.j        83e3a <vGetGroupTable.8601+0xd7>
   83e2f:	2c e1 40                	b.lwz      r7,0x0(r1)
   83e32:	01 5f                   	b.addi     r10,r10,-0x1
   83e34:	61 4a 3d                	b.sub      r10,r10,r7
   83e37:	3e 0a 52                	b.exthz    r10,r10
   83e3a:	29 eb 60                	b.sh       0x6(r11),r15
   83e3d:	29 4b 20                	b.sh       0x4(r11),r10
   83e40:	47 be d0                	b.reti     0x7,0xb

00083e43 <bIssueACIcommand.constprop.132>:
