
c:/NXP/bstudio_nxp/workspace2/JN-AN-1190-JenNet-IP-Application-Template/Binary/0x11111111s_DeviceDio_DR1199_EndDevice_JN5168.elf:     file format elf32-ba


Disassembly of section .vsr_handlers:

00080050 <_exception_external_interrupt>:
   80050:	30 21 0d                	b.addi     r1,r1,-0x50
   80053:	2c 61 30                	b.sw       0xc(r1),r3
   80056:	2d 41 14                	b.sw       0x28(r1),r10
   80059:	a8 60 04 00 00 00       	b.mfspr    r3,r0,0x20
   8005f:	2c 61 12                	b.sw       0x48(r1),r3
   80062:	a8 60 02 00 00 00       	b.mfspr    r3,r0,0x40
   80068:	2c 61 22                	b.sw       0x44(r1),r3
   8006b:	a8 60 08 12 00 00       	b.mfspr    r3,r0,0x4810
   80071:	2c 61 32                	b.sw       0x4c(r1),r3
   80074:	a8 60 88 12 00 00       	b.mfspr    r3,r0,0x4811
   8007a:	a8 60 08 12 00 01       	b.mtspr    r0,r3,0x4810
   80080:	a9 40 c8 12 00 00       	b.mfspr    r10,r0,0x4813
   80086:	04 01                   	b.ei       
   80088:	2c 41 10                	b.sw       0x8(r1),r2
   8008b:	2c 81 08                	b.sw       0x10(r1),r4
   8008e:	2c a1 28                	b.sw       0x14(r1),r5
   80091:	2c c1 18                	b.sw       0x18(r1),r6
   80094:	2c e1 38                	b.sw       0x1c(r1),r7
   80097:	2d 01 04                	b.sw       0x20(r1),r8
   8009a:	2d 21 24                	b.sw       0x24(r1),r9
   8009d:	d2 94 00 40             	b.beq      r10,r0,800bd <_exception_external_interrupt+0x6d>
   800a1:	3e 0a 24                	b.ff1      r4,r10
   800a4:	61 4a 27                	b.srl      r10,r10,r4
   800a7:	61 4a 26                	b.sll      r10,r10,r4
   800aa:	00 9f                   	b.addi     r4,r4,-0x1
   800ac:	6c e4 40                	b.slli     r7,r4,0x2
   800af:	8c e7 58 f0 00 20       	b.lwz      r7,0x4000f18(r7)
   800b5:	60 60 09                	b.or       r3,r0,r1
   800b8:	47 d1 38                	b.jalr     r7
   800bb:	0d 1f                   	b.j        8009d <_exception_external_interrupt+0x4d>
   800bd:	2c 41 50                	b.lwz      r2,0x8(r1)
   800c0:	2c 61 70                	b.lwz      r3,0xc(r1)
   800c3:	2c a1 68                	b.lwz      r5,0x14(r1)
   800c6:	2c c1 58                	b.lwz      r6,0x18(r1)
   800c9:	2c e1 78                	b.lwz      r7,0x1c(r1)
   800cc:	2d 01 44                	b.lwz      r8,0x20(r1)
   800cf:	2d 21 64                	b.lwz      r9,0x24(r1)
   800d2:	2d 41 54                	b.lwz      r10,0x28(r1)
   800d5:	04 02                   	b.di       
   800d7:	2c 81 62                	b.lwz      r4,0x44(r1)
   800da:	a8 80 02 00 00 01       	b.mtspr    r0,r4,0x40
   800e0:	2c 81 52                	b.lwz      r4,0x48(r1)
   800e3:	a8 80 04 00 00 01       	b.mtspr    r0,r4,0x20
   800e9:	2c 81 72                	b.lwz      r4,0x4c(r1)
   800ec:	a8 80 08 12 00 01       	b.mtspr    r0,r4,0x4810
   800f2:	2c 81 48                	b.lwz      r4,0x10(r1)
   800f5:	30 21 0a                	b.addi     r1,r1,0x50

000800f8 <_default_vsr_dummy>:
   800f8:	04 00                   	b.rfe      

Disassembly of section .text:

00080758 <Device_vPdmInit>:
   80758:	47 ae b8                	b.entri    0x7,0x1d
   8075b:	8c e0 5c a0 00 20       	b.lwz      r7,0x4000538(r0)
   80761:	85 60 3c a0 00 20       	b.lbz      r11,0x400053c(r0)
   80767:	cc d0 60 01             	b.lwz      r6,-0x7ffc(r16)
   8076b:	34 c6 40                	b.andi     r6,r6,0x2
   8076e:	a0 40 67 e1 00 00       	b.bnei     r6,0x0,80fec <Device_vPdmInit+0x894>
   80774:	3e 07 38                	b.extbz    r7,r7
   80777:	30 cb ff                	b.addi     r6,r11,-0x1
   8077a:	30 a7 ff                	b.addi     r5,r7,-0x1
   8077d:	60 c5 31                	b.or       r6,r5,r6
   80780:	a1 40 6b c1 00 00       	b.bltsi    r6,0x0,80fbd <Device_vPdmInit+0x865>
   80786:	38 80 38                	b.ori      r4,r0,0x1c
   80789:	98 c0 39 a0 00 20       	b.ori      r6,r0,0x400059c
   8078f:	00 a8                   	b.movi     r5,0x1
   80791:	8c 60 45 a0 00 20       	b.lwz      r3,0x40005a0(r0)
   80797:	64 8b 23                	b.mul      r4,r11,r4
   8079a:	80 e0 39 a0 00 20       	b.sb       0x400059c(r0),r7
   807a0:	8c c0 0b d0 00 20       	b.sw       0x4000bd0(r0),r6
   807a6:	81 60 b9 a0 00 20       	b.sb       0x400059d(r0),r11
   807ac:	81 60 25 a0 00 20       	b.sb       0x40005a4(r0),r11
   807b2:	4a 14 b0                	b.jal      83c53 <pvHeap_Alloc>
   807b5:	8d 40 4b d0 00 20       	b.lwz      r10,0x4000bd0(r0)
   807bb:	8c 60 05 a0 00 20       	b.sw       0x40005a0(r0),r3
   807c1:	2c ea 60                	b.lwz      r7,0x4(r10)
   807c4:	d0 00 79 fe             	b.beqi     r7,0x0,80fbd <Device_vPdmInit+0x865>
   807c8:	24 8a 00                	b.lbz      r4,0x0(r10)
   807cb:	2c 6a 78                	b.lwz      r3,0x1c(r10)
   807ce:	30 84 0f                	b.addi     r4,r4,-0x10
   807d1:	00 a8                   	b.movi     r5,0x1
   807d3:	48 04 b0                	b.jal      83c53 <pvHeap_Alloc>
   807d6:	2c 6a 38                	b.sw       0x1c(r10),r3
   807d9:	8d 40 4b d0 00 20       	b.lwz      r10,0x4000bd0(r0)
   807df:	2c ea 78                	b.lwz      r7,0x1c(r10)
   807e2:	d0 00 7d be             	b.beqi     r7,0x0,80fbd <Device_vPdmInit+0x865>
   807e6:	2c 6a 44                	b.lwz      r3,0x20(r10)
   807e9:	38 80 08                	b.ori      r4,r0,0x10
   807ec:	00 a8                   	b.movi     r5,0x1
   807ee:	4a 98 b0                	b.jal      83c53 <pvHeap_Alloc>
   807f1:	8c e0 4b d0 00 20       	b.lwz      r7,0x4000bd0(r0)
   807f7:	2c 6a 04                	b.sw       0x20(r10),r3
   807fa:	2c c7 44                	b.lwz      r6,0x20(r7)
   807fd:	d0 00 60 3e             	b.beqi     r6,0x0,80fbd <Device_vPdmInit+0x865>
   80801:	2c 07 30                	b.sw       0xc(r7),r0
   80804:	99 80 00 64 9a 82       	b.ori      r12,r0,0x41592600
   8080a:	01 40                   	b.movi     r10,0x0
   8080c:	2c 07 08                	b.sw       0x10(r7),r0
   8080f:	2c 07 28                	b.sw       0x14(r7),r0
   80812:	2c 07 18                	b.sw       0x18(r7),r0
   80815:	20 07 21                	b.sb       0x84(r7),r0
   80818:	30 81 06                	b.addi     r4,r1,0x60
   8081b:	3e 0a 18                	b.extbz    r3,r10
   8081e:	20 61 3a                	b.sb       0x5c(r1),r3
   80821:	49 f1 14                	b.jal      8aa5f <iPDM_ReadSegmentHeaderFromEEPROM>
   80824:	24 e1 d6                	b.lbz      r7,0x6b(r1)
   80827:	3c 27 8c                	b.sfnei    r7,0x31
   8082a:	47 29 80                	b.bf       80843 <Device_vPdmInit+0xeb>
   8082d:	2c c1 76                	b.lwz      r6,0x6c(r1)
   80830:	94 c6 00 ff ff ff       	b.andi     r6,r6,0xffffff00
   80836:	60 c6 62                	b.xor      r6,r6,r12
   80839:	3e 06 34                	b.ff1      r6,r6
   8083c:	00 df                   	b.addi     r6,r6,-0x1
   8083e:	6c c6 f9                	b.srli     r6,r6,0x1f
   80841:	0c 80                   	b.j        80845 <Device_vPdmInit+0xed>
   80843:	00 c0                   	b.movi     r6,0x0
   80845:	01 58                   	b.addi     r10,r10,0x1
   80847:	8c e0 4b d0 00 20       	b.lwz      r7,0x4000bd0(r0)
   8084d:	a0 20 66 4d 00 00       	b.beqi     r6,0x1,81373 <Device_vPdmInit+0xc1b>
   80853:	24 e7 80                	b.lbz      r7,0x1(r7)
   80856:	d3 4e a4 3f             	b.bgts     r7,r10,80818 <Device_vPdmInit+0xc0>
   8085a:	01 40                   	b.movi     r10,0x0
   8085c:	01 aa                   	b.movi     r13,0x5
   8085e:	0d f0                   	b.j        8089c <Device_vPdmInit+0x144>
   80860:	3e 0a 60                	b.extbz    r12,r10
   80863:	04 6c                   	b.mov      r3,r12
   80865:	4b 52 8c                	b.jal      8cd90 <bPDM_IsEEPROMsegmentErased>
   80868:	41 03 4c                	b.bnei     r3,0x0,8089a <Device_vPdmInit+0x142>
   8086b:	48 82 14                	b.jal      8a96f <bPDM_InitialiseEEPROM>
   8086e:	6c ea 60                	b.slli     r7,r10,0x6
   80871:	04 6c                   	b.mov      r3,r12
   80873:	8c e0 21 00 00 80       	b.sw       0x1000084(r0),r7
   80879:	8d a0 01 00 00 80       	b.sw       0x1000080(r0),r13
   8087f:	8c 00 11 00 00 80       	b.sw       0x1000088(r0),r0
   80885:	8c 00 11 00 00 80       	b.sw       0x1000088(r0),r0
   8088b:	8c 00 11 00 00 80       	b.sw       0x1000088(r0),r0
   80891:	8c 00 11 00 00 80       	b.sw       0x1000088(r0),r0
   80897:	49 64 14                	b.jal      8a931 <vPDM_WriteEEPROMfixSegmentData>
   8089a:	01 58                   	b.addi     r10,r10,0x1
   8089c:	8c e0 4b d0 00 20       	b.lwz      r7,0x4000bd0(r0)
   808a2:	24 c7 80                	b.lbz      r6,0x1(r7)
   808a5:	d3 4c ad df             	b.bgts     r6,r10,80860 <Device_vPdmInit+0x108>
   808a9:	2c 07 30                	b.sw       0xc(r7),r0
   808ac:	01 40                   	b.movi     r10,0x0
   808ae:	2c 07 08                	b.sw       0x10(r7),r0
   808b1:	39 a0 38                	b.ori      r13,r0,0x1c
   808b4:	2c 07 28                	b.sw       0x14(r7),r0
   808b7:	2c 07 18                	b.sw       0x18(r7),r0
   808ba:	0c 30                   	b.j        808ea <Device_vPdmInit+0x192>
   808bc:	65 8a 6b                	b.mul      r12,r10,r13
   808bf:	2c c7 60                	b.lwz      r6,0x4(r7)
   808c2:	38 a0 08                	b.ori      r5,r0,0x10
   808c5:	08 cc                   	b.add      r6,r6,r12
   808c7:	00 80                   	b.movi     r4,0x0
   808c9:	21 46 10                	b.sb       0x8(r6),r10
   808cc:	01 58                   	b.addi     r10,r10,0x1
   808ce:	2c 67 60                	b.lwz      r3,0x4(r7)
   808d1:	08 6c                   	b.add      r3,r3,r12
   808d3:	30 63 30                	b.addi     r3,r3,0xc
   808d6:	4b 89 ca                	b.jal      9571d <memset>
   808d9:	8c 60 4b d0 00 20       	b.lwz      r3,0x4000bd0(r0)
   808df:	2c 83 60                	b.lwz      r4,0x4(r3)
   808e2:	30 63 28                	b.addi     r3,r3,0x14
   808e5:	08 8c                   	b.add      r4,r4,r12
   808e7:	48 1b e4                	b.jal      8a847 <vDLISTaddToTail>
   808ea:	8c e0 4b d0 00 20       	b.lwz      r7,0x4000bd0(r0)
   808f0:	24 c7 80                	b.lbz      r6,0x1(r7)
   808f3:	d3 4c a9 3f             	b.bgts     r6,r10,808bc <Device_vPdmInit+0x164>
   808f7:	20 c7 10                	b.sb       0x8(r7),r6
   808fa:	46 c3 60                	b.j        80fbd <Device_vPdmInit+0x865>
   808fd:	65 ac 73                	b.mul      r13,r12,r14
   80900:	2c c7 60                	b.lwz      r6,0x4(r7)
   80903:	3e 0c 18                	b.extbz    r3,r12
   80906:	08 cd                   	b.add      r6,r6,r13
   80908:	20 66 10                	b.sb       0x8(r6),r3
   8090b:	2c 87 60                	b.lwz      r4,0x4(r7)
   8090e:	08 8d                   	b.add      r4,r4,r13
   80910:	30 84 30                	b.addi     r4,r4,0xc
   80913:	48 ca 14                	b.jal      8aa5f <iPDM_ReadSegmentHeaderFromEEPROM>
   80916:	8c a0 4b d0 00 20       	b.lwz      r5,0x4000bd0(r0)
   8091c:	2c 85 60                	b.lwz      r4,0x4(r5)
   8091f:	61 44 6c                	b.add      r10,r4,r13
   80922:	d0 00 a3 90             	b.beqi     r10,0x0,809be <Device_vPdmInit+0x266>
   80926:	24 ea e8                	b.lbz      r7,0x17(r10)
   80929:	41 07 28                	b.bnei     r7,0x0,8093d <Device_vPdmInit+0x1e5>
   8092c:	2c ea 58                	b.lwz      r7,0x18(r10)
   8092f:	94 e7 00 ff ff ff       	b.andi     r7,r7,0xffffff00
   80935:	a0 40 7f 0d 00 00       	b.bnei     r7,0x0,81444 <Device_vPdmInit+0xcec>
   8093b:	0e a4                   	b.j        809d0 <Device_vPdmInit+0x278>
   8093d:	3c 27 8c                	b.sfnei    r7,0x31
   80940:	d6 20 d0 00             	b.bf       81444 <Device_vPdmInit+0xcec>
   80944:	2c ea 58                	b.lwz      r7,0x18(r10)
   80947:	94 e7 00 ff ff ff       	b.andi     r7,r7,0xffffff00
   8094d:	9d 87 00 64 9a 82       	b.sfeqi    r7,0x41592600
   80953:	47 2b e0                	b.bf       809d0 <Device_vPdmInit+0x278>
   80956:	46 77 50                	b.j        81444 <Device_vPdmInit+0xcec>
   80959:	d2 8e 84 80             	b.beq      r7,r8,8096b <Device_vPdmInit+0x213>
   8095d:	64 a7 73                	b.mul      r5,r7,r14
   80960:	08 a4                   	b.add      r5,r5,r4
   80962:	2c a5 70                	b.lwz      r5,0xc(r5)
   80965:	3d a6 28                	b.sfgeu    r6,r5
   80968:	64 c6 2a                	b.cmov     r6,r6,r5
   8096b:	00 f8                   	b.addi     r7,r7,0x1
   8096d:	d3 46 73 7f             	b.bgts     r3,r7,80959 <Device_vPdmInit+0x201>
   80971:	2c aa 70                	b.lwz      r5,0xc(r10)
   80974:	d8 e6 13 00             	b.addi     r7,r6,0xc8
   80978:	d3 8e 56 20             	b.bgeu     r7,r5,809be <Device_vPdmInit+0x266>
   8097c:	00 d8                   	b.addi     r6,r6,0x1
   8097e:	00 88                   	b.movi     r4,0x1
   80980:	2c ca 30                	b.sw       0xc(r10),r6
   80983:	04 6a                   	b.mov      r3,r10
   80985:	49 72 14                	b.jal      8aabf <iPDM_SetVerifyBytesInFileSystemRecord>
   80988:	24 ca 10                	b.lbz      r6,0x8(r10)
   8098b:	2c ea 70                	b.lwz      r7,0xc(r10)
   8098e:	6c c6 60                	b.slli     r6,r6,0x6
   80991:	04 6a                   	b.mov      r3,r10
   80993:	8c c0 21 00 00 80       	b.sw       0x1000084(r0),r6
   80999:	00 80                   	b.movi     r4,0x0
   8099b:	8d e0 01 00 00 80       	b.sw       0x1000080(r0),r15
   809a1:	8c e0 11 00 00 80       	b.sw       0x1000088(r0),r7
   809a7:	48 62 14                	b.jal      8aabf <iPDM_SetVerifyBytesInFileSystemRecord>
   809aa:	8c e0 4b d0 00 20       	b.lwz      r7,0x4000bd0(r0)
   809b0:	2c e7 7a                	b.lwz      r7,0x5c(r7)
   809b3:	40 07 d0                	b.beqi     r7,0x0,809be <Device_vPdmInit+0x266>
   809b6:	24 6a 10                	b.lbz      r3,0x8(r10)
   809b9:	00 8c                   	b.movi     r4,0x3
   809bb:	47 d1 38                	b.jalr     r7
   809be:	8c a0 4b d0 00 20       	b.lwz      r5,0x4000bd0(r0)
   809c4:	00 80                   	b.movi     r4,0x0
   809c6:	2c 65 60                	b.lwz      r3,0x4(r5)
   809c9:	30 a5 28                	b.addi     r5,r5,0x14
   809cc:	08 6d                   	b.add      r3,r3,r13
   809ce:	0d d8                   	b.j        80a3c <Device_vPdmInit+0x2e4>
   809d0:	24 ea a8                	b.lbz      r7,0x15(r10)
   809d3:	00 ff                   	b.addi     r7,r7,-0x1
   809d5:	3e 07 38                	b.extbz    r7,r7
   809d8:	3c a7 50                	b.sfgtui   r7,0xa
   809db:	47 25 a0                	b.bf       80a35 <Device_vPdmInit+0x2dd>
   809de:	6c e7 40                	b.slli     r7,r7,0x2
   809e1:	90 e7 0f 90 10 00       	b.addi     r7,r7,0x809f0
   809e7:	2c e7 40                	b.lwz      r7,0x0(r7)
   809ea:	47 d2 38                	b.jr       r7
   809ed:	00 00                   	b.trap     0x0
   809ef:	00 00                   	b.trap     0x0
   809f1:	08 0a                   	b.add      r0,r0,r10
   809f3:	1c                      	.word 0x1c
   809f4:	00 08                   	b.trap     0x1
   809f6:	0a 2b                   	b.add      r17,r17,r11
   809f8:	00 08                   	b.trap     0x1
   809fa:	0a 21                   	b.add      r17,r17,r1
   809fc:	00 08                   	b.trap     0x1
   809fe:	0a 30                   	b.add      r17,r17,r16
   80a00:	00 08                   	b.trap     0x1
   80a02:	0a 35                   	b.add      r17,r17,r21
   80a04:	00 08                   	b.trap     0x1
   80a06:	0a 30                   	b.add      r17,r17,r16
   80a08:	00 08                   	b.trap     0x1
   80a0a:	0a 30                   	b.add      r17,r17,r16
   80a0c:	00 08                   	b.trap     0x1
   80a0e:	0a 26                   	b.add      r17,r17,r6
   80a10:	00 08                   	b.trap     0x1
   80a12:	0a 26                   	b.add      r17,r17,r6
   80a14:	00 08                   	b.trap     0x1
   80a16:	0a 26                   	b.add      r17,r17,r6
   80a18:	00 08                   	b.trap     0x1
   80a1a:	0a 26                   	b.add      r17,r17,r6
   80a1c:	30 a5 24                	b.addi     r5,r5,0x24
   80a1f:	0e 60                   	b.j        80a38 <Device_vPdmInit+0x2e0>
   80a21:	30 a5 3c                	b.addi     r5,r5,0x3c
   80a24:	0c a0                   	b.j        80a38 <Device_vPdmInit+0x2e0>
   80a26:	30 a5 22                	b.addi     r5,r5,0x44
   80a29:	0f c0                   	b.j        80a38 <Device_vPdmInit+0x2e0>
   80a2b:	30 a5 34                	b.addi     r5,r5,0x2c
   80a2e:	0d 40                   	b.j        80a38 <Device_vPdmInit+0x2e0>
   80a30:	30 a5 2c                	b.addi     r5,r5,0x34
   80a33:	0e 80                   	b.j        80a38 <Device_vPdmInit+0x2e0>
   80a35:	30 a5 28                	b.addi     r5,r5,0x14
   80a38:	04 6a                   	b.mov      r3,r10
   80a3a:	00 80                   	b.movi     r4,0x0
   80a3c:	01 98                   	b.addi     r12,r12,0x1
   80a3e:	4b 47 c8                	b.jal      859c9 <vPDM_AddFileSystemElementToListInAscendingWearCountOrder>
   80a41:	8c e0 4b d0 00 20       	b.lwz      r7,0x4000bd0(r0)
   80a47:	24 c7 80                	b.lbz      r6,0x1(r7)
   80a4a:	d3 4c cc d7             	b.bgts     r6,r12,808fd <Device_vPdmInit+0x1a5>
   80a4e:	2c 01 32                	b.sw       0x4c(r1),r0
   80a51:	2c 01 0a                	b.sw       0x50(r1),r0
   80a54:	0c 42                   	b.j        80b5c <Device_vPdmInit+0x404>
   80a56:	28 67 88                	b.lhz      r3,0x10(r7)
   80a59:	30 e1 32                	b.addi     r7,r1,0x4c
   80a5c:	38 a0 70                	b.ori      r5,r0,0xe
   80a5f:	30 c1 28                	b.addi     r6,r1,0x14
   80a62:	31 08 3c                	b.addi     r8,r8,0x3c
   80a65:	00 84                   	b.movi     r4,0x2
   80a67:	2c e1 00                	b.sw       0x0(r1),r7
   80a6a:	30 e1 18                	b.addi     r7,r1,0x18
   80a6d:	4b f2 38                	b.jal      87bac <vPDM_MoveAllDataWithBufferIdFromListToList>
   80a70:	2d 81 72                	b.lwz      r12,0x4c(r1)
   80a73:	d0 00 cc 70             	b.beqi     r12,0x0,80b56 <Device_vPdmInit+0x3fe>
   80a77:	01 c8                   	b.movi     r14,0x1
   80a79:	01 40                   	b.movi     r10,0x0
   80a7b:	01 a0                   	b.movi     r13,0x0
   80a7d:	8c e0 4b d0 00 20       	b.lwz      r7,0x4000bd0(r0)
   80a83:	30 a1 38                	b.addi     r5,r1,0x1c
   80a86:	04 6c                   	b.mov      r3,r12
   80a88:	2c 87 78                	b.lwz      r4,0x1c(r7)
   80a8b:	48 e5 a2                	b.jal      92127 <iPDM_ReadUserDataFromFileSystemRecord>
   80a8e:	8c e0 4b d0 00 20       	b.lwz      r7,0x4000bd0(r0)
   80a94:	2c 87 78                	b.lwz      r4,0x1c(r7)
   80a97:	24 e4 00                	b.lbz      r7,0x0(r4)
   80a9a:	00 f8                   	b.addi     r7,r7,0x1
   80a9c:	08 e4                   	b.add      r7,r7,r4
   80a9e:	24 c7 00                	b.lbz      r6,0x0(r7)
   80aa1:	20 c1 08                	b.sb       0x10(r1),r6
   80aa4:	24 e7 80                	b.lbz      r7,0x1(r7)
   80aa7:	20 e1 88                	b.sb       0x11(r1),r7
   80aaa:	28 e1 88                	b.lhz      r7,0x10(r1)
   80aad:	d3 ce d4 80             	b.bgtu     r7,r13,80abf <Device_vPdmInit+0x367>
   80ab1:	3c 2e 80                	b.sfnei    r14,0x1
   80ab4:	65 4a 62                	b.cmov     r10,r10,r12
   80ab7:	3c 2e 80                	b.sfnei    r14,0x1
   80aba:	65 ad 3a                	b.cmov     r13,r13,r7
   80abd:	0d 80                   	b.j        80ac3 <Device_vPdmInit+0x36b>
   80abf:	05 4c                   	b.mov      r10,r12
   80ac1:	05 a7                   	b.mov      r13,r7
   80ac3:	2d 8c 40                	b.lwz      r12,0x0(r12)
   80ac6:	01 c0                   	b.movi     r14,0x0
   80ac8:	41 0c ad                	b.bnei     r12,0x0,80a7d <Device_vPdmInit+0x325>
   80acb:	30 a1 04                	b.addi     r5,r1,0x20
   80ace:	04 6a                   	b.mov      r3,r10
   80ad0:	4b a9 a2                	b.jal      92127 <iPDM_ReadUserDataFromFileSystemRecord>
   80ad3:	8c e0 4b d0 00 20       	b.lwz      r7,0x4000bd0(r0)
   80ad9:	24 81 04                	b.lbz      r4,0x20(r1)
   80adc:	2c e7 78                	b.lwz      r7,0x1c(r7)
   80adf:	25 a7 00                	b.lbz      r13,0x0(r7)
   80ae2:	30 cd 80                	b.addi     r6,r13,0x1
   80ae5:	08 c7                   	b.add      r6,r6,r7
   80ae7:	24 a6 00                	b.lbz      r5,0x0(r6)
   80aea:	20 a1 48                	b.sb       0x12(r1),r5
   80aed:	24 c6 80                	b.lbz      r6,0x1(r6)
   80af0:	20 c1 c8                	b.sb       0x13(r1),r6
   80af3:	40 0d 5c                	b.beqi     r13,0x0,80b2d <Device_vPdmInit+0x3d5>
   80af6:	30 6d c0                	b.addi     r3,r13,0x3
   80af9:	3e 03 18                	b.extbz    r3,r3
   80afc:	08 67                   	b.add      r3,r3,r7
   80afe:	00 c8                   	b.movi     r6,0x1
   80b00:	60 e3 64                	b.add      r7,r3,r12
   80b03:	24 e7 00                	b.lbz      r7,0x0(r7)
   80b06:	41 87 d0                	b.bnei     r7,0x1,80b11 <Device_vPdmInit+0x3b9>
   80b09:	01 98                   	b.addi     r12,r12,0x1
   80b0b:	00 a0                   	b.movi     r5,0x0
   80b0d:	00 e0                   	b.movi     r7,0x0
   80b0f:	0d c0                   	b.j        80b1d <Device_vPdmInit+0x3c5>
   80b11:	3c 27 00                	b.sfnei    r7,0x0
   80b14:	64 a0 32                	b.cmov     r5,r0,r6
   80b17:	3c 27 00                	b.sfnei    r7,0x0
   80b1a:	64 e6 02                	b.cmov     r7,r6,r0
   80b1d:	60 a7 29                	b.or       r5,r7,r5
   80b20:	40 05 90                	b.beqi     r5,0x0,80b29 <Device_vPdmInit+0x3d1>
   80b23:	41 87 50                	b.bnei     r7,0x1,80b2d <Device_vPdmInit+0x3d5>
   80b26:	46 ae 10                	b.j        8139b <Device_vPdmInit+0xc43>
   80b29:	d3 48 ce bf             	b.bgts     r4,r12,80b00 <Device_vPdmInit+0x3a8>
   80b2d:	8c c0 4b d0 00 20       	b.lwz      r6,0x4000bd0(r0)
   80b33:	38 80 70                	b.ori      r4,r0,0xe
   80b36:	30 a1 32                	b.addi     r5,r1,0x4c
   80b39:	30 c6 30                	b.addi     r6,r6,0xc
   80b3c:	04 6a                   	b.mov      r3,r10
   80b3e:	48 3c 38                	b.jal      87c2e <vPDM_MoveFileRecordFromListToList>
   80b41:	8c c0 4b d0 00 20       	b.lwz      r6,0x4000bd0(r0)
   80b47:	38 60 70                	b.ori      r3,r0,0xe
   80b4a:	30 81 04                	b.addi     r4,r1,0x20
   80b4d:	30 a1 32                	b.addi     r5,r1,0x4c
   80b50:	30 c6 28                	b.addi     r6,r6,0x14
   80b53:	4b e0 38                	b.jal      87b72 <vPDM_MoveAllDataFromListToList>
   80b56:	8c e0 4b d0 00 20       	b.lwz      r7,0x4000bd0(r0)
   80b5c:	2c e7 7c                	b.lwz      r7,0x3c(r7)
   80b5f:	8d 00 4b d0 00 20       	b.lwz      r8,0x4000bd0(r0)
   80b65:	d0 40 78 f7             	b.bnei     r7,0x0,80a56 <Device_vPdmInit+0x2fe>
   80b69:	2c 01 32                	b.sw       0x4c(r1),r0
   80b6c:	2c 01 0a                	b.sw       0x50(r1),r0
   80b6f:	2c e8 6c                	b.lwz      r7,0x34(r8)
   80b72:	0c b0                   	b.j        80ba6 <Device_vPdmInit+0x44e>
   80b74:	28 67 88                	b.lhz      r3,0x10(r7)
   80b77:	24 87 68                	b.lbz      r4,0x16(r7)
   80b7a:	31 41 32                	b.addi     r10,r1,0x4c
   80b7d:	30 e1 04                	b.addi     r7,r1,0x20
   80b80:	38 a0 70                	b.ori      r5,r0,0xe
   80b83:	30 c1 38                	b.addi     r6,r1,0x1c
   80b86:	31 08 2c                	b.addi     r8,r8,0x34
   80b89:	2d 41 00                	b.sw       0x0(r1),r10
   80b8c:	48 10 38                	b.jal      87bac <vPDM_MoveAllDataWithBufferIdFromListToList>
   80b8f:	8c 80 4b d0 00 20       	b.lwz      r4,0x4000bd0(r0)
   80b95:	04 6a                   	b.mov      r3,r10
   80b97:	30 84 30                	b.addi     r4,r4,0xc
   80b9a:	48 fb ac                	b.jal      8e316 <iPDM_ReconstructReplacedDataTable>
   80b9d:	8c e0 4b d0 00 20       	b.lwz      r7,0x4000bd0(r0)
   80ba3:	2c e7 6c                	b.lwz      r7,0x34(r7)
   80ba6:	8d 00 4b d0 00 20       	b.lwz      r8,0x4000bd0(r0)
   80bac:	41 07 13                	b.bnei     r7,0x0,80b74 <Device_vPdmInit+0x41c>
   80baf:	2c 01 24                	b.sw       0x24(r1),r0
   80bb2:	2c 01 14                	b.sw       0x28(r1),r0
   80bb5:	2d 48 74                	b.lwz      r10,0x2c(r8)
   80bb8:	46 83 40                	b.j        80e79 <Device_vPdmInit+0x721>
   80bbb:	28 6a 88                	b.lhz      r3,0x10(r10)
   80bbe:	24 8a 68                	b.lbz      r4,0x16(r10)
   80bc1:	30 e1 24                	b.addi     r7,r1,0x24
   80bc4:	38 a0 70                	b.ori      r5,r0,0xe
   80bc7:	30 c1 b0                	b.addi     r6,r1,0xd
   80bca:	31 08 34                	b.addi     r8,r8,0x2c
   80bcd:	31 c1 04                	b.addi     r14,r1,0x20
   80bd0:	2c e1 00                	b.sw       0x0(r1),r7
   80bd3:	30 e1 70                	b.addi     r7,r1,0xe
   80bd6:	49 af d8                	b.jal      87bac <vPDM_MoveAllDataWithBufferIdFromListToList>
   80bd9:	8c c0 4b d0 00 20       	b.lwz      r6,0x4000bd0(r0)
   80bdf:	28 6a 88                	b.lhz      r3,0x10(r10)
   80be2:	38 a0 ff                	b.ori      r5,r0,0xff
   80be5:	30 c6 30                	b.addi     r6,r6,0xc
   80be8:	00 84                   	b.movi     r4,0x2
   80bea:	04 ee                   	b.mov      r7,r14
   80bec:	4a c0 22                	b.jal      91bf9 <iPDM_SearchForBufferIdInList>
   80bef:	8d 80 4b d0 00 20       	b.lwz      r12,0x4000bd0(r0)
   80bf5:	41 03 48                	b.bnei     r3,0x0,80c07 <Device_vPdmInit+0x4af>
   80bf8:	28 6a 88                	b.lhz      r3,0x10(r10)
   80bfb:	24 8a 68                	b.lbz      r4,0x16(r10)
   80bfe:	30 ac 34                	b.addi     r5,r12,0x2c
   80c01:	48 cc 68                	b.jal      864cd <iPDM_DeleteAppendedSequence>
   80c04:	46 36 40                	b.j        80e70 <Device_vPdmInit+0x718>
   80c07:	2d 41 64                	b.lwz      r10,0x24(r1)
   80c0a:	2c 01 34                	b.sw       0x2c(r1),r0
   80c0d:	2c 01 0c                	b.sw       0x30(r1),r0
   80c10:	2c 01 2c                	b.sw       0x34(r1),r0
   80c13:	2c 01 1c                	b.sw       0x38(r1),r0
   80c16:	2c 01 3c                	b.sw       0x3c(r1),r0
   80c19:	2c 01 02                	b.sw       0x40(r1),r0
   80c1c:	2c 01 22                	b.sw       0x44(r1),r0
   80c1f:	2c 01 12                	b.sw       0x48(r1),r0
   80c22:	2c 01 32                	b.sw       0x4c(r1),r0
   80c25:	2c 01 0a                	b.sw       0x50(r1),r0
   80c28:	d0 00 a4 10             	b.beqi     r10,0x0,80caa <Device_vPdmInit+0x552>
   80c2c:	01 a0                   	b.movi     r13,0x0
   80c2e:	20 01 38                	b.sb       0x1c(r1),r0
   80c31:	0c e0                   	b.j        80c4d <Device_vPdmInit+0x4f5>
   80c33:	2c 61 44                	b.lwz      r3,0x20(r1)
   80c36:	38 80 70                	b.ori      r4,r0,0xe
   80c39:	30 a1 24                	b.addi     r5,r1,0x24
   80c3c:	30 c1 22                	b.addi     r6,r1,0x44
   80c3f:	4b df d8                	b.jal      87c2e <vPDM_MoveFileRecordFromListToList>
   80c42:	24 e1 38                	b.lbz      r7,0x1c(r1)
   80c45:	2d a1 44                	b.lwz      r13,0x20(r1)
   80c48:	00 f8                   	b.addi     r7,r7,0x1
   80c4a:	20 e1 38                	b.sb       0x1c(r1),r7
   80c4d:	28 6a 88                	b.lhz      r3,0x10(r10)
   80c50:	24 8a 68                	b.lbz      r4,0x16(r10)
   80c53:	24 aa c8                	b.lbz      r5,0x13(r10)
   80c56:	30 c1 24                	b.addi     r6,r1,0x24
   80c59:	04 ee                   	b.mov      r7,r14
   80c5b:	49 e7 c2                	b.jal      91bf9 <iPDM_SearchForBufferIdInList>
   80c5e:	40 03 ab                	b.beqi     r3,0x0,80c33 <Device_vPdmInit+0x4db>
   80c61:	24 e1 38                	b.lbz      r7,0x1c(r1)
   80c64:	40 07 8c                	b.beqi     r7,0x0,80c95 <Device_vPdmInit+0x53d>
   80c67:	40 87 b0                	b.beqi     r7,0x1,80c74 <Device_vPdmInit+0x51c>
   80c6a:	30 61 22                	b.addi     r3,r1,0x44
   80c6d:	04 8e                   	b.mov      r4,r14
   80c6f:	4b 12 c8                	b.jal      85992 <iPDM_FilterDuplicateAppendedSegmentsOnList.7507>
   80c72:	0e 80                   	b.j        80c77 <Device_vPdmInit+0x51f>
   80c74:	2d a1 04                	b.sw       0x20(r1),r13
   80c77:	2c 61 44                	b.lwz      r3,0x20(r1)
   80c7a:	38 80 70                	b.ori      r4,r0,0xe
   80c7d:	30 a1 22                	b.addi     r5,r1,0x44
   80c80:	30 c1 32                	b.addi     r6,r1,0x4c
   80c83:	4b 57 d8                	b.jal      87c2e <vPDM_MoveFileRecordFromListToList>
   80c86:	38 60 70                	b.ori      r3,r0,0xe
   80c89:	30 81 38                	b.addi     r4,r1,0x1c
   80c8c:	30 a1 22                	b.addi     r5,r1,0x44
   80c8f:	30 c1 34                	b.addi     r6,r1,0x2c
   80c92:	48 1d d8                	b.jal      87b72 <vPDM_MoveAllDataFromListToList>
   80c95:	2d 41 64                	b.lwz      r10,0x24(r1)
   80c98:	41 0a 69                	b.bnei     r10,0x0,80c2e <Device_vPdmInit+0x4d6>
   80c9b:	38 60 70                	b.ori      r3,r0,0xe
   80c9e:	30 81 38                	b.addi     r4,r1,0x1c
   80ca1:	30 a1 32                	b.addi     r5,r1,0x4c
   80ca4:	30 c1 24                	b.addi     r6,r1,0x24
   80ca7:	4b 4d d8                	b.jal      87b72 <vPDM_MoveAllDataFromListToList>
   80caa:	2c e1 64                	b.lwz      r7,0x24(r1)
   80cad:	8d 00 4b d0 00 20       	b.lwz      r8,0x4000bd0(r0)
   80cb3:	28 67 88                	b.lhz      r3,0x10(r7)
   80cb6:	24 87 68                	b.lbz      r4,0x16(r7)
   80cb9:	31 a1 3c                	b.addi     r13,r1,0x3c
   80cbc:	38 a0 70                	b.ori      r5,r0,0xe
   80cbf:	30 c1 38                	b.addi     r6,r1,0x1c
   80cc2:	30 e1 18                	b.addi     r7,r1,0x18
   80cc5:	31 08 24                	b.addi     r8,r8,0x24
   80cc8:	2d a1 00                	b.sw       0x0(r1),r13
   80ccb:	4a 1d d8                	b.jal      87bac <vPDM_MoveAllDataWithBufferIdFromListToList>
   80cce:	2d 41 64                	b.lwz      r10,0x24(r1)
   80cd1:	0f 90                   	b.j        80cf8 <Device_vPdmInit+0x5a0>
   80cd3:	28 6a 88                	b.lhz      r3,0x10(r10)
   80cd6:	24 8a 68                	b.lbz      r4,0x16(r10)
   80cd9:	24 aa c8                	b.lbz      r5,0x13(r10)
   80cdc:	30 e1 04                	b.addi     r7,r1,0x20
   80cdf:	04 cd                   	b.mov      r6,r13
   80ce1:	48 63 c2                	b.jal      91bf9 <iPDM_SearchForBufferIdInList>
   80ce4:	41 03 88                	b.bnei     r3,0x0,80cf5 <Device_vPdmInit+0x59d>
   80ce7:	2c 61 44                	b.lwz      r3,0x20(r1)
   80cea:	38 80 70                	b.ori      r4,r0,0xe
   80ced:	30 c1 2c                	b.addi     r6,r1,0x34
   80cf0:	04 ad                   	b.mov      r5,r13
   80cf2:	48 f3 d8                	b.jal      87c2e <vPDM_MoveFileRecordFromListToList>
   80cf5:	2d 4a 40                	b.lwz      r10,0x0(r10)
   80cf8:	41 0a db                	b.bnei     r10,0x0,80cd3 <Device_vPdmInit+0x57b>
   80cfb:	38 60 70                	b.ori      r3,r0,0xe
   80cfe:	30 81 38                	b.addi     r4,r1,0x1c
   80d01:	30 c1 24                	b.addi     r6,r1,0x24
   80d04:	04 ad                   	b.mov      r5,r13
   80d06:	48 d9 d8                	b.jal      87b72 <vPDM_MoveAllDataFromListToList>
   80d09:	30 a1 24                	b.addi     r5,r1,0x24
   80d0c:	38 60 70                	b.ori      r3,r0,0xe
   80d0f:	30 81 f0                	b.addi     r4,r1,0xf
   80d12:	04 c5                   	b.mov      r6,r5
   80d14:	49 e9 d8                	b.jal      87b72 <vPDM_MoveAllDataFromListToList>
   80d17:	2c e1 64                	b.lwz      r7,0x24(r1)
   80d1a:	30 c1 24                	b.addi     r6,r1,0x24
   80d1d:	00 a0                   	b.movi     r5,0x0
   80d1f:	2c e1 28                	b.sw       0x14(r1),r7
   80d22:	28 67 88                	b.lhz      r3,0x10(r7)
   80d25:	24 87 68                	b.lbz      r4,0x16(r7)
   80d28:	30 e1 18                	b.addi     r7,r1,0x18
   80d2b:	49 cd c2                	b.jal      91bf9 <iPDM_SearchForBufferIdInList>
   80d2e:	d0 40 3b 48             	b.bnei     r3,0x0,80e5b <Device_vPdmInit+0x703>
   80d32:	2d 41 58                	b.lwz      r10,0x18(r1)
   80d35:	24 c1 f0                	b.lbz      r6,0xf(r1)
   80d38:	24 aa 28                	b.lbz      r5,0x14(r10)
   80d3b:	d3 ca 60 48             	b.bgtu     r5,r6,80e5b <Device_vPdmInit+0x703>
   80d3f:	2c e1 68                	b.lwz      r7,0x14(r1)
   80d42:	d3 cc 5d e6             	b.bgtu     r6,r5,813bd <Device_vPdmInit+0xc65>
   80d46:	24 ca a8                	b.lbz      r6,0x15(r10)
   80d49:	d0 50 62 e6             	b.bnei     r6,0x2,813bd <Device_vPdmInit+0xc65>
   80d4d:	46 a1 60                	b.j        813d2 <Device_vPdmInit+0xc7a>
   80d50:	2c 61 78                	b.lwz      r3,0x1c(r1)
   80d53:	24 e3 a8                	b.lbz      r7,0x15(r3)
   80d56:	d0 50 70 30             	b.bnei     r7,0x2,80e16 <Device_vPdmInit+0x6be>
   80d5a:	24 e3 28                	b.lbz      r7,0x14(r3)
   80d5d:	d0 20 79 d0             	b.beqi     r7,0x1,80e16 <Device_vPdmInit+0x6be>
   80d61:	30 81 24                	b.addi     r4,r1,0x24
   80d64:	30 a1 34                	b.addi     r5,r1,0x2c
   80d67:	30 c1 2c                	b.addi     r6,r1,0x34
   80d6a:	4a 1d 68                	b.jal      8684b <iPDM_ReplaceSegmentFromJunkLists.6532>
   80d6d:	d0 00 39 50             	b.beqi     r3,0x0,80e16 <Device_vPdmInit+0x6be>
   80d71:	0d 5c                   	b.j        80e5b <Device_vPdmInit+0x703>
   80d73:	2c e1 78                	b.lwz      r7,0x1c(r1)
   80d76:	24 e7 a8                	b.lbz      r7,0x15(r7)
   80d79:	d0 50 72 e6             	b.bnei     r7,0x2,813ed <Device_vPdmInit+0xc95>
   80d7d:	2c e1 78                	b.lwz      r7,0x1c(r1)
   80d80:	24 c7 28                	b.lbz      r6,0x14(r7)
   80d83:	41 86 90                	b.bnei     r6,0x1,80d8c <Device_vPdmInit+0x634>
   80d86:	2c e1 04                	b.sw       0x20(r1),r7
   80d89:	46 b9 60                	b.j        81426 <Device_vPdmInit+0xcce>
   80d8c:	24 a7 c8                	b.lbz      r5,0x13(r7)
   80d8f:	2c e1 68                	b.lwz      r7,0x14(r1)
   80d92:	08 a6                   	b.add      r5,r5,r6
   80d94:	3e 05 28                	b.extbz    r5,r5
   80d97:	20 a1 08                	b.sb       0x10(r1),r5
   80d9a:	30 c1 24                	b.addi     r6,r1,0x24
   80d9d:	00 bf                   	b.addi     r5,r5,-0x1
   80d9f:	3e 05 28                	b.extbz    r5,r5
   80da2:	28 67 88                	b.lhz      r3,0x10(r7)
   80da5:	24 87 68                	b.lbz      r4,0x16(r7)
   80da8:	30 e1 04                	b.addi     r7,r1,0x20
   80dab:	49 c9 c2                	b.jal      91bf9 <iPDM_SearchForBufferIdInList>
   80dae:	d0 40 3c 66             	b.bnei     r3,0x0,81411 <Device_vPdmInit+0xcb9>
   80db2:	46 2e 60                	b.j        81426 <Device_vPdmInit+0xcce>
   80db5:	30 81 24                	b.addi     r4,r1,0x24
   80db8:	30 a1 34                	b.addi     r5,r1,0x2c
   80dbb:	30 c1 2c                	b.addi     r6,r1,0x34
   80dbe:	4a c5 68                	b.jal      8684b <iPDM_ReplaceSegmentFromJunkLists.6532>
   80dc1:	d0 40 35 90             	b.bnei     r3,0x0,80e5b <Device_vPdmInit+0x703>
   80dc5:	2c e1 58                	b.lwz      r7,0x18(r1)
   80dc8:	2d a1 64                	b.lwz      r13,0x24(r1)
   80dcb:	24 e7 28                	b.lbz      r7,0x14(r7)
   80dce:	20 e1 48                	b.sb       0x12(r1),r7
   80dd1:	40 0d a2                	b.beqi     r13,0x0,80e16 <Device_vPdmInit+0x6be>
   80dd4:	98 80 70 f9 10 00       	b.ori      r4,r0,0x89f0e
   80dda:	30 a1 48                	b.addi     r5,r1,0x12
   80ddd:	04 6d                   	b.mov      r3,r13
   80ddf:	49 3e c2                	b.jal      91bd1 <psDLISTsearchForward>
   80de2:	40 03 2c                	b.beqi     r3,0x0,80e16 <Device_vPdmInit+0x6be>
   80de5:	38 80 30                	b.ori      r4,r0,0xc
   80de8:	30 a1 24                	b.addi     r5,r1,0x24
   80deb:	30 c1 2c                	b.addi     r6,r1,0x34
   80dee:	2d a3 40                	b.lwz      r13,0x0(r3)
   80df1:	4a f1 d8                	b.jal      87c2e <vPDM_MoveFileRecordFromListToList>
   80df4:	0e ef                   	b.j        80dd1 <Device_vPdmInit+0x679>
   80df6:	24 e3 a8                	b.lbz      r7,0x15(r3)
   80df9:	40 47 b8                	b.beqi     r7,0x2,80e16 <Device_vPdmInit+0x6be>
   80dfc:	30 c1 24                	b.addi     r6,r1,0x24
   80dff:	30 e1 28                	b.addi     r7,r1,0x14
   80e02:	00 a4                   	b.movi     r5,0x2
   80e04:	4a ae c8                	b.jal      85bd9 <iPDM_SegmentCopyAndAppendData.constprop.105>
   80e07:	2c 61 58                	b.lwz      r3,0x18(r1)
   80e0a:	38 80 70                	b.ori      r4,r0,0xe
   80e0d:	30 a1 24                	b.addi     r5,r1,0x24
   80e10:	30 c1 2c                	b.addi     r6,r1,0x34
   80e13:	4b 61 d8                	b.jal      87c2e <vPDM_MoveFileRecordFromListToList>
   80e16:	8c c0 4b d0 00 20       	b.lwz      r6,0x4000bd0(r0)
   80e1c:	38 60 70                	b.ori      r3,r0,0xe
   80e1f:	30 81 38                	b.addi     r4,r1,0x1c
   80e22:	30 a1 34                	b.addi     r5,r1,0x2c
   80e25:	30 c6 28                	b.addi     r6,r6,0x14
   80e28:	49 4a d8                	b.jal      87b72 <vPDM_MoveAllDataFromListToList>
   80e2b:	8c c0 4b d0 00 20       	b.lwz      r6,0x4000bd0(r0)
   80e31:	38 60 70                	b.ori      r3,r0,0xe
   80e34:	30 81 38                	b.addi     r4,r1,0x1c
   80e37:	30 a1 2c                	b.addi     r5,r1,0x34
   80e3a:	30 c6 28                	b.addi     r6,r6,0x14
   80e3d:	4a b2 d8                	b.jal      87b72 <vPDM_MoveAllDataFromListToList>
   80e40:	28 6a 88                	b.lhz      r3,0x10(r10)
   80e43:	24 8a 68                	b.lbz      r4,0x16(r10)
   80e46:	24 aa 28                	b.lbz      r5,0x14(r10)
   80e49:	30 c1 38                	b.addi     r6,r1,0x1c
   80e4c:	30 e1 04                	b.addi     r7,r1,0x20
   80e4f:	31 01 24                	b.addi     r8,r1,0x24
   80e52:	4b 2a 68                	b.jal      867a5 <iPDM_VerifyDataSequenceWithBufferId>
   80e55:	30 cc 30                	b.addi     r6,r12,0xc
   80e58:	40 03 30                	b.beqi     r3,0x0,80e64 <Device_vPdmInit+0x70c>
   80e5b:	8c c0 4b d0 00 20       	b.lwz      r6,0x4000bd0(r0)
   80e61:	30 c6 28                	b.addi     r6,r6,0x14
   80e64:	38 60 70                	b.ori      r3,r0,0xe
   80e67:	30 81 b0                	b.addi     r4,r1,0xd
   80e6a:	30 a1 24                	b.addi     r5,r1,0x24
   80e6d:	4a 82 d8                	b.jal      87b72 <vPDM_MoveAllDataFromListToList>
   80e70:	8c e0 4b d0 00 20       	b.lwz      r7,0x4000bd0(r0)
   80e76:	2d 47 74                	b.lwz      r10,0x2c(r7)
   80e79:	8d 00 4b d0 00 20       	b.lwz      r8,0x4000bd0(r0)
   80e7f:	d0 40 a3 cb             	b.bnei     r10,0x0,80bbb <Device_vPdmInit+0x463>
   80e83:	2c 01 32                	b.sw       0x4c(r1),r0
   80e86:	2c 01 0a                	b.sw       0x50(r1),r0
   80e89:	2d 48 62                	b.lwz      r10,0x44(r8)
   80e8c:	0c 68                   	b.j        80ee4 <Device_vPdmInit+0x78c>
   80e8e:	28 6a 88                	b.lhz      r3,0x10(r10)
   80e91:	24 8a 68                	b.lbz      r4,0x16(r10)
   80e94:	31 81 32                	b.addi     r12,r1,0x4c
   80e97:	30 e1 04                	b.addi     r7,r1,0x20
   80e9a:	38 a0 70                	b.ori      r5,r0,0xe
   80e9d:	30 c1 38                	b.addi     r6,r1,0x1c
   80ea0:	31 08 22                	b.addi     r8,r8,0x44
   80ea3:	2d 81 00                	b.sw       0x0(r1),r12
   80ea6:	49 82 d8                	b.jal      87bac <vPDM_MoveAllDataWithBufferIdFromListToList>
   80ea9:	8d a0 4b d0 00 20       	b.lwz      r13,0x4000bd0(r0)
   80eaf:	04 6c                   	b.mov      r3,r12
   80eb1:	48 46 82                	b.jal      91439 <iPDM_ReconstructValidImageBitmap>
   80eb4:	30 ed 30                	b.addi     r7,r13,0xc
   80eb7:	40 03 30                	b.beqi     r3,0x0,80ec3 <Device_vPdmInit+0x76b>
   80eba:	8c e0 4b d0 00 20       	b.lwz      r7,0x4000bd0(r0)
   80ec0:	30 e7 28                	b.addi     r7,r7,0x14
   80ec3:	28 6a 88                	b.lhz      r3,0x10(r10)
   80ec6:	24 8a 68                	b.lbz      r4,0x16(r10)
   80ec9:	38 a0 70                	b.ori      r5,r0,0xe
   80ecc:	30 c1 38                	b.addi     r6,r1,0x1c
   80ecf:	31 01 32                	b.addi     r8,r1,0x4c
   80ed2:	2c e1 00                	b.sw       0x0(r1),r7
   80ed5:	30 e1 04                	b.addi     r7,r1,0x20
   80ed8:	48 ac d8                	b.jal      87bac <vPDM_MoveAllDataWithBufferIdFromListToList>
   80edb:	8c e0 4b d0 00 20       	b.lwz      r7,0x4000bd0(r0)
   80ee1:	2d 47 62                	b.lwz      r10,0x44(r7)
   80ee4:	8d 00 4b d0 00 20       	b.lwz      r8,0x4000bd0(r0)
   80eea:	41 0a 25                	b.bnei     r10,0x0,80e8e <Device_vPdmInit+0x736>
   80eed:	2d 48 64                	b.lwz      r10,0x24(r8)
   80ef0:	0d 74                   	b.j        80faa <Device_vPdmInit+0x852>
   80ef2:	8c c0 4b d0 00 20       	b.lwz      r6,0x4000bd0(r0)
   80ef8:	28 6a 88                	b.lhz      r3,0x10(r10)
   80efb:	38 a0 ff                	b.ori      r5,r0,0xff
   80efe:	30 c6 30                	b.addi     r6,r6,0xc
   80f01:	30 e1 04                	b.addi     r7,r1,0x20
   80f04:	00 84                   	b.movi     r4,0x2
   80f06:	4b 3c c2                	b.jal      91bf9 <iPDM_SearchForBufferIdInList>
   80f09:	8d 00 4b d0 00 20       	b.lwz      r8,0x4000bd0(r0)
   80f0f:	3e 03 1c                	b.ff1      r3,r3
   80f12:	31 83 ff                	b.addi     r12,r3,-0x1
   80f15:	30 c1 28                	b.addi     r6,r1,0x14
   80f18:	30 e1 18                	b.addi     r7,r1,0x18
   80f1b:	31 08 24                	b.addi     r8,r8,0x24
   80f1e:	00 a0                   	b.movi     r5,0x0
   80f20:	28 6a 88                	b.lhz      r3,0x10(r10)
   80f23:	24 8a 68                	b.lbz      r4,0x16(r10)
   80f26:	6d 8c f9                	b.srli     r12,r12,0x1f
   80f29:	48 f8 68                	b.jal      867a5 <iPDM_VerifyDataSequenceWithBufferId>
   80f2c:	3e 03 1c                	b.ff1      r3,r3
   80f2f:	60 e0 1d                	b.sub      r7,r0,r3
   80f32:	6c e7 f9                	b.srli     r7,r7,0x1f
   80f35:	3e 0c 68                	b.extbz    r13,r12
   80f38:	61 87 61                	b.or       r12,r7,r12
   80f3b:	3e 0c 60                	b.extbz    r12,r12
   80f3e:	8c c0 4b d0 00 20       	b.lwz      r6,0x4000bd0(r0)
   80f44:	41 0c 08                	b.bnei     r12,0x0,80f54 <Device_vPdmInit+0x7fc>
   80f47:	24 a1 28                	b.lbz      r5,0x14(r1)
   80f4a:	24 e1 18                	b.lbz      r7,0x18(r1)
   80f4d:	31 86 30                	b.addi     r12,r6,0xc
   80f50:	d2 8a 7c c0             	b.beq      r5,r7,80f83 <Device_vPdmInit+0x82b>
   80f54:	31 86 28                	b.addi     r12,r6,0x14
   80f57:	40 0d 34                	b.beqi     r13,0x0,80f83 <Device_vPdmInit+0x82b>
   80f5a:	28 6a 88                	b.lhz      r3,0x10(r10)
   80f5d:	24 8a 68                	b.lbz      r4,0x16(r10)
   80f60:	30 c6 24                	b.addi     r6,r6,0x24
   80f63:	30 e1 38                	b.addi     r7,r1,0x1c
   80f66:	00 a0                   	b.movi     r5,0x0
   80f68:	4a 24 c2                	b.jal      91bf9 <iPDM_SearchForBufferIdInList>
   80f6b:	41 03 18                	b.bnei     r3,0x0,80f83 <Device_vPdmInit+0x82b>
   80f6e:	8c c0 4b d0 00 20       	b.lwz      r6,0x4000bd0(r0)
   80f74:	2c 61 78                	b.lwz      r3,0x1c(r1)
   80f77:	30 a6 24                	b.addi     r5,r6,0x24
   80f7a:	38 80 30                	b.ori      r4,r0,0xc
   80f7d:	30 c6 28                	b.addi     r6,r6,0x14
   80f80:	49 d4 d8                	b.jal      87c2e <vPDM_MoveFileRecordFromListToList>
   80f83:	8d 00 4b d0 00 20       	b.lwz      r8,0x4000bd0(r0)
   80f89:	28 6a 88                	b.lhz      r3,0x10(r10)
   80f8c:	24 8a 68                	b.lbz      r4,0x16(r10)
   80f8f:	30 e1 18                	b.addi     r7,r1,0x18
   80f92:	38 a0 70                	b.ori      r5,r0,0xe
   80f95:	30 c1 28                	b.addi     r6,r1,0x14
   80f98:	31 08 24                	b.addi     r8,r8,0x24
   80f9b:	2d 81 00                	b.sw       0x0(r1),r12
   80f9e:	49 c0 d8                	b.jal      87bac <vPDM_MoveAllDataWithBufferIdFromListToList>
   80fa1:	8c e0 4b d0 00 20       	b.lwz      r7,0x4000bd0(r0)
   80fa7:	2d 47 64                	b.lwz      r10,0x24(r7)
   80faa:	d0 40 a1 2f             	b.bnei     r10,0x0,80ef2 <Device_vPdmInit+0x79a>
   80fae:	4b 29 f4                	b.jal      8ce01 <vPDM_DeleteUsedSegmentsOnDeallocList>
   80fb1:	8d 40 4b d0 00 20       	b.lwz      r10,0x4000bd0(r0)
   80fb7:	4b 12 48                	b.jal      858da <u8PDM_CalculateFileSystemCapacity>
   80fba:	20 6a 10                	b.sb       0x8(r10),r3
   80fbd:	8d 40 4b d0 00 20       	b.lwz      r10,0x4000bd0(r0)
   80fc3:	00 e8                   	b.movi     r7,0x1
   80fc5:	2c ea 32                	b.sw       0x4c(r10),r7
   80fc8:	98 e0 05 61 80 00       	b.ori      r7,r0,0x186a0
   80fce:	2c ea 06                	b.sw       0x60(r10),r7
   80fd1:	21 6a 2a                	b.sb       0x54(r10),r11
   80fd4:	28 0a 1a                	b.sh       0x58(r10),r0
   80fd7:	2c 0a 0a                	b.sw       0x50(r10),r0
   80fda:	2c 0a 3a                	b.sw       0x5c(r10),r0
   80fdd:	4a fc 48                	b.jal      858da <u8PDM_CalculateFileSystemCapacity>
   80fe0:	24 ea 80                	b.lbz      r7,0x1(r10)
   80fe3:	60 67 1d                	b.sub      r3,r7,r3
   80fe6:	3e 03 38                	b.extbz    r7,r3
   80fe9:	28 ea 6a                	b.sh       0x56(r10),r7
   80fec:	98 60 0a a0 00 20       	b.ori      r3,r0,0x4000550
   80ff2:	98 80 ff ff 00 00       	b.ori      r4,r0,0xffff
   80ff8:	98 a0 16 a0 00 20       	b.ori      r5,r0,0x4000568
   80ffe:	38 c0 10                	b.ori      r6,r0,0x8
   81001:	4b 04 c8                	b.jal      85c84 <PDM_eLoadRecord.constprop.120>
   81004:	84 e0 0a a0 00 20       	b.lbz      r7,0x4000550(r0)
   8100a:	d0 50 71 10             	b.bnei     r7,0x2,81092 <Device_vPdmInit+0x93a>
   8100e:	8c e0 56 a0 00 20       	b.lwz      r7,0x4000568(r0)
   81014:	9d 87 99 88 80 11       	b.sfeqi    r7,-0x77feee67
   8101a:	47 2a 90                	b.bf       810af <Device_vPdmInit+0x957>
   8101d:	8c e0 4b d0 00 20       	b.lwz      r7,0x4000bd0(r0)
   81023:	2c 67 72                	b.lwz      r3,0x4c(r7)
   81026:	40 03 60                	b.beqi     r3,0x0,8102c <Device_vPdmInit+0x8d4>
   81029:	48 2f 12                	b.jal      933f9 <OS_eEnterCriticalSection>
   8102c:	8c e0 4b d0 00 20       	b.lwz      r7,0x4000bd0(r0)
   81032:	2d 47 4a                	b.lwz      r10,0x50(r7)
   81035:	0e 20                   	b.j        81046 <Device_vPdmInit+0x8ee>
   81037:	2d 6a 48                	b.lwz      r11,0x10(r10)
   8103a:	38 a0 18                	b.ori      r5,r0,0x18
   8103d:	04 6a                   	b.mov      r3,r10
   8103f:	00 80                   	b.movi     r4,0x0
   81041:	05 4b                   	b.mov      r10,r11
   81043:	49 6d 8a                	b.jal      9571d <memset>
   81046:	40 0a d0                	b.beqi     r10,0x0,81051 <Device_vPdmInit+0x8f9>
   81049:	04 6a                   	b.mov      r3,r10
   8104b:	4b 33 64                	b.jal      8ab7e <bPDM_IsDescriptorValid>
   8104e:	40 83 97                	b.beqi     r3,0x1,81037 <Device_vPdmInit+0x8df>
   81051:	8c e0 4b d0 00 20       	b.lwz      r7,0x4000bd0(r0)
   81057:	2c 07 0a                	b.sw       0x50(r7),r0
   8105a:	28 07 6a                	b.sh       0x56(r7),r0
   8105d:	28 07 1a                	b.sh       0x58(r7),r0
   81060:	4a 16 f4                	b.jal      8ce01 <vPDM_DeleteUsedSegmentsOnDeallocList>
   81063:	8c c0 4b d0 00 20       	b.lwz      r6,0x4000bd0(r0)
   81069:	38 60 30                	b.ori      r3,r0,0xc
   8106c:	30 a6 30                	b.addi     r5,r6,0xc
   8106f:	30 81 04                	b.addi     r4,r1,0x20
   81072:	30 c6 28                	b.addi     r6,r6,0x14
   81075:	4a fd 58                	b.jal      87b72 <vPDM_MoveAllDataFromListToList>
   81078:	8c e0 4b d0 00 20       	b.lwz      r7,0x4000bd0(r0)
   8107e:	24 c7 80                	b.lbz      r6,0x1(r7)
   81081:	2c 67 72                	b.lwz      r3,0x4c(r7)
   81084:	20 c7 10                	b.sb       0x8(r7),r6
   81087:	40 03 60                	b.beqi     r3,0x0,8108d <Device_vPdmInit+0x935>
   8108a:	4b 6b 12                	b.jal      933e5 <OS_eExitCriticalSection>
   8108d:	4a 63 70                	b.jal      84ba6 <vAHI_SwReset>
   81090:	0f e0                   	b.j        810af <Device_vPdmInit+0x957>
   81092:	98 e0 99 88 80 11       	b.ori      r7,r0,0x88011199
   81098:	98 60 0a a0 00 20       	b.ori      r3,r0,0x4000550
   8109e:	8c e0 16 a0 00 20       	b.sw       0x4000568(r0),r7
   810a4:	00 ef                   	b.movi     r7,-0x1
   810a6:	8c e0 36 a0 00 20       	b.sw       0x400056c(r0),r7
   810ac:	4b b4 ac                	b.jal      8e563 <PDM_vSaveRecord>
   810af:	98 80 00 ff 00 00       	b.ori      r4,r0,0xff00
   810b5:	98 a0 04 b0 00 20       	b.ori      r5,r0,0x4000d20
   810bb:	38 c0 08                	b.ori      r6,r0,0x10
   810be:	98 60 10 b0 00 20       	b.ori      r3,r0,0x4000d08
   810c4:	8c 60 1f e0 00 20       	b.sw       0x40007f8(r0),r3
   810ca:	49 77 48                	b.jal      85c84 <PDM_eLoadRecord.constprop.120>
   810cd:	98 e0 33 50 00 20       	b.ori      r7,r0,0x4000acc
   810d3:	8c e0 14 30 00 20       	b.sw       0x4000c28(r0),r7
   810d9:	98 e0 34 c0 00 20       	b.ori      r7,r0,0x400032c
   810df:	8c e0 33 50 00 20       	b.sw       0x4000acc(r0),r7
   810e5:	98 e0 0e a0 00 20       	b.ori      r7,r0,0x4000570
   810eb:	8c e0 31 70 00 20       	b.sw       0x4000e8c(r0),r7
   810f1:	38 e0 0c                	b.ori      r7,r0,0x30
   810f4:	80 e0 01 a0 00 20       	b.sb       0x4000580(r0),r7
   810fa:	d8 e0 00 01             	b.addi     r7,r0,-0x8000
   810fe:	88 e0 29 a0 00 20       	b.sh       0x4000594(r0),r7
   81104:	38 e0 98                	b.ori      r7,r0,0x19
   81107:	80 e0 19 a0 00 20       	b.sb       0x4000598(r0),r7
   8110d:	00 e2                   	b.movi     r7,0x4
   8110f:	80 e0 99 a0 00 20       	b.sb       0x4000599(r0),r7
   81115:	8c e0 53 00 00 40       	b.lwz      r7,0x20000c8(r0)
   8111b:	8c 00 0e a0 00 20       	b.sw       0x4000570(r0),r0
   81121:	94 e7 ff ff f3 ff       	b.andi     r7,r7,0xffcfffff
   81127:	8c e0 13 00 00 40       	b.sw       0x20000c8(r0),r7
   8112d:	00 ef                   	b.movi     r7,-0x1
   8112f:	88 00 69 a0 00 20       	b.sh       0x4000596(r0),r0
   81135:	80 e0 59 a0 00 20       	b.sb       0x400059a(r0),r7
   8113b:	4a f2 d8                	b.jal      87e78 <MibAdcStatus_vStart>
   8113e:	98 e0 23 30 00 20       	b.ori      r7,r0,0x4000cc4
   81144:	98 80 11 7f 00 00       	b.ori      r4,r0,0xfe88
   8114a:	98 a0 07 30 00 20       	b.ori      r5,r0,0x4000ce0
   81150:	38 c0 08                	b.ori      r6,r0,0x10
   81153:	98 60 13 30 00 20       	b.ori      r3,r0,0x4000cc8
   81159:	8c e0 09 70 00 20       	b.sw       0x4000e90(r0),r7
   8115f:	98 e0 16 c0 00 20       	b.ori      r7,r0,0x4000368
   81165:	8c e0 23 30 00 20       	b.sw       0x4000cc4(r0),r7
   8116b:	00 e8                   	b.movi     r7,0x1
   8116d:	80 e0 6f 30 00 20       	b.sb       0x4000cf6(r0),r7
   81173:	4a 23 48                	b.jal      85c84 <PDM_eLoadRecord.constprop.120>
   81176:	8c e0 49 70 00 20       	b.lwz      r7,0x4000e90(r0)
   8117c:	98 80 d1 7f 00 00       	b.ori      r4,r0,0xfe8b
   81182:	98 60 0d b0 00 20       	b.ori      r3,r0,0x4000db0
   81188:	50 a7 04                	b.mlwz     r5,0x20(r7),0x0
   8118b:	08 c5                   	b.add      r6,r6,r5
   8118d:	98 a0 13 b0 00 20       	b.ori      r5,r0,0x4000dc8
   81193:	2c c7 34                	b.sw       0x2c(r7),r6
   81196:	2c c7 1c                	b.sw       0x38(r7),r6
   81199:	2c c7 54                	b.lwz      r6,0x28(r7)
   8119c:	2c c7 2c                	b.sw       0x34(r7),r6
   8119f:	d8 c6 00 08             	b.addi     r6,r6,0x1000
   811a3:	2c c7 14                	b.sw       0x28(r7),r6
   811a6:	38 c0 2e                	b.ori      r6,r0,0x74
   811a9:	4b 6d 48                	b.jal      85c84 <PDM_eLoadRecord.constprop.120>
   811ac:	98 e0 3a b0 00 20       	b.ori      r7,r0,0x4000d5c
   811b2:	8c e0 3f e0 00 20       	b.sw       0x40007fc(r0),r7
   811b8:	98 e0 1f c0 00 20       	b.ori      r7,r0,0x40003f8
   811be:	8c e0 3a b0 00 20       	b.sw       0x4000d5c(r0),r7
   811c4:	cc f0 40 05             	b.lwz      r7,-0x6000(r16)
   811c8:	94 e7 ff ff f0 00       	b.andi     r7,r7,0xfffff
   811ce:	8c e0 1e b0 00 20       	b.sw       0x4000d78(r0),r7
   811d4:	cc f0 7c 01             	b.lwz      r7,-0x7fc4(r16)
   811d8:	60 e7 3b                	b.nand     r7,r7,r7
   811db:	94 e7 ff ff f0 00       	b.andi     r7,r7,0xfffff
   811e1:	8c e0 3e b0 00 20       	b.sw       0x4000d7c(r0),r7
   811e7:	cc f0 70 01             	b.lwz      r7,-0x7ff4(r16)
   811eb:	94 e7 ff ff f0 00       	b.andi     r7,r7,0xfffff
   811f1:	8c e0 01 b0 00 20       	b.sw       0x4000d80(r0),r7
   811f7:	cc f0 50 01             	b.lwz      r7,-0x7ff8(r16)
   811fb:	98 a0 1e b0 00 20       	b.ori      r5,r0,0x4000d78
   81201:	38 c0 08                	b.ori      r6,r0,0x10
   81204:	94 e7 ff ff f0 00       	b.andi     r7,r7,0xfffff
   8120a:	98 80 8e 7f 00 00       	b.ori      r4,r0,0xfe71
   81210:	98 60 06 b0 00 20       	b.ori      r3,r0,0x4000d60
   81216:	8c e0 21 b0 00 20       	b.sw       0x4000d84(r0),r7
   8121c:	48 59 48                	b.jal      85c84 <PDM_eLoadRecord.constprop.120>
   8121f:	8c e0 7f e0 00 20       	b.lwz      r7,0x40007fc(r0)
   81225:	2c 87 78                	b.lwz      r4,0x1c(r7)
   81228:	60 64 23                	b.nand     r3,r4,r4
   8122b:	94 63 ff ff f0 00       	b.andi     r3,r3,0xfffff
   81231:	94 84 ff ff f0 00       	b.andi     r4,r4,0xfffff
   81237:	4b be 70                	b.jal      84c2e <vAHI_DioSetDirection>
   8123a:	8c e0 7f e0 00 20       	b.lwz      r7,0x40007fc(r0)
   81240:	2c 67 44                	b.lwz      r3,0x20(r7)
   81243:	60 83 1b                	b.nand     r4,r3,r3
   81246:	94 84 ff ff f0 00       	b.andi     r4,r4,0xfffff
   8124c:	94 63 ff ff f0 00       	b.andi     r3,r3,0xfffff
   81252:	4a 86 70                	b.jal      84bd7 <vAHI_DioSetPullup>
   81255:	8c e0 7f e0 00 20       	b.lwz      r7,0x40007fc(r0)
   8125b:	2c 67 64                	b.lwz      r3,0x24(r7)
   8125e:	60 83 1b                	b.nand     r4,r3,r3
   81261:	94 84 ff ff f0 00       	b.andi     r4,r4,0xfffff
   81267:	94 63 ff ff f0 00       	b.andi     r3,r3,0xfffff
   8126d:	49 4a 70                	b.jal      84bb7 <vAHI_DioWakeEnable>
   81270:	8c e0 7f e0 00 20       	b.lwz      r7,0x40007fc(r0)
   81276:	2c 87 54                	b.lwz      r4,0x28(r7)
   81279:	60 64 23                	b.nand     r3,r4,r4
   8127c:	94 63 ff ff f0 00       	b.andi     r3,r3,0xfffff
   81282:	94 84 ff ff f0 00       	b.andi     r4,r4,0xfffff
   81288:	4b d2 70                	b.jal      84bb7 <vAHI_DioWakeEnable>
   8128b:	8c e0 7f e0 00 20       	b.lwz      r7,0x40007fc(r0)
   81291:	cc d0 40 05             	b.lwz      r6,-0x6000(r16)
   81295:	94 c6 ff ff f0 00       	b.andi     r6,r6,0xfffff
   8129b:	2c c7 38                	b.sw       0x1c(r7),r6
   8129e:	cc d0 7c 01             	b.lwz      r6,-0x7fc4(r16)
   812a2:	60 c6 33                	b.nand     r6,r6,r6
   812a5:	94 c6 ff ff f0 00       	b.andi     r6,r6,0xfffff
   812ab:	2c c7 04                	b.sw       0x20(r7),r6
   812ae:	cc d0 70 01             	b.lwz      r6,-0x7ff4(r16)
   812b2:	94 c6 ff ff f0 00       	b.andi     r6,r6,0xfffff
   812b8:	2c c7 24                	b.sw       0x24(r7),r6
   812bb:	cc d0 50 01             	b.lwz      r6,-0x7ff8(r16)
   812bf:	94 c6 ff ff f0 00       	b.andi     r6,r6,0xfffff
   812c5:	2c c7 14                	b.sw       0x28(r7),r6
   812c8:	98 e0 02 a0 00 20       	b.ori      r7,r0,0x4000540
   812ce:	8c e0 28 30 00 20       	b.sw       0x4000c14(r0),r7
   812d4:	98 e0 0a 00 00 20       	b.ori      r7,r0,0x4000050
   812da:	8c e0 02 a0 00 20       	b.sw       0x4000540(r0),r7
   812e0:	cc f0 50 05             	b.lwz      r7,-0x5ff8(r16)
   812e4:	94 e7 ff ff f0 00       	b.andi     r7,r7,0xfffff
   812ea:	8c e0 22 a0 00 20       	b.sw       0x4000544(r0),r7
   812f0:	cc f0 48 09             	b.lwz      r7,-0x6ff0(r16)
   812f4:	94 e7 ff ff f0 00       	b.andi     r7,r7,0xfffff
   812fa:	cc f0 08 09             	b.sw       -0x6ff0(r16),r7
   812fe:	8c e0 12 a0 00 20       	b.sw       0x4000548(r0),r7
   81304:	98 e0 0c b0 00 20       	b.ori      r7,r0,0x4000d30
   8130a:	8c e0 00 10 00 20       	b.sw       0x4000800(r0),r7
   81310:	98 e0 1d c0 00 20       	b.ori      r7,r0,0x40003b8
   81316:	8c e0 0c b0 00 20       	b.sw       0x4000d30(r0),r7
   8131c:	cc f0 60 05             	b.lwz      r7,-0x5ffc(r16)
   81320:	98 a0 32 b0 00 20       	b.ori      r5,r0,0x4000d4c
   81326:	94 e7 ff ff f0 00       	b.andi     r7,r7,0xfffff
   8132c:	98 80 ce 7f 00 00       	b.ori      r4,r0,0xfe73
   81332:	98 60 2c b0 00 20       	b.ori      r3,r0,0x4000d34
   81338:	00 c2                   	b.movi     r6,0x4
   8133a:	8c e0 32 b0 00 20       	b.sw       0x4000d4c(r0),r7
   81340:	48 8a 48                	b.jal      85c84 <PDM_eLoadRecord.constprop.120>
   81343:	8c e0 40 10 00 20       	b.lwz      r7,0x4000800(r0)
   81349:	2c 67 78                	b.lwz      r3,0x1c(r7)
   8134c:	60 83 1b                	b.nand     r4,r3,r3
   8134f:	94 84 ff ff f0 00       	b.andi     r4,r4,0xfffff
   81355:	94 63 ff ff f0 00       	b.andi     r3,r3,0xfffff
   8135b:	48 e4 70                	b.jal      84bf7 <vAHI_DioSetOutput>
   8135e:	cc d0 60 05             	b.lwz      r6,-0x5ffc(r16)
   81362:	8c e0 40 10 00 20       	b.lwz      r7,0x4000800(r0)
   81368:	94 c6 ff ff f0 00       	b.andi     r6,r6,0xfffff
   8136e:	2c c7 38                	b.sw       0x1c(r7),r6
   81371:	0c 1c                   	b.j        81451 <Device_vPdmInit+0xcf9>
   81373:	2c 07 24                	b.sw       0x24(r7),r0
   81376:	01 80                   	b.movi     r12,0x0
   81378:	2c 07 14                	b.sw       0x28(r7),r0
   8137b:	39 c0 38                	b.ori      r14,r0,0x1c
   8137e:	01 ea                   	b.movi     r15,0x5
   81380:	2c 07 34                	b.sw       0x2c(r7),r0
   81383:	2c 07 0c                	b.sw       0x30(r7),r0
   81386:	2c 07 2c                	b.sw       0x34(r7),r0
   81389:	2c 07 1c                	b.sw       0x38(r7),r0
   8138c:	2c 07 3c                	b.sw       0x3c(r7),r0
   8138f:	2c 07 02                	b.sw       0x40(r7),r0
   81392:	2c 07 22                	b.sw       0x44(r7),r0
   81395:	2c 07 12                	b.sw       0x48(r7),r0
   81398:	46 95 6f                	b.j        80a41 <Device_vPdmInit+0x2e9>
   8139b:	04 6a                   	b.mov      r3,r10
   8139d:	00 88                   	b.movi     r4,0x1
   8139f:	48 13 a4                	b.jal      8aabf <iPDM_SetVerifyBytesInFileSystemRecord>
   813a2:	24 6a 10                	b.lbz      r3,0x8(r10)
   813a5:	31 ad c8                	b.addi     r13,r13,0x13
   813a8:	60 8d 64                	b.add      r4,r13,r12
   813ab:	3e 04 20                	b.extbz    r4,r4
   813ae:	00 a8                   	b.movi     r5,0x1
   813b0:	4b 30 a4                	b.jal      8a7e3 <vPDM_WriteByteIntoEEPROM>
   813b3:	04 6a                   	b.mov      r3,r10
   813b5:	00 80                   	b.movi     r4,0x0
   813b7:	48 43 a4                	b.jal      8aabf <iPDM_SetVerifyBytesInFileSystemRecord>
   813ba:	46 ce ef                	b.j        80b2d <Device_vPdmInit+0x3d5>
   813bd:	28 67 88                	b.lhz      r3,0x10(r7)
   813c0:	24 87 68                	b.lbz      r4,0x16(r7)
   813c3:	30 c1 24                	b.addi     r6,r1,0x24
   813c6:	30 e1 38                	b.addi     r7,r1,0x1c
   813c9:	48 30 42                	b.jal      91bf9 <iPDM_SearchForBufferIdInList>
   813cc:	d0 00 3e 59             	b.beqi     r3,0x0,80d73 <Device_vPdmInit+0x61b>
   813d0:	0e e0                   	b.j        813ed <Device_vPdmInit+0xc95>
   813d2:	28 67 88                	b.lhz      r3,0x10(r7)
   813d5:	24 87 68                	b.lbz      r4,0x16(r7)
   813d8:	00 bf                   	b.addi     r5,r5,-0x1
   813da:	30 c1 24                	b.addi     r6,r1,0x24
   813dd:	30 e1 38                	b.addi     r7,r1,0x1c
   813e0:	3e 05 28                	b.extbz    r5,r5
   813e3:	49 a0 42                	b.jal      91bf9 <iPDM_SearchForBufferIdInList>
   813e6:	d0 00 35 69             	b.beqi     r3,0x0,80d50 <Device_vPdmInit+0x5f8>
   813ea:	46 8e 5f                	b.j        80e5b <Device_vPdmInit+0x703>
   813ed:	2c c1 58                	b.lwz      r6,0x18(r1)
   813f0:	2c e1 68                	b.lwz      r7,0x14(r1)
   813f3:	24 a6 28                	b.lbz      r5,0x14(r6)
   813f6:	28 67 88                	b.lhz      r3,0x10(r7)
   813f9:	24 87 68                	b.lbz      r4,0x16(r7)
   813fc:	00 bf                   	b.addi     r5,r5,-0x1
   813fe:	30 c1 24                	b.addi     r6,r1,0x24
   81401:	30 e1 38                	b.addi     r7,r1,0x1c
   81404:	3e 05 28                	b.extbz    r5,r5
   81407:	49 3f 82                	b.jal      91bf9 <iPDM_SearchForBufferIdInList>
   8140a:	d0 00 3c e9             	b.beqi     r3,0x0,80d7d <Device_vPdmInit+0x625>
   8140e:	46 b2 5f                	b.j        80e5b <Device_vPdmInit+0x703>
   81411:	2c e1 58                	b.lwz      r7,0x18(r1)
   81414:	2c 61 78                	b.lwz      r3,0x1c(r1)
   81417:	24 e7 28                	b.lbz      r7,0x14(r7)
   8141a:	24 c3 c8                	b.lbz      r6,0x13(r3)
   8141d:	00 ff                   	b.addi     r7,r7,-0x1
   8141f:	d2 cc 76 59             	b.bne      r6,r7,80dc5 <Device_vPdmInit+0x66d>
   81423:	46 49 9f                	b.j        80db5 <Device_vPdmInit+0x65d>
   81426:	38 60 70                	b.ori      r3,r0,0xe
   81429:	30 81 08                	b.addi     r4,r1,0x10
   8142c:	30 a1 24                	b.addi     r5,r1,0x24
   8142f:	04 c5                   	b.mov      r6,r5
   81431:	4a 0b 98                	b.jal      87b72 <vPDM_MoveAllDataFromListToList>
   81434:	2c 61 58                	b.lwz      r3,0x18(r1)
   81437:	24 81 08                	b.lbz      r4,0x10(r1)
   8143a:	24 e3 28                	b.lbz      r7,0x14(r3)
   8143d:	d2 ce 4f d9             	b.bne      r7,r4,80dfc <Device_vPdmInit+0x6a4>
   81441:	46 ad 9f                	b.j        80df6 <Device_vPdmInit+0x69e>
   81444:	25 0a 10                	b.lbz      r8,0x8(r10)
   81447:	24 65 80                	b.lbz      r3,0x1(r5)
   8144a:	00 c0                   	b.movi     r6,0x0
   8144c:	00 e0                   	b.movi     r7,0x0
   8144e:	46 f8 af                	b.j        8096d <Device_vPdmInit+0x215>
   81451:	47 be b8                	b.reti     0x7,0x1d

00081454 <iUDP_GetUDPheaderSize>:
   81454:	3e 04 2c                	b.ff1      r5,r4
   81457:	3e 03 34                	b.ff1      r6,r3
   8145a:	00 bf                   	b.addi     r5,r5,-0x1
   8145c:	00 df                   	b.addi     r6,r6,-0x1
   8145e:	60 c5 31                	b.or       r6,r5,r6
   81461:	04 e3                   	b.mov      r7,r3
   81463:	45 06 ac                	b.bltsi    r6,0x0,81498 <iUDP_GetUDPheaderSize+0x44>
   81466:	38 c0 10                	b.ori      r6,r0,0x8
   81469:	20 c4 00                	b.sb       0x0(r4),r6
   8146c:	28 c3 8c                	b.lhz      r6,0x30(r3)
   8146f:	6c c6 c1                	b.srli     r6,r6,0x3
   81472:	20 c4 00                	b.sb       0x0(r4),r6
   81475:	28 c3 97                	b.lhz      r6,0xe8(r3)
   81478:	00 60                   	b.movi     r3,0x0
   8147a:	34 c6 e0                	b.andi     r6,r6,0x7
   8147d:	41 06 b8                	b.bnei     r6,0x0,8149a <iUDP_GetUDPheaderSize+0x46>
   81480:	28 e7 8c                	b.lhz      r7,0x30(r7)
   81483:	34 c7 e0                	b.andi     r6,r7,0x7
   81486:	41 06 10                	b.bnei     r6,0x0,8148e <iUDP_GetUDPheaderSize+0x3a>
   81489:	6c e7 c1                	b.srli     r7,r7,0x3
   8148c:	0f 80                   	b.j        81493 <iUDP_GetUDPheaderSize+0x3f>
   8148e:	00 f2                   	b.addi     r7,r7,0x4
   81490:	6c e7 c2                	b.srai     r7,r7,0x3
   81493:	20 e4 00                	b.sb       0x0(r4),r7
   81496:	0c 80                   	b.j        8149a <iUDP_GetUDPheaderSize+0x46>
   81498:	00 6f                   	b.movi     r3,-0x1
   8149a:	47 d2 48                	b.jr       r9

0008149d <boIdSearchMatch.16879>:
   8149d:	2c e4 50                	b.lwz      r7,0x8(r4)
   814a0:	2c 63 40                	b.lwz      r3,0x0(r3)
   814a3:	60 67 1a                	b.xor      r3,r7,r3
   814a6:	3e 03 1c                	b.ff1      r3,r3
   814a9:	00 7f                   	b.addi     r3,r3,-0x1
   814ab:	6c 63 f9                	b.srli     r3,r3,0x1f
   814ae:	47 d2 48                	b.jr       r9

000814b1 <boPortSearchMatch.16875>:
   814b1:	28 e4 b8                	b.lhz      r7,0x1c(r4)
   814b4:	28 63 80                	b.lhz      r3,0x0(r3)
   814b7:	60 67 1a                	b.xor      r3,r7,r3
   814ba:	3e 03 1a                	b.exthz    r3,r3
   814bd:	00 7f                   	b.addi     r3,r3,-0x1
   814bf:	6c 63 f9                	b.srli     r3,r3,0x1f
   814c2:	47 d2 48                	b.jr       r9

000814c5 <iWriteIPv6andDataHeaders>:
   814c5:	47 ae c0                	b.entri    0x7,0x3
   814c8:	20 01 e0                	b.sb       0x7(r1),r0
   814cb:	05 65                   	b.mov      r11,r5
   814cd:	05 c3                   	b.mov      r14,r3
   814cf:	05 a4                   	b.mov      r13,r4
   814d1:	05 46                   	b.mov      r10,r6
   814d3:	05 e7                   	b.mov      r15,r7
   814d5:	05 88                   	b.mov      r12,r8
   814d7:	00 a0                   	b.movi     r5,0x0
   814d9:	d0 00 b5 90             	b.beqi     r11,0x0,81573 <iWriteIPv6andDataHeaders+0xae>
   814dd:	8c e0 48 f0 00 20       	b.lwz      r7,0x4000f10(r0)
   814e3:	30 a1 a0                	b.addi     r5,r1,0x5
   814e6:	04 86                   	b.mov      r4,r6
   814e8:	2c e7 74                	b.lwz      r7,0x2c(r7)
   814eb:	04 c8                   	b.mov      r6,r8
   814ed:	47 d1 38                	b.jalr     r7
   814f0:	24 81 a0                	b.lbz      r4,0x5(r1)
   814f3:	28 ec b8                	b.lhz      r7,0x1c(r12)
   814f6:	d3 8e 41 00             	b.bgeu     r7,r4,814fe <iWriteIPv6andDataHeaders+0x39>
   814fa:	00 af                   	b.movi     r5,-0x1
   814fc:	0f b8                   	b.j        81573 <iWriteIPv6andDataHeaders+0xae>
   814fe:	8c e0 48 f0 00 20       	b.lwz      r7,0x4000f10(r0)
   81504:	08 8e                   	b.add      r4,r4,r14
   81506:	30 a1 60                	b.addi     r5,r1,0x6
   81509:	30 c1 e0                	b.addi     r6,r1,0x7
   8150c:	04 6a                   	b.mov      r3,r10
   8150e:	2c e7 78                	b.lwz      r7,0x1c(r7)
   81511:	47 d1 38                	b.jalr     r7
   81514:	24 e1 60                	b.lbz      r7,0x6(r1)
   81517:	24 c1 a0                	b.lbz      r6,0x5(r1)
   8151a:	28 ac b8                	b.lhz      r5,0x1c(r12)
   8151d:	60 87 34                	b.add      r4,r7,r6
   81520:	d3 48 55 bf             	b.bgts     r4,r5,814fa <iWriteIPv6andDataHeaders+0x35>
   81524:	24 aa cf                	b.lbz      r5,0xf3(r10)
   81527:	40 05 34                	b.beqi     r5,0x0,81553 <iWriteIPv6andDataHeaders+0x8e>
   8152a:	40 8d d0                	b.beqi     r13,0x1,81535 <iWriteIPv6andDataHeaders+0x70>
   8152d:	60 ab 35                	b.sub      r5,r11,r6
   81530:	60 a5 3d                	b.sub      r5,r5,r7
   81533:	0f 40                   	b.j        8153e <iWriteIPv6andDataHeaders+0x79>
   81535:	24 a1 e0                	b.lbz      r5,0x7(r1)
   81538:	60 ab 2d                	b.sub      r5,r11,r5
   8153b:	30 a5 1b                	b.addi     r5,r5,-0x28
   8153e:	24 8a 8f                	b.lbz      r4,0xf1(r10)
   81541:	3e 05 2a                	b.exthz    r5,r5
   81544:	28 aa 57                	b.sh       0xea(r10),r5
   81547:	3c 24 88                	b.sfnei    r4,0x11
   8154a:	47 29 00                	b.bf       81553 <iWriteIPv6andDataHeaders+0x8e>
   8154d:	30 a5 10                	b.addi     r5,r5,0x8
   81550:	28 aa 34                	b.sh       0x2c(r10),r5
   81553:	08 e6                   	b.add      r7,r7,r6
   81555:	00 a2                   	b.movi     r5,0x4
   81557:	20 ef 00                	b.sb       0x0(r15),r7
   8155a:	00 e8                   	b.movi     r7,0x1
   8155c:	20 ea 3b                	b.sb       0xdc(r10),r7
   8155f:	41 03 28                	b.bnei     r3,0x0,81573 <iWriteIPv6andDataHeaders+0xae>
   81562:	8c e0 48 f0 00 20       	b.lwz      r7,0x4000f10(r0)
   81568:	00 a4                   	b.movi     r5,0x2
   8156a:	28 e7 b9                	b.lhz      r7,0x9c(r7)
   8156d:	3d a7 58                	b.sfgeu    r7,r11
   81570:	64 a0 2a                	b.cmov     r5,r0,r5
   81573:	04 65                   	b.mov      r3,r5
   81575:	47 be c0                	b.reti     0x7,0x3

00081578 <iIPv6_CalculateIPv6AddressChecksum.1507>:
   81578:	3e 04 34                	b.ff1      r6,r4
   8157b:	3e 03 3c                	b.ff1      r7,r3
   8157e:	00 df                   	b.addi     r6,r6,-0x1
   81580:	00 ff                   	b.addi     r7,r7,-0x1
   81582:	60 e6 39                	b.or       r7,r6,r7
   81585:	42 07 28                	b.bgesi    r7,0x0,81599 <iIPv6_CalculateIPv6AddressChecksum.1507+0x21>
   81588:	8c e0 48 f0 00 20       	b.lwz      r7,0x4000f10(r0)
   8158e:	d8 c0 60 80             	b.addi     r6,r0,0x106
   81592:	00 6f                   	b.movi     r3,-0x1
   81594:	2c c7 32                	b.sw       0x4c(r7),r6
   81597:	0f 90                   	b.j        815be <iIPv6_CalculateIPv6AddressChecksum.1507+0x46>
   81599:	2c 04 00                	b.sw       0x0(r4),r0
   8159c:	00 e0                   	b.movi     r7,0x0
   8159e:	60 a3 3c                	b.add      r5,r3,r7
   815a1:	00 f2                   	b.addi     r7,r7,0x4
   815a3:	3c 27 08                	b.sfnei    r7,0x10
   815a6:	29 05 80                	b.lhz      r8,0x0(r5)
   815a9:	2c c4 40                	b.lwz      r6,0x0(r4)
   815ac:	08 c8                   	b.add      r6,r6,r8
   815ae:	2c c4 00                	b.sw       0x0(r4),r6
   815b1:	28 a5 c0                	b.lhz      r5,0x2(r5)
   815b4:	08 c5                   	b.add      r6,r6,r5
   815b6:	2c c4 00                	b.sw       0x0(r4),r6
   815b9:	47 2a 7f                	b.bf       8159e <iIPv6_CalculateIPv6AddressChecksum.1507+0x26>
   815bc:	00 60                   	b.movi     r3,0x0
   815be:	47 d2 48                	b.jr       r9

000815c1 <iIPv6_CalculateIPv6PseudoHeaderChecksum>:
   815c1:	3e 05 34                	b.ff1      r6,r5
   815c4:	3e 03 3c                	b.ff1      r7,r3
   815c7:	00 df                   	b.addi     r6,r6,-0x1
   815c9:	00 ff                   	b.addi     r7,r7,-0x1
   815cb:	47 ac a0                	b.entri    0x3,0x5
   815ce:	60 e6 39                	b.or       r7,r6,r7
   815d1:	05 43                   	b.mov      r10,r3
   815d3:	05 64                   	b.mov      r11,r4
   815d5:	42 07 28                	b.bgesi    r7,0x0,815e9 <iIPv6_CalculateIPv6PseudoHeaderChecksum+0x28>
   815d8:	8c e0 48 f0 00 20       	b.lwz      r7,0x4000f10(r0)
   815de:	d8 c0 60 80             	b.addi     r6,r0,0x106
   815e2:	00 6f                   	b.movi     r3,-0x1
   815e4:	2c c7 32                	b.sw       0x4c(r7),r6
   815e7:	0d d0                   	b.j        81615 <iIPv6_CalculateIPv6PseudoHeaderChecksum+0x54>
   815e9:	30 81 10                	b.addi     r4,r1,0x8
   815ec:	30 63 10                	b.addi     r3,r3,0x8
   815ef:	2c a1 20                	b.sw       0x4(r1),r5
   815f2:	49 87 ff                	b.jal      81578 <iIPv6_CalculateIPv6AddressChecksum.1507>
   815f5:	30 6a 18                	b.addi     r3,r10,0x18
   815f8:	30 81 30                	b.addi     r4,r1,0xc
   815fb:	4a fb ff                	b.jal      81578 <iIPv6_CalculateIPv6AddressChecksum.1507>
   815fe:	2c c1 70                	b.lwz      r6,0xc(r1)
   81601:	2c e1 50                	b.lwz      r7,0x8(r1)
   81604:	2c a1 60                	b.lwz      r5,0x4(r1)
   81607:	08 e6                   	b.add      r7,r7,r6
   81609:	00 60                   	b.movi     r3,0x0
   8160b:	24 ca 8f                	b.lbz      r6,0xf1(r10)
   8160e:	08 e6                   	b.add      r7,r7,r6
   81610:	09 67                   	b.add      r11,r11,r7
   81612:	2d 65 00                	b.sw       0x0(r5),r11
   81615:	47 bc a0                	b.reti     0x3,0x5

00081618 <boBufferByHandleSearchMatch.16030>:
   81618:	2c a4 47                	b.lwz      r5,0xe0(r4)
   8161b:	2c c3 60                	b.lwz      r6,0x4(r3)
   8161e:	00 e0                   	b.movi     r7,0x0
   81620:	d2 ca 66 80             	b.bne      r5,r6,81636 <boBufferByHandleSearchMatch.16030+0x1e>
   81624:	24 a4 1f                	b.lbz      r5,0xf8(r4)
   81627:	24 c3 00                	b.lbz      r6,0x0(r3)
   8162a:	d2 cc 53 00             	b.bne      r6,r5,81636 <boBufferByHandleSearchMatch.16030+0x1e>
   8162e:	00 e8                   	b.movi     r7,0x1
   81630:	41 06 60                	b.bnei     r6,0x0,81636 <boBufferByHandleSearchMatch.16030+0x1e>
   81633:	24 e4 3b                	b.lbz      r7,0xdc(r4)
   81636:	04 67                   	b.mov      r3,r7
   81638:	47 d2 48                	b.jr       r9

0008163b <boTagIdSearchMatch.16034>:
   8163b:	28 c3 80                	b.lhz      r6,0x0(r3)
   8163e:	24 e4 b7                	b.lbz      r7,0xed(r4)
   81641:	00 60                   	b.movi     r3,0x0
   81643:	d2 ce 62 80             	b.bne      r7,r6,81657 <boTagIdSearchMatch.16034+0x1c>
   81647:	24 64 9f                	b.lbz      r3,0xf9(r4)
   8164a:	00 e8                   	b.movi     r7,0x1
   8164c:	60 63 3a                	b.xor      r3,r3,r7
   8164f:	3e 03 18                	b.extbz    r3,r3
   81652:	00 7f                   	b.addi     r3,r3,-0x1
   81654:	6c 63 f9                	b.srli     r3,r3,0x1f
   81657:	47 d2 48                	b.jr       r9

0008165a <boBufferReadyToTXSearchMatch.16026>:
   8165a:	24 e4 9f                	b.lbz      r7,0xf9(r4)
   8165d:	00 60                   	b.movi     r3,0x0
   8165f:	41 87 88                	b.bnei     r7,0x1,81670 <boBufferReadyToTXSearchMatch.16026+0x16>
   81662:	24 64 db                	b.lbz      r3,0xdb(r4)
   81665:	60 63 3a                	b.xor      r3,r3,r7
   81668:	3e 03 18                	b.extbz    r3,r3
   8166b:	00 7f                   	b.addi     r3,r3,-0x1
   8166d:	6c 63 f9                	b.srli     r3,r3,0x1f
   81670:	47 d2 48                	b.jr       r9

00081673 <boBufferByTagIdAndSrcAddrSearchMatch.16022>:
   81673:	28 c3 80                	b.lhz      r6,0x0(r3)
   81676:	28 a4 b7                	b.lhz      r5,0xec(r4)
   81679:	04 e3                   	b.mov      r7,r3
   8167b:	00 60                   	b.movi     r3,0x0
   8167d:	d2 ca 60 a0             	b.bne      r5,r6,816cd <boBufferByTagIdAndSrcAddrSearchMatch.16022+0x5a>
   81681:	24 a4 1f                	b.lbz      r5,0xf8(r4)
   81684:	24 c7 40                	b.lbz      r6,0x2(r7)
   81687:	d2 ca 66 20             	b.bne      r5,r6,816cd <boBufferByTagIdAndSrcAddrSearchMatch.16022+0x5a>
   8168b:	2c e7 60                	b.lwz      r7,0x4(r7)
   8168e:	24 c7 40                	b.lbz      r6,0x2(r7)
   81691:	41 c6 84                	b.bnei     r6,0x3,816b2 <boBufferByTagIdAndSrcAddrSearchMatch.16022+0x3f>
   81694:	24 c4 32                	b.lbz      r6,0x4c(r4)
   81697:	41 86 6c                	b.bnei     r6,0x1,816cd <boBufferByTagIdAndSrcAddrSearchMatch.16022+0x5a>
   8169a:	2c a4 62                	b.lwz      r5,0x44(r4)
   8169d:	2c c7 60                	b.lwz      r6,0x4(r7)
   816a0:	d2 ca 6b 40             	b.bne      r5,r6,816cd <boBufferByTagIdAndSrcAddrSearchMatch.16022+0x5a>
   816a4:	2c c4 52                	b.lwz      r6,0x48(r4)
   816a7:	2c e7 50                	b.lwz      r7,0x8(r7)
   816aa:	d2 cc 7c 40             	b.bne      r6,r7,816cd <boBufferByTagIdAndSrcAddrSearchMatch.16022+0x5a>
   816ae:	00 68                   	b.movi     r3,0x1
   816b0:	0e e0                   	b.j        816cd <boBufferByTagIdAndSrcAddrSearchMatch.16022+0x5a>
   816b2:	41 46 d8                	b.bnei     r6,0x2,816cd <boBufferByTagIdAndSrcAddrSearchMatch.16022+0x5a>
   816b5:	24 c4 32                	b.lbz      r6,0x4c(r4)
   816b8:	41 06 a8                	b.bnei     r6,0x0,816cd <boBufferByTagIdAndSrcAddrSearchMatch.16022+0x5a>
   816bb:	28 a4 a2                	b.lhz      r5,0x44(r4)
   816be:	28 c7 80                	b.lhz      r6,0x0(r7)
   816c1:	d2 ca 63 00             	b.bne      r5,r6,816cd <boBufferByTagIdAndSrcAddrSearchMatch.16022+0x5a>
   816c5:	28 c4 e2                	b.lhz      r6,0x46(r4)
   816c8:	28 e7 a0                	b.lhz      r7,0x4(r7)
   816cb:	0f ef                   	b.j        816aa <boBufferByTagIdAndSrcAddrSearchMatch.16022+0x37>
   816cd:	47 d2 48                	b.jr       r9

000816d0 <boAddressSearchMatch.16018>:
   816d0:	d8 84 00 80             	b.addi     r4,r4,0x100
   816d4:	60 64 1a                	b.xor      r3,r4,r3
   816d7:	3e 03 1c                	b.ff1      r3,r3
   816da:	00 7f                   	b.addi     r3,r3,-0x1
   816dc:	6c 63 f9                	b.srli     r3,r3,0x1f
   816df:	47 d2 48                	b.jr       r9

000816e2 <eEUI_CompareMulticast.1556>:
   816e2:	47 aa 80                	b.entri    0x5,0x1
   816e5:	2d 63 40                	b.lwz      r11,0x0(r3)
   816e8:	6c cb 09                	b.srli     r6,r11,0x10
   816eb:	3e 06 39                	b.extbs    r7,r6
   816ee:	42 07 a0                	b.bgesi    r7,0x0,816f3 <eEUI_CompareMulticast.1556+0x11>
   816f1:	0f ec                   	b.j        817d0 <eEUI_CompareMulticast.1556+0xee>
   816f3:	34 a6 02                	b.andi     r5,r6,0x40
   816f6:	00 e6                   	b.movi     r7,0x6
   816f8:	d0 40 5d b0             	b.bnei     r5,0x0,817d3 <eEUI_CompareMulticast.1556+0xf1>
   816fc:	35 46 f0                	b.andi     r10,r6,0xf
   816ff:	34 c6 0c                	b.andi     r6,r6,0x30
   81702:	38 e0 10                	b.ori      r7,r0,0x8
   81705:	3c 06 04                	b.sfeqi    r6,0x20
   81708:	47 2d 30                	b.bf       817d3 <eEUI_CompareMulticast.1556+0xf1>
   8170b:	3c 06 0c                	b.sfeqi    r6,0x30
   8170e:	47 21 a0                	b.bf       81766 <eEUI_CompareMulticast.1556+0x84>
   81711:	3c 06 08                	b.sfeqi    r6,0x10
   81714:	47 21 20                	b.bf       8175c <eEUI_CompareMulticast.1556+0x7a>
   81717:	95 6b ff ff 00 00       	b.andi     r11,r11,0xffff
   8171d:	d0 40 bc d0             	b.bnei     r11,0x0,817d0 <eEUI_CompareMulticast.1556+0xee>
   81721:	2c e3 60                	b.lwz      r7,0x4(r3)
   81724:	d0 40 73 50             	b.bnei     r7,0x0,817d0 <eEUI_CompareMulticast.1556+0xee>
   81728:	2c e3 50                	b.lwz      r7,0x8(r3)
   8172b:	d0 40 7a 50             	b.bnei     r7,0x0,817d0 <eEUI_CompareMulticast.1556+0xee>
   8172f:	2c e3 70                	b.lwz      r7,0xc(r3)
   81732:	40 47 e8                	b.beqi     r7,0x2,81749 <eEUI_CompareMulticast.1556+0x67>
   81735:	3c 07 68                	b.sfeqi    r7,0x16
   81738:	47 28 80                	b.bf       81749 <eEUI_CompareMulticast.1556+0x67>
   8173b:	d0 60 7a 90             	b.bnei     r7,0x1,817d0 <eEUI_CompareMulticast.1556+0xee>
   8173f:	01 5f                   	b.addi     r10,r10,-0x1
   81741:	00 ea                   	b.movi     r7,0x5
   81743:	d1 e0 ab 10             	b.bgtui    r10,0x1,817d0 <eEUI_CompareMulticast.1556+0xee>
   81747:	0c c4                   	b.j        817d3 <eEUI_CompareMulticast.1556+0xf1>
   81749:	8c e0 48 f0 00 20       	b.lwz      r7,0x4000f10(r0)
   8174f:	24 e7 12                	b.lbz      r7,0x48(r7)
   81752:	41 87 7e                	b.bnei     r7,0x1,817d0 <eEUI_CompareMulticast.1556+0xee>
   81755:	00 e6                   	b.movi     r7,0x6
   81757:	41 4a 9e                	b.bnei     r10,0x2,817d0 <eEUI_CompareMulticast.1556+0xee>
   8175a:	0e 78                   	b.j        817d3 <eEUI_CompareMulticast.1556+0xf1>
   8175c:	00 ee                   	b.movi     r7,0x7
   8175e:	d1 d0 aa e0             	b.bgtui    r10,0x2,817d3 <eEUI_CompareMulticast.1556+0xf1>
   81762:	00 e2                   	b.movi     r7,0x4
   81764:	0f d8                   	b.j        817d3 <eEUI_CompareMulticast.1556+0xf1>
   81766:	8c c0 48 f0 00 20       	b.lwz      r6,0x4000f10(r0)
   8176c:	2d a3 60                	b.lwz      r13,0x4(r3)
   8176f:	2c e6 41                	b.lwz      r7,0x80(r6)
   81772:	2d 83 50                	b.lwz      r12,0x8(r3)
   81775:	61 ad 3a                	b.xor      r13,r13,r7
   81778:	38 a0 02                	b.ori      r5,r0,0x40
   8177b:	00 60                   	b.movi     r3,0x0
   8177d:	2c e6 7e                	b.lwz      r7,0x7c(r6)
   81780:	00 88                   	b.movi     r4,0x1
   81782:	61 8c 3a                	b.xor      r12,r12,r7
   81785:	34 eb ff                	b.andi     r7,r11,0xff
   81788:	60 a5 3d                	b.sub      r5,r5,r7
   8178b:	4b 28 8a                	b.jal      95bde <__ashldi3>
   8178e:	60 80 25                	b.sub      r4,r0,r4
   81791:	3c 24 00                	b.sfnei    r4,0x0
   81794:	00 e8                   	b.movi     r7,0x1
   81796:	60 60 1d                	b.sub      r3,r0,r3
   81799:	64 e7 02                	b.cmov     r7,r7,r0
   8179c:	60 e3 3d                	b.sub      r7,r3,r7
   8179f:	61 a7 68                	b.and      r13,r7,r13
   817a2:	61 84 60                	b.and      r12,r4,r12
   817a5:	60 8d 61                	b.or       r4,r13,r12
   817a8:	00 e6                   	b.movi     r7,0x6
   817aa:	41 04 94                	b.bnei     r4,0x0,817d3 <eEUI_CompareMulticast.1556+0xf1>
   817ad:	38 c0 02                	b.ori      r6,r0,0x40
   817b0:	61 6b 32                	b.xor      r11,r11,r6
   817b3:	3e 0b 58                	b.extbz    r11,r11
   817b6:	01 7f                   	b.addi     r11,r11,-0x1
   817b8:	00 e8                   	b.movi     r7,0x1
   817ba:	3c ea 40                	b.sfleui   r10,0x2
   817bd:	6d 6b f9                	b.srli     r11,r11,0x1f
   817c0:	64 e7 02                	b.cmov     r7,r7,r0
   817c3:	60 e7 59                	b.or       r7,r7,r11
   817c6:	3e 07 38                	b.extbz    r7,r7
   817c9:	41 07 99                	b.bnei     r7,0x0,81762 <eEUI_CompareMulticast.1556+0x80>
   817cc:	00 ee                   	b.movi     r7,0x7
   817ce:	0e 80                   	b.j        817d3 <eEUI_CompareMulticast.1556+0xf1>
   817d0:	38 e0 10                	b.ori      r7,r0,0x8
   817d3:	04 67                   	b.mov      r3,r7
   817d5:	47 ba 80                	b.reti     0x5,0x1

000817d8 <vHandleNwkCallback.15199>:
   817d8:	8c e0 7b 60 00 20       	b.lwz      r7,0x40006dc(r0)
   817de:	47 a8 80                	b.entri    0x1,0x1
   817e1:	40 07 38                	b.beqi     r7,0x0,817fd <vHandleNwkCallback.15199+0x25>
   817e4:	3c e4 10                	b.sfleui   r4,0x8
   817e7:	47 2b 00                	b.bf       817f4 <vHandleNwkCallback.15199+0x1c>
   817ea:	00 91                   	b.addi     r4,r4,-0x8
   817ec:	30 a5 10                	b.addi     r5,r5,0x8
   817ef:	3e 04 20                	b.extbz    r4,r4
   817f2:	0d 80                   	b.j        817f8 <vHandleNwkCallback.15199+0x20>
   817f4:	00 a0                   	b.movi     r5,0x0
   817f6:	00 80                   	b.movi     r4,0x0
   817f8:	47 d1 38                	b.jalr     r7
   817fb:	0c 80                   	b.j        817ff <vHandleNwkCallback.15199+0x27>
   817fd:	00 68                   	b.movi     r3,0x1
   817ff:	47 b8 80                	b.reti     0x1,0x1

00081802 <vQueueApi.14010>:
   81802:	38 a0 28                	b.ori      r5,r0,0x14
   81805:	98 60 22 d0 00 20       	b.ori      r3,r0,0x4000b44
   8180b:	47 a8 80                	b.entri    0x1,0x1
   8180e:	d4 72 17 ef             	b.jal      5c <memcpy>
   81812:	47 b8 80                	b.reti     0x1,0x1

00081815 <vEstablishRoute_Backoff.12656>:
   81815:	8c e0 40 f0 00 20       	b.lwz      r7,0x4000f00(r0)
   8181b:	00 c8                   	b.movi     r6,0x1
   8181d:	c0 c7 94 80             	b.sb       0x129(r7),r6
   81821:	47 d2 48                	b.jr       r9

00081824 <vActiveScan_Backoff.12661>:
   81824:	47 d2 48                	b.jr       r9

00081827 <vNed_StateTimeoutHandler>:
   81827:	8c e0 40 f0 00 20       	b.lwz      r7,0x4000f00(r0)
   8182d:	00 c8                   	b.movi     r6,0x1
   8182f:	cc c7 32 80             	b.sw       0x14c(r7),r6
   81833:	47 d2 48                	b.jr       r9

00081836 <vNed_PollPeriodHandler>:
   81836:	8c e0 40 f0 00 20       	b.lwz      r7,0x4000f00(r0)
   8183c:	00 c8                   	b.movi     r6,0x1
   8183e:	c0 c7 54 80             	b.sb       0x12a(r7),r6
   81842:	47 d2 48                	b.jr       r9

00081845 <vNed_PollTimeoutHandler>:
   81845:	8c e0 40 f0 00 20       	b.lwz      r7,0x4000f00(r0)
   8184b:	c4 c7 b8 80             	b.lbz      r6,0x11d(r7)
   8184f:	41 86 a4                	b.bnei     r6,0x1,81874 <vNed_PollTimeoutHandler+0x2f>
   81852:	c0 07 b8 80             	b.sb       0x11d(r7),r0
   81856:	8c e0 60 f0 00 20       	b.lwz      r7,0x4000f04(r0)
   8185c:	c4 c7 26 80             	b.lbz      r6,0x164(r7)
   81860:	3c 06 b0                	b.sfeqi    r6,0xd
   81863:	47 29 00                	b.bf       8186c <vNed_PollTimeoutHandler+0x27>
   81866:	3c 06 f0                	b.sfeqi    r6,0xf
   81869:	47 3d 00                	b.bnf      81874 <vNed_PollTimeoutHandler+0x2f>
   8186c:	2c c7 44                	b.lwz      r6,0x20(r7)
   8186f:	00 d8                   	b.addi     r6,r6,0x1
   81871:	2c c7 04                	b.sw       0x20(r7),r6
   81874:	47 d2 48                	b.jr       r9

00081877 <vNed_ScanTimeoutHandler>:
   81877:	8c e0 60 f0 00 20       	b.lwz      r7,0x4000f04(r0)
   8187d:	47 a8 80                	b.entri    0x1,0x1
   81880:	c4 c7 26 80             	b.lbz      r6,0x164(r7)
   81884:	00 d7                   	b.addi     r6,r6,-0x2
   81886:	3e 06 30                	b.extbz    r6,r6
   81889:	3c a6 30                	b.sfgtui   r6,0xc
   8188c:	47 28 e0                	b.bf       818fd <vNed_ScanTimeoutHandler+0x86>
   8188f:	6c c6 40                	b.slli     r6,r6,0x2
   81892:	90 c6 05 18 10 00       	b.addi     r6,r6,0x818a0
   81898:	2c c6 40                	b.lwz      r6,0x0(r6)
   8189b:	47 d2 30                	b.jr       r6
   8189e:	00 00                   	b.trap     0x0
   818a0:	00 08                   	b.trap     0x1
   818a2:	18                      	.word 0x18
   818a3:	d4 00 08 18             	b.jal      2028a3 <_flash_data_start+0x16c913>
   818a7:	fd                      	.word 0xfd
   818a8:	00 08                   	b.trap     0x1
   818aa:	18                      	.word 0x18
   818ab:	d4 00 08 18             	b.jal      2028ab <_flash_data_start+0x16c91b>
   818af:	fd                      	.word 0xfd
   818b0:	00 08                   	b.trap     0x1
   818b2:	18                      	.word 0x18
   818b3:	fd                      	.word 0xfd
   818b4:	00 08                   	b.trap     0x1
   818b6:	18                      	.word 0x18
   818b7:	db 00 08 18             	b.addi     r24,r0,0x1810
   818bb:	df                      	.word 0xdf
   818bc:	00 08                   	b.trap     0x1
   818be:	18                      	.word 0x18
   818bf:	fd                      	.word 0xfd
   818c0:	00 08                   	b.trap     0x1
   818c2:	18                      	.word 0x18
   818c3:	fd                      	.word 0xfd
   818c4:	00 08                   	b.trap     0x1
   818c6:	18                      	.word 0x18
   818c7:	fd                      	.word 0xfd
   818c8:	00 08                   	b.trap     0x1
   818ca:	18                      	.word 0x18
   818cb:	fd                      	.word 0xfd
   818cc:	00 08                   	b.trap     0x1
   818ce:	18                      	.word 0x18
   818cf:	fd                      	.word 0xfd
   818d0:	00 08                   	b.trap     0x1
   818d2:	18                      	.word 0x18
   818d3:	e7                      	.word 0xe7
   818d4:	00 c8                   	b.movi     r6,0x1
   818d6:	20 c7 18                	b.sb       0x18(r7),r6
   818d9:	0c 90                   	b.j        818fd <vNed_ScanTimeoutHandler+0x86>
   818db:	00 ca                   	b.movi     r6,0x5
   818dd:	0c 80                   	b.j        818e1 <vNed_ScanTimeoutHandler+0x6a>
   818df:	00 c6                   	b.movi     r6,0x6
   818e1:	c0 c7 26 80             	b.sb       0x164(r7),r6
   818e5:	0c 60                   	b.j        818fd <vNed_ScanTimeoutHandler+0x86>
   818e7:	cc c7 79 80             	b.lwz      r6,0x19c(r7)
   818eb:	40 06 48                	b.beqi     r6,0x0,818fd <vNed_ScanTimeoutHandler+0x86>
   818ee:	c4 a7 45 80             	b.lbz      r5,0x1a2(r7)
   818f2:	cc 07 39 80             	b.sw       0x19c(r7),r0
   818f6:	c0 a7 26 80             	b.sb       0x164(r7),r5
   818fa:	47 d1 30                	b.jalr     r6
   818fd:	47 b8 80                	b.reti     0x1,0x1

00081900 <bOND_SafeToSleep.13998>:
   81900:	47 a8 80                	b.entri    0x1,0x1
   81903:	49 bf 84                	b.jal      8a0f9 <bJnc_IsStackRunning>
   81906:	40 03 e8                	b.beqi     r3,0x0,8191d <bOND_SafeToSleep.13998+0x1d>
   81909:	84 e0 1e d0 00 20       	b.lbz      r7,0x4000b78(r0)
   8190f:	40 07 70                	b.beqi     r7,0x0,8191d <bOND_SafeToSleep.13998+0x1d>
   81912:	84 e0 f4 d0 00 20       	b.lbz      r7,0x4000b2f(r0)
   81918:	00 60                   	b.movi     r3,0x0
   8191a:	41 87 30                	b.bnei     r7,0x1,81926 <bOND_SafeToSleep.13998+0x26>
   8191d:	8c 60 56 d0 00 20       	b.lwz      r3,0x4000b68(r0)
   81923:	47 d1 18                	b.jalr     r3
   81926:	47 b8 80                	b.reti     0x1,0x1

00081929 <vScanOrAssociate_Backoff>:
   81929:	47 a8 80                	b.entri    0x1,0x1
   8192c:	4b 5c 44                	b.jal      8a217 <vJnc_ClearScanListVect>
   8192f:	8c e0 60 f0 00 20       	b.lwz      r7,0x4000f04(r0)
   81935:	00 cc                   	b.movi     r6,0x3
   81937:	c0 c7 26 80             	b.sb       0x164(r7),r6
   8193b:	47 b8 80                	b.reti     0x1,0x1

0008193e <u8GroupAddUnique.17831>:
   8193e:	47 a6 00                	b.entri    0x6,0x0
   81941:	05 a3                   	b.mov      r13,r3
   81943:	05 c4                   	b.mov      r14,r4
   81945:	05 45                   	b.mov      r10,r5
   81947:	05 84                   	b.mov      r12,r4
   81949:	01 60                   	b.movi     r11,0x0
   8194b:	0f a0                   	b.j        81962 <u8GroupAddUnique.17831+0x24>
   8194d:	38 a0 08                	b.ori      r5,r0,0x10
   81950:	04 8c                   	b.mov      r4,r12
   81952:	04 6d                   	b.mov      r3,r13
   81954:	31 8c 08                	b.addi     r12,r12,0x10
   81957:	48 8a f2                	b.jal      9569b <memcmp>
   8195a:	40 03 f8                	b.beqi     r3,0x0,81979 <u8GroupAddUnique.17831+0x3b>
   8195d:	01 78                   	b.addi     r11,r11,0x1
   8195f:	3e 0b 58                	b.extbz    r11,r11
   81962:	d2 d6 ad 7f             	b.bne      r11,r10,8194d <u8GroupAddUnique.17831+0xf>
   81966:	6c 6a 20                	b.slli     r3,r10,0x4
   81969:	08 6e                   	b.add      r3,r3,r14
   8196b:	38 a0 08                	b.ori      r5,r0,0x10
   8196e:	01 58                   	b.addi     r10,r10,0x1
   81970:	04 8d                   	b.mov      r4,r13
   81972:	3e 0a 50                	b.extbz    r10,r10
   81975:	d4 e7 67 ef             	b.jal      5c <memcpy>
   81979:	04 6a                   	b.mov      r3,r10
   8197b:	47 b6 00                	b.reti     0x6,0x0

0008197e <u8CompressAddrs.17816>:
   8197e:	47 ae e0                	b.entri    0x7,0x7
   81981:	05 63                   	b.mov      r11,r3
   81983:	2c 81 08                	b.sw       0x10(r1),r4
   81986:	01 c0                   	b.movi     r14,0x0
   81988:	2c a1 28                	b.sw       0x14(r1),r5
   8198b:	01 40                   	b.movi     r10,0x0
   8198d:	01 88                   	b.movi     r12,0x1
   8198f:	0f 94                   	b.j        81a36 <u8CompressAddrs.17816+0xb8>
   81991:	60 cb 3c                	b.add      r6,r11,r7
   81994:	30 67 80                	b.addi     r3,r7,0x1
   81997:	08 6b                   	b.add      r3,r3,r11
   81999:	38 a0 b0                	b.ori      r5,r0,0xd
   8199c:	25 a6 00                	b.lbz      r13,0x0(r6)
   8199f:	2c 81 50                	b.lwz      r4,0x8(r1)
   819a2:	6d ad 80                	b.slli     r13,r13,0x1
   819a5:	31 ad 70                	b.addi     r13,r13,0xe
   819a8:	09 a7                   	b.add      r13,r13,r7
   819aa:	3e 0d 68                	b.extbz    r13,r13
   819ad:	54 c1 00                	b.msw      0x0(r1),r6,0x0
   819b0:	4b 5c f2                	b.jal      9569b <memcmp>
   819b3:	50 c1 00                	b.mlwz     r6,0x0(r1),0x0
   819b6:	41 03 5c                	b.bnei     r3,0x0,819f0 <u8CompressAddrs.17816+0x72>
   819b9:	d3 9a aa 80             	b.bgeu     r13,r10,819ce <u8CompressAddrs.17816+0x50>
   819bd:	30 6d 40                	b.addi     r3,r13,0x2
   819c0:	08 6b                   	b.add      r3,r3,r11
   819c2:	60 8b 6c                	b.add      r4,r11,r13
   819c5:	60 aa 6d                	b.sub      r5,r10,r13
   819c8:	4a 22 f2                	b.jal      956d9 <memmove>
   819cb:	50 c1 00                	b.mlwz     r6,0x0(r1),0x0
   819ce:	24 af 00                	b.lbz      r5,0x0(r15)
   819d1:	09 ab                   	b.add      r13,r13,r11
   819d3:	01 54                   	b.addi     r10,r10,0x2
   819d5:	3e 0a 50                	b.extbz    r10,r10
   819d8:	20 ad 00                	b.sb       0x0(r13),r5
   819db:	24 af 80                	b.lbz      r5,0x1(r15)
   819de:	20 ad 80                	b.sb       0x1(r13),r5
   819e1:	24 a6 00                	b.lbz      r5,0x0(r6)
   819e4:	00 b8                   	b.addi     r5,r5,0x1
   819e6:	20 a6 00                	b.sb       0x0(r6),r5
   819e9:	00 c8                   	b.movi     r6,0x1
   819eb:	2c c1 30                	b.sw       0xc(r1),r6
   819ee:	0c 80                   	b.j        819f2 <u8CompressAddrs.17816+0x74>
   819f0:	04 ed                   	b.mov      r7,r13
   819f2:	2c a1 70                	b.lwz      r5,0xc(r1)
   819f5:	3d ea 38                	b.sfgtu    r10,r7
   819f8:	60 cc 2a                	b.xor      r6,r12,r5
   819fb:	64 8c 02                	b.cmov     r4,r12,r0
   819fe:	3e 06 28                	b.extbz    r5,r6
   81a01:	60 c4 30                	b.and      r6,r4,r6
   81a04:	3e 06 30                	b.extbz    r6,r6
   81a07:	41 06 51                	b.bnei     r6,0x0,81991 <u8CompressAddrs.17816+0x13>
   81a0a:	3d 2a 22                	b.sfltui   r10,0x44
   81a0d:	64 ec 02                	b.cmov     r7,r12,r0
   81a10:	60 e5 38                	b.and      r7,r5,r7
   81a13:	40 07 78                	b.beqi     r7,0x0,81a31 <u8CompressAddrs.17816+0xb3>
   81a16:	60 eb 54                	b.add      r7,r11,r10
   81a19:	30 6a 80                	b.addi     r3,r10,0x1
   81a1c:	08 6b                   	b.add      r3,r3,r11
   81a1e:	38 a0 f0                	b.ori      r5,r0,0xf
   81a21:	31 4a 08                	b.addi     r10,r10,0x10
   81a24:	3e 0a 50                	b.extbz    r10,r10
   81a27:	2c 81 50                	b.lwz      r4,0x8(r1)
   81a2a:	21 87 00                	b.sb       0x0(r7),r12
   81a2d:	d4 f4 67 ef             	b.jal      5c <memcpy>
   81a31:	01 d8                   	b.addi     r14,r14,0x1
   81a33:	3e 0e 70                	b.extbz    r14,r14
   81a36:	2c e1 68                	b.lwz      r7,0x14(r1)
   81a39:	3d 2a 4a                	b.sfltui   r10,0x52
   81a3c:	64 cc 02                	b.cmov     r6,r12,r0
   81a3f:	3d e7 70                	b.sfgtu    r7,r14
   81a42:	64 ec 02                	b.cmov     r7,r12,r0
   81a45:	60 e6 38                	b.and      r7,r6,r7
   81a48:	3e 07 38                	b.extbz    r7,r7
   81a4b:	40 07 d8                	b.beqi     r7,0x0,81a66 <u8CompressAddrs.17816+0xe8>
   81a4e:	2c c1 48                	b.lwz      r6,0x10(r1)
   81a51:	6d 0e 20                	b.slli     r8,r14,0x4
   81a54:	09 06                   	b.add      r8,r8,r6
   81a56:	30 e8 80                	b.addi     r7,r8,0x1
   81a59:	31 e8 70                	b.addi     r15,r8,0xe
   81a5c:	2c e1 10                	b.sw       0x8(r1),r7
   81a5f:	00 e0                   	b.movi     r7,0x0
   81a61:	2c 01 30                	b.sw       0xc(r1),r0
   81a64:	0d c7                   	b.j        819f2 <u8CompressAddrs.17816+0x74>
   81a66:	04 6a                   	b.mov      r3,r10
   81a68:	47 be e0                	b.reti     0x7,0x7

00081a6b <u8GetChangedButUnnotifiedGroups.16883>:
   81a6b:	47 ae 80                	b.entri    0x7,0x1
   81a6e:	2d 64 40                	b.lwz      r11,0x0(r4)
   81a71:	05 a4                   	b.mov      r13,r4
   81a73:	61 6b 5b                	b.nand     r11,r11,r11
   81a76:	05 e5                   	b.mov      r15,r5
   81a78:	61 6b 18                	b.and      r11,r11,r3
   81a7b:	01 40                   	b.movi     r10,0x0
   81a7d:	01 80                   	b.movi     r12,0x0
   81a7f:	01 c8                   	b.movi     r14,0x1
   81a81:	0c b0                   	b.j        81ab5 <u8GetChangedButUnnotifiedGroups.16883+0x4a>
   81a83:	00 e8                   	b.movi     r7,0x1
   81a85:	60 e7 66                	b.sll      r7,r7,r12
   81a88:	60 c7 58                	b.and      r6,r7,r11
   81a8b:	40 06 14                	b.beqi     r6,0x0,81ab3 <u8GetChangedButUnnotifiedGroups.16883+0x48>
   81a8e:	2c cd 40                	b.lwz      r6,0x0(r13)
   81a91:	8c 80 5d 10 00 20       	b.lwz      r4,0x40008b8(r0)
   81a97:	61 6b 3a                	b.xor      r11,r11,r7
   81a9a:	60 e6 39                	b.or       r7,r6,r7
   81a9d:	6c 6a 20                	b.slli     r3,r10,0x4
   81aa0:	08 6f                   	b.add      r3,r3,r15
   81aa2:	38 a0 08                	b.ori      r5,r0,0x10
   81aa5:	01 58                   	b.addi     r10,r10,0x1
   81aa7:	2c ed 00                	b.sw       0x0(r13),r7
   81aaa:	6c ec 20                	b.slli     r7,r12,0x4
   81aad:	08 87                   	b.add      r4,r4,r7
   81aaf:	d4 b5 a7 ef             	b.jal      5c <memcpy>
   81ab3:	01 98                   	b.addi     r12,r12,0x1
   81ab5:	3e 0b 3c                	b.ff1      r7,r11
   81ab8:	60 e0 3d                	b.sub      r7,r0,r7
   81abb:	3c ea c0                	b.sfleui   r10,0x3
   81abe:	6c e7 f9                	b.srli     r7,r7,0x1f
   81ac1:	64 ce 02                	b.cmov     r6,r14,r0
   81ac4:	60 e7 30                	b.and      r7,r7,r6
   81ac7:	41 07 3d                	b.bnei     r7,0x0,81a83 <u8GetChangedButUnnotifiedGroups.16883+0x18>
   81aca:	3e 0a 18                	b.extbz    r3,r10
   81acd:	47 be 80                	b.reti     0x7,0x1

00081ad0 <b6LP_HandleRxEvent>:
   81ad0:	8c e0 48 f0 00 20       	b.lwz      r7,0x4000f10(r0)
   81ad6:	47 a8 80                	b.entri    0x1,0x1
   81ad9:	2c e7 6c                	b.lwz      r7,0x34(r7)
   81adc:	47 d1 38                	b.jalr     r7
   81adf:	00 e8                   	b.movi     r7,0x1
   81ae1:	60 63 3a                	b.xor      r3,r3,r7
   81ae4:	3e 03 1c                	b.ff1      r3,r3
   81ae7:	00 7f                   	b.addi     r3,r3,-0x1
   81ae9:	6c 63 f9                	b.srli     r3,r3,0x1f
   81aec:	47 b8 80                	b.reti     0x1,0x1

00081aef <u16IPv6_Truncate32bitChecksumTo16bit>:
   81aef:	0d 40                   	b.j        81af9 <u16IPv6_Truncate32bitChecksumTo16bit+0xa>
   81af1:	94 63 ff ff 00 00       	b.andi     r3,r3,0xffff
   81af7:	08 67                   	b.add      r3,r3,r7
   81af9:	6c e3 09                	b.srli     r7,r3,0x10
   81afc:	41 07 af                	b.bnei     r7,0x0,81af1 <u16IPv6_Truncate32bitChecksumTo16bit+0x2>
   81aff:	98 e0 ff ff 00 00       	b.ori      r7,r0,0xffff
   81b05:	60 63 1b                	b.nand     r3,r3,r3
   81b08:	3e 03 1a                	b.exthz    r3,r3
   81b0b:	3c 23 00                	b.sfnei    r3,0x0
   81b0e:	64 63 3a                	b.cmov     r3,r3,r7
   81b11:	47 d2 48                	b.jr       r9

00081b14 <u32IPv6_CalculatePayloadDataChecksum>:
   81b14:	6d 04 81                	b.srli     r8,r4,0x1
   81b17:	47 ac 80                	b.entri    0x3,0x1
   81b1a:	34 84 80                	b.andi     r4,r4,0x1
   81b1d:	30 c3 80                	b.addi     r6,r3,0x1
   81b20:	00 a0                   	b.movi     r5,0x0
   81b22:	00 e0                   	b.movi     r7,0x0
   81b24:	0d a0                   	b.j        81b3a <u32IPv6_CalculatePayloadDataChecksum+0x26>
   81b26:	c5 46 bf ff             	b.lbz      r10,-0x3(r6)
   81b2a:	c5 66 7f ff             	b.lbz      r11,-0x2(r6)
   81b2e:	6d 4a 10                	b.slli     r10,r10,0x8
   81b31:	09 4b                   	b.add      r10,r10,r11
   81b33:	3e 0a 52                	b.exthz    r10,r10
   81b36:	00 b8                   	b.addi     r5,r5,0x1
   81b38:	08 ea                   	b.add      r7,r7,r10
   81b3a:	00 d4                   	b.addi     r6,r6,0x2
   81b3c:	d3 50 55 7f             	b.bgts     r8,r5,81b26 <u32IPv6_CalculatePayloadDataChecksum+0x12>
   81b40:	40 04 08                	b.beqi     r4,0x0,81b50 <u32IPv6_CalculatePayloadDataChecksum+0x3c>
   81b43:	6d 08 80                	b.slli     r8,r8,0x1
   81b46:	08 68                   	b.add      r3,r3,r8
   81b48:	24 c3 00                	b.lbz      r6,0x0(r3)
   81b4b:	6c c6 10                	b.slli     r6,r6,0x8
   81b4e:	08 e6                   	b.add      r7,r7,r6
   81b50:	04 67                   	b.mov      r3,r7
   81b52:	47 bc 80                	b.reti     0x3,0x1

00081b55 <u16_6LP_DefGetSizeOfIPv6Record>:
   81b55:	8c e0 48 f0 00 20       	b.lwz      r7,0x4000f10(r0)
   81b5b:	28 67 b9                	b.lhz      r3,0x9c(r7)
   81b5e:	d8 63 db 00             	b.addi     r3,r3,0xdb
   81b62:	94 63 3f ff 00 00       	b.andi     r3,r3,0xfffc
   81b68:	47 d2 48                	b.jr       r9

00081b6b <i6LP_DefCreateInterfaceIdFrom64>:
   81b6b:	3e 04 34                	b.ff1      r6,r4
   81b6e:	3e 03 3c                	b.ff1      r7,r3
   81b71:	00 df                   	b.addi     r6,r6,-0x1
   81b73:	00 ff                   	b.addi     r7,r7,-0x1
   81b75:	47 a4 00                	b.entri    0x2,0x0
   81b78:	60 e6 39                	b.or       r7,r6,r7
   81b7b:	05 43                   	b.mov      r10,r3
   81b7d:	45 07 b8                	b.bltsi    r7,0x0,81b9a <i6LP_DefCreateInterfaceIdFrom64+0x2f>
   81b80:	38 a0 10                	b.ori      r5,r0,0x8
   81b83:	d4 9b 27 ef             	b.jal      5c <memcpy>
   81b87:	2c ca 60                	b.lwz      r6,0x4(r10)
   81b8a:	98 e0 00 00 00 40       	b.ori      r7,r0,0x2000000
   81b90:	60 e6 3a                	b.xor      r7,r6,r7
   81b93:	00 60                   	b.movi     r3,0x0
   81b95:	2c ea 20                	b.sw       0x4(r10),r7
   81b98:	0c 80                   	b.j        81b9c <i6LP_DefCreateInterfaceIdFrom64+0x31>
   81b9a:	00 6f                   	b.movi     r3,-0x1
   81b9c:	47 b4 00                	b.reti     0x2,0x0

00081b9f <eEUI_CompareWithPrefix>:
   81b9f:	2c e3 40                	b.lwz      r7,0x0(r3)
   81ba2:	9d c7 00 00 01 7f       	b.sfnei    r7,-0x1800000
   81ba8:	47 29 00                	b.bf       81bb1 <eEUI_CompareWithPrefix+0x12>
   81bab:	2c c3 60                	b.lwz      r6,0x4(r3)
   81bae:	40 06 d4                	b.beqi     r6,0x0,81bd9 <eEUI_CompareWithPrefix+0x3a>
   81bb1:	8c c0 48 f0 00 20       	b.lwz      r6,0x4000f10(r0)
   81bb7:	2c a6 41                	b.lwz      r5,0x80(r6)
   81bba:	d2 ce 57 00             	b.bne      r7,r5,81bc8 <eEUI_CompareWithPrefix+0x29>
   81bbe:	2c a3 60                	b.lwz      r5,0x4(r3)
   81bc1:	2c c6 7e                	b.lwz      r6,0x7c(r6)
   81bc4:	d2 8a 69 80             	b.beq      r5,r6,81bdd <eEUI_CompareWithPrefix+0x3e>
   81bc8:	6c c7 19                	b.srli     r6,r7,0x18
   81bcb:	9d c6 ff 00 00 00       	b.sfnei    r6,0xff
   81bd1:	00 ec                   	b.movi     r7,0x3
   81bd3:	47 23 00                	b.bf       81bdf <eEUI_CompareWithPrefix+0x40>
   81bd6:	46 30 df                	b.j        816e2 <eEUI_CompareMulticast.1556>
   81bd9:	00 e8                   	b.movi     r7,0x1
   81bdb:	0c 80                   	b.j        81bdf <eEUI_CompareWithPrefix+0x40>
   81bdd:	00 e4                   	b.movi     r7,0x2
   81bdf:	04 67                   	b.mov      r3,r7
   81be1:	47 d2 48                	b.jr       r9

00081be4 <eEUI_CompareWithDeviceAddress>:
   81be4:	8c e0 48 f0 00 20       	b.lwz      r7,0x4000f10(r0)
   81bea:	47 a4 00                	b.entri    0x2,0x0
   81bed:	24 a7 12                	b.lbz      r5,0x48(r7)
   81bf0:	2c c3 40                	b.lwz      r6,0x0(r3)
   81bf3:	41 85 e4                	b.bnei     r5,0x1,81c1a <eEUI_CompareWithDeviceAddress+0x36>
   81bf6:	00 a0                   	b.movi     r5,0x0
   81bf8:	41 06 38                	b.bnei     r6,0x0,81c14 <eEUI_CompareWithDeviceAddress+0x30>
   81bfb:	2c 83 60                	b.lwz      r4,0x4(r3)
   81bfe:	04 a6                   	b.mov      r5,r6
   81c00:	41 04 28                	b.bnei     r4,0x0,81c14 <eEUI_CompareWithDeviceAddress+0x30>
   81c03:	2c 83 50                	b.lwz      r4,0x8(r3)
   81c06:	41 04 70                	b.bnei     r4,0x0,81c14 <eEUI_CompareWithDeviceAddress+0x30>
   81c09:	2c a3 70                	b.lwz      r5,0xc(r3)
   81c0c:	3e 05 2c                	b.ff1      r5,r5
   81c0f:	00 bf                   	b.addi     r5,r5,-0x1
   81c11:	6c a5 f9                	b.srli     r5,r5,0x1f
   81c14:	3e 05 28                	b.extbz    r5,r5
   81c17:	41 05 72                	b.bnei     r5,0x0,81c65 <eEUI_CompareWithDeviceAddress+0x81>
   81c1a:	6c c6 19                	b.srli     r6,r6,0x18
   81c1d:	9d c6 ff 00 00 00       	b.sfnei    r6,0xff
   81c23:	47 29 00                	b.bf       81c2c <eEUI_CompareWithDeviceAddress+0x48>
   81c26:	47 c4 00                	b.rtnei    0x2,0x0
   81c29:	46 9d 5f                	b.j        816e2 <eEUI_CompareMulticast.1556>
   81c2c:	2c a3 50                	b.lwz      r5,0x8(r3)
   81c2f:	2c c7 51                	b.lwz      r6,0x88(r7)
   81c32:	01 40                   	b.movi     r10,0x0
   81c34:	d2 ca 6a 80             	b.bne      r5,r6,81c49 <eEUI_CompareWithDeviceAddress+0x65>
   81c38:	2d 43 70                	b.lwz      r10,0xc(r3)
   81c3b:	2c e7 61                	b.lwz      r7,0x84(r7)
   81c3e:	61 4a 3a                	b.xor      r10,r10,r7
   81c41:	3e 0a 54                	b.ff1      r10,r10
   81c44:	01 5f                   	b.addi     r10,r10,-0x1
   81c46:	6d 4a f9                	b.srli     r10,r10,0x1f
   81c49:	49 ab ff                	b.jal      81b9f <eEUI_CompareWithPrefix>
   81c4c:	00 ec                   	b.movi     r7,0x3
   81c4e:	60 e3 3a                	b.xor      r7,r3,r7
   81c51:	3e 07 38                	b.extbz    r7,r7
   81c54:	60 e0 3d                	b.sub      r7,r0,r7
   81c57:	6c e7 f9                	b.srli     r7,r7,0x1f
   81c5a:	61 4a 38                	b.and      r10,r10,r7
   81c5d:	3c 0a 00                	b.sfeqi    r10,0x0
   81c60:	64 63 02                	b.cmov     r3,r3,r0
   81c63:	0c 80                   	b.j        81c67 <eEUI_CompareWithDeviceAddress+0x83>
   81c65:	00 60                   	b.movi     r3,0x0
   81c67:	47 b4 00                	b.reti     0x2,0x0

00081c6a <vReturnBuffer.14766>:
   81c6a:	a8 c0 88 00 00 00       	b.mfspr    r6,r0,0x11
   81c70:	04 02                   	b.di       
   81c72:	2c a4 40                	b.lwz      r5,0x0(r4)
   81c75:	04 e5                   	b.mov      r7,r5
   81c77:	0f 40                   	b.j        81c82 <vReturnBuffer.14766+0x18>
   81c79:	d2 c6 76 00             	b.bne      r3,r7,81c7f <vReturnBuffer.14766+0x15>
   81c7d:	0d c0                   	b.j        81c8b <vReturnBuffer.14766+0x21>
   81c7f:	2c e7 40                	b.lwz      r7,0x0(r7)
   81c82:	41 07 ef                	b.bnei     r7,0x0,81c79 <vReturnBuffer.14766+0xf>
   81c85:	2c a3 00                	b.sw       0x0(r3),r5
   81c88:	2c 64 00                	b.sw       0x0(r4),r3
   81c8b:	a8 c0 88 00 00 01       	b.mtspr    r0,r6,0x11
   81c91:	47 d2 48                	b.jr       r9

00081c94 <vMiniMac_ReturnTxBufferCallback>:
   81c94:	98 80 37 e0 00 20       	b.ori      r4,r0,0x40007ec
   81c9a:	0c 2f                   	b.j        81c6a <vReturnBuffer.14766>

00081c9c <eOND_DevGetImage>:
   81c9c:	84 c0 01 d0 00 20       	b.lbz      r6,0x4000b80(r0)
   81ca2:	47 a8 80                	b.entri    0x1,0x1
   81ca5:	04 e3                   	b.mov      r7,r3
   81ca7:	00 64                   	b.movi     r3,0x2
   81ca9:	d3 ce 60 10             	b.bgtu     r7,r6,81d29 <eOND_DevGetImage+0x8d>
   81cad:	d2 ce 63 c0             	b.bne      r7,r6,81ce9 <eOND_DevGetImage+0x4d>
   81cb1:	00 e8                   	b.movi     r7,0x1
   81cb3:	20 e4 28                	b.sb       0x14(r4),r7
   81cb6:	38 a0 10                	b.ori      r5,r0,0x8
   81cb9:	04 64                   	b.mov      r3,r4
   81cbb:	8c e0 47 50 00 20       	b.lwz      r7,0x4000ae0(r0)
   81cc1:	28 04 08                	b.sh       0x10(r4),r0
   81cc4:	2c e4 10                	b.sw       0x8(r4),r7
   81cc7:	88 e0 a7 50 00 20       	b.lhz      r7,0x4000ae4(r0)
   81ccd:	28 e4 30                	b.sh       0xc(r4),r7
   81cd0:	88 e0 e7 50 00 20       	b.lhz      r7,0x4000ae6(r0)
   81cd6:	28 e4 70                	b.sh       0xe(r4),r7
   81cd9:	88 e0 b7 50 00 20       	b.lhz      r7,0x4000aec(r0)
   81cdf:	28 e4 48                	b.sh       0x12(r4),r7
   81ce2:	00 80                   	b.movi     r4,0x0
   81ce4:	4a 71 72                	b.jal      9571d <memset>
   81ce7:	0c 08                   	b.j        81d27 <eOND_DevGetImage+0x8b>
   81ce9:	38 60 24                	b.ori      r3,r0,0x24
   81cec:	64 e7 1b                	b.mul      r7,r7,r3
   81cef:	8c 60 61 d0 00 20       	b.lwz      r3,0x4000b84(r0)
   81cf5:	08 67                   	b.add      r3,r3,r7
   81cf7:	24 e3 f8                	b.lbz      r7,0x1f(r3)
   81cfa:	20 e4 28                	b.sb       0x14(r4),r7
   81cfd:	2c e3 40                	b.lwz      r7,0x0(r3)
   81d00:	2c e4 10                	b.sw       0x8(r4),r7
   81d03:	28 e3 a0                	b.lhz      r7,0x4(r3)
   81d06:	28 e4 30                	b.sh       0xc(r4),r7
   81d09:	28 e3 e0                	b.lhz      r7,0x6(r3)
   81d0c:	28 e4 70                	b.sh       0xe(r4),r7
   81d0f:	28 e3 b8                	b.lhz      r7,0x1c(r3)
   81d12:	28 e4 08                	b.sh       0x10(r4),r7
   81d15:	28 e3 a8                	b.lhz      r7,0x14(r3)
   81d18:	28 e4 48                	b.sh       0x12(r4),r7
   81d1b:	2c e3 70                	b.lwz      r7,0xc(r3)
   81d1e:	2c e4 00                	b.sw       0x0(r4),r7
   81d21:	2c e3 48                	b.lwz      r7,0x10(r3)
   81d24:	2c e4 20                	b.sw       0x4(r4),r7
   81d27:	00 60                   	b.movi     r3,0x0
   81d29:	47 b8 80                	b.reti     0x1,0x1

00081d2c <vUpdateImageValues.9525.1662>:
   81d2c:	84 e0 bb e0 00 20       	b.lbz      r7,0x40007dd(r0)
   81d32:	47 ac e0                	b.entri    0x3,0x7
   81d35:	9d 87 ff 00 00 00       	b.sfeqi    r7,0xff
   81d3b:	47 38 20                	b.bnf      81d7c <vUpdateImageValues.9525.1662+0x50>
   81d3e:	0f d0                   	b.j        81d6d <vUpdateImageValues.9525.1662+0x41>
   81d40:	24 e1 28                	b.lbz      r7,0x14(r1)
   81d43:	41 87 64                	b.bnei     r7,0x1,81d69 <vUpdateImageValues.9525.1662+0x3d>
   81d46:	2c e1 50                	b.lwz      r7,0x8(r1)
   81d49:	81 60 bb e0 00 20       	b.sb       0x40007dd(r0),r11
   81d4f:	8c e0 2b e0 00 20       	b.sw       0x40007d4(r0),r7
   81d55:	28 e1 b0                	b.lhz      r7,0xc(r1)
   81d58:	88 e0 5b e0 00 20       	b.sh       0x40007da(r0),r7
   81d5e:	28 e1 f0                	b.lhz      r7,0xe(r1)
   81d61:	88 e0 1b e0 00 20       	b.sh       0x40007d8(r0),r7
   81d67:	0e a0                   	b.j        81d7c <vUpdateImageValues.9525.1662+0x50>
   81d69:	01 58                   	b.addi     r10,r10,0x1
   81d6b:	0c 80                   	b.j        81d6f <vUpdateImageValues.9525.1662+0x43>
   81d6d:	01 40                   	b.movi     r10,0x0
   81d6f:	3e 0a 58                	b.extbz    r11,r10
   81d72:	04 81                   	b.mov      r4,r1
   81d74:	04 6b                   	b.mov      r3,r11
   81d76:	49 93 ff                	b.jal      81c9c <eOND_DevGetImage>
   81d79:	41 43 e3                	b.bnei     r3,0x2,81d40 <vUpdateImageValues.9525.1662+0x14>
   81d7c:	47 bc e0                	b.reti     0x3,0x7

00081d7f <vGetImage32.9535>:
   81d7f:	47 a8 c0                	b.entri    0x1,0x3
   81d82:	2c 61 20                	b.sw       0x4(r1),r3
   81d85:	2c 81 00                	b.sw       0x0(r1),r4
   81d88:	48 97 ff                	b.jal      81d2c <vUpdateImageValues.9525.1662>
   81d8b:	2c 61 60                	b.lwz      r3,0x4(r1)
   81d8e:	2c 81 40                	b.lwz      r4,0x0(r1)
   81d91:	00 a2                   	b.movi     r5,0x4
   81d93:	00 c0                   	b.movi     r6,0x0
   81d95:	47 c8 c0                	b.rtnei    0x1,0x3
   81d98:	d5 a1 e1 00             	b.j        8a51d <eJIP_PacketAddData>

00081d9c <vGetImage16.9531>:
   81d9c:	47 a8 c0                	b.entri    0x1,0x3
   81d9f:	2c 61 20                	b.sw       0x4(r1),r3
   81da2:	2c 81 00                	b.sw       0x0(r1),r4
   81da5:	4b 87 ff                	b.jal      81d2c <vUpdateImageValues.9525.1662>
   81da8:	2c 61 60                	b.lwz      r3,0x4(r1)
   81dab:	2c 81 40                	b.lwz      r4,0x0(r1)
   81dae:	00 a4                   	b.movi     r5,0x2
   81db0:	00 c0                   	b.movi     r6,0x0
   81db2:	47 c8 c0                	b.rtnei    0x1,0x3
   81db5:	d5 16 e1 00             	b.j        8a51d <eJIP_PacketAddData>

00081db9 <vGetImage8.9527>:
   81db9:	47 a8 c0                	b.entri    0x1,0x3
   81dbc:	2c 61 20                	b.sw       0x4(r1),r3
   81dbf:	2c 81 00                	b.sw       0x0(r1),r4
   81dc2:	49 5b ff                	b.jal      81d2c <vUpdateImageValues.9525.1662>
   81dc5:	2c 61 60                	b.lwz      r3,0x4(r1)
   81dc8:	2c 81 40                	b.lwz      r4,0x0(r1)
   81dcb:	00 a8                   	b.movi     r5,0x1
   81dcd:	00 c0                   	b.movi     r6,0x0
   81dcf:	47 c8 c0                	b.rtnei    0x1,0x3
   81dd2:	d5 d2 e1 00             	b.j        8a51d <eJIP_PacketAddData>

00081dd6 <vFillBlockBitmap.14024>:
   81dd6:	47 a2 00                	b.entri    0x4,0x0
   81dd9:	d9 80 00 08             	b.addi     r12,r0,0x1000
   81ddd:	9f 44 00 08 00 00       	b.sfleui   r4,0x1000
   81de3:	65 84 62                	b.cmov     r12,r4,r12
   81de6:	3e 0c 52                	b.exthz    r10,r12
   81de9:	6d 4a c1                	b.srli     r10,r10,0x3
   81dec:	05 63                   	b.mov      r11,r3
   81dee:	00 80                   	b.movi     r4,0x0
   81df0:	04 aa                   	b.mov      r5,r10
   81df2:	4b 52 72                	b.jal      9571d <memset>
   81df5:	d8 a0 00 40             	b.addi     r5,r0,0x200
   81df9:	09 6a                   	b.add      r11,r11,r10
   81dfb:	38 80 ff                	b.ori      r4,r0,0xff
   81dfe:	60 a5 55                	b.sub      r5,r5,r10
   81e01:	04 6b                   	b.mov      r3,r11
   81e03:	49 62 72                	b.jal      9571d <memset>
   81e06:	35 8c e0                	b.andi     r12,r12,0x7
   81e09:	38 e0 ff                	b.ori      r7,r0,0xff
   81e0c:	61 87 66                	b.sll      r12,r7,r12
   81e0f:	21 8b 00                	b.sb       0x0(r11),r12
   81e12:	47 b2 00                	b.reti     0x4,0x0

00081e15 <vOND_GenerateEvent>:
   81e15:	84 e0 f4 d0 00 20       	b.lbz      r7,0x4000b2f(r0)
   81e1b:	47 a8 80                	b.entri    0x1,0x1
   81e1e:	d2 28 7f 00             	b.bleui    r7,0x5,81e2d <vOND_GenerateEvent+0x18>
   81e22:	90 e3 2c 80 10 00       	b.addi     r7,r3,0x80134
   81e28:	24 e7 14                	b.lbz      r7,0x28(r7)
   81e2b:	0c 20                   	b.j        81e3b <vOND_GenerateEvent+0x26>
   81e2d:	6c e7 c0                	b.slli     r7,r7,0x3
   81e30:	08 e3                   	b.add      r7,r7,r3
   81e32:	90 e7 2c 80 10 00       	b.addi     r7,r7,0x80134
   81e38:	24 e7 00                	b.lbz      r7,0x0(r7)
   81e3b:	9d 87 ff 00 00 00       	b.sfeqi    r7,0xff
   81e41:	47 24 80                	b.bf       81e53 <vOND_GenerateEvent+0x3e>
   81e44:	6c e7 40                	b.slli     r7,r7,0x2
   81e47:	90 e7 02 20 10 00       	b.addi     r7,r7,0x80440
   81e4d:	2c e7 40                	b.lwz      r7,0x0(r7)
   81e50:	47 d1 38                	b.jalr     r7
   81e53:	47 b8 80                	b.reti     0x1,0x1

00081e56 <eStartDownload.9514>:
   81e56:	47 a4 60                	b.entri    0x2,0x6
   81e59:	8c 80 6b e0 00 20       	b.lwz      r4,0x40007d4(r0)
   81e5f:	88 60 db e0 00 20       	b.lhz      r3,0x40007da(r0)
   81e65:	89 00 9b e0 00 20       	b.lhz      r8,0x40007d8(r0)
   81e6b:	84 a0 01 d0 00 20       	b.lbz      r5,0x4000b80(r0)
   81e71:	8c c0 61 d0 00 20       	b.lwz      r6,0x4000b84(r0)
   81e77:	00 e0                   	b.movi     r7,0x0
   81e79:	0e 30                   	b.j        81eaa <eStartDownload.9514+0x54>
   81e7b:	30 c6 24                	b.addi     r6,r6,0x24
   81e7e:	c5 46 df ff             	b.lbz      r10,-0x5(r6)
   81e82:	41 0a 64                	b.bnei     r10,0x0,81ea8 <eStartDownload.9514+0x52>
   81e85:	00 e4                   	b.movi     r7,0x2
   81e87:	2c 81 10                	b.sw       0x8(r1),r4
   81e8a:	38 a0 28                	b.ori      r5,r0,0x14
   81e8d:	30 81 20                	b.addi     r4,r1,0x4
   81e90:	28 61 30                	b.sh       0xc(r1),r3
   81e93:	00 6e                   	b.movi     r3,0x7
   81e95:	20 e1 20                	b.sb       0x4(r1),r7
   81e98:	29 01 70                	b.sh       0xe(r1),r8
   81e9b:	2c 01 08                	b.sw       0x10(r1),r0
   81e9e:	2c 01 28                	b.sw       0x14(r1),r0
   81ea1:	48 bb ff                	b.jal      81e15 <vOND_GenerateEvent>
   81ea4:	00 60                   	b.movi     r3,0x0
   81ea6:	0f 40                   	b.j        81eb1 <eStartDownload.9514+0x5b>
   81ea8:	00 f8                   	b.addi     r7,r7,0x1
   81eaa:	d3 4a 78 bf             	b.bgts     r5,r7,81e7b <eStartDownload.9514+0x25>
   81eae:	38 60 ff                	b.ori      r3,r0,0xff
   81eb1:	47 b4 60                	b.reti     0x2,0x6

00081eb4 <eLoadImage.9510>:
   81eb4:	84 c0 01 d0 00 20       	b.lbz      r6,0x4000b80(r0)
   81eba:	47 a8 e0                	b.entri    0x1,0x7
   81ebd:	04 e3                   	b.mov      r7,r3
   81ebf:	38 60 ff                	b.ori      r3,r0,0xff
   81ec2:	d3 8e 6b 40             	b.bgeu     r7,r6,81eef <eLoadImage.9510+0x3b>
   81ec6:	38 c0 24                	b.ori      r6,r0,0x24
   81ec9:	64 c7 33                	b.mul      r6,r7,r6
   81ecc:	8c a0 61 d0 00 20       	b.lwz      r5,0x4000b84(r0)
   81ed2:	08 c5                   	b.add      r6,r6,r5
   81ed4:	24 c6 f8                	b.lbz      r6,0x1f(r6)
   81ed7:	41 c6 18                	b.bnei     r6,0x3,81eef <eLoadImage.9510+0x3b>
   81eda:	00 c8                   	b.movi     r6,0x1
   81edc:	30 81 20                	b.addi     r4,r1,0x4
   81edf:	38 a0 28                	b.ori      r5,r0,0x14
   81ee2:	00 6e                   	b.movi     r3,0x7
   81ee4:	20 c1 20                	b.sb       0x4(r1),r6
   81ee7:	20 e1 10                	b.sb       0x8(r1),r7
   81eea:	4b 53 ff                	b.jal      81e15 <vOND_GenerateEvent>
   81eed:	00 60                   	b.movi     r3,0x0
   81eef:	47 b8 e0                	b.reti     0x1,0x7

00081ef2 <vStartBlockTimer.14068>:
   81ef2:	47 ac 80                	b.entri    0x3,0x1
   81ef5:	28 e3 b8                	b.lhz      r7,0x1c(r3)
   81ef8:	2c 03 18                	b.sw       0x18(r3),r0
   81efb:	05 43                   	b.mov      r10,r3
   81efd:	20 03 78                	b.sb       0x1e(r3),r0
   81f00:	05 64                   	b.mov      r11,r4
   81f02:	40 07 8c                	b.beqi     r7,0x0,81f33 <vStartBlockTimer.14068+0x41>
   81f05:	2c e3 50                	b.lwz      r7,0x8(r3)
   81f08:	38 60 26                	b.ori      r3,r0,0x64
   81f0b:	d0 3e 78 80             	b.beqi     r7,-0x1,81f1c <vStartBlockTimer.14068+0x2a>
   81f0f:	94 67 ff ff ff fe       	f.abs.s    r3,r7
   81f15:	d8 80 8e 40             	b.addi     r4,r0,0x271
   81f19:	4b 58 72                	b.jal      95784 <__udivsi3>
   81f1c:	40 0b 10                	b.beqi     r11,0x0,81f24 <vStartBlockTimer.14068+0x32>
   81f1f:	00 ea                   	b.movi     r7,0x5
   81f21:	64 63 3b                	b.mul      r3,r3,r7
   81f24:	24 ea 04                	b.lbz      r7,0x20(r10)
   81f27:	6c e7 41                	b.srli     r7,r7,0x2
   81f2a:	60 63 3e                	b.sll      r3,r3,r7
   81f2d:	40 03 60                	b.beqi     r3,0x0,81f33 <vStartBlockTimer.14068+0x41>
   81f30:	2c 6a 18                	b.sw       0x18(r10),r3
   81f33:	47 bc 80                	b.reti     0x3,0x1

00081f36 <u8DetermineFlashSize.14018>:
   81f36:	8c e0 40 a8 00 80       	b.lwz      r7,0x1001500(r0)
   81f3c:	00 60                   	b.movi     r3,0x0
   81f3e:	34 e7 e0                	b.andi     r7,r7,0x7
   81f41:	41 e7 98                	b.bnei     r7,0x7,81f5a <u8DetermineFlashSize.14018+0x24>
   81f44:	cc f0 77 01             	b.lwz      r7,-0x7f14(r16)
   81f48:	34 e7 f0                	b.andi     r7,r7,0xf
   81f4b:	00 68                   	b.movi     r3,0x1
   81f4d:	40 07 b0                	b.beqi     r7,0x0,81f5a <u8DetermineFlashSize.14018+0x24>
   81f50:	98 e0 2a 6e 08 4c       	b.ori      r7,r0,0x32107654
   81f56:	cc f0 37 01             	b.sw       -0x7f14(r16),r7
   81f5a:	47 d2 48                	b.jr       r9

00081f5d <iHaveBlock.14004>:
   81f5d:	8c e0 47 50 00 20       	b.lwz      r7,0x4000ae0(r0)
   81f63:	47 aa 80                	b.entri    0x5,0x1
   81f66:	d2 c6 77 00             	b.bne      r3,r7,81f74 <iHaveBlock.14004+0x17>
   81f6a:	88 e0 a7 50 00 20       	b.lhz      r7,0x4000ae4(r0)
   81f70:	d2 8e 4e 40             	b.beq      r7,r4,81f97 <iHaveBlock.14004+0x3a>
   81f74:	8d a0 7e d0 00 20       	b.lwz      r13,0x4000b7c(r0)
   81f7a:	34 e6 e0                	b.andi     r7,r6,0x7
   81f7d:	6d 86 c1                	b.srli     r12,r6,0x3
   81f80:	01 68                   	b.movi     r11,0x1
   81f82:	85 40 01 d0 00 20       	b.lbz      r10,0x4000b80(r0)
   81f88:	61 6b 3e                	b.sll      r11,r11,r7
   81f8b:	09 8d                   	b.add      r12,r12,r13
   81f8d:	00 e0                   	b.movi     r7,0x0
   81f8f:	8d 00 61 d0 00 20       	b.lwz      r8,0x4000b84(r0)
   81f95:	0f 28                   	b.j        81fe8 <iHaveBlock.14004+0x8b>
   81f97:	88 e0 e7 50 00 20       	b.lhz      r7,0x4000ae6(r0)
   81f9d:	d3 ca 7e bf             	b.bgtu     r5,r7,81f74 <iHaveBlock.14004+0x17>
   81fa1:	88 e0 b7 50 00 20       	b.lhz      r7,0x4000aec(r0)
   81fa7:	d3 8c 7b 3f             	b.bgeu     r6,r7,81f74 <iHaveBlock.14004+0x17>
   81fab:	0e 88                   	b.j        81ff0 <iHaveBlock.14004+0x93>
   81fad:	25 a8 f8                	b.lbz      r13,0x1f(r8)
   81fb0:	01 b7                   	b.addi     r13,r13,-0x2
   81fb2:	3e 0d 68                	b.extbz    r13,r13
   81fb5:	d1 e0 d7 40             	b.bgtui    r13,0x1,81fe3 <iHaveBlock.14004+0x86>
   81fb9:	2d a8 40                	b.lwz      r13,0x0(r8)
   81fbc:	d2 c6 de 40             	b.bne      r3,r13,81fe3 <iHaveBlock.14004+0x86>
   81fc0:	29 a8 a0                	b.lhz      r13,0x4(r8)
   81fc3:	d2 da 40 40             	b.bne      r13,r4,81fe3 <iHaveBlock.14004+0x86>
   81fc7:	29 a8 e0                	b.lhz      r13,0x6(r8)
   81fca:	d3 ca d9 80             	b.bgtu     r5,r13,81fe3 <iHaveBlock.14004+0x86>
   81fce:	29 a8 a8                	b.lhz      r13,0x14(r8)
   81fd1:	d3 8c d4 80             	b.bgeu     r6,r13,81fe3 <iHaveBlock.14004+0x86>
   81fd5:	6d a7 90                	b.slli     r13,r7,0x9
   81fd8:	09 ac                   	b.add      r13,r13,r12
   81fda:	25 ad 00                	b.lbz      r13,0x0(r13)
   81fdd:	61 ad 58                	b.and      r13,r13,r11
   81fe0:	41 0d 48                	b.bnei     r13,0x0,81ff2 <iHaveBlock.14004+0x95>
   81fe3:	00 f8                   	b.addi     r7,r7,0x1
   81fe5:	31 08 24                	b.addi     r8,r8,0x24
   81fe8:	d3 54 7a 3f             	b.bgts     r10,r7,81fad <iHaveBlock.14004+0x50>
   81fec:	00 ef                   	b.movi     r7,-0x1
   81fee:	0c 80                   	b.j        81ff2 <iHaveBlock.14004+0x95>
   81ff0:	00 e7                   	b.movi     r7,-0x2
   81ff2:	04 67                   	b.mov      r3,r7
   81ff4:	47 ba 80                	b.reti     0x5,0x1

00081ff7 <psSearchDatabase.13603>:
   81ff7:	8c e0 73 10 00 20       	b.lwz      r7,0x40008cc(r0)
   81ffd:	00 c0                   	b.movi     r6,0x0
   81fff:	2d 07 40                	b.lwz      r8,0x0(r7)
   82002:	04 a7                   	b.mov      r5,r7
   82004:	d2 c6 8d 00             	b.bne      r3,r8,8200f <psSearchDatabase.13603+0x18>
   82008:	2d 07 60                	b.lwz      r8,0x4(r7)
   8200b:	d2 88 88 80             	b.beq      r4,r8,8201c <psSearchDatabase.13603+0x25>
   8200f:	00 d8                   	b.addi     r6,r6,0x1
   82011:	30 e7 38                	b.addi     r7,r7,0x1c
   82014:	3c 26 50                	b.sfnei    r6,0xa
   82017:	47 21 7f                	b.bf       81fff <psSearchDatabase.13603+0x8>
   8201a:	00 a0                   	b.movi     r5,0x0
   8201c:	04 65                   	b.mov      r3,r5
   8201e:	47 d2 48                	b.jr       r9

00082021 <vSecurityUpdateKey>:
   82021:	38 a0 28                	b.ori      r5,r0,0x14
   82024:	64 a3 2b                	b.mul      r5,r3,r5
   82027:	2d 04 40                	b.lwz      r8,0x0(r4)
   8202a:	90 e5 1b d0 00 20       	b.addi     r7,r5,0x4000bd8
   82030:	90 a5 17 d0 00 20       	b.addi     r5,r5,0x4000be8
   82036:	2d 07 00                	b.sw       0x0(r7),r8
   82039:	2d 04 60                	b.lwz      r8,0x4(r4)
   8203c:	2c c4 70                	b.lwz      r6,0xc(r4)
   8203f:	2d 07 20                	b.sw       0x4(r7),r8
   82042:	2d 04 50                	b.lwz      r8,0x8(r4)
   82045:	2c c7 30                	b.sw       0xc(r7),r6
   82048:	2d 07 10                	b.sw       0x8(r7),r8
   8204b:	30 e3 80                	b.addi     r7,r3,0x1
   8204e:	28 e5 00                	b.sh       0x0(r5),r7
   82051:	41 03 28                	b.bnei     r3,0x0,82065 <vSecurityUpdateKey+0x44>
   82054:	8c 60 60 f0 00 20       	b.lwz      r3,0x4000f04(r0)
   8205a:	38 a0 08                	b.ori      r5,r0,0x10
   8205d:	d8 63 11 80             	b.addi     r3,r3,0x188
   82061:	d5 df fb ef             	b.j        5c <memcpy>
   82065:	47 d2 48                	b.jr       r9

00082068 <vApi_SetNwkKey>:
   82068:	47 a4 00                	b.entri    0x2,0x0
   8206b:	05 43                   	b.mov      r10,r3
   8206d:	48 b7 ff                	b.jal      82021 <vSecurityUpdateKey>
   82070:	8c e0 60 f0 00 20       	b.lwz      r7,0x4000f04(r0)
   82076:	01 58                   	b.addi     r10,r10,0x1
   82078:	c1 47 59 80             	b.sb       0x19a(r7),r10
   8207c:	47 b4 00                	b.reti     0x2,0x0

0008207f <MibNwkSecurity_vSetSecurityKey.part.1.3068>:
   8207f:	6c 83 20                	b.slli     r4,r3,0x4
   82082:	90 84 33 b0 00 20       	b.addi     r4,r4,0x4000dcc
   82088:	00 ef                   	b.movi     r7,-0x1
   8208a:	00 60                   	b.movi     r3,0x0
   8208c:	88 e0 3f d0 00 20       	b.sh       0x4000bfc(r0),r7
   82092:	0d af                   	b.j        82068 <vApi_SetNwkKey>

00082094 <u8SecurityIsNeighbour>:
   82094:	8c c0 41 60 00 20       	b.lwz      r6,0x4000680(r0)
   8209a:	04 e3                   	b.mov      r7,r3
   8209c:	24 66 00                	b.lbz      r3,0x0(r6)
   8209f:	38 a0 30                	b.ori      r5,r0,0xc
   820a2:	00 74                   	b.addi     r3,r3,0x2
   820a4:	3e 03 18                	b.extbz    r3,r3
   820a7:	0d 50                   	b.j        820d1 <u8SecurityIsNeighbour+0x3d>
   820a9:	64 c3 2b                	b.mul      r6,r3,r5
   820ac:	2d 07 40                	b.lwz      r8,0x0(r7)
   820af:	90 86 2a 90 00 20       	b.addi     r4,r6,0x4000954
   820b5:	2c 84 40                	b.lwz      r4,0x0(r4)
   820b8:	d2 d0 42 80             	b.bne      r8,r4,820cc <u8SecurityIsNeighbour+0x38>
   820bc:	90 c6 1a 90 00 20       	b.addi     r6,r6,0x4000958
   820c2:	2c 87 60                	b.lwz      r4,0x4(r7)
   820c5:	2c c6 40                	b.lwz      r6,0x0(r6)
   820c8:	d2 88 64 80             	b.beq      r4,r6,820da <u8SecurityIsNeighbour+0x46>
   820cc:	00 78                   	b.addi     r3,r3,0x1
   820ce:	3e 03 18                	b.extbz    r3,r3
   820d1:	3c e3 98                	b.sfleui   r3,0x19
   820d4:	47 2a bf                	b.bf       820a9 <u8SecurityIsNeighbour+0x15>
   820d7:	38 60 ff                	b.ori      r3,r0,0xff
   820da:	47 d2 48                	b.jr       r9

000820dd <u8SecurityFreeEntry>:
   820dd:	8c e0 41 60 00 20       	b.lwz      r7,0x4000680(r0)
   820e3:	47 a4 00                	b.entri    0x2,0x0
   820e6:	24 c7 00                	b.lbz      r6,0x0(r7)
   820e9:	38 80 30                	b.ori      r4,r0,0xc
   820ec:	00 e0                   	b.movi     r7,0x0
   820ee:	64 86 23                	b.mul      r4,r6,r4
   820f1:	30 a6 40                	b.addi     r5,r6,0x2
   820f4:	90 84 2a 90 00 20       	b.addi     r4,r4,0x4000954
   820fa:	39 00 30                	b.ori      r8,r0,0xc
   820fd:	0d 60                   	b.j        82117 <u8SecurityFreeEntry+0x3a>
   820ff:	64 c7 43                	b.mul      r6,r7,r8
   82102:	08 c4                   	b.add      r6,r6,r4
   82104:	2d 46 58                	b.lwz      r10,0x18(r6)
   82107:	41 0a 70                	b.bnei     r10,0x0,82115 <u8SecurityFreeEntry+0x38>
   8210a:	2c c6 78                	b.lwz      r6,0x1c(r6)
   8210d:	41 06 10                	b.bnei     r6,0x0,82115 <u8SecurityFreeEntry+0x38>
   82110:	3e 03 18                	b.extbz    r3,r3
   82113:	0c 20                   	b.j        82123 <u8SecurityFreeEntry+0x46>
   82115:	00 f8                   	b.addi     r7,r7,0x1
   82117:	60 65 3c                	b.add      r3,r5,r7
   8211a:	3c c3 98                	b.sflesi   r3,0x19
   8211d:	47 24 7f                	b.bf       820ff <u8SecurityFreeEntry+0x22>
   82120:	38 60 ff                	b.ori      r3,r0,0xff
   82123:	47 b4 00                	b.reti     0x2,0x0

00082126 <vInterrupt_Resume>:
   82126:	8c e0 54 60 00 20       	b.lwz      r7,0x4000628(r0)
   8212c:	40 07 34                	b.beqi     r7,0x0,82158 <vInterrupt_Resume+0x32>
   8212f:	8c e0 54 60 00 20       	b.lwz      r7,0x4000628(r0)
   82135:	00 ff                   	b.addi     r7,r7,-0x1
   82137:	8c e0 14 60 00 20       	b.sw       0x4000628(r0),r7
   8213d:	41 07 d8                	b.bnei     r7,0x0,82158 <vInterrupt_Resume+0x32>
   82140:	a8 c0 88 00 00 00       	b.mfspr    r6,r0,0x11
   82146:	8c e0 4c 60 00 20       	b.lwz      r7,0x4000630(r0)
   8214c:	34 e7 60                	b.andi     r7,r7,0x6
   8214f:	60 e6 39                	b.or       r7,r6,r7
   82152:	a8 e0 88 00 00 01       	b.mtspr    r0,r7,0x11
   82158:	47 d2 48                	b.jr       r9

0008215b <vInterrupt_Suspend>:
   8215b:	8c e0 54 60 00 20       	b.lwz      r7,0x4000628(r0)
   82161:	30 c7 80                	b.addi     r6,r7,0x1
   82164:	8c c0 14 60 00 20       	b.sw       0x4000628(r0),r6
   8216a:	41 07 e4                	b.bnei     r7,0x0,82191 <vInterrupt_Suspend+0x36>
   8216d:	a8 e0 88 00 00 00       	b.mfspr    r7,r0,0x11
   82173:	8c e0 0c 60 00 20       	b.sw       0x4000630(r0),r7
   82179:	34 e7 60                	b.andi     r7,r7,0x6
   8217c:	40 07 a8                	b.beqi     r7,0x0,82191 <vInterrupt_Suspend+0x36>
   8217f:	a8 e0 88 00 00 00       	b.mfspr    r7,r0,0x11
   82185:	94 e7 9f ff ff ff       	b.andi     r7,r7,0xfffffff9
   8218b:	a8 e0 88 00 00 01       	b.mtspr    r0,r7,0x11
   82191:	47 d2 48                	b.jr       r9

00082194 <eJIP_RegisterMib>:
   82194:	84 e0 13 10 00 20       	b.lbz      r7,0x40008c8(r0)
   8219a:	47 a4 00                	b.entri    0x2,0x0
   8219d:	9d 87 ff 00 00 00       	b.sfeqi    r7,0xff
   821a3:	05 43                   	b.mov      r10,r3
   821a5:	38 60 ff                	b.ori      r3,r0,0xff
   821a8:	47 24 20                	b.bf       821ea <eJIP_RegisterMib+0x56>
   821ab:	2c ea 50                	b.lwz      r7,0x8(r10)
   821ae:	40 07 3c                	b.beqi     r7,0x0,821ea <eJIP_RegisterMib+0x56>
   821b1:	49 57 ff                	b.jal      8215b <vInterrupt_Suspend>
   821b4:	8c e0 64 60 00 20       	b.lwz      r7,0x4000624(r0)
   821ba:	41 07 d0                	b.bnei     r7,0x0,821c5 <eJIP_RegisterMib+0x31>
   821bd:	8d 40 24 60 00 20       	b.sw       0x4000624(r0),r10
   821c3:	0f 40                   	b.j        821ce <eJIP_RegisterMib+0x3a>
   821c5:	8c e0 74 60 00 20       	b.lwz      r7,0x400062c(r0)
   821cb:	2d 47 00                	b.sw       0x0(r7),r10
   821ce:	84 e0 13 10 00 20       	b.lbz      r7,0x40008c8(r0)
   821d4:	8d 40 34 60 00 20       	b.sw       0x400062c(r0),r10
   821da:	20 ea 30                	b.sb       0xc(r10),r7
   821dd:	00 f8                   	b.addi     r7,r7,0x1
   821df:	80 e0 13 10 00 20       	b.sb       0x40008c8(r0),r7
   821e5:	4a 0b ff                	b.jal      82126 <vInterrupt_Resume>
   821e8:	00 60                   	b.movi     r3,0x0
   821ea:	47 b4 00                	b.reti     0x2,0x0

000821ed <iNed_StopTimerVect>:
   821ed:	47 a8 c0                	b.entri    0x1,0x3
   821f0:	2c 61 20                	b.sw       0x4(r1),r3
   821f3:	48 5b ff                	b.jal      8215b <vInterrupt_Suspend>
   821f6:	2c 61 60                	b.lwz      r3,0x4(r1)
   821f9:	8c e0 40 f0 00 20       	b.lwz      r7,0x4000f00(r0)
   821ff:	30 63 68                	b.addi     r3,r3,0x16
   82202:	6c 63 20                	b.slli     r3,r3,0x4
   82205:	08 67                   	b.add      r3,r3,r7
   82207:	2c 03 20                	b.sw       0x4(r3),r0
   8220a:	48 e3 ff                	b.jal      82126 <vInterrupt_Resume>
   8220d:	00 60                   	b.movi     r3,0x0
   8220f:	47 b8 c0                	b.reti     0x1,0x3

00082212 <u16GetNextHopVect>:
   82212:	8c e0 60 f0 00 20       	b.lwz      r7,0x4000f04(r0)
   82218:	00 78                   	b.addi     r3,r3,0x1
   8221a:	47 ac 80                	b.entri    0x3,0x1
   8221d:	3e 03 1a                	b.exthz    r3,r3
   82220:	28 c7 9f                	b.lhz      r6,0xf8(r7)
   82223:	8d 00 69 60 00 20       	b.lwz      r8,0x4000694(r0)
   82229:	0f 50                   	b.j        82254 <u16GetNextHopVect+0x42>
   8222b:	2d 48 54                	b.lwz      r10,0x28(r8)
   8222e:	6c e3 20                	b.slli     r7,r3,0x4
   82231:	08 ea                   	b.add      r7,r7,r10
   82233:	2d 67 60                	b.lwz      r11,0x4(r7)
   82236:	2d 44 60                	b.lwz      r10,0x4(r4)
   82239:	d2 d6 a6 80             	b.bne      r11,r10,8224f <u16GetNextHopVect+0x3d>
   8223d:	2d 67 40                	b.lwz      r11,0x0(r7)
   82240:	2d 44 40                	b.lwz      r10,0x0(r4)
   82243:	d2 d6 a3 00             	b.bne      r11,r10,8224f <u16GetNextHopVect+0x3d>
   82247:	24 e7 10                	b.lbz      r7,0x8(r7)
   8224a:	20 e5 00                	b.sb       0x0(r5),r7
   8224d:	0e 20                   	b.j        8225e <u16GetNextHopVect+0x4c>
   8224f:	00 78                   	b.addi     r3,r3,0x1
   82251:	3e 03 1a                	b.exthz    r3,r3
   82254:	d3 cc 3e bf             	b.bgtu     r6,r3,8222b <u16GetNextHopVect+0x19>
   82258:	98 60 ff ff 00 00       	b.ori      r3,r0,0xffff
   8225e:	47 bc 80                	b.reti     0x3,0x1

00082261 <vSwap.11942>:
   82261:	47 aa a0                	b.entri    0x5,0x5
   82264:	8d 60 69 60 00 20       	b.lwz      r11,0x4000694(r0)
   8226a:	6c 63 20                	b.slli     r3,r3,0x4
   8226d:	38 a0 08                	b.ori      r5,r0,0x10
   82270:	05 44                   	b.mov      r10,r4
   82272:	2d 8b 54                	b.lwz      r12,0x28(r11)
   82275:	6d 4a 20                	b.slli     r10,r10,0x4
   82278:	61 ac 1c                	b.add      r13,r12,r3
   8227b:	04 8d                   	b.mov      r4,r13
   8227d:	04 61                   	b.mov      r3,r1
   8227f:	d4 bb bb ef             	b.jal      5c <memcpy>
   82283:	60 8c 54                	b.add      r4,r12,r10
   82286:	38 a0 08                	b.ori      r5,r0,0x10
   82289:	04 6d                   	b.mov      r3,r13
   8228b:	d4 8b bb ef             	b.jal      5c <memcpy>
   8228f:	2c 6b 54                	b.lwz      r3,0x28(r11)
   82292:	38 a0 08                	b.ori      r5,r0,0x10
   82295:	08 6a                   	b.add      r3,r3,r10
   82297:	04 81                   	b.mov      r4,r1
   82299:	d4 c3 bb ef             	b.jal      5c <memcpy>
   8229d:	47 ba a0                	b.reti     0x5,0x5

000822a0 <bNwk_GetNextHopAddressVect>:
   822a0:	8c e0 60 f0 00 20       	b.lwz      r7,0x4000f04(r0)
   822a6:	47 a8 80                	b.entri    0x1,0x1
   822a9:	c4 c7 a6 80             	b.lbz      r6,0x165(r7)
   822ad:	41 46 90                	b.bnei     r6,0x2,822b6 <bNwk_GetNextHopAddressVect+0x16>
   822b0:	d8 87 16 80             	b.addi     r4,r7,0x168
   822b4:	0e e0                   	b.j        822d1 <bNwk_GetNextHopAddressVect+0x31>
   822b6:	9d 84 ff 00 00 00       	b.sfeqi    r4,0xff
   822bc:	47 23 40                	b.bf       822e8 <bNwk_GetNextHopAddressVect+0x48>
   822bf:	8c e0 65 d0 00 20       	b.lwz      r7,0x4000ba4(r0)
   822c5:	6c 84 a0                	b.slli     r4,r4,0x5
   822c8:	08 87                   	b.add      r4,r4,r7
   822ca:	24 e4 90                	b.lbz      r7,0x9(r4)
   822cd:	d1 d0 7f 00             	b.bgtui    r7,0x2,822dc <bNwk_GetNextHopAddressVect+0x3c>
   822d1:	38 a0 10                	b.ori      r5,r0,0x8
   822d4:	d4 11 bb ef             	b.jal      5c <memcpy>
   822d8:	00 68                   	b.movi     r3,0x1
   822da:	0d 10                   	b.j        822fc <bNwk_GetNextHopAddressVect+0x5c>
   822dc:	38 a0 10                	b.ori      r5,r0,0x8
   822df:	00 80                   	b.movi     r4,0x0
   822e1:	48 f0 b2                	b.jal      9571d <memset>
   822e4:	00 60                   	b.movi     r3,0x0
   822e6:	0d a0                   	b.j        822fc <bNwk_GetNextHopAddressVect+0x5c>
   822e8:	d8 87 16 80             	b.addi     r4,r7,0x168
   822ec:	38 a0 10                	b.ori      r5,r0,0x8
   822ef:	d4 b6 bb ef             	b.jal      5c <memcpy>
   822f3:	8c e0 60 f0 00 20       	b.lwz      r7,0x4000f04(r0)
   822f9:	24 67 83                	b.lbz      r3,0xc1(r7)
   822fc:	47 b8 80                	b.reti     0x1,0x1

000822ff <bApi_GetNeighbourTableEntry>:
   822ff:	8c a0 60 f0 00 20       	b.lwz      r5,0x4000f04(r0)
   82305:	47 ac 80                	b.entri    0x3,0x1
   82308:	8c e0 65 d0 00 20       	b.lwz      r7,0x4000ba4(r0)
   8230e:	24 c5 4b                	b.lbz      r6,0xd2(r5)
   82311:	05 44                   	b.mov      r10,r4
   82313:	c4 e7 84 40             	b.lbz      r7,0x221(r7)
   82317:	40 06 a0                	b.beqi     r6,0x0,8231c <bApi_GetNeighbourTableEntry+0x1d>
   8231a:	0c 80                   	b.j        8231e <bApi_GetNeighbourTableEntry+0x1f>
   8231c:	00 f8                   	b.addi     r7,r7,0x1
   8231e:	20 ea 80                	b.sb       0x1(r10),r7
   82321:	00 e0                   	b.movi     r7,0x0
   82323:	8c c0 65 d0 00 20       	b.lwz      r6,0x4000ba4(r0)
   82329:	c4 86 84 40             	b.lbz      r4,0x221(r6)
   8232d:	d3 c6 4d 90             	b.bgtu     r3,r4,823c8 <bApi_GetNeighbourTableEntry+0xc9>
   82331:	41 03 dc                	b.bnei     r3,0x0,8236c <bApi_GetNeighbourTableEntry+0x6d>
   82334:	24 c5 4b                	b.lbz      r6,0xd2(r5)
   82337:	d0 40 68 90             	b.bnei     r6,0x0,823c8 <bApi_GetNeighbourTableEntry+0xc9>
   8233b:	20 0a 00                	b.sb       0x0(r10),r0
   8233e:	30 6a 20                	b.addi     r3,r10,0x4
   82341:	38 80 ff                	b.ori      r4,r0,0xff
   82344:	48 eb ff                	b.jal      822a0 <bNwk_GetNextHopAddressVect>
   82347:	8c e0 60 f0 00 20       	b.lwz      r7,0x4000f04(r0)
   8234d:	20 0a 30                	b.sb       0xc(r10),r0
   82350:	24 c7 23                	b.lbz      r6,0xc4(r7)
   82353:	20 ca b0                	b.sb       0xd(r10),r6
   82356:	28 c7 e3                	b.lhz      r6,0xc6(r7)
   82359:	28 ca 70                	b.sh       0xe(r10),r6
   8235c:	28 c7 93                	b.lhz      r6,0xc8(r7)
   8235f:	28 ca 08                	b.sh       0x10(r10),r6
   82362:	28 e7 d3                	b.lhz      r7,0xca(r7)
   82365:	28 ea 48                	b.sh       0x12(r10),r7
   82368:	00 ef                   	b.movi     r7,-0x1
   8236a:	0c 48                   	b.j        823b2 <bApi_GetNeighbourTableEntry+0xb3>
   8236c:	00 e8                   	b.movi     r7,0x1
   8236e:	01 60                   	b.movi     r11,0x0
   82370:	24 a6 90                	b.lbz      r5,0x9(r6)
   82373:	41 45 12                	b.bnei     r5,0x2,823bb <bApi_GetNeighbourTableEntry+0xbc>
   82376:	d2 ce 3c 20             	b.bne      r7,r3,823b9 <bApi_GetNeighbourTableEntry+0xba>
   8237a:	20 ea 00                	b.sb       0x0(r10),r7
   8237d:	30 6a 20                	b.addi     r3,r10,0x4
   82380:	3e 0b 20                	b.extbz    r4,r11
   82383:	4a e3 ff                	b.jal      822a0 <bNwk_GetNextHopAddressVect>
   82386:	8c e0 65 d0 00 20       	b.lwz      r7,0x4000ba4(r0)
   8238c:	6d 6b a0                	b.slli     r11,r11,0x5
   8238f:	08 eb                   	b.add      r7,r7,r11
   82391:	24 c7 10                	b.lbz      r6,0x8(r7)
   82394:	20 ca 30                	b.sb       0xc(r10),r6
   82397:	24 c7 50                	b.lbz      r6,0xa(r7)
   8239a:	20 ca b0                	b.sb       0xd(r10),r6
   8239d:	28 c7 b0                	b.lhz      r6,0xc(r7)
   823a0:	28 ca 70                	b.sh       0xe(r10),r6
   823a3:	28 c7 f0                	b.lhz      r6,0xe(r7)
   823a6:	28 ca 08                	b.sh       0x10(r10),r6
   823a9:	28 c7 88                	b.lhz      r6,0x10(r7)
   823ac:	2c e7 58                	b.lwz      r7,0x18(r7)
   823af:	28 ca 48                	b.sh       0x12(r10),r6
   823b2:	2c ea 28                	b.sw       0x14(r10),r7
   823b5:	00 e8                   	b.movi     r7,0x1
   823b7:	0e 20                   	b.j        823c8 <bApi_GetNeighbourTableEntry+0xc9>
   823b9:	00 f8                   	b.addi     r7,r7,0x1
   823bb:	01 78                   	b.addi     r11,r11,0x1
   823bd:	30 c6 04                	b.addi     r6,r6,0x20
   823c0:	3c 2b 08                	b.sfnei    r11,0x10
   823c3:	47 2b 5f                	b.bf       82370 <bApi_GetNeighbourTableEntry+0x71>
   823c6:	00 e0                   	b.movi     r7,0x0
   823c8:	04 67                   	b.mov      r3,r7
   823ca:	47 bc 80                	b.reti     0x3,0x1

000823cd <vGetParentMacAddress.8646>:
   823cd:	8c e0 48 f0 00 20       	b.lwz      r7,0x4000f10(r0)
   823d3:	47 a4 10                	b.entri    0x2,0x8
   823d6:	24 e7 92                	b.lbz      r7,0x49(r7)
   823d9:	05 43                   	b.mov      r10,r3
   823db:	41 47 e8                	b.bnei     r7,0x2,823f2 <vGetParentMacAddress.8646+0x25>
   823de:	30 81 10                	b.addi     r4,r1,0x8
   823e1:	00 60                   	b.movi     r3,0x0
   823e3:	48 e3 ff                	b.jal      822ff <bApi_GetNeighbourTableEntry>
   823e6:	2c e1 48                	b.lwz      r7,0x10(r1)
   823e9:	2c e1 00                	b.sw       0x0(r1),r7
   823ec:	2c e1 70                	b.lwz      r7,0xc(r1)
   823ef:	2c e1 20                	b.sw       0x4(r1),r7
   823f2:	38 a0 10                	b.ori      r5,r0,0x8
   823f5:	04 6a                   	b.mov      r3,r10
   823f7:	04 81                   	b.mov      r4,r1
   823f9:	00 c0                   	b.movi     r6,0x0
   823fb:	49 12 04                	b.jal      8a51d <eJIP_PacketAddData>
   823fe:	47 b4 10                	b.reti     0x2,0x8

00082401 <vNwk_SetDepthVect>:
   82401:	8c e0 60 f0 00 20       	b.lwz      r7,0x4000f04(r0)
   82407:	8c c0 65 d0 00 20       	b.lwz      r6,0x4000ba4(r0)
   8240d:	c8 67 1e 80             	b.sh       0x178(r7),r3
   82411:	c4 e6 84 40             	b.lbz      r7,0x221(r6)
   82415:	88 60 32 30 00 20       	b.sh       0x4000c4c(r0),r3
   8241b:	40 07 14                	b.beqi     r7,0x0,82443 <vNwk_SetDepthVect+0x42>
   8241e:	8c 80 41 60 00 20       	b.lwz      r4,0x4000680(r0)
   82424:	00 e0                   	b.movi     r7,0x0
   82426:	0d a0                   	b.j        8243c <vNwk_SetDepthVect+0x3b>
   82428:	6c a7 a0                	b.slli     r5,r7,0x5
   8242b:	08 a6                   	b.add      r5,r5,r6
   8242d:	24 65 90                	b.lbz      r3,0x9(r5)
   82430:	d1 d0 3e 00             	b.bgtui    r3,0x2,82437 <vNwk_SetDepthVect+0x36>
   82434:	20 05 b8                	b.sb       0x1d(r5),r0
   82437:	00 f8                   	b.addi     r7,r7,0x1
   82439:	3e 07 38                	b.extbz    r7,r7
   8243c:	24 a4 00                	b.lbz      r5,0x0(r4)
   8243f:	d3 ca 79 7f             	b.bgtu     r5,r7,82428 <vNwk_SetDepthVect+0x27>
   82443:	47 d2 48                	b.jr       r9

00082446 <bCheckRxSeqNoVect>:
   82446:	47 ac 80                	b.entri    0x3,0x1
   82449:	2c a3 60                	b.lwz      r5,0x4(r3)
   8244c:	d0 7e 5d 00             	b.bnei     r5,-0x1,82457 <bCheckRxSeqNoVect+0x11>
   82450:	2c e3 40                	b.lwz      r7,0x0(r3)
   82453:	d0 3e 73 a0             	b.beqi     r7,-0x1,824af <bCheckRxSeqNoVect+0x69>
   82457:	8c e0 51 60 00 20       	b.lwz      r7,0x4000688(r0)
   8245d:	d2 8a 74 80             	b.beq      r5,r7,8246f <bCheckRxSeqNoVect+0x29>
   82461:	8c e0 60 f0 00 20       	b.lwz      r7,0x4000f04(r0)
   82467:	04 c7                   	b.mov      r6,r7
   82469:	d9 07 03 00             	b.addi     r8,r7,0xc0
   8246d:	0e 20                   	b.j        8247e <bCheckRxSeqNoVect+0x38>
   8246f:	2c c3 40                	b.lwz      r6,0x0(r3)
   82472:	8c e0 61 60 00 20       	b.lwz      r7,0x4000684(r0)
   82478:	d2 cc 79 7f             	b.bne      r6,r7,82461 <bCheckRxSeqNoVect+0x1b>
   8247c:	0f 30                   	b.j        824af <bCheckRxSeqNoVect+0x69>
   8247e:	2d 46 60                	b.lwz      r10,0x4(r6)
   82481:	d2 ca aa 80             	b.bne      r5,r10,82496 <bCheckRxSeqNoVect+0x50>
   82485:	2d 46 40                	b.lwz      r10,0x0(r6)
   82488:	2d 63 40                	b.lwz      r11,0x0(r3)
   8248b:	d2 d6 ad 00             	b.bne      r11,r10,82496 <bCheckRxSeqNoVect+0x50>
   8248f:	25 46 10                	b.lbz      r10,0x8(r6)
   82492:	d2 94 4b 00             	b.beq      r10,r4,8249f <bCheckRxSeqNoVect+0x59>
   82496:	30 c6 30                	b.addi     r6,r6,0xc
   82499:	d2 cc 8a 7f             	b.bne      r6,r8,8247e <bCheckRxSeqNoVect+0x38>
   8249d:	0d a0                   	b.j        824b3 <bCheckRxSeqNoVect+0x6d>
   8249f:	00 60                   	b.movi     r3,0x0
   824a1:	24 c7 03                	b.lbz      r6,0xc0(r7)
   824a4:	3c 26 08                	b.sfnei    r6,0x10
   824a7:	47 23 40                	b.bf       824d3 <bCheckRxSeqNoVect+0x8d>
   824aa:	20 07 03                	b.sb       0xc0(r7),r0
   824ad:	0d 90                   	b.j        824d3 <bCheckRxSeqNoVect+0x8d>
   824af:	00 60                   	b.movi     r3,0x0
   824b1:	0d 10                   	b.j        824d3 <bCheckRxSeqNoVect+0x8d>
   824b3:	25 07 03                	b.lbz      r8,0xc0(r7)
   824b6:	38 c0 30                	b.ori      r6,r0,0xc
   824b9:	64 c8 33                	b.mul      r6,r8,r6
   824bc:	01 18                   	b.addi     r8,r8,0x1
   824be:	08 c7                   	b.add      r6,r6,r7
   824c0:	2c a6 20                	b.sw       0x4(r6),r5
   824c3:	2c a3 40                	b.lwz      r5,0x0(r3)
   824c6:	20 86 10                	b.sb       0x8(r6),r4
   824c9:	00 68                   	b.movi     r3,0x1
   824cb:	2c a6 00                	b.sw       0x0(r6),r5
   824ce:	21 07 03                	b.sb       0xc0(r7),r8
   824d1:	0c 2f                   	b.j        824a1 <bCheckRxSeqNoVect+0x5b>
   824d3:	47 bc 80                	b.reti     0x3,0x1

000824d6 <bNwk_IsParentVect>:
   824d6:	04 c3                   	b.mov      r6,r3
   824d8:	40 03 8c                	b.beqi     r3,0x0,82509 <bNwk_IsParentVect+0x33>
   824db:	8c e0 60 f0 00 20       	b.lwz      r7,0x4000f04(r0)
   824e1:	00 60                   	b.movi     r3,0x0
   824e3:	24 a7 83                	b.lbz      r5,0xc1(r7)
   824e6:	40 05 a4                	b.beqi     r5,0x0,8250b <bNwk_IsParentVect+0x35>
   824e9:	cc 87 76 80             	b.lwz      r4,0x16c(r7)
   824ed:	2c a6 60                	b.lwz      r5,0x4(r6)
   824f0:	d2 c8 5d 80             	b.bne      r4,r5,8250b <bNwk_IsParentVect+0x35>
   824f4:	cc a7 56 80             	b.lwz      r5,0x168(r7)
   824f8:	2c c6 40                	b.lwz      r6,0x0(r6)
   824fb:	d2 ca 60 80             	b.bne      r5,r6,8250b <bNwk_IsParentVect+0x35>
   824ff:	24 67 4b                	b.lbz      r3,0xd2(r7)
   82502:	00 7f                   	b.addi     r3,r3,-0x1
   82504:	6c 63 f9                	b.srli     r3,r3,0x1f
   82507:	0c 80                   	b.j        8250b <bNwk_IsParentVect+0x35>
   82509:	00 60                   	b.movi     r3,0x0
   8250b:	47 d2 48                	b.jr       r9

0008250e <bNwk_IsChild>:
   8250e:	47 a4 00                	b.entri    0x2,0x0
   82511:	40 03 82                	b.beqi     r3,0x0,82552 <bNwk_IsChild+0x44>
   82514:	8c e0 41 60 00 20       	b.lwz      r7,0x4000680(r0)
   8251a:	00 c0                   	b.movi     r6,0x0
   8251c:	24 a7 00                	b.lbz      r5,0x0(r7)
   8251f:	8c e0 65 d0 00 20       	b.lwz      r7,0x4000ba4(r0)
   82525:	0e 50                   	b.j        8254e <bNwk_IsChild+0x40>
   82527:	25 07 90                	b.lbz      r8,0x9(r7)
   8252a:	d1 d0 8f 80             	b.bgtui    r8,0x2,82549 <bNwk_IsChild+0x3b>
   8252e:	2d 03 60                	b.lwz      r8,0x4(r3)
   82531:	2d 47 60                	b.lwz      r10,0x4(r7)
   82534:	d2 d4 8a 80             	b.bne      r10,r8,82549 <bNwk_IsChild+0x3b>
   82538:	2d 03 40                	b.lwz      r8,0x0(r3)
   8253b:	2d 47 40                	b.lwz      r10,0x0(r7)
   8253e:	d2 d4 8d 00             	b.bne      r10,r8,82549 <bNwk_IsChild+0x3b>
   82542:	20 c4 00                	b.sb       0x0(r4),r6
   82545:	00 68                   	b.movi     r3,0x1
   82547:	0e c0                   	b.j        82554 <bNwk_IsChild+0x46>
   82549:	00 d8                   	b.addi     r6,r6,0x1
   8254b:	30 e7 04                	b.addi     r7,r7,0x20
   8254e:	d3 4a 69 bf             	b.bgts     r5,r6,82527 <bNwk_IsChild+0x19>
   82552:	00 60                   	b.movi     r3,0x0
   82554:	47 b4 00                	b.reti     0x2,0x0

00082557 <vJnc_HandleBeaconVect>:
   82557:	47 ae f0                	b.entri    0x7,0xf
   8255a:	25 a3 4a                	b.lbz      r13,0x52(r3)
   8255d:	24 c3 ca                	b.lbz      r6,0x53(r3)
   82560:	6d ad 10                	b.slli     r13,r13,0x8
   82563:	61 a6 69                	b.or       r13,r6,r13
   82566:	05 43                   	b.mov      r10,r3
   82568:	24 c3 3a                	b.lbz      r6,0x5c(r3)
   8256b:	24 e3 13                	b.lbz      r7,0xc8(r3)
   8256e:	25 c3 0a                	b.lbz      r14,0x50(r3)
   82571:	25 83 aa                	b.lbz      r12,0x55(r3)
   82574:	3c a6 90                	b.sfgtui   r6,0x9
   82577:	47 27 00                	b.bf       82585 <vJnc_HandleBeaconVect+0x2e>
   8257a:	6c c6 20                	b.slli     r6,r6,0x4
   8257d:	90 c6 39 00 00 20       	b.addi     r6,r6,0x400009c
   82583:	0c 40                   	b.j        8258b <vJnc_HandleBeaconVect+0x34>
   82585:	8c c0 41 60 00 20       	b.lwz      r6,0x4000680(r0)
   8258b:	25 e6 60                	b.lbz      r15,0x6(r6)
   8258e:	8c c0 40 f0 00 20       	b.lwz      r6,0x4000f00(r0)
   82594:	50 8a 20                	b.mlwz     r4,0x4(r10),0x0
   82597:	cc c6 4c 80             	b.lwz      r6,0x130(r6)
   8259b:	54 81 08                	b.msw      0x10(r1),r4,0x0
   8259e:	29 6a 88                	b.lhz      r11,0x10(r10)
   825a1:	41 06 88                	b.bnei     r6,0x0,825b2 <vJnc_HandleBeaconVect+0x5b>
   825a4:	8c c0 69 60 00 20       	b.lwz      r6,0x4000694(r0)
   825aa:	24 c6 00                	b.lbz      r6,0x0(r6)
   825ad:	40 06 3e                	b.beqi     r6,0x0,82629 <vJnc_HandleBeaconVect+0xd2>
   825b0:	0c 94                   	b.j        82654 <vJnc_HandleBeaconVect+0xfd>
   825b2:	3c 27 c8                	b.sfnei    r7,0x13
   825b5:	47 2f 7f                	b.bf       825a4 <vJnc_HandleBeaconVect+0x4d>
   825b8:	2c a1 38                	b.sw       0x1c(r1),r5
   825bb:	24 aa a8                	b.lbz      r5,0x15(r10)
   825be:	2c 81 18                	b.sw       0x18(r1),r4
   825c1:	20 a1 24                	b.sb       0x24(r1),r5
   825c4:	24 aa e8                	b.lbz      r5,0x17(r10)
   825c7:	29 61 04                	b.sh       0x20(r1),r11
   825ca:	29 a1 44                	b.sh       0x22(r1),r13
   825cd:	20 a1 a4                	b.sb       0x25(r1),r5
   825d0:	21 81 64                	b.sb       0x26(r1),r12
   825d3:	24 aa 6a                	b.lbz      r5,0x56(r10)
   825d6:	24 8a ea                	b.lbz      r4,0x57(r10)
   825d9:	6c a5 10                	b.slli     r5,r5,0x8
   825dc:	60 a4 29                	b.or       r5,r4,r5
   825df:	28 a1 14                	b.sh       0x28(r1),r5
   825e2:	24 6a 1a                	b.lbz      r3,0x58(r10)
   825e5:	24 8a 9a                	b.lbz      r4,0x59(r10)
   825e8:	24 aa 5a                	b.lbz      r5,0x5a(r10)
   825eb:	6c 63 18                	b.slli     r3,r3,0x18
   825ee:	6c 84 08                	b.slli     r4,r4,0x10
   825f1:	60 84 19                	b.or       r4,r4,r3
   825f4:	6c a5 10                	b.slli     r5,r5,0x8
   825f7:	60 a5 21                	b.or       r5,r5,r4
   825fa:	30 61 0c                	b.addi     r3,r1,0x30
   825fd:	24 8a da                	b.lbz      r4,0x5b(r10)
   82600:	2c e1 00                	b.sw       0x0(r1),r7
   82603:	60 a4 29                	b.or       r5,r4,r5
   82606:	30 8a ba                	b.addi     r4,r10,0x5d
   82609:	2c a1 34                	b.sw       0x2c(r1),r5
   8260c:	00 a6                   	b.movi     r5,0x6
   8260e:	2c c1 20                	b.sw       0x4(r1),r6
   82611:	d4 d2 5b ef             	b.jal      5c <memcpy>
   82615:	2c c1 60                	b.lwz      r6,0x4(r1)
   82618:	30 61 18                	b.addi     r3,r1,0x18
   8261b:	04 8e                   	b.mov      r4,r14
   8261d:	47 d1 30                	b.jalr     r6
   82620:	2c e1 40                	b.lwz      r7,0x0(r1)
   82623:	d0 00 39 28             	b.beqi     r3,0x0,8276c <vJnc_HandleBeaconVect+0x215>
   82627:	0e fb                   	b.j        825a4 <vJnc_HandleBeaconVect+0x4d>
   82629:	8c a0 60 f0 00 20       	b.lwz      r5,0x4000f04(r0)
   8262f:	24 a5 4b                	b.lbz      r5,0xd2(r5)
   82632:	40 05 44                	b.beqi     r5,0x0,82654 <vJnc_HandleBeaconVect+0xfd>
   82635:	8c e0 40 f0 00 20       	b.lwz      r7,0x4000f00(r0)
   8263b:	c4 c7 10 80             	b.lbz      r6,0x108(r7)
   8263f:	3e 06 29                	b.extbs    r5,r6
   82642:	d1 40 55 48             	b.bltsi    r5,0x0,8276c <vJnc_HandleBeaconVect+0x215>
   82646:	6c c6 80                	b.slli     r6,r6,0x1
   82649:	08 c7                   	b.add      r6,r6,r7
   8264b:	29 66 00                	b.sh       0x0(r6),r11
   8264e:	c4 c7 10 80             	b.lbz      r6,0x108(r7)
   82652:	0c a2                   	b.j        82766 <vJnc_HandleBeaconVect+0x20f>
   82654:	28 aa c8                	b.lhz      r5,0x12(r10)
   82657:	3e 05 2b                	b.exths    r5,r5
   8265a:	d0 80 54 88             	b.bgesi    r5,0x0,8276c <vJnc_HandleBeaconVect+0x215>
   8265e:	8c a0 40 f0 00 20       	b.lwz      r5,0x4000f00(r0)
   82664:	c4 85 10 80             	b.lbz      r4,0x108(r5)
   82668:	d1 f8 42 08             	b.bgtui    r4,0x7,8276c <vJnc_HandleBeaconVect+0x215>
   8266c:	00 84                   	b.movi     r4,0x2
   8266e:	61 ce 22                	b.xor      r14,r14,r4
   82671:	38 80 c8                	b.ori      r4,r0,0x13
   82674:	60 e7 22                	b.xor      r7,r7,r4
   82677:	3e 0e 70                	b.extbz    r14,r14
   8267a:	3e 07 38                	b.extbz    r7,r7
   8267d:	01 df                   	b.addi     r14,r14,-0x1
   8267f:	00 ff                   	b.addi     r7,r7,-0x1
   82681:	60 ee 38                	b.and      r7,r14,r7
   82684:	d0 80 71 70             	b.bgesi    r7,0x0,8276c <vJnc_HandleBeaconVect+0x215>
   82688:	8c e0 60 f0 00 20       	b.lwz      r7,0x4000f04(r0)
   8268e:	c8 e7 ee 80             	b.lhz      r7,0x176(r7)
   82692:	9d 87 ff ff 00 00       	b.sfeqi    r7,0xffff
   82698:	47 2e 00                	b.bf       8269f <vJnc_HandleBeaconVect+0x148>
   8269b:	d2 ce b8 b0             	b.bne      r7,r11,8276c <vJnc_HandleBeaconVect+0x215>
   8269f:	24 ea e8                	b.lbz      r7,0x17(r10)
   826a2:	d3 de 75 30             	b.bgtu     r15,r7,8276c <vJnc_HandleBeaconVect+0x215>
   826a6:	24 ea 6a                	b.lbz      r7,0x56(r10)
   826a9:	24 8a ea                	b.lbz      r4,0x57(r10)
   826ac:	6c e7 10                	b.slli     r7,r7,0x8
   826af:	60 e4 39                	b.or       r7,r4,r7
   826b2:	c8 a5 8a 80             	b.lhz      r5,0x150(r5)
   826b6:	d2 ca 76 d0             	b.bne      r5,r7,8276c <vJnc_HandleBeaconVect+0x215>
   826ba:	41 06 14                	b.bnei     r6,0x0,826e2 <vJnc_HandleBeaconVect+0x18b>
   826bd:	30 61 08                	b.addi     r3,r1,0x10
   826c0:	30 81 f0                	b.addi     r4,r1,0xf
   826c3:	4b 49 ff                	b.jal      8250e <bNwk_IsChild>
   826c6:	d0 40 36 50             	b.bnei     r3,0x0,8276c <vJnc_HandleBeaconVect+0x215>
   826ca:	98 60 ff ff 00 00       	b.ori      r3,r0,0xffff
   826d0:	30 81 08                	b.addi     r4,r1,0x10
   826d3:	30 a1 f0                	b.addi     r5,r1,0xf
   826d6:	48 f3 7f                	b.jal      82212 <u16GetNextHopVect>
   826d9:	9d c3 ff ff 00 00       	b.sfnei    r3,0xffff
   826df:	47 2b 10                	b.bf       8276c <vJnc_HandleBeaconVect+0x215>
   826e2:	8c c0 40 f0 00 20       	b.lwz      r6,0x4000f00(r0)
   826e8:	2c a1 48                	b.lwz      r5,0x10(r1)
   826eb:	c4 66 10 80             	b.lbz      r3,0x108(r6)
   826ef:	6c 63 a0                	b.slli     r3,r3,0x5
   826f2:	60 e6 1c                	b.add      r7,r6,r3
   826f5:	30 63 18                	b.addi     r3,r3,0x18
   826f8:	08 66                   	b.add      r3,r3,r6
   826fa:	2c a7 00                	b.sw       0x0(r7),r5
   826fd:	2c a1 68                	b.lwz      r5,0x14(r1)
   82700:	29 67 10                	b.sh       0x8(r7),r11
   82703:	2c a7 20                	b.sw       0x4(r7),r5
   82706:	29 a7 50                	b.sh       0xa(r7),r13
   82709:	24 aa a8                	b.lbz      r5,0x15(r10)
   8270c:	20 a7 30                	b.sb       0xc(r7),r5
   8270f:	24 aa e8                	b.lbz      r5,0x17(r10)
   82712:	21 87 70                	b.sb       0xe(r7),r12
   82715:	20 a7 b0                	b.sb       0xd(r7),r5
   82718:	24 aa 6a                	b.lbz      r5,0x56(r10)
   8271b:	24 8a ea                	b.lbz      r4,0x57(r10)
   8271e:	6c a5 10                	b.slli     r5,r5,0x8
   82721:	60 a4 29                	b.or       r5,r4,r5
   82724:	28 a7 08                	b.sh       0x10(r7),r5
   82727:	25 0a 1a                	b.lbz      r8,0x58(r10)
   8272a:	24 8a 9a                	b.lbz      r4,0x59(r10)
   8272d:	24 aa 5a                	b.lbz      r5,0x5a(r10)
   82730:	6d 08 18                	b.slli     r8,r8,0x18
   82733:	6c 84 08                	b.slli     r4,r4,0x10
   82736:	60 84 41                	b.or       r4,r4,r8
   82739:	6c a5 10                	b.slli     r5,r5,0x8
   8273c:	60 a5 21                	b.or       r5,r5,r4
   8273f:	24 8a da                	b.lbz      r4,0x5b(r10)
   82742:	60 a4 29                	b.or       r5,r4,r5
   82745:	30 8a ba                	b.addi     r4,r10,0x5d
   82748:	2c a7 28                	b.sw       0x14(r7),r5
   8274b:	00 a6                   	b.movi     r5,0x6
   8274d:	d4 f0 9b ef             	b.jal      5c <memcpy>
   82751:	8c e0 40 f0 00 20       	b.lwz      r7,0x4000f00(r0)
   82757:	24 8a 3a                	b.lbz      r4,0x5c(r10)
   8275a:	c4 c7 10 80             	b.lbz      r6,0x108(r7)
   8275e:	6c a6 a0                	b.slli     r5,r6,0x5
   82761:	08 a7                   	b.add      r5,r5,r7
   82763:	20 85 78                	b.sb       0x1e(r5),r4
   82766:	00 d8                   	b.addi     r6,r6,0x1
   82768:	c0 c7 10 80             	b.sb       0x108(r7),r6
   8276c:	47 be f0                	b.reti     0x7,0xf
	...

00082770 <v6LP_Tick>:
   82770:	47 ae e6                	b.entri    0x7,0x67
   82773:	cd 90 64 29             	b.lwz      r12,-0x6bdc(r16)
   82777:	8c c0 65 60 00 20       	b.lwz      r6,0x40006a4(r0)
   8277d:	88 e0 89 00 00 20       	b.lhz      r7,0x4000090(r0)
   82783:	60 cc 35                	b.sub      r6,r12,r6
   82786:	a3 ce 6d db 00 00       	b.bgtu     r7,r6,83541 <v6LP_Tick+0xdd1>
   8278c:	8d 80 25 60 00 20       	b.sw       0x40006a4(r0),r12
   82792:	0f f0                   	b.j        827d1 <v6LP_Tick+0x61>
   82794:	84 c0 83 60 00 20       	b.lbz      r6,0x40006c1(r0)
   8279a:	8c e0 7d 60 00 20       	b.lwz      r7,0x40006bc(r0)
   827a0:	3e 06 30                	b.extbz    r6,r6
   827a3:	6c c6 c0                	b.slli     r6,r6,0x3
   827a6:	08 c7                   	b.add      r6,r6,r7
   827a8:	2c e6 40                	b.lwz      r7,0x0(r6)
   827ab:	40 07 90                	b.beqi     r7,0x0,827b4 <v6LP_Tick+0x44>
   827ae:	2c 66 60                	b.lwz      r3,0x4(r6)
   827b1:	47 d1 38                	b.jalr     r7
   827b4:	84 e0 83 60 00 20       	b.lbz      r7,0x40006c1(r0)
   827ba:	84 c0 31 00 00 20       	b.lbz      r6,0x400008c(r0)
   827c0:	00 f8                   	b.addi     r7,r7,0x1
   827c2:	3e 07 38                	b.extbz    r7,r7
   827c5:	3d e6 38                	b.sfgtu    r6,r7
   827c8:	64 e7 02                	b.cmov     r7,r7,r0
   827cb:	80 e0 83 60 00 20       	b.sb       0x40006c1(r0),r7
   827d1:	84 c0 83 60 00 20       	b.lbz      r6,0x40006c1(r0)
   827d7:	84 e0 03 60 00 20       	b.lbz      r7,0x40006c0(r0)
   827dd:	3e 06 30                	b.extbz    r6,r6
   827e0:	3e 07 38                	b.extbz    r7,r7
   827e3:	d2 cc 78 df             	b.bne      r6,r7,82794 <v6LP_Tick+0x24>
   827e7:	46 f2 a0                	b.j        82d36 <v6LP_Tick+0x5c6>
   827ea:	85 40 9d 60 00 20       	b.lbz      r10,0x40006b9(r0)
   827f0:	38 e0 31                	b.ori      r7,r0,0x8c
   827f3:	3e 0a 50                	b.extbz    r10,r10
   827f6:	65 4a 3b                	b.mul      r10,r10,r7
   827f9:	8c e0 6d 60 00 20       	b.lwz      r7,0x40006b4(r0)
   827ff:	09 47                   	b.add      r10,r10,r7
   82801:	24 ea 51                	b.lbz      r7,0x8a(r10)
   82804:	24 8a 11                	b.lbz      r4,0x88(r10)
   82807:	80 e0 15 60 00 20       	b.sb       0x40006a8(r0),r7
   8280d:	3c 04 88                	b.sfeqi    r4,0x11
   82810:	24 ea d1                	b.lbz      r7,0x8b(r10)
   82813:	25 6a 91                	b.lbz      r11,0x89(r10)
   82816:	80 e0 95 60 00 20       	b.sb       0x40006a9(r0),r7
   8281c:	47 24 d0                	b.bf       828ce <v6LP_Tick+0x15e>
   8281f:	3c a4 88                	b.sfgtui   r4,0x11
   82822:	47 2f c0                	b.bf       82861 <v6LP_Tick+0xf1>
   82825:	3c 04 90                	b.sfeqi    r4,0x9
   82828:	47 2c 10                	b.bf       828ab <v6LP_Tick+0x13b>
   8282b:	3c a4 90                	b.sfgtui   r4,0x9
   8282e:	47 20 80                	b.bf       8283e <v6LP_Tick+0xce>
   82831:	d0 20 47 b0             	b.beqi     r4,0x1,8290f <v6LP_Tick+0x19f>
   82835:	40 04 6e                	b.beqi     r4,0x0,828ab <v6LP_Tick+0x13b>
   82838:	d0 58 48 72             	b.bnei     r4,0x6,82d19 <v6LP_Tick+0x5a9>
   8283c:	0f 42                   	b.j        82947 <v6LP_Tick+0x1d7>
   8283e:	3c 04 b0                	b.sfeqi    r4,0xd
   82841:	47 20 c4                	b.bf       82a71 <v6LP_Tick+0x301>
   82844:	3c a4 b0                	b.sfgtui   r4,0xd
   82847:	47 2d 00                	b.bf       82852 <v6LP_Tick+0xe2>
   8284a:	3c 04 50                	b.sfeqi    r4,0xa
   8284d:	47 33 32                	b.bnf      82d19 <v6LP_Tick+0x5a9>
   82850:	0c 12                   	b.j        82970 <v6LP_Tick+0x200>
   82852:	3c 04 70                	b.sfeqi    r4,0xe
   82855:	47 24 14                	b.bf       82ad7 <v6LP_Tick+0x367>
   82858:	3c 04 f0                	b.sfeqi    r4,0xf
   8285b:	47 37 d2                	b.bnf      82d19 <v6LP_Tick+0x5a9>
   8285e:	46 c8 40                	b.j        82a71 <v6LP_Tick+0x301>
   82861:	3c 04 98                	b.sfeqi    r4,0x19
   82864:	47 25 52                	b.bf       82d0e <v6LP_Tick+0x59e>
   82867:	3c a4 98                	b.sfgtui   r4,0x19
   8286a:	47 21 80                	b.bf       82882 <v6LP_Tick+0x112>
   8286d:	3c 04 a8                	b.sfeqi    r4,0x15
   82870:	47 25 e4                	b.bf       82aea <v6LP_Tick+0x37a>
   82873:	3d 24 a8                	b.sfltui   r4,0x15
   82876:	47 2d f8                	b.bf       82a71 <v6LP_Tick+0x301>
   82879:	3c 04 e8                	b.sfeqi    r4,0x17
   8287c:	47 3b 92                	b.bnf      82d19 <v6LP_Tick+0x5a9>
   8287f:	46 dd 40                	b.j        82b3a <v6LP_Tick+0x3ca>
   82882:	3c 04 0a                	b.sfeqi    r4,0x50
   82885:	47 25 d4                	b.bf       82b3f <v6LP_Tick+0x3cf>
   82888:	3c a4 0a                	b.sfgtui   r4,0x50
   8288b:	47 23 00                	b.bf       82897 <v6LP_Tick+0x127>
   8288e:	3c 04 58                	b.sfeqi    r4,0x1a
   82891:	47 31 12                	b.bnf      82d19 <v6LP_Tick+0x5a9>
   82894:	46 3a 40                	b.j        82af0 <v6LP_Tick+0x380>
   82897:	9d 84 7f 00 00 00       	b.sfeqi    r4,0xfe
   8289d:	47 22 d0                	b.bf       82951 <v6LP_Tick+0x1e1>
   828a0:	9d 84 ff 00 00 00       	b.sfeqi    r4,0xff
   828a6:	47 3c e2                	b.bnf      82d19 <v6LP_Tick+0x5a9>
   828a9:	0e b4                   	b.j        8295e <v6LP_Tick+0x1ee>
   828ab:	30 ea 10                	b.addi     r7,r10,0x8
   828ae:	d8 61 21 00             	b.addi     r3,r1,0x84
   828b2:	2c e1 39                	b.sw       0x9c(r1),r7
   828b5:	00 ec                   	b.movi     r7,0x3
   828b7:	20 e1 61                	b.sb       0x86(r1),r7
   828ba:	2c ea 40                	b.lwz      r7,0x0(r10)
   828bd:	29 61 05                	b.sh       0xa0(r1),r11
   828c0:	2c e1 11                	b.sw       0x88(r1),r7
   828c3:	2c ea 60                	b.lwz      r7,0x4(r10)
   828c6:	20 01 49                	b.sb       0x92(r1),r0
   828c9:	2c e1 31                	b.sw       0x8c(r1),r7
   828cc:	0e b8                   	b.j        82941 <v6LP_Tick+0x1d1>
   828ce:	30 ea d8                	b.addi     r7,r10,0x1b
   828d1:	31 6b b7                	b.addi     r11,r11,-0x13
   828d4:	30 8a d0                	b.addi     r4,r10,0xb
   828d7:	38 a0 10                	b.ori      r5,r0,0x8
   828da:	30 61 16                	b.addi     r3,r1,0x68
   828dd:	29 61 01                	b.sh       0x80(r1),r11
   828e0:	01 6c                   	b.movi     r11,0x3
   828e2:	2c e1 3e                	b.sw       0x7c(r1),r7
   828e5:	21 61 66                	b.sb       0x66(r1),r11
   828e8:	d4 2e eb ef             	b.jal      5c <memcpy>
   828ec:	30 61 2e                	b.addi     r3,r1,0x74
   828ef:	30 8a c8                	b.addi     r4,r10,0x13
   828f2:	38 a0 10                	b.ori      r5,r0,0x8
   828f5:	21 61 4e                	b.sb       0x72(r1),r11
   828f8:	d4 26 eb ef             	b.jal      5c <memcpy>
   828fc:	30 61 26                	b.addi     r3,r1,0x64
   828ff:	4a 2e 3f                	b.jal      81ad0 <b6LP_HandleRxEvent>
   82902:	d0 40 3e 82             	b.bnei     r3,0x0,82d19 <v6LP_Tick+0x5a9>
   82906:	30 61 2e                	b.addi     r3,r1,0x74
   82909:	4a b1 34                	b.jal      8db3e <ePAR_SendFindNode>
   8290c:	46 b0 20                	b.j        82d19 <v6LP_Tick+0x5a9>
   8290f:	30 ea 10                	b.addi     r7,r10,0x8
   82912:	30 61 22                	b.addi     r3,r1,0x44
   82915:	2c e1 3a                	b.sw       0x5c(r1),r7
   82918:	00 ec                   	b.movi     r7,0x3
   8291a:	20 e1 62                	b.sb       0x46(r1),r7
   8291d:	2c ca 40                	b.lwz      r6,0x0(r10)
   82920:	29 61 06                	b.sh       0x60(r1),r11
   82923:	2c c1 12                	b.sw       0x48(r1),r6
   82926:	2c ca 60                	b.lwz      r6,0x4(r10)
   82929:	20 e1 4a                	b.sb       0x52(r1),r7
   8292c:	8c e0 51 60 00 20       	b.lwz      r7,0x4000688(r0)
   82932:	2c c1 32                	b.sw       0x4c(r1),r6
   82935:	2c e1 1a                	b.sw       0x58(r1),r7
   82938:	8c e0 61 60 00 20       	b.lwz      r7,0x4000684(r0)
   8293e:	2c e1 2a                	b.sw       0x54(r1),r7
   82941:	4b c6 3f                	b.jal      81ad0 <b6LP_HandleRxEvent>
   82944:	46 ab c0                	b.j        82d19 <v6LP_Tick+0x5a9>
   82947:	00 66                   	b.movi     r3,0x6
   82949:	30 8a 10                	b.addi     r4,r10,0x8
   8294c:	00 a8                   	b.movi     r5,0x1
   8294e:	46 13 c0                	b.j        82d16 <v6LP_Tick+0x5a6>
   82951:	24 ea 10                	b.lbz      r7,0x8(r10)
   82954:	30 61 20                	b.addi     r3,r1,0x4
   82957:	00 80                   	b.movi     r4,0x0
   82959:	20 e1 20                	b.sb       0x4(r1),r7
   8295c:	0d c0                   	b.j        8296a <v6LP_Tick+0x1fa>
   8295e:	24 ea 10                	b.lbz      r7,0x8(r10)
   82961:	30 61 20                	b.addi     r3,r1,0x4
   82964:	38 80 47                	b.ori      r4,r0,0xe2
   82967:	20 e1 20                	b.sb       0x4(r1),r7
   8296a:	49 2e 70                	b.jal      8633c <vHandleTxEvent>
   8296d:	46 35 c0                	b.j        82d19 <v6LP_Tick+0x5a9>
   82970:	04 61                   	b.mov      r3,r1
   82972:	4b bb 3c                	b.jal      91ce9 <iIPv6_SearchForBufferReadyToTX>
   82975:	41 03 48                	b.bnei     r3,0x0,82987 <v6LP_Tick+0x217>
   82978:	8c e0 48 f0 00 20       	b.lwz      r7,0x4000f10(r0)
   8297e:	2c 61 40                	b.lwz      r3,0x0(r1)
   82981:	2c e7 60                	b.lwz      r7,0x4(r7)
   82984:	47 d1 38                	b.jalr     r7
   82987:	84 80 71 00 00 20       	b.lbz      r4,0x400008e(r0)
   8298d:	8c 60 4d 60 00 20       	b.lwz      r3,0x40006b0(r0)
   82993:	98 e0 26 ac 90 00       	b.ori      r7,r0,0x93564
   82999:	6c 84 20                	b.slli     r4,r4,0x4
   8299c:	00 a0                   	b.movi     r5,0x0
   8299e:	8c e0 02 60 00 20       	b.sw       0x4000640(r0),r7
   829a4:	8c 00 22 60 00 20       	b.sw       0x4000644(r0),r0
   829aa:	80 00 26 60 00 20       	b.sb       0x4000664(r0),r0
   829b0:	4b 15 20                	b.jal      83c53 <pvHeap_Alloc>
   829b3:	84 e0 23 60 00 20       	b.lbz      r7,0x40006c4(r0)
   829b9:	8c 60 0d 60 00 20       	b.sw       0x40006b0(r0),r3
   829bf:	41 07 14                	b.bnei     r7,0x0,829e7 <v6LP_Tick+0x277>
   829c2:	00 e8                   	b.movi     r7,0x1
   829c4:	80 e0 23 60 00 20       	b.sb       0x40006c4(r0),r7
   829ca:	8c e0 40 f0 00 20       	b.lwz      r7,0x4000f00(r0)
   829d0:	40 07 e8                	b.beqi     r7,0x0,829e7 <v6LP_Tick+0x277>
   829d3:	cc c7 5c 80             	b.lwz      r6,0x138(r7)
   829d7:	8c c0 2c 60 00 20       	b.sw       0x4000634(r0),r6
   829dd:	98 c0 5b dc 90 00       	b.ori      r6,r0,0x93bda
   829e3:	cc c7 1c 80             	b.sw       0x138(r7),r6
   829e7:	84 80 b1 00 00 20       	b.lbz      r4,0x400008d(r0)
   829ed:	98 e0 24 2f 00 00       	b.ori      r7,r0,0xf424
   829f3:	98 60 1c 60 00 20       	b.ori      r3,r0,0x4000638
   829f9:	64 84 3b                	b.mul      r4,r4,r7
   829fc:	48 48 02                	b.jal      92a44 <TSV_eStart>
   829ff:	28 ea d8                	b.lhz      r7,0x1a(r10)
   82a02:	8d a0 48 f0 00 20       	b.lwz      r13,0x4000f10(r0)
   82a08:	00 60                   	b.movi     r3,0x0
   82a0a:	28 ed 19                	b.sh       0x98(r13),r7
   82a0d:	24 ed 12                	b.lbz      r7,0x48(r13)
   82a10:	40 87 9a                	b.beqi     r7,0x1,82a69 <v6LP_Tick+0x2f9>
   82a13:	2c 8a 44                	b.lwz      r4,0x20(r10)
   82a16:	40 04 a2                	b.beqi     r4,0x0,82a5b <v6LP_Tick+0x2eb>
   82a19:	24 e4 00                	b.lbz      r7,0x0(r4)
   82a1c:	d2 38 7f c0             	b.bleui    r7,0x7,82a5b <v6LP_Tick+0x2eb>
   82a20:	00 98                   	b.addi     r4,r4,0x1
   82a22:	38 a0 10                	b.ori      r5,r0,0x8
   82a25:	30 61 10                	b.addi     r3,r1,0x8
   82a28:	d4 2c 6b ef             	b.jal      5c <memcpy>
   82a2c:	50 c1 10                	b.mlwz     r6,0x8(r1),0x0
   82a2f:	98 60 92 60 00 20       	b.ori      r3,r0,0x4000649
   82a35:	30 81 08                	b.addi     r4,r1,0x10
   82a38:	38 a0 10                	b.ori      r5,r0,0x8
   82a3b:	2c ed 3e                	b.sw       0x7c(r13),r7
   82a3e:	2c cd 01                	b.sw       0x80(r13),r6
   82a41:	54 c1 08                	b.msw      0x10(r1),r6,0x0
   82a44:	d4 18 6b ef             	b.jal      5c <memcpy>
   82a48:	84 e0 12 60 00 20       	b.lbz      r7,0x4000648(r0)
   82a4e:	d1 f8 7b 00             	b.bgtui    r7,0x7,82a5b <v6LP_Tick+0x2eb>
   82a52:	38 e0 10                	b.ori      r7,r0,0x8
   82a55:	80 e0 12 60 00 20       	b.sb       0x4000648(r0),r7
   82a5b:	88 60 e6 60 00 20       	b.lhz      r3,0x4000666(r0)
   82a61:	49 7f cc                	b.jal      8fa5b <eCreateSocket.7579>
   82a64:	48 30 02                	b.jal      92a94 <vStartTrapTimer>
   82a67:	00 68                   	b.movi     r3,0x1
   82a69:	30 8a 10                	b.addi     r4,r10,0x8
   82a6c:	04 ab                   	b.mov      r5,r11
   82a6e:	46 15 40                	b.j        82d16 <v6LP_Tick+0x5a6>
   82a71:	2c ea 40                	b.lwz      r7,0x0(r10)
   82a74:	30 84 cf                	b.addi     r4,r4,-0xd
   82a77:	3e 04 20                	b.extbz    r4,r4
   82a7a:	2c e1 24                	b.sw       0x24(r1),r7
   82a7d:	90 84 26 80 10 00       	b.addi     r4,r4,0x80164
   82a83:	2c ea 60                	b.lwz      r7,0x4(r10)
   82a86:	2c e1 14                	b.sw       0x28(r1),r7
   82a89:	00 e7                   	b.movi     r7,-0x2
   82a8b:	28 e1 0c                	b.sh       0x30(r1),r7
   82a8e:	2c ea 50                	b.lwz      r7,0x8(r10)
   82a91:	25 44 00                	b.lbz      r10,0x0(r4)
   82a94:	2c e1 34                	b.sw       0x2c(r1),r7
   82a97:	3c aa 50                	b.sfgtui   r10,0xa
   82a9a:	47 24 c0                	b.bf       82acc <v6LP_Tick+0x35c>
   82a9d:	00 c8                   	b.movi     r6,0x1
   82a9f:	3e 0a 39                	b.extbs    r7,r10
   82aa2:	60 e6 3e                	b.sll      r7,r6,r7
   82aa5:	94 c7 31 a0 00 00       	b.andi     r6,r7,0x58c
   82aab:	41 06 d0                	b.bnei     r6,0x0,82ab6 <v6LP_Tick+0x346>
   82aae:	34 e7 40                	b.andi     r7,r7,0x2
   82ab1:	41 07 f0                	b.bnei     r7,0x0,82ac0 <v6LP_Tick+0x350>
   82ab4:	0c 60                   	b.j        82acc <v6LP_Tick+0x35c>
   82ab6:	30 81 24                	b.addi     r4,r1,0x24
   82ab9:	04 6a                   	b.mov      r3,r10
   82abb:	4a 9d 82                	b.jal      931a0 <vNetworkModule_Update>
   82abe:	0d c0                   	b.j        82acc <v6LP_Tick+0x35c>
   82ac0:	88 60 e6 60 00 20       	b.lhz      r3,0x4000666(r0)
   82ac6:	4a a7 cc                	b.jal      8fa5b <eCreateSocket.7579>
   82ac9:	4b 4f fc                	b.jal      92a94 <vStartTrapTimer>
   82acc:	04 6a                   	b.mov      r3,r10
   82ace:	30 81 24                	b.addi     r4,r1,0x24
   82ad1:	38 a0 08                	b.ori      r5,r0,0x10
   82ad4:	46 42 40                	b.j        82d16 <v6LP_Tick+0x5a6>
   82ad7:	8c e0 48 f0 00 20       	b.lwz      r7,0x4000f10(r0)
   82add:	2c e7 63                	b.lwz      r7,0xc4(r7)
   82ae0:	40 07 60                	b.beqi     r7,0x0,82ae6 <v6LP_Tick+0x376>
   82ae3:	47 d1 38                	b.jalr     r7
   82ae6:	00 6a                   	b.movi     r3,0x5
   82ae8:	0e 07                   	b.j        82a69 <v6LP_Tick+0x2f9>
   82aea:	38 60 90                	b.ori      r3,r0,0x9
   82aed:	46 24 40                	b.j        82d11 <v6LP_Tick+0x5a1>
   82af0:	88 e0 c6 60 00 20       	b.lhz      r7,0x4000662(r0)
   82af6:	2c 01 25                	b.sw       0xa4(r1),r0
   82af9:	04 61                   	b.mov      r3,r1
   82afb:	2c 01 0d                	b.sw       0xb0(r1),r0
   82afe:	2c 01 2d                	b.sw       0xb4(r1),r0
   82b01:	2c 01 1d                	b.sw       0xb8(r1),r0
   82b04:	2c 01 3d                	b.sw       0xbc(r1),r0
   82b07:	28 e1 15                	b.sh       0xa8(r1),r7
   82b0a:	4b a8 3c                	b.jal      91b61 <i6LP_DefGetDataBuffer>
   82b0d:	d0 40 33 04             	b.bnei     r3,0x0,82d19 <v6LP_Tick+0x5a9>
   82b11:	2c 61 40                	b.lwz      r3,0x0(r1)
   82b14:	38 a0 10                	b.ori      r5,r0,0x8
   82b17:	04 8a                   	b.mov      r4,r10
   82b19:	20 03 00                	b.sb       0x0(r3),r0
   82b1c:	20 03 80                	b.sb       0x1(r3),r0
   82b1f:	00 74                   	b.addi     r3,r3,0x2
   82b21:	d4 dc ab ef             	b.jal      5c <memcpy>
   82b25:	2c 81 40                	b.lwz      r4,0x0(r1)
   82b28:	8c 60 41 00 00 20       	b.lwz      r3,0x4000080(r0)
   82b2e:	38 a0 50                	b.ori      r5,r0,0xa
   82b31:	d8 c1 25 00             	b.addi     r6,r1,0xa4
   82b35:	49 d9 b0                	b.jal      861a3 <i6LP_DefSendTo.constprop.21>
   82b38:	0e 1e                   	b.j        82d19 <v6LP_Tick+0x5a9>
   82b3a:	38 60 30                	b.ori      r3,r0,0xc
   82b3d:	0c ae                   	b.j        82d11 <v6LP_Tick+0x5a1>
   82b3f:	24 ea c8                	b.lbz      r7,0x13(r10)
   82b42:	30 cb 2f                	b.addi     r6,r11,-0xc
   82b45:	31 aa 10                	b.addi     r13,r10,0x8
   82b48:	3e 06 30                	b.extbz    r6,r6
   82b4b:	40 67 22                	b.beqi     r7,0x6,82b8f <v6LP_Tick+0x41f>
   82b4e:	d1 d8 7b 00             	b.bgtui    r7,0x6,82b5b <v6LP_Tick+0x3eb>
   82b52:	40 47 b8                	b.beqi     r7,0x2,82b6f <v6LP_Tick+0x3ff>
   82b55:	d0 48 72 38             	b.bnei     r7,0x4,82d19 <v6LP_Tick+0x5a9>
   82b59:	0d b0                   	b.j        82b8f <v6LP_Tick+0x41f>
   82b5b:	9d 87 21 00 00 00       	b.sfeqi    r7,0x84
   82b61:	47 27 c8                	b.bf       82c9f <v6LP_Tick+0x52f>
   82b64:	9d 87 61 00 00 00       	b.sfeqi    r7,0x86
   82b6a:	47 3f 58                	b.bnf      82d19 <v6LP_Tick+0x5a9>
   82b6d:	0d 32                   	b.j        82c9f <v6LP_Tick+0x52f>
   82b6f:	8c 60 4d 60 00 20       	b.lwz      r3,0x40006b0(r0)
   82b75:	84 a0 26 60 00 20       	b.lbz      r5,0x4000664(r0)
   82b7b:	84 e0 71 00 00 20       	b.lbz      r7,0x400008e(r0)
   82b81:	30 8a 28                	b.addi     r4,r10,0x14
   82b84:	49 c4 22                	b.jal      93c12 <u8DecompressAddrs.17836>
   82b87:	80 60 26 60 00 20       	b.sb       0x4000664(r0),r3
   82b8d:	0c c6                   	b.j        82d19 <v6LP_Tick+0x5a9>
   82b8f:	8c e0 48 f0 00 20       	b.lwz      r7,0x4000f10(r0)
   82b95:	24 e7 12                	b.lbz      r7,0x48(r7)
   82b98:	d0 60 70 f0             	b.bnei     r7,0x1,82c88 <v6LP_Tick+0x518>
   82b9c:	d9 c1 23 00             	b.addi     r14,r1,0xc4
   82ba0:	30 8a 28                	b.addi     r4,r10,0x14
   82ba3:	04 6e                   	b.mov      r3,r14
   82ba5:	00 a0                   	b.movi     r5,0x0
   82ba7:	00 e2                   	b.movi     r7,0x4
   82ba9:	4a 58 22                	b.jal      93c12 <u8DecompressAddrs.17836>
   82bac:	05 63                   	b.mov      r11,r3
   82bae:	d0 00 3d 68             	b.beqi     r3,0x0,82d19 <v6LP_Tick+0x5a9>
   82bb2:	24 ea c8                	b.lbz      r7,0x13(r10)
   82bb5:	41 27 5c                	b.bnei     r7,0x4,82bef <v6LP_Tick+0x47f>
   82bb8:	0d 60                   	b.j        82bd2 <v6LP_Tick+0x462>
   82bba:	6c 6d 20                	b.slli     r3,r13,0x4
   82bbd:	08 6e                   	b.add      r3,r3,r14
   82bbf:	01 b8                   	b.addi     r13,r13,0x1
   82bc1:	8c 80 4d 60 00 20       	b.lwz      r4,0x40006b0(r0)
   82bc7:	4b ba df                	b.jal      8193e <u8GroupAddUnique.17831>
   82bca:	80 60 26 60 00 20       	b.sb       0x4000664(r0),r3
   82bd0:	0c 80                   	b.j        82bd4 <v6LP_Tick+0x464>
   82bd2:	01 a0                   	b.movi     r13,0x0
   82bd4:	84 a0 26 60 00 20       	b.lbz      r5,0x4000664(r0)
   82bda:	84 e0 71 00 00 20       	b.lbz      r7,0x400008e(r0)
   82be0:	d3 8a 71 00             	b.bgeu     r5,r7,82be8 <v6LP_Tick+0x478>
   82be4:	d3 56 d6 bf             	b.bgts     r11,r13,82bba <v6LP_Tick+0x44a>
   82be8:	00 e8                   	b.movi     r7,0x1
   82bea:	20 e1 82                	b.sb       0x41(r1),r7
   82bed:	0e 80                   	b.j        82bf2 <v6LP_Tick+0x482>
   82bef:	20 01 82                	b.sb       0x41(r1),r0
   82bf2:	24 aa c8                	b.lbz      r5,0x13(r10)
   82bf5:	d9 a1 23 00             	b.addi     r13,r1,0xc4
   82bf9:	04 8b                   	b.mov      r4,r11
   82bfb:	04 6d                   	b.mov      r3,r13
   82bfd:	4a 0d 48                	b.jal      876be <bGenerateMLDv2.17811>
   82c00:	31 ca d0                	b.addi     r14,r10,0xb
   82c03:	38 a0 10                	b.ori      r5,r0,0x8
   82c06:	30 61 2c                	b.addi     r3,r1,0x34
   82c09:	04 8e                   	b.mov      r4,r14
   82c0b:	d4 8a 2b ef             	b.jal      5c <memcpy>
   82c0f:	38 60 d0                	b.ori      r3,r0,0xb
   82c12:	30 81 2c                	b.addi     r4,r1,0x34
   82c15:	38 a0 08                	b.ori      r5,r0,0x10
   82c18:	2d a1 3c                	b.sw       0x3c(r1),r13
   82c1b:	21 61 02                	b.sb       0x40(r1),r11
   82c1e:	4a b2 1c                	b.jal      90d53 <vJIP_StackEvent>
   82c21:	38 e0 04                	b.ori      r7,r0,0x20
   82c24:	38 a0 10                	b.ori      r5,r0,0x8
   82c27:	30 61 38                	b.addi     r3,r1,0x1c
   82c2a:	04 8e                   	b.mov      r4,r14
   82c2c:	c0 e1 22 80             	b.sb       0x144(r1),r7
   82c30:	38 e0 0a                	b.ori      r7,r0,0x50
   82c33:	c0 e1 62 80             	b.sb       0x146(r1),r7
   82c37:	24 ea c8                	b.lbz      r7,0x13(r10)
   82c3a:	30 e7 01                	b.addi     r7,r7,-0x80
   82c3d:	c0 e1 f2 80             	b.sb       0x14f(r1),r7
   82c41:	d4 d8 2b ef             	b.jal      5c <memcpy>
   82c45:	2c e1 78                	b.lwz      r7,0x1c(r1)
   82c48:	98 80 21 60 00 20       	b.ori      r4,r0,0x4000684
   82c4e:	38 a0 10                	b.ori      r5,r0,0x8
   82c51:	04 6e                   	b.mov      r3,r14
   82c53:	cc e1 0a 80             	b.sw       0x150(r1),r7
   82c57:	2c e1 44                	b.lwz      r7,0x20(r1)
   82c5a:	cc e1 2a 80             	b.sw       0x154(r1),r7
   82c5e:	d4 7f cb ef             	b.jal      5c <memcpy>
   82c62:	d8 61 1a 80             	b.addi     r3,r1,0x158
   82c66:	04 8d                   	b.mov      r4,r13
   82c68:	04 ab                   	b.mov      r5,r11
   82c6a:	48 a2 df                	b.jal      8197e <u8CompressAddrs.17816>
   82c6d:	30 e3 28                	b.addi     r7,r3,0x14
   82c70:	00 80                   	b.movi     r4,0x0
   82c72:	8c 60 60 f0 00 20       	b.lwz      r3,0x4000f04(r0)
   82c78:	30 a1 38                	b.addi     r5,r1,0x1c
   82c7b:	d8 63 19 80             	b.addi     r3,r3,0x198
   82c7f:	d8 c1 22 80             	b.addi     r6,r1,0x144
   82c83:	3e 07 3a                	b.exthz    r7,r7
   82c86:	0f 04                   	b.j        82d09 <v6LP_Tick+0x599>
   82c88:	8c 60 60 f0 00 20       	b.lwz      r3,0x4000f04(r0)
   82c8e:	00 80                   	b.movi     r4,0x0
   82c90:	d8 63 19 80             	b.addi     r3,r3,0x198
   82c94:	00 a0                   	b.movi     r5,0x0
   82c96:	04 cd                   	b.mov      r6,r13
   82c98:	04 eb                   	b.mov      r7,r11
   82c9a:	4b f1 54                	b.jal      8d6d9 <eNwk_TransmitPacketVect>
   82c9d:	0c f8                   	b.j        82d19 <v6LP_Tick+0x5a9>
   82c9f:	30 61 38                	b.addi     r3,r1,0x1c
   82ca2:	30 8a 28                	b.addi     r4,r10,0x14
   82ca5:	38 a0 10                	b.ori      r5,r0,0x8
   82ca8:	d4 2d cb ef             	b.jal      5c <memcpy>
   82cac:	8c e0 51 60 00 20       	b.lwz      r7,0x4000688(r0)
   82cb2:	2c c1 44                	b.lwz      r6,0x20(r1)
   82cb5:	d2 cc 78 20             	b.bne      r6,r7,82cf6 <v6LP_Tick+0x586>
   82cb9:	8c e0 61 60 00 20       	b.lwz      r7,0x4000684(r0)
   82cbf:	2c c1 78                	b.lwz      r6,0x1c(r1)
   82cc2:	d2 cc 72 c0             	b.bne      r6,r7,82cf6 <v6LP_Tick+0x586>
   82cc6:	30 8a 38                	b.addi     r4,r10,0x1c
   82cc9:	30 cb 37                	b.addi     r6,r11,-0x14
   82ccc:	d8 61 23 00             	b.addi     r3,r1,0xc4
   82cd0:	00 a0                   	b.movi     r5,0x0
   82cd2:	3e 06 30                	b.extbz    r6,r6
   82cd5:	00 e2                   	b.movi     r7,0x4
   82cd7:	4b 73 c2                	b.jal      93c12 <u8DecompressAddrs.17836>
   82cda:	24 aa c8                	b.lbz      r5,0x13(r10)
   82cdd:	30 e0 21                	b.addi     r7,r0,-0x7c
   82ce0:	60 a5 3a                	b.xor      r5,r5,r7
   82ce3:	3e 05 28                	b.extbz    r5,r5
   82ce6:	00 bf                   	b.addi     r5,r5,-0x1
   82ce8:	04 83                   	b.mov      r4,r3
   82cea:	6c a5 f9                	b.srli     r5,r5,0x1f
   82ced:	d8 61 23 00             	b.addi     r3,r1,0xc4
   82cf1:	48 1d bc                	b.jal      923d1 <v6LP_SocketGroupChangeAcked>
   82cf4:	0e 90                   	b.j        82d19 <v6LP_Tick+0x5a9>
   82cf6:	8c 60 60 f0 00 20       	b.lwz      r3,0x4000f04(r0)
   82cfc:	30 a1 38                	b.addi     r5,r1,0x1c
   82cff:	d8 63 19 80             	b.addi     r3,r3,0x198
   82d03:	04 8a                   	b.mov      r4,r10
   82d05:	04 cd                   	b.mov      r6,r13
   82d07:	04 eb                   	b.mov      r7,r11
   82d09:	48 f9 d4                	b.jal      8db85 <ePAR_RoutePacketVect>
   82d0c:	0e c0                   	b.j        82d19 <v6LP_Tick+0x5a9>
   82d0e:	38 60 b0                	b.ori      r3,r0,0xd
   82d11:	38 a0 10                	b.ori      r5,r0,0x8
   82d14:	04 8a                   	b.mov      r4,r10
   82d16:	4a f0 1c                	b.jal      90d53 <vJIP_StackEvent>
   82d19:	84 e0 9d 60 00 20       	b.lbz      r7,0x40006b9(r0)
   82d1f:	84 c0 f1 00 00 20       	b.lbz      r6,0x400008f(r0)
   82d25:	00 f8                   	b.addi     r7,r7,0x1
   82d27:	3e 07 38                	b.extbz    r7,r7
   82d2a:	3d e6 38                	b.sfgtu    r6,r7
   82d2d:	64 e7 02                	b.cmov     r7,r7,r0
   82d30:	80 e0 9d 60 00 20       	b.sb       0x40006b9(r0),r7
   82d36:	84 c0 9d 60 00 20       	b.lbz      r6,0x40006b9(r0)
   82d3c:	84 e0 1d 60 00 20       	b.lbz      r7,0x40006b8(r0)
   82d42:	3e 06 30                	b.extbz    r6,r6
   82d45:	3e 07 38                	b.extbz    r7,r7
   82d48:	d2 cc 74 55             	b.bne      r6,r7,827ea <v6LP_Tick+0x7a>
   82d4c:	30 61 20                	b.addi     r3,r1,0x4
   82d4f:	4b 9a 40                	b.jal      836b6 <vMicroIntEnableOnly.constprop.98>
   82d52:	8c e0 5e 60 00 20       	b.lwz      r7,0x4000678(r0)
   82d58:	40 07 44                	b.beqi     r7,0x0,82d7a <v6LP_Tick+0x60a>
   82d5b:	8c c0 69 00 00 20       	b.lwz      r6,0x4000094(r0)
   82d61:	60 ec 3d                	b.sub      r7,r12,r7
   82d64:	d3 cc 76 80             	b.bgtu     r6,r7,82d7a <v6LP_Tick+0x60a>
   82d68:	8c 00 2e 60 00 20       	b.sw       0x4000674(r0),r0
   82d6e:	8c 00 0e 60 00 20       	b.sw       0x4000670(r0),r0
   82d74:	8c 00 1e 60 00 20       	b.sw       0x4000678(r0),r0
   82d7a:	8c e0 6e 60 00 20       	b.lwz      r7,0x4000674(r0)
   82d80:	8c 60 76 60 00 20       	b.lwz      r3,0x400066c(r0)
   82d86:	8d a0 56 60 00 20       	b.lwz      r13,0x4000668(r0)
   82d8c:	60 e7 18                	b.and      r7,r7,r3
   82d8f:	3c 2c 00                	b.sfnei    r12,0x0
   82d92:	8c e0 2e 60 00 20       	b.sw       0x4000674(r0),r7
   82d98:	98 80 2e 60 00 20       	b.ori      r4,r0,0x4000674
   82d9e:	d8 a1 20 80             	b.addi     r5,r1,0x104
   82da2:	01 e8                   	b.movi     r15,0x1
   82da4:	8c e0 4e 60 00 20       	b.lwz      r7,0x4000670(r0)
   82daa:	65 ec 7a                	b.cmov     r15,r12,r15
   82dad:	60 e7 68                	b.and      r7,r7,r13
   82db0:	01 68                   	b.movi     r11,0x1
   82db2:	8c e0 0e 60 00 20       	b.sw       0x4000670(r0),r7
   82db8:	4b 34 df                	b.jal      81a6b <u8GetChangedButUnnotifiedGroups.16883>
   82dbb:	05 43                   	b.mov      r10,r3
   82dbd:	41 03 38                	b.bnei     r3,0x0,82dd9 <v6LP_Tick+0x669>
   82dc0:	98 80 0e 60 00 20       	b.ori      r4,r0,0x4000670
   82dc6:	d8 a1 20 80             	b.addi     r5,r1,0x104
   82dca:	04 6d                   	b.mov      r3,r13
   82dcc:	01 64                   	b.movi     r11,0x2
   82dce:	4a e4 df                	b.jal      81a6b <u8GetChangedButUnnotifiedGroups.16883>
   82dd1:	3c 03 00                	b.sfeqi    r3,0x0
   82dd4:	65 6b 02                	b.cmov     r11,r11,r0
   82dd7:	05 43                   	b.mov      r10,r3
   82dd9:	30 61 20                	b.addi     r3,r1,0x4
   82ddc:	4b 8f c0                	b.jal      83da3 <vMicroIntRestoreState>
   82ddf:	d0 10 bc 10             	b.beqi     r11,0x2,82e62 <v6LP_Tick+0x6f2>
   82de3:	00 e2                   	b.movi     r7,0x4
   82de5:	3c 0b 00                	b.sfeqi    r11,0x0
   82de8:	00 a6                   	b.movi     r5,0x6
   82dea:	64 a5 3a                	b.cmov     r5,r5,r7
   82ded:	01 a8                   	b.movi     r13,0x1
   82def:	8c e0 40 f0 00 20       	b.lwz      r7,0x4000f00(r0)
   82df5:	c8 e7 8a 80             	b.lhz      r7,0x150(r7)
   82df9:	34 e7 80                	b.andi     r7,r7,0x1
   82dfc:	41 07 54                	b.bnei     r7,0x0,82e26 <v6LP_Tick+0x6b6>
   82dff:	8c e0 48 f0 00 20       	b.lwz      r7,0x4000f10(r0)
   82e05:	d8 61 20 80             	b.addi     r3,r1,0x104
   82e09:	04 8a                   	b.mov      r4,r10
   82e0b:	24 e7 12                	b.lbz      r7,0x48(r7)
   82e0e:	41 87 c8                	b.bnei     r7,0x1,82e21 <v6LP_Tick+0x6b1>
   82e11:	4a d4 48                	b.jal      876be <bGenerateMLDv2.17811>
   82e14:	d8 61 20 80             	b.addi     r3,r1,0x104
   82e18:	04 8a                   	b.mov      r4,r10
   82e1a:	04 ab                   	b.mov      r5,r11
   82e1c:	4a b6 bc                	b.jal      923d1 <v6LP_SocketGroupChangeAcked>
   82e1f:	0e 80                   	b.j        82e24 <v6LP_Tick+0x6b4>
   82e21:	48 c4 34                	b.jal      8dead <bGenerateJenNetGcastInfo.17821>
   82e24:	01 a0                   	b.movi     r13,0x0
   82e26:	d9 c1 20 80             	b.addi     r14,r1,0x104
   82e2a:	38 60 d0                	b.ori      r3,r0,0xb
   82e2d:	30 81 2c                	b.addi     r4,r1,0x34
   82e30:	38 a0 08                	b.ori      r5,r0,0x10
   82e33:	2c 01 2c                	b.sw       0x34(r1),r0
   82e36:	2c 01 1c                	b.sw       0x38(r1),r0
   82e39:	2d c1 3c                	b.sw       0x3c(r1),r14
   82e3c:	21 41 02                	b.sb       0x40(r1),r10
   82e3f:	21 61 82                	b.sb       0x41(r1),r11
   82e42:	4a 23 ec                	b.jal      90d53 <vJIP_StackEvent>
   82e45:	41 0d 30                	b.bnei     r13,0x0,82e51 <v6LP_Tick+0x6e1>
   82e48:	8c e0 69 00 00 20       	b.lwz      r7,0x4000094(r0)
   82e4e:	41 07 70                	b.bnei     r7,0x0,82e5c <v6LP_Tick+0x6ec>
   82e51:	04 6e                   	b.mov      r3,r14
   82e53:	04 8a                   	b.mov      r4,r10
   82e55:	04 ab                   	b.mov      r5,r11
   82e57:	49 7a bc                	b.jal      923d1 <v6LP_SocketGroupChangeAcked>
   82e5a:	0c 40                   	b.j        82e62 <v6LP_Tick+0x6f2>
   82e5c:	8d e0 1e 60 00 20       	b.sw       0x4000678(r0),r15
   82e62:	84 e0 19 60 00 20       	b.lbz      r7,0x4000698(r0)
   82e68:	40 07 d8                	b.beqi     r7,0x0,82e83 <v6LP_Tick+0x713>
   82e6b:	84 60 99 60 00 20       	b.lbz      r3,0x4000699(r0)
   82e71:	84 80 59 60 00 20       	b.lbz      r4,0x400069a(r0)
   82e77:	49 10 68                	b.jal      88699 <bJnc_ResetStackVect>
   82e7a:	41 83 90                	b.bnei     r3,0x1,82e83 <v6LP_Tick+0x713>
   82e7d:	80 00 19 60 00 20       	b.sb       0x4000698(r0),r0
   82e83:	8c e0 69 60 00 20       	b.lwz      r7,0x4000694(r0)
   82e89:	24 e7 00                	b.lbz      r7,0x0(r7)
   82e8c:	d0 40 7b 54             	b.bnei     r7,0x0,83139 <v6LP_Tick+0x9c9>
   82e90:	99 60 1f ed 00 00       	b.ori      r11,r0,0xb7f8
   82e96:	01 48                   	b.movi     r10,0x1
   82e98:	8c e0 60 f0 00 20       	b.lwz      r7,0x4000f04(r0)
   82e9e:	84 a0 11 00 00 20       	b.lbz      r5,0x4000088(r0)
   82ea4:	c4 c7 26 80             	b.lbz      r6,0x164(r7)
   82ea8:	d2 8a 65 00             	b.beq      r5,r6,82eb2 <v6LP_Tick+0x742>
   82eac:	80 c0 11 00 00 20       	b.sb       0x4000088(r0),r6
   82eb2:	30 a6 ff                	b.addi     r5,r6,-0x1
   82eb5:	3e 05 28                	b.extbz    r5,r5
   82eb8:	3c a5 08                	b.sfgtui   r5,0x10
   82ebb:	47 2e 64                	b.bf       83122 <v6LP_Tick+0x9b2>
   82ebe:	6c a5 40                	b.slli     r5,r5,0x2
   82ec1:	90 a5 0b 74 10 00       	b.addi     r5,r5,0x82ed0
   82ec7:	2c a5 40                	b.lwz      r5,0x0(r5)
   82eca:	47 d2 28                	b.jr       r5
   82ecd:	00 00                   	b.trap     0x0
   82ecf:	00 00                   	b.trap     0x0
   82ed1:	08 2f                   	b.add      r1,r1,r15
   82ed3:	14                      	.word 0x14
   82ed4:	00 08                   	b.trap     0x1
   82ed6:	2f 3f 00                	b.sw       0x0(r31),r25
   82ed9:	08 2f                   	b.add      r1,r1,r15
   82edb:	ae 00 08 30 3a 00       	b.mulas    r16,r0,r1,0x0
   82ee1:	08 30                   	b.add      r1,r1,r16
   82ee3:	72 00 08                	f.add.s    r16,r0,r1
   82ee6:	30 72 00                	b.addi     r3,r18,0x0
   82ee9:	08 30                   	b.add      r1,r1,r16
   82eeb:	80 00 08 30 80 00       	b.sb       0x10c10(r0),r0
   82ef1:	08 30                   	b.add      r1,r1,r16
   82ef3:	98 00 08 30 9d 00       	b.ori      r0,r0,0xb90c10
   82ef9:	08 30                   	b.add      r1,r1,r16
   82efb:	b3 00 08 30 ca 00       	b.copdss   r24,r0,r1,0x29860
   82f01:	08 31                   	b.add      r1,r1,r17
   82f03:	22 00 08                	b.sb       0x10(r0),r16
   82f06:	31 22 00                	b.addi     r9,r2,0x0
   82f09:	08 30                   	b.add      r1,r1,r16
   82f0b:	ef                      	.word 0xef
   82f0c:	00 08                   	b.trap     0x1
   82f0e:	2f 51 00                	b.sw       0x0(r17),r26
   82f11:	08 2f                   	b.add      r1,r1,r15
   82f13:	94 00 68 4a e2 90       	b.andi     r0,r0,0x9475216
   82f19:	41 03 08                	b.bnei     r3,0x0,82f29 <v6LP_Tick+0x7b9>
   82f1c:	8c e0 60 f0 00 20       	b.lwz      r7,0x4000f04(r0)
   82f22:	00 c4                   	b.movi     r6,0x2
   82f24:	2c 07 17                	b.sw       0xe8(r7),r0
   82f27:	0f 5a                   	b.j        83092 <v6LP_Tick+0x922>
   82f29:	8c e0 40 f0 00 20       	b.lwz      r7,0x4000f00(r0)
   82f2f:	00 60                   	b.movi     r3,0x0
   82f31:	c4 e7 30 80             	b.lbz      r7,0x10c(r7)
   82f35:	00 88                   	b.movi     r4,0x1
   82f37:	3c a7 10                	b.sfgtui   r7,0x8
   82f3a:	47 2e 70                	b.bf       83021 <v6LP_Tick+0x8b1>
   82f3d:	0e 9e                   	b.j        83122 <v6LP_Tick+0x9b2>
   82f3f:	2c c7 57                	b.lwz      r6,0xe8(r7)
   82f42:	9f 46 34 80 00 00       	b.sfleui   r6,0x12c
   82f48:	47 25 b8                	b.bf       83122 <v6LP_Tick+0x9b2>
   82f4b:	c1 47 26 80             	b.sb       0x164(r7),r10
   82f4f:	0f 2e                   	b.j        83122 <v6LP_Tick+0x9b2>
   82f51:	84 60 7e 60 00 20       	b.lbz      r3,0x400067e(r0)
   82f57:	48 48 bc                	b.jal      9239f <vMiniMac_PLME_SetReq_Channel>
   82f5a:	88 60 be 60 00 20       	b.lhz      r3,0x400067c(r0)
   82f60:	48 19 40                	b.jal      839c0 <vMiniMac_MLME_SetReq_PanId>
   82f63:	8d c0 60 f0 00 20       	b.lwz      r14,0x4000f04(r0)
   82f69:	49 7c 38                	b.jal      8a063 <rand>
   82f6c:	8c e0 41 60 00 20       	b.lwz      r7,0x4000680(r0)
   82f72:	29 a7 90                	b.lhz      r13,0x8(r7)
   82f75:	28 87 d0                	b.lhz      r4,0xa(r7)
   82f78:	60 84 6d                	b.sub      r4,r4,r13
   82f7b:	00 98                   	b.addi     r4,r4,0x1
   82f7d:	4b 5f 52                	b.jal      95b68 <__modsi3>
   82f80:	8c e0 60 f0 00 20       	b.lwz      r7,0x4000f04(r0)
   82f86:	08 6d                   	b.add      r3,r3,r13
   82f88:	38 c0 88                	b.ori      r6,r0,0x11
   82f8b:	c8 6e 05 80             	b.sh       0x1a0(r14),r3
   82f8f:	2c 07 17                	b.sw       0xe8(r7),r0
   82f92:	0c 02                   	b.j        83092 <v6LP_Tick+0x922>
   82f94:	c8 c7 85 80             	b.lhz      r6,0x1a0(r7)
   82f98:	2c a7 57                	b.lwz      r5,0xe8(r7)
   82f9b:	d3 8c 5e 18             	b.bgeu     r6,r5,83122 <v6LP_Tick+0x9b2>
   82f9f:	c8 67 ee 80             	b.lhz      r3,0x176(r7)
   82fa3:	80 00 fe 60 00 20       	b.sb       0x400067f(r0),r0
   82fa9:	4b a1 40                	b.jal      839c0 <vMiniMac_MLME_SetReq_PanId>
   82fac:	0c f4                   	b.j        83068 <v6LP_Tick+0x8f8>
   82fae:	c4 c7 a6 80             	b.lbz      r6,0x165(r7)
   82fb2:	41 06 14                	b.bnei     r6,0x0,82fda <v6LP_Tick+0x86a>
   82fb5:	8c c0 40 f0 00 20       	b.lwz      r6,0x4000f00(r0)
   82fbb:	c4 a6 58 80             	b.lbz      r5,0x11a(r6)
   82fbf:	41 05 d8                	b.bnei     r5,0x0,82fda <v6LP_Tick+0x86a>
   82fc2:	8c e0 41 60 00 20       	b.lwz      r7,0x4000680(r0)
   82fc8:	c1 46 58 80             	b.sb       0x11a(r6),r10
   82fcc:	98 a0 e3 79 10 00       	b.ori      r5,r0,0x89ec7
   82fd2:	28 67 90                	b.lhz      r3,0x8(r7)
   82fd5:	28 87 d0                	b.lhz      r4,0xa(r7)
   82fd8:	0e dc                   	b.j        830c5 <v6LP_Tick+0x955>
   82fda:	84 c0 fe 60 00 20       	b.lbz      r6,0x400067f(r0)
   82fe0:	40 06 10                	b.beqi     r6,0x0,82fe8 <v6LP_Tick+0x878>
   82fe3:	38 c0 08                	b.ori      r6,r0,0x10
   82fe6:	0c d4                   	b.j        83092 <v6LP_Tick+0x922>
   82fe8:	8c e0 40 f0 00 20       	b.lwz      r7,0x4000f00(r0)
   82fee:	c4 c7 08 80             	b.lbz      r6,0x110(r7)
   82ff2:	40 06 84                	b.beqi     r6,0x0,83013 <v6LP_Tick+0x8a3>
   82ff5:	88 c0 97 d0 00 20       	b.lhz      r6,0x4000be8(r0)
   82ffb:	9f 46 ff 00 00 00       	b.sfleui   r6,0xff
   83001:	47 24 80                	b.bf       83013 <v6LP_Tick+0x8a3>
   83004:	84 c0 7e 60 00 20       	b.lbz      r6,0x400067e(r0)
   8300a:	40 06 90                	b.beqi     r6,0x0,83013 <v6LP_Tick+0x8a3>
   8300d:	81 40 fe 60 00 20       	b.sb       0x400067f(r0),r10
   83013:	c4 e7 30 80             	b.lbz      r7,0x10c(r7)
   83017:	00 60                   	b.movi     r3,0x0
   83019:	3c e7 10                	b.sfleui   r7,0x8
   8301c:	47 25 00                	b.bf       83026 <v6LP_Tick+0x8b6>
   8301f:	00 8c                   	b.movi     r4,0x3
   83021:	48 79 a8                	b.jal      88699 <bJnc_ResetStackVect>
   83024:	0d fc                   	b.j        83122 <v6LP_Tick+0x9b2>
   83026:	4a c0 90                	b.jal      85433 <eJnc_StartScanVect>
   83029:	d0 40 39 f0             	b.bnei     r3,0x0,83122 <v6LP_Tick+0x9b2>
   8302d:	8c e0 60 f0 00 20       	b.lwz      r7,0x4000f04(r0)
   83033:	00 c2                   	b.movi     r6,0x4
   83035:	2c 07 17                	b.sw       0xe8(r7),r0
   83038:	0d 68                   	b.j        83092 <v6LP_Tick+0x922>
   8303a:	2c e7 57                	b.lwz      r7,0xe8(r7)
   8303d:	9f 47 34 80 00 00       	b.sfleui   r7,0x12c
   83043:	47 2f b0                	b.bf       83122 <v6LP_Tick+0x9b2>
   83046:	8c e0 40 f0 00 20       	b.lwz      r7,0x4000f00(r0)
   8304c:	cc e7 74 80             	b.lwz      r7,0x12c(r7)
   83050:	40 07 a8                	b.beqi     r7,0x0,83065 <v6LP_Tick+0x8f5>
   83053:	00 60                   	b.movi     r3,0x0
   83055:	00 80                   	b.movi     r4,0x0
   83057:	00 a0                   	b.movi     r5,0x0
   83059:	47 d1 38                	b.jalr     r7
   8305c:	40 03 90                	b.beqi     r3,0x0,83065 <v6LP_Tick+0x8f5>
   8305f:	00 60                   	b.movi     r3,0x0
   83061:	00 80                   	b.movi     r4,0x0
   83063:	0d f7                   	b.j        83021 <v6LP_Tick+0x8b1>
   83065:	49 36 38                	b.jal      8a217 <vJnc_ClearScanListVect>
   83068:	00 cc                   	b.movi     r6,0x3
   8306a:	8c e0 60 f0 00 20       	b.lwz      r7,0x4000f04(r0)
   83070:	0d 10                   	b.j        83092 <v6LP_Tick+0x922>
   83072:	48 0b a8                	b.jal      887b2 <bJnc_StartAssociateVect>
   83075:	8c e0 60 f0 00 20       	b.lwz      r7,0x4000f04(r0)
   8307b:	2c 07 17                	b.sw       0xe8(r7),r0
   8307e:	0c 94                   	b.j        83122 <v6LP_Tick+0x9b2>
   83080:	2c a7 57                	b.lwz      r5,0xe8(r7)
   83083:	3c e5 26                	b.sfleui   r5,0x64
   83086:	47 23 90                	b.bf       83122 <v6LP_Tick+0x9b2>
   83089:	41 e6 e0                	b.bnei     r6,0x7,83090 <v6LP_Tick+0x920>
   8308c:	00 ca                   	b.movi     r6,0x5
   8308e:	0c 80                   	b.j        83092 <v6LP_Tick+0x922>
   83090:	00 c6                   	b.movi     r6,0x6
   83092:	c0 c7 26 80             	b.sb       0x164(r7),r6
   83096:	0c c4                   	b.j        83122 <v6LP_Tick+0x9b2>
   83098:	4b 03 d4                	b.jal      8df9b <vStartCoordVect>
   8309b:	0f 84                   	b.j        83122 <v6LP_Tick+0x9b2>
   8309d:	49 fd d4                	b.jal      8df9b <vStartCoordVect>
   830a0:	8c e0 60 f0 00 20       	b.lwz      r7,0x4000f04(r0)
   830a6:	00 68                   	b.movi     r3,0x1
   830a8:	c8 87 9e 80             	b.lhz      r4,0x178(r7)
   830ac:	00 a0                   	b.movi     r5,0x0
   830ae:	49 23 18                	b.jal      893c0 <vNwk_RouteEstablishedVect>
   830b1:	0e 38                   	b.j        83122 <v6LP_Tick+0x9b2>
   830b3:	8c e0 41 60 00 20       	b.lwz      r7,0x4000680(r0)
   830b9:	98 a0 e1 b1 10 00       	b.ori      r5,r0,0x88d87
   830bf:	28 67 b0                	b.lhz      r3,0xc(r7)
   830c2:	28 87 f0                	b.lhz      r4,0xe(r7)
   830c5:	48 33 8c                	b.jal      8f7f5 <vJnc_BackOffVect>
   830c8:	0d 68                   	b.j        83122 <v6LP_Tick+0x9b2>
   830ca:	2c e7 57                	b.lwz      r7,0xe8(r7)
   830cd:	3c e7 26                	b.sfleui   r7,0x64
   830d0:	47 24 a0                	b.bf       83122 <v6LP_Tick+0x9b2>
   830d3:	4b c1 80                	b.jal      836e2 <vAHI_StartRandomNumberGenerator.constprop.88>
   830d6:	4b 65 60                	b.jal      84b71 <bAHI_RndNumPoll>
   830d9:	40 03 bf                	b.beqi     r3,0x0,830d6 <v6LP_Tick+0x966>
   830dc:	8c e0 60 f0 00 20       	b.lwz      r7,0x4000f04(r0)
   830e2:	cc d0 63 01             	b.lwz      r6,-0x7f3c(r16)
   830e6:	c0 c7 01 80             	b.sb       0x180(r7),r6
   830ea:	38 c0 d0                	b.ori      r6,r0,0xb
   830ed:	0e 97                   	b.j        83092 <v6LP_Tick+0x922>
   830ef:	8c e0 40 f0 00 20       	b.lwz      r7,0x4000f00(r0)
   830f5:	cc c7 78 80             	b.lwz      r6,0x11c(r7)
   830f9:	94 c6 00 ff ff 00       	b.andi     r6,r6,0xffff00
   830ff:	41 06 c8                	b.bnei     r6,0x0,83112 <v6LP_Tick+0x9a2>
   83102:	cc e7 44 80             	b.lwz      r7,0x120(r7)
   83106:	81 40 55 60 00 20       	b.sb       0x40006aa(r0),r10
   8310c:	8c e0 35 60 00 20       	b.sw       0x40006ac(r0),r7
   83112:	8c e0 7d 08 00 40       	b.lwz      r7,0x20010bc(r0)
   83118:	34 e7 08                	b.andi     r7,r7,0x10
   8311b:	40 07 e0                	b.beqi     r7,0x0,83122 <v6LP_Tick+0x9b2>
   8311e:	cd 70 2d 01             	b.sw       -0x7f4c(r16),r11
   83122:	8c e0 60 f0 00 20       	b.lwz      r7,0x4000f04(r0)
   83128:	84 c0 11 00 00 20       	b.lbz      r6,0x4000088(r0)
   8312e:	c4 e7 26 80             	b.lbz      r7,0x164(r7)
   83132:	d2 cc 76 6b             	b.bne      r6,r7,82e98 <v6LP_Tick+0x728>
   83136:	46 74 c0                	b.j        83464 <v6LP_Tick+0xcf4>
   83139:	99 60 e4 18 10 00       	b.ori      r11,r0,0x81827
   8313f:	99 40 ee 18 10 00       	b.ori      r10,r0,0x81877
   83145:	8c e0 60 f0 00 20       	b.lwz      r7,0x4000f04(r0)
   8314b:	c4 c7 26 80             	b.lbz      r6,0x164(r7)
   8314f:	8c e0 40 f0 00 20       	b.lwz      r7,0x4000f00(r0)
   83155:	41 06 84                	b.bnei     r6,0x0,83176 <v6LP_Tick+0xa06>
   83158:	c4 e7 4a 80             	b.lbz      r7,0x152(r7)
   8315c:	d0 00 71 0c             	b.beqi     r7,0x0,83464 <v6LP_Tick+0xcf4>
   83160:	00 62                   	b.movi     r3,0x4
   83162:	4b 44 3f                	b.jal      821ed <iNed_StopTimerVect>
   83165:	8c e0 40 f0 00 20       	b.lwz      r7,0x4000f00(r0)
   8316b:	cc 07 32 80             	b.sw       0x14c(r7),r0
   8316f:	c0 07 4a 80             	b.sb       0x152(r7),r0
   83173:	46 8f 40                	b.j        83464 <v6LP_Tick+0xcf4>
   83176:	cc e7 72 80             	b.lwz      r7,0x14c(r7)
   8317a:	40 07 60                	b.beqi     r7,0x0,83180 <v6LP_Tick+0xa10>
   8317d:	4a 51 60                	b.jal      84ba6 <vAHI_SwReset>
   83180:	8c e0 40 f0 00 20       	b.lwz      r7,0x4000f00(r0)
   83186:	c4 c7 94 80             	b.lbz      r6,0x129(r7)
   8318a:	41 86 50                	b.bnei     r6,0x1,83194 <v6LP_Tick+0xa24>
   8318d:	c0 07 94 80             	b.sb       0x129(r7),r0
   83191:	49 3c 18                	b.jal      89283 <eApi_PollForData>
   83194:	8c a0 40 f0 00 20       	b.lwz      r5,0x4000f00(r0)
   8319a:	8c c0 60 f0 00 20       	b.lwz      r6,0x4000f04(r0)
   831a0:	c4 85 4a 80             	b.lbz      r4,0x152(r5)
   831a4:	c4 e6 26 80             	b.lbz      r7,0x164(r6)
   831a8:	d2 88 71 20             	b.beq      r4,r7,831f0 <v6LP_Tick+0xa80>
   831ac:	c0 e5 4a 80             	b.sb       0x152(r5),r7
   831b0:	3c 07 b0                	b.sfeqi    r7,0xd
   831b3:	47 25 00                	b.bf       831bd <v6LP_Tick+0xa4d>
   831b6:	cd a6 65 80             	b.lwz      r13,0x1a4(r6)
   831ba:	41 0d 28                	b.bnei     r13,0x0,831ce <v6LP_Tick+0xa5e>
   831bd:	00 62                   	b.movi     r3,0x4
   831bf:	49 d0 3f                	b.jal      821ed <iNed_StopTimerVect>
   831c2:	8c e0 40 f0 00 20       	b.lwz      r7,0x4000f00(r0)
   831c8:	cc 07 32 80             	b.sw       0x14c(r7),r0
   831cc:	0c 90                   	b.j        831f0 <v6LP_Tick+0xa80>
   831ce:	4a c7 df                	b.jal      8215b <vInterrupt_Suspend>
   831d1:	8c e0 40 f0 00 20       	b.lwz      r7,0x4000f00(r0)
   831d7:	cc c7 5a 80             	b.lwz      r6,0x158(r7)
   831db:	09 a6                   	b.add      r13,r13,r6
   831dd:	cd a7 39 80             	b.sw       0x19c(r7),r13
   831e1:	cc 07 05 80             	b.sw       0x1a0(r7),r0
   831e5:	cd 67 25 80             	b.sw       0x1a4(r7),r11
   831e9:	cc 07 15 80             	b.sw       0x1a8(r7),r0
   831ed:	4a 73 df                	b.jal      82126 <vInterrupt_Resume>
   831f0:	8c e0 60 f0 00 20       	b.lwz      r7,0x4000f04(r0)
   831f6:	c4 c7 26 80             	b.lbz      r6,0x164(r7)
   831fa:	3c a6 f0                	b.sfgtui   r6,0xf
   831fd:	47 26 84                	b.bf       83413 <v6LP_Tick+0xca3>
   83200:	6c c6 40                	b.slli     r6,r6,0x2
   83203:	90 c6 08 4c 10 00       	b.addi     r6,r6,0x83210
   83209:	2c c6 40                	b.lwz      r6,0x0(r6)
   8320c:	47 d2 30                	b.jr       r6
   8320f:	00 00                   	b.trap     0x0
   83211:	08 34                   	b.add      r1,r1,r20
   83213:	1a                      	.word 0x1a
   83214:	00 08                   	b.trap     0x1
   83216:	34 13 00                	b.andi     r0,r19,0x0
   83219:	08 34                   	b.add      r1,r1,r20
   8321b:	13                      	.word 0x13
   8321c:	00 08                   	b.trap     0x1
   8321e:	32 50 00                	b.addi     r18,r16,0x0
   83221:	08 32                   	b.add      r1,r1,r18
   83223:	c4 00 08 32             	b.lbz      r0,0x4c10(r0)
   83227:	d8 00 08 32             	b.addi     r0,r0,0x4c10
   8322b:	d8 00 08 34             	b.addi     r0,r0,0x2c10
   8322f:	1a                      	.word 0x1a
   83230:	00 08                   	b.trap     0x1
   83232:	34 1a 00                	b.andi     r0,r26,0x0
   83235:	08 34                   	b.add      r1,r1,r20
   83237:	13                      	.word 0x13
   83238:	00 08                   	b.trap     0x1
   8323a:	34 13 00                	b.andi     r0,r19,0x0
   8323d:	08 33                   	b.add      r1,r1,r19
   8323f:	05 00                   	b.mov      r8,r0
   83241:	08 33                   	b.add      r1,r1,r19
   83243:	14                      	.word 0x14
   83244:	00 08                   	b.trap     0x1
   83246:	33 5f 00                	b.addi     r26,r31,0x0
   83249:	08 33                   	b.add      r1,r1,r19
   8324b:	76 00 08                	b.adds     r16,r0,r1
   8324e:	33 c1 24                	b.addi     r30,r1,0x24
   83251:	e7                      	.word 0xe7
   83252:	18                      	.word 0x18
   83253:	40 07 82                	b.beqi     r7,0x0,83294 <v6LP_Tick+0xb24>
   83256:	8c e0 40 f0 00 20       	b.lwz      r7,0x4000f00(r0)
   8325c:	cc e7 74 80             	b.lwz      r7,0x12c(r7)
   83260:	40 07 a8                	b.beqi     r7,0x0,83275 <v6LP_Tick+0xb05>
   83263:	00 60                   	b.movi     r3,0x0
   83265:	00 80                   	b.movi     r4,0x0
   83267:	00 a0                   	b.movi     r5,0x0
   83269:	47 d1 38                	b.jalr     r7
   8326c:	40 03 90                	b.beqi     r3,0x0,83275 <v6LP_Tick+0xb05>
   8326f:	00 60                   	b.movi     r3,0x0
   83271:	00 80                   	b.movi     r4,0x0
   83273:	0c 96                   	b.j        83417 <v6LP_Tick+0xca7>
   83275:	8c e0 60 f0 00 20       	b.lwz      r7,0x4000f04(r0)
   8327b:	38 80 50                	b.ori      r4,r0,0xa
   8327e:	2c 67 68                	b.lwz      r3,0x14(r7)
   83281:	20 07 18                	b.sb       0x18(r7),r0
   83284:	48 02 92                	b.jal      95784 <__udivsi3>
   83287:	98 a0 24 18 10 00       	b.ori      r5,r0,0x81824
   8328d:	3e 03 1a                	b.exthz    r3,r3
   83290:	04 83                   	b.mov      r4,r3
   83292:	0c 4c                   	b.j        8335a <v6LP_Tick+0xbea>
   83294:	00 60                   	b.movi     r3,0x0
   83296:	4a e6 10                	b.jal      85433 <eJnc_StartScanVect>
   83299:	d0 40 35 e8             	b.bnei     r3,0x0,83413 <v6LP_Tick+0xca3>
   8329d:	8c e0 60 f0 00 20       	b.lwz      r7,0x4000f04(r0)
   832a3:	00 c2                   	b.movi     r6,0x4
   832a5:	20 07 18                	b.sb       0x18(r7),r0
   832a8:	c0 c7 26 80             	b.sb       0x164(r7),r6
   832ac:	2d a7 48                	b.lwz      r13,0x10(r7)
   832af:	48 d5 df                	b.jal      8215b <vInterrupt_Suspend>
   832b2:	8c e0 40 f0 00 20       	b.lwz      r7,0x4000f00(r0)
   832b8:	cc c7 5a 80             	b.lwz      r6,0x158(r7)
   832bc:	09 a6                   	b.add      r13,r13,r6
   832be:	cd a7 3a 80             	b.sw       0x15c(r7),r13
   832c2:	0d 30                   	b.j        832f4 <v6LP_Tick+0xb84>
   832c4:	24 e7 18                	b.lbz      r7,0x18(r7)
   832c7:	d0 00 7c a8             	b.beqi     r7,0x0,8341a <v6LP_Tick+0xcaa>
   832cb:	48 cb d8                	b.jal      8a217 <vJnc_ClearScanListVect>
   832ce:	00 cc                   	b.movi     r6,0x3
   832d0:	8c e0 60 f0 00 20       	b.lwz      r7,0x4000f04(r0)
   832d6:	0d e8                   	b.j        83334 <v6LP_Tick+0xbc4>
   832d8:	49 6c a8                	b.jal      887b2 <bJnc_StartAssociateVect>
   832db:	d0 00 3f c8             	b.beqi     r3,0x0,8341a <v6LP_Tick+0xcaa>
   832df:	48 f9 df                	b.jal      8215b <vInterrupt_Suspend>
   832e2:	8c e0 40 f0 00 20       	b.lwz      r7,0x4000f00(r0)
   832e8:	cc c7 5a 80             	b.lwz      r6,0x158(r7)
   832ec:	d8 c6 17 c0             	b.addi     r6,r6,0x3e8
   832f0:	cc c7 3a 80             	b.sw       0x15c(r7),r6
   832f4:	cc 07 06 80             	b.sw       0x160(r7),r0
   832f8:	cd 47 26 80             	b.sw       0x164(r7),r10
   832fc:	cc 07 16 80             	b.sw       0x168(r7),r0
   83300:	49 91 df                	b.jal      82126 <vInterrupt_Resume>
   83303:	0f a2                   	b.j        8341a <v6LP_Tick+0xcaa>
   83305:	38 c0 30                	b.ori      r6,r0,0xc
   83308:	20 07 10                	b.sb       0x8(r7),r0
   8330b:	c0 c7 26 80             	b.sb       0x164(r7),r6
   8330f:	48 92 68                	b.jal      88c33 <vJnc_SendEstablishRouteVect.constprop.29>
   83312:	0c 42                   	b.j        8341a <v6LP_Tick+0xcaa>
   83314:	24 e7 10                	b.lbz      r7,0x8(r7)
   83317:	40 07 c4                	b.beqi     r7,0x0,8333a <v6LP_Tick+0xbca>
   8331a:	48 4f 00                	b.jal      836e2 <vAHI_StartRandomNumberGenerator.constprop.88>
   8331d:	48 a8 60                	b.jal      84b71 <bAHI_RndNumPoll>
   83320:	40 03 bf                	b.beqi     r3,0x0,8331d <v6LP_Tick+0xbad>
   83323:	8c e0 60 f0 00 20       	b.lwz      r7,0x4000f04(r0)
   83329:	cc d0 63 01             	b.lwz      r6,-0x7f3c(r16)
   8332d:	c0 c7 01 80             	b.sb       0x180(r7),r6
   83331:	38 c0 d0                	b.ori      r6,r0,0xb
   83334:	c0 c7 26 80             	b.sb       0x164(r7),r6
   83338:	0d 1c                   	b.j        8341a <v6LP_Tick+0xcaa>
   8333a:	8c e0 40 f0 00 20       	b.lwz      r7,0x4000f00(r0)
   83340:	c4 e7 b8 80             	b.lbz      r7,0x11d(r7)
   83344:	d0 40 76 b0             	b.bnei     r7,0x0,8341a <v6LP_Tick+0xcaa>
   83348:	8c e0 41 60 00 20       	b.lwz      r7,0x4000680(r0)
   8334e:	98 a0 a8 18 10 00       	b.ori      r5,r0,0x81815
   83354:	28 67 b0                	b.lhz      r3,0xc(r7)
   83357:	28 87 f0                	b.lhz      r4,0xe(r7)
   8335a:	4b 64 8c                	b.jal      8f7f5 <vJnc_BackOffVect>
   8335d:	0e f4                   	b.j        8341a <v6LP_Tick+0xcaa>
   8335f:	8c e0 40 f0 00 20       	b.lwz      r7,0x4000f00(r0)
   83365:	c4 c7 54 80             	b.lbz      r6,0x12a(r7)
   83369:	d0 00 68 d0             	b.beqi     r6,0x0,8341a <v6LP_Tick+0xcaa>
   8336d:	c0 07 54 80             	b.sb       0x12a(r7),r0
   83371:	49 23 e8                	b.jal      89283 <eApi_PollForData>
   83374:	0d 94                   	b.j        8341a <v6LP_Tick+0xcaa>
   83376:	8c c0 69 60 00 20       	b.lwz      r6,0x4000694(r0)
   8337c:	24 c6 2c                	b.lbz      r6,0x34(r6)
   8337f:	d0 00 6d 90             	b.beqi     r6,0x0,8341a <v6LP_Tick+0xcaa>
   83383:	c4 c7 45 80             	b.lbz      r6,0x1a2(r7)
   83387:	8c e0 40 f0 00 20       	b.lwz      r7,0x4000f00(r0)
   8338d:	00 60                   	b.movi     r3,0x0
   8338f:	c0 c7 d8 80             	b.sb       0x11b(r7),r6
   83393:	49 69 df                	b.jal      821ed <iNed_StopTimerVect>
   83396:	00 68                   	b.movi     r3,0x1
   83398:	4a a9 df                	b.jal      821ed <iNed_StopTimerVect>
   8339b:	00 64                   	b.movi     r3,0x2
   8339d:	48 29 df                	b.jal      821ed <iNed_StopTimerVect>
   833a0:	8c e0 60 f0 00 20       	b.lwz      r7,0x4000f04(r0)
   833a6:	c8 c7 85 80             	b.lhz      r6,0x1a0(r7)
   833aa:	d8 e0 02 80             	b.addi     r7,r0,0x140
   833ae:	64 e6 3b                	b.mul      r7,r6,r7
   833b1:	8c e0 35 60 00 20       	b.sw       0x40006ac(r0),r7
   833b7:	00 e8                   	b.movi     r7,0x1
   833b9:	80 e0 55 60 00 20       	b.sb       0x40006aa(r0),r7
   833bf:	0f 68                   	b.j        8341a <v6LP_Tick+0xcaa>
   833c1:	8c e0 40 f0 00 20       	b.lwz      r7,0x4000f00(r0)
   833c7:	cc e7 78 80             	b.lwz      r7,0x11c(r7)
   833cb:	94 e7 00 ff ff 00       	b.andi     r7,r7,0xffff00
   833d1:	41 07 54                	b.bnei     r7,0x0,833fb <v6LP_Tick+0xc8b>
   833d4:	00 60                   	b.movi     r3,0x0
   833d6:	4b a1 df                	b.jal      821ed <iNed_StopTimerVect>
   833d9:	00 68                   	b.movi     r3,0x1
   833db:	49 21 df                	b.jal      821ed <iNed_StopTimerVect>
   833de:	00 64                   	b.movi     r3,0x2
   833e0:	4a c1 df                	b.jal      821ed <iNed_StopTimerVect>
   833e3:	8c e0 40 f0 00 20       	b.lwz      r7,0x4000f00(r0)
   833e9:	cc e7 44 80             	b.lwz      r7,0x120(r7)
   833ed:	8c e0 35 60 00 20       	b.sw       0x40006ac(r0),r7
   833f3:	00 e8                   	b.movi     r7,0x1
   833f5:	80 e0 55 60 00 20       	b.sb       0x40006aa(r0),r7
   833fb:	8c e0 7d 08 00 40       	b.lwz      r7,0x20010bc(r0)
   83401:	34 e7 08                	b.andi     r7,r7,0x10
   83404:	40 07 68                	b.beqi     r7,0x0,8341a <v6LP_Tick+0xcaa>
   83407:	98 e0 1f ed 00 00       	b.ori      r7,r0,0xb7f8
   8340d:	cc f0 2d 01             	b.sw       -0x7f4c(r16),r7
   83411:	0e 40                   	b.j        8341a <v6LP_Tick+0xcaa>
   83413:	00 60                   	b.movi     r3,0x0
   83415:	00 8c                   	b.movi     r4,0x3
   83417:	49 05 28                	b.jal      88699 <bJnc_ResetStackVect>
   8341a:	8c e0 40 f0 00 20       	b.lwz      r7,0x4000f00(r0)
   83420:	c4 c7 4a 80             	b.lbz      r6,0x152(r7)
   83424:	8c e0 60 f0 00 20       	b.lwz      r7,0x4000f04(r0)
   8342a:	c4 e7 26 80             	b.lbz      r7,0x164(r7)
   8342e:	d2 cc 7e 8b             	b.bne      r6,r7,83145 <v6LP_Tick+0x9d5>
   83432:	0c 90                   	b.j        83456 <v6LP_Tick+0xce6>
   83434:	30 a1 10                	b.addi     r5,r1,0x8
   83437:	00 66                   	b.movi     r3,0x6
   83439:	21 41 10                	b.sb       0x8(r1),r10
   8343c:	00 80                   	b.movi     r4,0x0
   8343e:	00 c8                   	b.movi     r6,0x1
   83440:	49 6d 82                	b.jal      93b1a <v6LP_ProcessStackEvent>
   83443:	8c e0 60 f0 00 20       	b.lwz      r7,0x4000f04(r0)
   83449:	2c c7 44                	b.lwz      r6,0x20(r7)
   8344c:	00 df                   	b.addi     r6,r6,-0x1
   8344e:	2c c7 04                	b.sw       0x20(r7),r6
   83451:	48 8a 10                	b.jal      85595 <vFailedPacket.12671>
   83454:	0c 80                   	b.j        83458 <v6LP_Tick+0xce8>
   83456:	01 44                   	b.movi     r10,0x2
   83458:	8c e0 60 f0 00 20       	b.lwz      r7,0x4000f04(r0)
   8345e:	2c e7 44                	b.lwz      r7,0x20(r7)
   83461:	41 07 cb                	b.bnei     r7,0x0,83434 <v6LP_Tick+0xcc4>
   83464:	84 e0 55 60 00 20       	b.lbz      r7,0x40006aa(r0)
   8346a:	d0 00 7e b0             	b.beqi     r7,0x0,83541 <v6LP_Tick+0xdd1>
   8346e:	4b cb 60                	b.jal      84fbd <eMiniMac_FrameInProgress>
   83471:	d0 40 30 b0             	b.bnei     r3,0x0,83541 <v6LP_Tick+0xdd1>
   83475:	8c 60 61 00 00 20       	b.lwz      r3,0x4000084(r0)
   8347b:	47 d1 18                	b.jalr     r3
   8347e:	d0 60 3c 30             	b.bnei     r3,0x1,83541 <v6LP_Tick+0xdd1>
   83482:	8c e0 40 f0 00 20       	b.lwz      r7,0x4000f00(r0)
   83488:	80 00 55 60 00 20       	b.sb       0x40006aa(r0),r0
   8348e:	c5 47 f8 80             	b.lbz      r10,0x11f(r7)
   83492:	8d 60 75 60 00 20       	b.lwz      r11,0x40006ac(r0)
   83498:	48 17 80                	b.jal      83c38 <vAHI_WakeTimerStop.part.3.24819.constprop.31>
   8349b:	4b db c0                	b.jal      8440a <u8AHI_WakeTimerFiredStatus>
   8349e:	8c e0 60 f0 00 20       	b.lwz      r7,0x4000f04(r0)
   834a4:	c4 e7 66 80             	b.lbz      r7,0x166(r7)
   834a8:	40 07 f0                	b.beqi     r7,0x0,834b7 <v6LP_Tick+0xd47>
   834ab:	cc f0 60 01             	b.lwz      r7,-0x7ffc(r16)
   834af:	34 e7 10                	b.andi     r7,r7,0x8
   834b2:	40 07 84                	b.beqi     r7,0x0,834d3 <v6LP_Tick+0xd63>
   834b5:	0d 40                   	b.j        834bf <v6LP_Tick+0xd4f>
   834b7:	49 83 60                	b.jal      84fbd <eMiniMac_FrameInProgress>
   834ba:	41 03 27                	b.bnei     r3,0x0,8349e <v6LP_Tick+0xd2e>
   834bd:	0d df                   	b.j        834ab <v6LP_Tick+0xd3b>
   834bf:	cc f0 47 69             	b.lwz      r7,-0x6920(r16)
   834c3:	80 e0 71 60 00 20       	b.sb       0x400068e(r0),r7
   834c9:	cc f0 7b 69             	b.lwz      r7,-0x6924(r16)
   834cd:	88 e0 31 60 00 20       	b.sh       0x400068c(r0),r7
   834d3:	00 60                   	b.movi     r3,0x0
   834d5:	49 91 a0                	b.jal      84afb <vAHI_TickTimerIntEnable>
   834d8:	00 60                   	b.movi     r3,0x0
   834da:	48 f9 a0                	b.jal      84b56 <vAHI_TickTimerConfigure>
   834dd:	8c e0 49 60 00 20       	b.lwz      r7,0x4000690(r0)
   834e3:	40 07 60                	b.beqi     r7,0x0,834e9 <v6LP_Tick+0xd79>
   834e6:	47 d1 38                	b.jalr     r7
   834e9:	d2 20 ac 80             	b.bleui    r10,0x1,834fc <v6LP_Tick+0xd8c>
   834ed:	8c e0 60 f0 00 20       	b.lwz      r7,0x4000f04(r0)
   834f3:	04 6a                   	b.mov      r3,r10
   834f5:	c0 07 26 80             	b.sb       0x164(r7),r0
   834f9:	4b 68 bc                	b.jal      92954 <vAHI_Sleep>
   834fc:	00 60                   	b.movi     r3,0x0
   834fe:	4b 37 00                	b.jal      838b1 <vAHI_WakeTimerEnable.part.0.24805.constprop.86>
   83501:	98 e0 00 00 00 20       	b.ori      r7,r0,0x4000000
   83507:	cc f0 08 09             	b.sw       -0x6ff0(r16),r7
   8350b:	cc d0 48 09             	b.lwz      r6,-0x6ff0(r16)
   8350f:	94 c6 00 00 00 20       	b.andi     r6,r6,0x4000000
   83515:	41 06 6f                	b.bnei     r6,0x0,8350b <v6LP_Tick+0xd9b>
   83518:	d8 e0 0c 09             	b.addi     r7,r0,-0x6fd0
   8351c:	08 f0                   	b.add      r7,r7,r16
   8351e:	2c c7 00                	b.sw       0x0(r7),r6
   83521:	d8 e0 28 09             	b.addi     r7,r0,-0x6fec
   83525:	08 f0                   	b.add      r7,r7,r16
   83527:	2d 67 00                	b.sw       0x0(r7),r11
   8352a:	cc f0 78 09             	b.lwz      r7,-0x6fe4(r16)
   8352e:	38 e7 80                	b.ori      r7,r7,0x1
   83531:	cc f0 38 09             	b.sw       -0x6fe4(r16),r7
   83535:	cc f0 44 09             	b.lwz      r7,-0x6fe0(r16)
   83539:	34 e7 80                	b.andi     r7,r7,0x1
   8353c:	40 07 9f                	b.beqi     r7,0x0,83535 <v6LP_Tick+0xdc5>
   8353f:	0d d7                   	b.j        834ed <v6LP_Tick+0xd7d>
   83541:	8c e0 45 60 00 20       	b.lwz      r7,0x40006a0(r0)
   83547:	60 ec 3d                	b.sub      r7,r12,r7
   8354a:	9f 47 c4 2f 00 00       	b.sfleui   r7,0xf423
   83550:	47 2f 00                	b.bf       8355f <v6LP_Tick+0xdef>
   83553:	8d 80 05 60 00 20       	b.sw       0x40006a0(r0),r12
   83559:	80 00 39 60 00 20       	b.sb       0x400069c(r0),r0
   8355f:	47 be e6                	b.reti     0x7,0x67
	...

00083564 <pvHeapAllocOverflowProtect.2158>:
   83564:	8c e0 50 e0 00 20       	b.lwz      r7,0x4000708(r0)
   8356a:	47 a8 80                	b.entri    0x1,0x1
   8356d:	47 d1 38                	b.jalr     r7
   83570:	8c e0 59 00 00 20       	b.lwz      r7,0x4000098(r0)
   83576:	98 c7 00 00 00 01       	b.ori      r6,r7,0x80000000
   8357c:	cc d0 07 01             	b.sw       -0x7f20(r16),r6
   83580:	8c c0 44 30 00 20       	b.lwz      r6,0x4000c20(r0)
   83586:	d3 8c 75 00             	b.bgeu     r6,r7,83590 <pvHeapAllocOverflowProtect.2158+0x2c>
   8358a:	8c e0 04 30 00 20       	b.sw       0x4000c20(r0),r7
   83590:	47 b8 80                	b.reti     0x1,0x1

00083593 <vACI_IntHandlerAes.1724>:
   83593:	47 a4 00                	b.entri    0x2,0x0
   83596:	cc f0 48 39             	b.lwz      r7,-0x63f0(r16)
   8359a:	cd 50 58 39             	b.lwz      r10,-0x63e8(r16)
   8359e:	61 4a 38                	b.and      r10,r10,r7
   835a1:	8c e0 4b 60 00 20       	b.lwz      r7,0x40006d0(r0)
   835a7:	40 07 50                	b.beqi     r7,0x0,835b1 <vACI_IntHandlerAes.1724+0x1e>
   835aa:	00 62                   	b.movi     r3,0x4
   835ac:	04 8a                   	b.mov      r4,r10
   835ae:	47 d1 38                	b.jalr     r7
   835b1:	cd 50 08 39             	b.sw       -0x63f0(r16),r10
   835b5:	47 b4 00                	b.reti     0x2,0x0

000835b8 <vAHI_IntHandlerSpiSlave.1763>:
   835b8:	cc f0 68 08             	b.lwz      r7,0x1014(r16)
   835bc:	cc f0 28 08             	b.sw       0x1014(r16),r7
   835c0:	47 d2 48                	b.jr       r9

000835c3 <vAHI_IntHandlerTimer2.1752>:
   835c3:	47 a8 80                	b.entri    0x1,0x1
   835c6:	cc f0 78 0c             	b.lwz      r7,0x301c(r16)
   835ca:	cc f0 38 0c             	b.sw       0x301c(r16),r7
   835ce:	34 c7 20                	b.andi     r6,r7,0x4
   835d1:	94 87 df ff ff ff       	b.andi     r4,r7,0xfffffffb
   835d7:	3c 26 00                	b.sfnei    r6,0x0
   835da:	64 84 3a                	b.cmov     r4,r4,r7
   835dd:	40 04 88                	b.beqi     r4,0x0,835ee <vAHI_IntHandlerTimer2.1752+0x2b>
   835e0:	8c c0 60 e0 00 20       	b.lwz      r6,0x4000704(r0)
   835e6:	40 06 10                	b.beqi     r6,0x0,835ee <vAHI_IntHandlerTimer2.1752+0x2b>
   835e9:	00 68                   	b.movi     r3,0x1
   835eb:	47 d1 30                	b.jalr     r6
   835ee:	47 b8 80                	b.reti     0x1,0x1

000835f1 <vAHI_IntHandlerSysCtrl.1754>:
   835f1:	47 a4 00                	b.entri    0x2,0x0
   835f4:	cd 50 65 01             	b.lwz      r10,-0x7f5c(r16)
   835f8:	cd 50 08 01             	b.sw       -0x7ff0(r16),r10
   835fc:	94 ea 00 00 00 04       	b.andi     r7,r10,0x20000000
   83602:	40 07 64                	b.beqi     r7,0x0,83628 <vAHI_IntHandlerSysCtrl.1754+0x37>
   83605:	8c e0 47 f0 00 80       	b.lwz      r7,0x1000fe0(r0)
   8360b:	34 e7 10                	b.andi     r7,r7,0x8
   8360e:	40 07 58                	b.beqi     r7,0x0,83628 <vAHI_IntHandlerSysCtrl.1754+0x37>
   83611:	38 e0 10                	b.ori      r7,r0,0x8
   83614:	8c e0 17 f0 00 80       	b.sw       0x1000fe8(r0),r7
   8361a:	8c e0 53 60 00 20       	b.lwz      r7,0x40006c8(r0)
   83620:	00 f8                   	b.addi     r7,r7,0x1
   83622:	8c e0 13 60 00 20       	b.sw       0x40006c8(r0),r7
   83628:	8c e0 76 e0 00 20       	b.lwz      r7,0x400076c(r0)
   8362e:	40 07 50                	b.beqi     r7,0x0,83638 <vAHI_IntHandlerSysCtrl.1754+0x47>
   83631:	00 64                   	b.movi     r3,0x2
   83633:	04 8a                   	b.mov      r4,r10
   83635:	47 d1 38                	b.jalr     r7
   83638:	95 4a 00 00 00 30       	b.andi     r10,r10,0xc000000
   8363e:	cc f0 48 01             	b.lwz      r7,-0x7ff0(r16)
   83642:	60 e7 50                	b.and      r7,r7,r10
   83645:	41 07 9f                	b.bnei     r7,0x0,8363e <vAHI_IntHandlerSysCtrl.1754+0x4d>
   83648:	47 b4 00                	b.reti     0x2,0x0

0008364b <pvHeap_DefAlloc.25295>:
   8364b:	47 a4 00                	b.entri    0x2,0x0
   8364e:	05 44                   	b.mov      r10,r4
   83650:	41 03 3c                	b.bnei     r3,0x0,8368c <pvHeap_DefAlloc.25295+0x41>
   83653:	8c e0 59 00 00 20       	b.lwz      r7,0x4000098(r0)
   83659:	8c c0 59 80 10 00       	b.lwz      r6,0x80198(r0)
   8365f:	08 87                   	b.add      r4,r4,r7
   83661:	d3 8c 41 00             	b.bgeu     r6,r4,83669 <pvHeap_DefAlloc.25295+0x1e>
   83665:	00 00                   	b.trap     0x0
   83667:	0c c8                   	b.j        836b3 <pvHeap_DefAlloc.25295+0x68>
   83669:	40 05 30                	b.beqi     r5,0x0,83675 <pvHeap_DefAlloc.25295+0x2a>
   8366c:	04 67                   	b.mov      r3,r7
   8366e:	00 80                   	b.movi     r4,0x0
   83670:	04 aa                   	b.mov      r5,r10
   83672:	4b 54 12                	b.jal      9571d <memset>
   83675:	8c 60 59 00 00 20       	b.lwz      r3,0x4000098(r0)
   8367b:	30 e3 c0                	b.addi     r7,r3,0x3
   8367e:	09 47                   	b.add      r10,r10,r7
   83680:	95 4a 3f ff ff ff       	b.andi     r10,r10,0xfffffffc
   83686:	8d 40 19 00 00 20       	b.sw       0x4000098(r0),r10
   8368c:	cc d0 47 01             	b.lwz      r6,-0x7f20(r16)
   83690:	8c e0 59 00 00 20       	b.lwz      r7,0x4000098(r0)
   83696:	94 86 ff ff f0 00       	b.andi     r4,r6,0xfffff
   8369c:	94 a7 ff ff f0 00       	b.andi     r5,r7,0xfffff
   836a2:	d3 88 58 80             	b.bgeu     r4,r5,836b3 <pvHeap_DefAlloc.25295+0x68>
   836a6:	94 c6 00 00 00 01       	b.andi     r6,r6,0x80000000
   836ac:	60 e6 39                	b.or       r7,r6,r7
   836af:	cc f0 07 01             	b.sw       -0x7f20(r16),r7
   836b3:	47 b4 00                	b.reti     0x2,0x0

000836b6 <vMicroIntEnableOnly.constprop.98>:
   836b6:	a8 c0 88 00 00 00       	b.mfspr    r6,r0,0x11
   836bc:	04 02                   	b.di       
   836be:	a8 e0 08 12 00 00       	b.mfspr    r7,r0,0x4810
   836c4:	3e 07 38                	b.extbz    r7,r7
   836c7:	20 e3 00                	b.sb       0x0(r3),r7
   836ca:	3c a7 50                	b.sfgtui   r7,0xa
   836cd:	47 23 00                	b.bf       836d9 <vMicroIntEnableOnly.constprop.98+0x23>
   836d0:	38 e0 d0                	b.ori      r7,r0,0xb
   836d3:	a8 e0 08 12 00 01       	b.mtspr    r0,r7,0x4810
   836d9:	a8 c0 88 00 00 01       	b.mtspr    r0,r6,0x11
   836df:	47 d2 48                	b.jr       r9

000836e2 <vAHI_StartRandomNumberGenerator.constprop.88>:
   836e2:	cc f0 70 01             	b.lwz      r7,-0x7ff4(r16)
   836e6:	94 e7 ff ff ff fd       	b.andi     r7,r7,0xbfffffff
   836ec:	cc f0 30 01             	b.sw       -0x7ff4(r16),r7
   836f0:	00 ec                   	b.movi     r7,0x3
   836f2:	cc f0 03 01             	b.sw       -0x7f40(r16),r7
   836f6:	47 d2 48                	b.jr       r9

000836f9 <vInitCoordRtrStateVect>:
   836f9:	8c e0 60 f0 00 20       	b.lwz      r7,0x4000f04(r0)
   836ff:	47 a4 00                	b.entri    0x2,0x0
   83702:	00 cf                   	b.movi     r6,-0x1
   83704:	c8 c7 1e 80             	b.sh       0x178(r7),r6
   83708:	05 43                   	b.mov      r10,r3
   8370a:	8c c0 40 f0 00 20       	b.lwz      r6,0x4000f00(r0)
   83710:	20 07 83                	b.sb       0xc1(r7),r0
   83713:	20 07 33                	b.sb       0xcc(r7),r0
   83716:	28 07 2b                	b.sh       0xd4(r7),r0
   83719:	20 07 cb                	b.sb       0xd3(r7),r0
   8371c:	c0 06 90 80             	b.sb       0x109(r6),r0
   83720:	c0 06 50 80             	b.sb       0x10a(r6),r0
   83724:	c0 06 d0 80             	b.sb       0x10b(r6),r0
   83728:	c0 06 30 80             	b.sb       0x10c(r6),r0
   8372c:	c0 06 b0 80             	b.sb       0x10d(r6),r0
   83730:	c0 06 58 80             	b.sb       0x11a(r6),r0
   83734:	8c c0 69 60 00 20       	b.lwz      r6,0x4000694(r0)
   8373a:	80 00 12 30 00 20       	b.sb       0x4000c48(r0),r0
   83740:	2c a6 50                	b.lwz      r5,0x8(r6)
   83743:	2c a7 37                	b.sw       0xec(r7),r5
   83746:	2c c6 70                	b.lwz      r6,0xc(r6)
   83749:	2c c7 0f                	b.sw       0xf0(r7),r6
   8374c:	49 a7 ff                	b.jal      836e2 <vAHI_StartRandomNumberGenerator.constprop.88>
   8374f:	49 10 a0                	b.jal      84b71 <bAHI_RndNumPoll>
   83752:	40 03 bf                	b.beqi     r3,0x0,8374f <vInitCoordRtrStateVect+0x56>
   83755:	cc d0 63 01             	b.lwz      r6,-0x7f3c(r16)
   83759:	8c e0 60 f0 00 20       	b.lwz      r7,0x4000f04(r0)
   8375f:	80 00 8b 10 00 20       	b.sb       0x40008d1(r0),r0
   83765:	c0 c7 01 80             	b.sb       0x180(r7),r6
   83769:	d0 30 aa 28             	b.beqi     r10,0x3,838ae <vInitCoordRtrStateVect+0x1b5>
   8376d:	49 55 58                	b.jal      8a217 <vJnc_ClearScanListVect>
   83770:	8c e0 60 f0 00 20       	b.lwz      r7,0x4000f04(r0)
   83776:	00 80                   	b.movi     r4,0x0
   83778:	c0 07 c6 80             	b.sb       0x163(r7),r0
   8377c:	35 4a bf                	b.andi     r10,r10,0xfd
   8377f:	c0 07 46 80             	b.sb       0x162(r7),r0
   83783:	8c e0 69 60 00 20       	b.lwz      r7,0x4000694(r0)
   83789:	2c a7 64                	b.lwz      r5,0x24(r7)
   8378c:	2c 67 54                	b.lwz      r3,0x28(r7)
   8378f:	6c a5 20                	b.slli     r5,r5,0x4
   83792:	4b 47 e2                	b.jal      9571d <memset>
   83795:	8c e0 60 f0 00 20       	b.lwz      r7,0x4000f04(r0)
   8379b:	00 c8                   	b.movi     r6,0x1
   8379d:	c4 a7 a6 80             	b.lbz      r5,0x165(r7)
   837a1:	80 c0 0b 10 00 20       	b.sb       0x40008d0(r0),r6
   837a7:	3c 25 00                	b.sfnei    r5,0x0
   837aa:	64 c6 02                	b.cmov     r6,r6,r0
   837ad:	28 07 1f                	b.sh       0xf8(r7),r0
   837b0:	28 07 5f                	b.sh       0xfa(r7),r0
   837b3:	80 c0 c3 30 00 20       	b.sb       0x4000cc3(r0),r6
   837b9:	d0 40 aa f0             	b.bnei     r10,0x0,838ae <vInitCoordRtrStateVect+0x1b5>
   837bd:	c0 07 26 80             	b.sb       0x164(r7),r0
   837c1:	38 a0 08                	b.ori      r5,r0,0x10
   837c4:	04 c7                   	b.mov      r6,r7
   837c6:	00 8f                   	b.movi     r4,-0x1
   837c8:	2c 86 20                	b.sw       0x4(r6),r4
   837cb:	00 bf                   	b.addi     r5,r5,-0x1
   837cd:	2c 86 00                	b.sw       0x0(r6),r4
   837d0:	30 c6 30                	b.addi     r6,r6,0xc
   837d3:	41 05 af                	b.bnei     r5,0x0,837c8 <vInitCoordRtrStateVect+0xcf>
   837d6:	8c 80 65 d0 00 20       	b.lwz      r4,0x4000ba4(r0)
   837dc:	38 a0 08                	b.ori      r5,r0,0x10
   837df:	04 c4                   	b.mov      r6,r4
   837e1:	00 6c                   	b.movi     r3,0x3
   837e3:	20 66 90                	b.sb       0x9(r6),r3
   837e6:	00 bf                   	b.addi     r5,r5,-0x1
   837e8:	20 06 10                	b.sb       0x8(r6),r0
   837eb:	20 06 50                	b.sb       0xa(r6),r0
   837ee:	28 06 30                	b.sh       0xc(r6),r0
   837f1:	28 06 70                	b.sh       0xe(r6),r0
   837f4:	28 06 08                	b.sh       0x10(r6),r0
   837f7:	20 06 48                	b.sb       0x12(r6),r0
   837fa:	30 c6 04                	b.addi     r6,r6,0x20
   837fd:	41 05 67                	b.bnei     r5,0x0,837e3 <vInitCoordRtrStateVect+0xea>
   83800:	8c c0 40 f0 00 20       	b.lwz      r6,0x4000f00(r0)
   83806:	00 a4                   	b.movi     r5,0x2
   83808:	c0 a6 40 80             	b.sb       0x102(r6),r5
   8380c:	00 ac                   	b.movi     r5,0x3
   8380e:	c0 a6 c0 80             	b.sb       0x103(r6),r5
   83812:	00 a2                   	b.movi     r5,0x4
   83814:	c0 a6 20 80             	b.sb       0x104(r6),r5
   83818:	00 aa                   	b.movi     r5,0x5
   8381a:	c0 a6 a0 80             	b.sb       0x105(r6),r5
   8381e:	00 a6                   	b.movi     r5,0x6
   83820:	c0 06 00 80             	b.sb       0x100(r6),r0
   83824:	01 48                   	b.movi     r10,0x1
   83826:	c0 a6 60 80             	b.sb       0x106(r6),r5
   8382a:	00 ae                   	b.movi     r5,0x7
   8382c:	c1 46 80 80             	b.sb       0x101(r6),r10
   83830:	d8 67 fb 00             	b.addi     r3,r7,0xdf
   83834:	c0 a6 e0 80             	b.sb       0x107(r6),r5
   83838:	00 cf                   	b.movi     r6,-0x1
   8383a:	c0 04 84 40             	b.sb       0x221(r4),r0
   8383e:	00 a6                   	b.movi     r5,0x6
   83840:	20 c7 2f                	b.sb       0xf4(r7),r6
   83843:	00 80                   	b.movi     r4,0x0
   83845:	20 07 6b                	b.sb       0xd6(r7),r0
   83848:	21 47 1b                	b.sb       0xd8(r7),r10
   8384b:	49 2d e2                	b.jal      9571d <memset>
   8384e:	8c e0 40 f0 00 20       	b.lwz      r7,0x4000f00(r0)
   83854:	8c a0 69 60 00 20       	b.lwz      r5,0x4000694(r0)
   8385a:	c1 47 88 80             	b.sb       0x111(r7),r10
   8385e:	24 85 0c                	b.lbz      r4,0x30(r5)
   83861:	8c c0 60 f0 00 20       	b.lwz      r6,0x4000f04(r0)
   83867:	20 86 8b                	b.sb       0xd1(r6),r4
   8386a:	2c 85 60                	b.lwz      r4,0x4(r5)
   8386d:	cc 86 0e 80             	b.sw       0x170(r6),r4
   83871:	2c 85 50                	b.lwz      r4,0x8(r5)
   83874:	3e 04 24                	b.ff1      r4,r4
   83877:	60 80 25                	b.sub      r4,r0,r4
   8387a:	6c 84 f9                	b.srli     r4,r4,0x1f
   8387d:	20 86 3b                	b.sb       0xdc(r6),r4
   83880:	2c 85 70                	b.lwz      r4,0xc(r5)
   83883:	3e 04 24                	b.ff1      r4,r4
   83886:	60 80 25                	b.sub      r4,r0,r4
   83889:	6c 84 f9                	b.srli     r4,r4,0x1f
   8388c:	20 86 bb                	b.sb       0xdd(r6),r4
   8388f:	24 a5 4c                	b.lbz      r5,0x32(r5)
   83892:	c0 a6 e6 80             	b.sb       0x167(r6),r5
   83896:	c8 07 48 80             	b.sh       0x112(r7),r0
   8389a:	c0 07 28 80             	b.sb       0x114(r7),r0
   8389e:	c1 47 a8 80             	b.sb       0x115(r7),r10
   838a2:	c8 07 68 80             	b.sh       0x116(r7),r0
   838a6:	c0 07 18 80             	b.sb       0x118(r7),r0
   838aa:	c0 07 98 80             	b.sb       0x119(r7),r0
   838ae:	47 b4 00                	b.reti     0x2,0x0

000838b1 <vAHI_WakeTimerEnable.part.0.24805.constprop.86>:
   838b1:	00 c8                   	b.movi     r6,0x1
   838b3:	30 e3 58                	b.addi     r7,r3,0x1a
   838b6:	60 66 1e                	b.sll      r3,r6,r3
   838b9:	60 e6 3e                	b.sll      r7,r6,r7
   838bc:	34 63 ff                	b.andi     r3,r3,0xff
   838bf:	cc b0 78 09             	b.lwz      r5,-0x6fe4(r16)
   838c3:	60 c3 1b                	b.nand     r6,r3,r3
   838c6:	60 c5 30                	b.and      r6,r5,r6
   838c9:	cc d0 38 09             	b.sw       -0x6fe4(r16),r6
   838cd:	cc d0 44 09             	b.lwz      r6,-0x6fe0(r16)
   838d1:	60 c6 18                	b.and      r6,r6,r3
   838d4:	41 06 9f                	b.bnei     r6,0x0,838cd <vAHI_WakeTimerEnable.part.0.24805.constprop.86+0x1c>
   838d7:	cc f0 08 09             	b.sw       -0x6ff0(r16),r7
   838db:	cc d0 48 09             	b.lwz      r6,-0x6ff0(r16)
   838df:	60 c6 38                	b.and      r6,r6,r7
   838e2:	41 06 9f                	b.bnei     r6,0x0,838db <vAHI_WakeTimerEnable.part.0.24805.constprop.86+0x2a>
   838e5:	cc b0 70 09             	b.lwz      r5,-0x6ff4(r16)
   838e9:	60 c7 3b                	b.nand     r6,r7,r7
   838ec:	60 c5 30                	b.and      r6,r5,r6
   838ef:	60 e6 39                	b.or       r7,r6,r7
   838f2:	cc f0 30 09             	b.sw       -0x6ff4(r16),r7
   838f6:	47 d2 48                	b.jr       r9

000838f9 <vAHI_TimerEnable.part.1.24372.constprop.83>:
   838f9:	d8 e0 00 02             	b.addi     r7,r0,0x4000
   838fd:	40 03 e4                	b.beqi     r3,0x0,83924 <vAHI_TimerEnable.part.1.24372.constprop.83+0x2b>
   83900:	98 e0 00 00 00 08       	b.ori      r7,r0,0x10000000
   83906:	40 83 78                	b.beqi     r3,0x1,83924 <vAHI_TimerEnable.part.1.24372.constprop.83+0x2b>
   83909:	98 e0 00 00 00 04       	b.ori      r7,r0,0x20000000
   8390f:	40 43 a8                	b.beqi     r3,0x2,83924 <vAHI_TimerEnable.part.1.24372.constprop.83+0x2b>
   83912:	98 e0 00 00 00 02       	b.ori      r7,r0,0x40000000
   83918:	98 c0 00 00 08 00       	b.ori      r6,r0,0x100000
   8391e:	3c 23 c0                	b.sfnei    r3,0x3
   83921:	64 e6 3a                	b.cmov     r7,r6,r7
   83924:	cc d0 40 01             	b.lwz      r6,-0x8000(r16)
   83928:	60 e7 31                	b.or       r7,r7,r6
   8392b:	cc f0 00 01             	b.sw       -0x8000(r16),r7
   8392f:	cc f0 40 01             	b.lwz      r7,-0x8000(r16)
   83933:	6c e3 40                	b.slli     r7,r3,0x2
   83936:	90 e7 36 80 10 00       	b.addi     r7,r7,0x8016c
   8393c:	00 a0                   	b.movi     r5,0x0
   8393e:	2c e7 40                	b.lwz      r7,0x0(r7)
   83941:	30 c7 30                	b.addi     r6,r7,0xc
   83944:	2c a6 00                	b.sw       0x0(r6),r5
   83947:	00 ac                   	b.movi     r5,0x3
   83949:	30 c7 28                	b.addi     r6,r7,0x14
   8394c:	2c a6 00                	b.sw       0x0(r6),r5
   8394f:	00 a8                   	b.movi     r5,0x1
   83951:	30 c7 18                	b.addi     r6,r7,0x18
   83954:	2c a6 00                	b.sw       0x0(r6),r5
   83957:	38 c0 50                	b.ori      r6,r0,0xa
   8395a:	30 e7 08                	b.addi     r7,r7,0x10
   8395d:	2c c7 00                	b.sw       0x0(r7),r6
   83960:	6c 63 80                	b.slli     r3,r3,0x1
   83963:	90 63 0e e0 00 20       	b.addi     r3,r3,0x4000770
   83969:	d8 e0 00 40             	b.addi     r7,r0,0x200
   8396d:	28 e3 00                	b.sh       0x0(r3),r7
   83970:	47 d2 48                	b.jr       r9

00083973 <vStartTimer.part.0.24360.constprop.79>:
   83973:	6c 63 40                	b.slli     r3,r3,0x2
   83976:	90 63 36 80 10 00       	b.addi     r3,r3,0x8016c
   8397c:	38 a0 72                	b.ori      r5,r0,0x4e
   8397f:	2c e3 40                	b.lwz      r7,0x0(r3)
   83982:	30 c7 20                	b.addi     r6,r7,0x4
   83985:	2c a6 00                	b.sw       0x0(r6),r5
   83988:	38 a0 39                	b.ori      r5,r0,0x9c
   8398b:	30 c7 10                	b.addi     r6,r7,0x8
   8398e:	2c a6 00                	b.sw       0x0(r6),r5
   83991:	38 84 84                	b.ori      r4,r4,0x21
   83994:	30 e7 30                	b.addi     r7,r7,0xc
   83997:	3e 04 22                	b.exthz    r4,r4
   8399a:	2c 87 00                	b.sw       0x0(r7),r4
   8399d:	47 d2 48                	b.jr       r9

000839a0 <vAHI_TimerDIOControl.constprop.76>:
   839a0:	00 e0                   	b.movi     r7,0x0
   839a2:	d1 c8 3b 00             	b.bgtui    r3,0x4,839af <vAHI_TimerDIOControl.constprop.76+0xf>
   839a6:	90 63 01 80 10 00       	b.addi     r3,r3,0x80180
   839ac:	24 e3 00                	b.lbz      r7,0x0(r3)
   839af:	cc d0 7b 01             	b.lwz      r6,-0x7f24(r16)
   839b3:	60 e6 39                	b.or       r7,r6,r7
   839b6:	3e 07 38                	b.extbz    r7,r7
   839b9:	cc f0 3b 01             	b.sw       -0x7f24(r16),r7
   839bd:	47 d2 48                	b.jr       r9

000839c0 <vMiniMac_MLME_SetReq_PanId>:
   839c0:	84 c0 43 30 00 20       	b.lbz      r6,0x4000cc2(r0)
   839c6:	98 e3 00 00 80 00       	b.ori      r7,r3,0x10000
   839cc:	3c 26 00                	b.sfnei    r6,0x0
   839cf:	88 60 2c 30 00 20       	b.sh       0x4000c34(r0),r3
   839d5:	64 67 1a                	b.cmov     r3,r7,r3
   839d8:	cc 70 13 69             	b.sw       -0x6938(r16),r3
   839dc:	88 e0 ec 30 00 20       	b.lhz      r7,0x4000c36(r0)
   839e2:	cc f0 33 69             	b.sw       -0x6934(r16),r7
   839e6:	8c e0 61 60 00 20       	b.lwz      r7,0x4000684(r0)
   839ec:	cc f0 0b 69             	b.sw       -0x6930(r16),r7
   839f0:	8c e0 51 60 00 20       	b.lwz      r7,0x4000688(r0)
   839f6:	cc f0 2b 69             	b.sw       -0x692c(r16),r7
   839fa:	47 d2 48                	b.jr       r9

000839fd <vMiniMac_MLME_SetReq_ShortAddr>:
   839fd:	88 60 6c 30 00 20       	b.sh       0x4000c36(r0),r3
   83a03:	88 60 ac 30 00 20       	b.lhz      r3,0x4000c34(r0)
   83a09:	0f b7                   	b.j        839c0 <vMiniMac_MLME_SetReq_PanId>

00083a0b <bJnc_SetJoinProfile.constprop.74>:
   83a0b:	04 a3                   	b.mov      r5,r3
   83a0d:	00 60                   	b.movi     r3,0x0
   83a0f:	3c a5 90                	b.sfgtui   r5,0x9
   83a12:	47 24 20                	b.bf       83a54 <bJnc_SetJoinProfile.constprop.74+0x49>
   83a15:	6c c5 20                	b.slli     r6,r5,0x4
   83a18:	90 c6 39 00 00 20       	b.addi     r6,r6,0x400009c
   83a1e:	00 68                   	b.movi     r3,0x1
   83a20:	8c e0 41 60 00 20       	b.lwz      r7,0x4000680(r0)
   83a26:	24 86 60                	b.lbz      r4,0x6(r6)
   83a29:	20 87 60                	b.sb       0x6(r7),r4
   83a2c:	28 86 90                	b.lhz      r4,0x8(r6)
   83a2f:	28 87 10                	b.sh       0x8(r7),r4
   83a32:	28 86 d0                	b.lhz      r4,0xa(r6)
   83a35:	28 87 50                	b.sh       0xa(r7),r4
   83a38:	28 86 b0                	b.lhz      r4,0xc(r6)
   83a3b:	28 c6 f0                	b.lhz      r6,0xe(r6)
   83a3e:	28 87 30                	b.sh       0xc(r7),r4
   83a41:	28 c7 70                	b.sh       0xe(r7),r6
   83a44:	8c e0 40 f0 00 20       	b.lwz      r7,0x4000f00(r0)
   83a4a:	80 a0 6a 30 00 20       	b.sb       0x4000c56(r0),r5
   83a50:	c0 a7 2a 80             	b.sb       0x154(r7),r5
   83a54:	47 d2 48                	b.jr       r9

00083a57 <bJnc_SetRunProfile.constprop.65>:
   83a57:	47 a4 00                	b.entri    0x2,0x0
   83a5a:	04 a3                   	b.mov      r5,r3
   83a5c:	00 60                   	b.movi     r3,0x0
   83a5e:	3c a5 90                	b.sfgtui   r5,0x9
   83a61:	47 2c 60                	b.bf       83ac4 <bJnc_SetRunProfile.constprop.65+0x6d>
   83a64:	6c c5 20                	b.slli     r6,r5,0x4
   83a67:	90 c6 39 00 00 20       	b.addi     r6,r6,0x400009c
   83a6d:	8c e0 41 60 00 20       	b.lwz      r7,0x4000680(r0)
   83a73:	24 86 00                	b.lbz      r4,0x0(r6)
   83a76:	20 87 00                	b.sb       0x0(r7),r4
   83a79:	24 86 80                	b.lbz      r4,0x1(r6)
   83a7c:	20 87 80                	b.sb       0x1(r7),r4
   83a7f:	24 86 40                	b.lbz      r4,0x2(r6)
   83a82:	20 87 40                	b.sb       0x2(r7),r4
   83a85:	24 86 c0                	b.lbz      r4,0x3(r6)
   83a88:	28 c6 a0                	b.lhz      r6,0x4(r6)
   83a8b:	20 87 c0                	b.sb       0x3(r7),r4
   83a8e:	28 c7 20                	b.sh       0x4(r7),r6
   83a91:	8c c0 40 f0 00 20       	b.lwz      r6,0x4000f00(r0)
   83a97:	c0 a6 aa 80             	b.sb       0x155(r6),r5
   83a9b:	24 c7 00                	b.lbz      r6,0x0(r7)
   83a9e:	3c e6 08                	b.sfleui   r6,0x10
